

Microchip MPLAB XC8 Assembler V2.05 build -831301201 
                                                                                               Wed Mar  6 18:01:57 2019

Microchip MPLAB XC8 C Compiler v2.05 (Free license) build 20181220022703 Og9 
     1                           	processor	18F57K42
     2                           	fnconf	param0,??,?,0
     3                           	opt	pw 120
     4                           	opt	flic
     5                           	psect	idataCOMRAM,global,class=CODE,delta=1,noexec
     6                           	psect	idataBANK0,global,class=CODE,delta=1,noexec
     7                           	psect	smallconst,global,reloc=2,class=SMALLCONST,delta=1,noexec
     8                           	psect	cinit,global,reloc=2,class=CODE,delta=1
     9                           	psect	bssCOMRAM,global,class=COMRAM,space=1,delta=1,noexec
    10                           	psect	dataCOMRAM,global,class=COMRAM,space=1,delta=1,noexec
    11                           	psect	bssBANK0,global,class=BANK0,space=1,delta=1,lowdata,noexec
    12                           	psect	dataBANK0,global,class=BANK0,space=1,delta=1,lowdata,noexec
    13                           	psect	bssBANK1,global,class=BANK1,space=1,delta=1,lowdata,noexec
    14                           	psect	bssBANK2,global,class=BANK2,space=1,delta=1,lowdata,noexec
    15                           	psect	cstackBANK0,global,class=BANK0,space=1,delta=1,noexec
    16                           	psect	cstackCOMRAM,global,class=COMRAM,space=1,delta=1,noexec
    17                           	psect	text0,global,reloc=2,class=CODE,delta=1
    18                           	psect	text1,global,reloc=2,class=CODE,delta=1
    19                           	psect	text2,global,reloc=2,class=CODE,delta=1
    20                           	psect	text3,global,reloc=2,class=CODE,delta=1
    21                           	psect	text4,global,reloc=2,class=CODE,delta=1,group=2
    22                           	psect	text5,global,reloc=2,class=CODE,delta=1
    23                           	psect	text6,global,reloc=2,class=CODE,delta=1
    24                           	psect	text7,global,reloc=2,class=CODE,delta=1
    25                           	psect	text8,global,reloc=2,class=CODE,delta=1
    26                           	psect	text9,global,reloc=2,class=CODE,delta=1
    27                           	psect	text10,global,reloc=2,class=CODE,delta=1,inline
    28                           	psect	text11,global,reloc=2,class=CODE,delta=1,inline
    29                           	psect	text12,global,reloc=2,class=CODE,delta=1
    30                           	psect	text13,global,reloc=2,class=CODE,delta=1
    31                           	psect	text14,global,reloc=2,class=CODE,delta=1
    32                           	psect	text15,global,reloc=2,class=CODE,delta=1
    33                           	psect	text16,global,reloc=2,class=CODE,delta=1
    34                           	psect	text17,global,reloc=2,class=CODE,delta=1
    35                           	psect	text18,global,reloc=2,class=CODE,delta=1
    36                           	psect	text19,global,reloc=2,class=CODE,delta=1
    37                           	psect	text20,global,reloc=2,class=CODE,delta=1
    38                           	psect	text21,global,reloc=2,class=CODE,delta=1
    39                           	psect	text22,global,reloc=2,class=CODE,delta=1,group=2
    40                           	psect	text23,global,reloc=2,class=CODE,delta=1,group=2
    41                           	psect	text24,global,reloc=2,class=CODE,delta=1
    42                           	psect	text25,global,reloc=2,class=CODE,delta=1
    43                           	psect	text26,global,reloc=2,class=CODE,delta=1
    44                           	psect	text27,global,reloc=2,class=CODE,delta=1,group=2
    45                           	psect	text28,global,reloc=2,class=CODE,delta=1,group=2
    46                           	psect	text29,global,reloc=2,class=CODE,delta=1,group=2
    47                           	psect	text30,global,reloc=2,class=CODE,delta=1,group=2
    48                           	psect	text31,global,reloc=2,class=CODE,delta=1
    49                           	psect	text32,global,reloc=2,class=CODE,delta=1
    50                           	psect	text33,global,reloc=2,class=CODE,delta=1
    51                           	psect	text34,global,reloc=2,class=CODE,delta=1,group=2
    52                           	psect	text35,global,reloc=2,class=CODE,delta=1,group=2
    53                           	psect	text36,global,reloc=2,class=CODE,delta=1,group=2
    54                           	psect	text37,global,reloc=2,class=CODE,delta=1
    55                           	psect	text38,global,reloc=2,class=CODE,delta=1
    56                           	psect	text39,global,reloc=2,class=CODE,delta=1,group=2
    57                           	psect	text40,global,reloc=2,class=CODE,delta=1,group=1
    58                           	psect	text41,global,reloc=2,class=CODE,delta=1,group=1
    59                           	psect	text42,global,reloc=2,class=CODE,delta=1,group=2
    60                           	psect	text43,global,reloc=2,class=CODE,delta=1,group=2
    61                           	psect	text44,global,reloc=2,class=CODE,delta=1,group=2
    62                           	psect	text45,global,reloc=2,class=CODE,delta=1
    63                           	psect	text46,global,reloc=2,class=CODE,delta=1
    64                           	psect	text47,global,reloc=2,class=CODE,delta=1
    65                           	psect	text48,global,reloc=2,class=CODE,delta=1
    66                           	psect	text49,global,reloc=2,class=CODE,delta=1
    67                           	psect	text50,global,reloc=2,class=CODE,delta=1
    68                           	psect	text51,global,reloc=2,class=CODE,delta=1
    69                           	psect	text52,global,reloc=2,class=CODE,delta=1
    70                           	psect	text53,global,reloc=2,class=CODE,delta=1
    71                           	psect	text54,global,reloc=2,class=CODE,delta=1
    72                           	psect	text55,global,reloc=2,class=CODE,delta=1
    73                           	psect	text56,global,reloc=2,class=CODE,delta=1
    74                           	psect	text57,global,reloc=2,class=CODE,delta=1
    75                           	psect	text58,global,reloc=2,class=CODE,delta=1
    76                           	psect	text59,global,reloc=2,class=CODE,delta=1
    77                           	psect	text60,global,reloc=2,class=CODE,delta=1
    78                           	psect	text61,global,reloc=2,class=CODE,delta=1
    79                           	psect	text62,global,reloc=2,class=CODE,delta=1
    80                           	psect	text63,global,reloc=2,class=CODE,delta=1
    81                           	psect	text64,global,reloc=2,class=CODE,delta=1
    82                           	psect	text65,global,reloc=2,class=CODE,delta=1
    83                           	psect	text66,global,reloc=2,class=CODE,delta=1
    84                           	psect	text67,global,reloc=2,class=CODE,delta=1
    85                           	psect	text68,global,reloc=2,class=CODE,delta=1
    86                           	psect	text69,global,reloc=2,class=CODE,delta=1
    87                           	psect	text70,global,reloc=2,class=CODE,delta=1
    88                           	psect	text71,global,reloc=4,class=CODE,delta=1
    89                           	psect	text72,global,reloc=2,class=CODE,delta=1
    90                           	psect	text73,global,reloc=2,class=CODE,delta=1
    91                           	psect	text74,global,reloc=4,class=CODE,delta=1
    92                           	psect	text75,global,reloc=2,class=CODE,delta=1
    93                           	psect	text76,global,reloc=2,class=CODE,delta=1
    94                           	psect	text77,global,reloc=4,class=CODE,delta=1
    95                           	psect	text78,global,reloc=2,class=CODE,delta=1
    96                           	psect	text79,global,reloc=2,class=CODE,delta=1
    97                           	psect	text80,global,reloc=4,class=CODE,delta=1
    98                           	psect	text81,global,reloc=4,class=CODE,delta=1
    99                           	psect	text82,global,reloc=2,class=CODE,delta=1
   100                           	psect	text83,global,reloc=4,class=CODE,delta=1
   101                           	psect	text84,global,reloc=2,class=CODE,delta=1
   102                           	psect	text85,global,reloc=4,class=CODE,delta=1
   103                           	psect	text86,global,reloc=2,class=CODE,delta=1
   104                           	psect	text87,global,reloc=4,class=CODE,delta=1
   105                           	psect	text88,global,reloc=2,class=CODE,delta=1
   106                           	psect	text89,global,reloc=4,class=CODE,delta=1
   107                           	psect	text90,global,reloc=2,class=CODE,delta=1
   108                           	psect	text91,global,reloc=4,class=CODE,delta=1
   109                           	psect	text92,global,reloc=2,class=CODE,delta=1
   110                           	psect	text93,global,reloc=2,class=CODE,delta=1
   111                           	psect	text94,global,reloc=4,class=CODE,delta=1
   112                           	psect	text95,global,reloc=4,class=CODE,delta=1
   113                           	psect	text96,global,reloc=4,class=CODE,delta=1
   114                           	psect	text97,global,reloc=4,class=CODE,delta=1
   115                           	psect	ivt0x8,global,reloc=2,class=CODE,delta=1,noexec,keep,optim=
   116                           	psect	intsave_regs,global,class=BIGRAM,space=1,delta=1,noexec
   117                           	psect	text98,global,reloc=4,class=CODE,delta=1
   118                           	psect	param0,global,class=BANK0,space=1,delta=1,noexec
   119                           	psect	temp,global,ovrld,common,class=COMRAM,space=1,delta=1
   120  0000                     
   121                           ; Version 2.05
   122                           ; Generated 20/12/2018 GMT
   123                           ; 
   124                           ; Copyright © 2018, Microchip Technology Inc. and its subsidiaries ("Microchip")
   125                           ; All rights reserved.
   126                           ; 
   127                           ; This software is developed by Microchip Technology Inc. and its subsidiaries ("Microch
      +                          ip").
   128                           ; 
   129                           ; Redistribution and use in source and binary forms, with or without modification, are
   130                           ; permitted provided that the following conditions are met:
   131                           ; 
   132                           ;     1. Redistributions of source code must retain the above copyright notice, this lis
      +                          t of
   133                           ;        conditions and the following disclaimer.
   134                           ; 
   135                           ;     2. Redistributions in binary form must reproduce the above copyright notice, this 
      +                          list
   136                           ;        of conditions and the following disclaimer in the documentation and/or other
   137                           ;        materials provided with the distribution.
   138                           ; 
   139                           ;     3. Microchip's name may not be used to endorse or promote products derived from th
      +                          is
   140                           ;        software without specific prior written permission.
   141                           ; 
   142                           ; THIS SOFTWARE IS PROVIDED BY MICROCHIP "AS IS" AND ANY EXPRESS OR IMPLIED WARRANTIES,
   143                           ; INCLUDING, BUT NOT LIMITED TO, THE IMPLIED WARRANTIES OF MERCHANTABILITY AND FITNESS F
      +                          OR
   144                           ; PURPOSE ARE DISCLAIMED.  IN NO EVENT SHALL MICROCHIP BE LIABLE FOR ANY DIRECT, INDIREC
      +                          T,
   145                           ; INCIDENTAL, SPECIAL, EXEMPLARY, OR CONSEQUENTIAL DAMAGES (INCLUDING BUT NOT LIMITED TO
   146                           ; PROCUREMENT OF SUBSTITUTE GOODS OR SERVICES; LOSS OF USE, DATA OR PROFITS; OR BUSINESS
   147                           ; INTERRUPTION) HOWSOEVER CAUSED AND ON ANY THEORY OF LIABILITY, WHETHER IN CONTRACT, ST
      +                          RICT
   148                           ; LIABILITY, OR TORT (INCLUDING NEGLIGENCE OR OTHERWISE) ARISING IN ANY WAY OUT OF THE U
      +                          SE OF
   149                           ; THIS SOFTWARE, EVEN IF ADVISED OF THE POSSIBILITY OF SUCH DAMAGE.
   150                           ; 
   151                           ; 
   152                           ; Code-generator required, PIC18F57K42 Definitions
   153                           ; 
   154                           ; SFR Addresses
   155  0000                     
   156 ;;_sum	offset	0
   157 ;;_j	offset	2
   158 ;;_mode	offset	3
   159 ;;_rxData	offset	0
   160 ;;_t_link	offset=-1 (param)
   161 ;;_f	offset	0
   162 ;;_ap	offset	5
   163 ;;_s	offset=-2 (param)
   164 ;;_fmt	offset=-3 (param)
   165 ;;_rxData	offset	0
   166 ;;_r_link	offset=-1 (param)
   167 ;;_byte_block	offset=-1 (param)
   168 ;;_clear	offset=-2 (param)
   169 ;;_txData	offset=-1 (param)
   170 ;;_readValue	offset	0
   171 ;;_timer	offset=-1 (param)
   172 ;;_timer	offset=-1 (param)
   173 ;;_count	offset=-3 (param)
   174 ;;_cmd	offset=-1 (param)
   175 ;;_cmd	offset=-1 (param)
   176 ;;_delay	offset=-4 (param)
   177 ;;_data	offset=-1 (param)
   178 ;;__this	offset=-2 (param)
   179 ;;_strPtr	offset=-1 (param)
   180 ;;__this	offset=-2 (param)
   181 ;;_clearBuffer	offset=-3 (param)
   182 ;;_s	offset	0
   183 ;;_k	offset	2
   184 ;;_dest	offset=-2 (param)
   185 ;;_c	offset=-4 (param)
   186 ;;_n	offset=-6 (param)
   187 ;;_ap	offset	0
   188 ;;_fmt	offset=-2 (param)
   189 ;;_cfmt	offset	0
   190 ;;_fp	offset=-2 (param)
   191 ;;_fmt	offset=-3 (param)
   192 ;;_ap	offset=-5 (param)
   193 ;;_vfpfcnvrt$3405	offset	0
   194 ;;_llu	offset	2
   195 ;;_ll	offset	10
   196 ;;_done	offset	18
   197 ;;_cp	offset	20
   198 ;;_c	offset	22
   199 ;;_fp	offset=-2 (param)
   200 ;;_fmt	offset=-4 (param)
   201 ;;_ap	offset=-6 (param)
   202 ;;_xtoa$3391	offset	0
   203 ;;_xtoa$3390	offset	2
   204 ;;_n	offset	4
   205 ;;_c	offset	12
   206 ;;_i	offset	14
   207 ;;_w	offset	16
   208 ;;_p	offset	18
   209 ;;_fp	offset=-2 (param)
   210 ;;_d	offset=-10 (param)
   211 ;;_x	offset=-11 (param)
   212 ;;_toupper$3979	offset	0
   213 ;;_c	offset=-2 (param)
   214 ;;_c	offset=-2 (param)
   215 ;;_c	offset=-2 (param)
   216 ;;_c	offset=-2 (param)
   217 ;;_nuls	offset	0
   218 ;;_l	offset	7
   219 ;;_p	offset	9
   220 ;;_cp	offset	11
   221 ;;_w	offset	13
   222 ;;_i	offset	15
   223 ;;_fp	offset=-2 (param)
   224 ;;_s	offset=-4 (param)
   225 ;;_dtoa$3369	offset	0
   226 ;;_n	offset	2
   227 ;;_i	offset	10
   228 ;;_s	offset	12
   229 ;;_w	offset	14
   230 ;;_p	offset	16
   231 ;;_fp	offset=-2 (param)
   232 ;;_d	offset=-10 (param)
   233 ;;_w	offset	0
   234 ;;_i	offset	2
   235 ;;_fp	offset=-2 (param)
   236 ;;_buf	offset=-4 (param)
   237 ;;_p	offset=-6 (param)
   238 ;;_a	offset	0
   239 ;;_s	offset=-2 (param)
   240 ;;_i	offset	0
   241 ;;_c	offset	2
   242 ;;_s	offset=-2 (param)
   243 ;;_fp	offset=-4 (param)
   244 ;;_c	offset=-2 (param)
   245 ;;_fp	offset=-4 (param)
   246 ;;_c	offset=-1 (param)
   247 ;;__this	offset=-2 (param)
   248 ;;_c	offset=-3 (param)
   249 ;;_a	offset=-2 (param)
   250 ;;_sign	offset	0
   251 ;;_counter	offset	1
   252 ;;_dividend	offset=-8 (param)
   253 ;;_divisor	offset=-16 (param)
   254 ;;_quotient	offset	0
   255 ;;_sign	offset	8
   256 ;;_counter	offset	9
   257 ;;_dividend	offset=-8 (param)
   258 ;;_divisor	offset=-16 (param)
   259 ;;_atoi$3866	offset	0
   260 ;;_atoi$3864	offset	2
   261 ;;_atoi$3865	offset	4
   262 ;;_n	offset	5
   263 ;;_neg	offset	7
   264 ;;_s	offset=-1 (param)
   265 ;;_isspace$3891	offset	0
   266 ;;_c	offset=-2 (param)
   267 ;;_c	offset=-2 (param)
   268 ;;_i	offset	0
   269 ;;_sum	offset	2
   270 ;;_byte_block	offset=-1 (param)
   271 ;;_byte_count	offset=-3 (param)
   272 ;;_InterruptHandler	offset=-3 (param)
   273 ;;_InterruptHandler	offset=-3 (param)
   274 ;;_InterruptHandler	offset=-3 (param)
   275 ;;_InterruptHandler	offset=-3 (param)
   276 ;;_InterruptHandler	offset=-3 (param)
   277 ;;_state	offset	0
   278 ;;_InterruptHandler	offset=-3 (param)
   279 ;;_InterruptHandler	offset=-3 (param)
   280 ;;_InterruptHandler	offset=-3 (param)
   281 ;;_InterruptHandler	offset=-3 (param)
   282 ;;_i	offset	0
   283                           
   284                           	psect	idataCOMRAM
   285  005736                     __pidataCOMRAM:
   286                           	opt callstack 0
   287                           
   288                           ;initializer for stoa@F1139
   289  005736  28                 	db	40
   290  005737  6E                 	db	110
   291  005738  75                 	db	117
   292  005739  6C                 	db	108
   293  00573A  6C                 	db	108
   294  00573B  29                 	db	41
   295  00573C  00                 	db	0
   296                           
   297                           	psect	idataBANK0
   298  0053E6                     __pidataBANK0:
   299                           	opt callstack 0
   300                           
   301                           ;initializer for _H10
   302  0053E6  0000               	dw	0
   303  0053E8  0001               	dw	1
   304  0053EA  0000               	dw	0
   305  0053EC  01                 	db	1
   306  0053ED  80                 	db	128
   307  0053EE  01                 	db	1
   308  0053EF  81                 	db	129
   309  0053F0  00                 	db	0
   310  0053F1  00                 	db	0
   311  0053F2  0A                 	db	10
   312  0053F3  0000               	dw	0
   313  0053F5  00                 	db	0
   314  0053F6  00                 	db	0
   315  0053F7  00                 	db	0
   316  0053F8  00                 	db	0
   317  0053F9  00                 	db	0
   318  0053FA  00                 	db	0
   319  0053FB  00                 	db	0
   320  0053FC  00                 	db	0
   321  0053FD  00                 	db	0
   322  0053FE  00                 	db	0
   323  0053FF  0A                 	db	10
   324  005400  0000               	dw	0
   325  005402  0001               	dw	1
   326  005404  0000               	dw	0
   327  005406  01                 	db	1
   328  005407  80                 	db	128
   329  005408  00                 	db	0
   330  005409  01                 	db	1
   331  00540A  00                 	db	0
   332  00540B  00                 	db	0
   333  00540C  0A                 	db	10
   334  0000                     _IVTADL	set	14493
   335  0000                     _IVTADH	set	14494
   336  0000                     _IVTADU	set	14495
   337  0000                     _SCANPR	set	14839
   338  0000                     _DMA2PR	set	14836
   339  0000                     _DMA1PR	set	14835
   340  0000                     _MAINPR	set	14834
   341  0000                     _ISRPR	set	14833
   342  0000                     _PIE2bits	set	14738
   343  0000                     _PIR2bits	set	14754
   344  0000                     _PIE9bits	set	14745
   345  0000                     _PIR9bits	set	14761
   346  0000                     _PIE6bits	set	14742
   347  0000                     _PIE3bits	set	14739
   348  0000                     _PMD7	set	14791
   349  0000                     _PMD6	set	14790
   350  0000                     _PMD5	set	14789
   351  0000                     _PMD4	set	14788
   352  0000                     _PMD3	set	14787
   353  0000                     _PMD2	set	14786
   354  0000                     _PMD1	set	14785
   355  0000                     _PMD0	set	14784
   356  0000                     _OSCTUNE	set	14814
   357  0000                     _OSCFRQ	set	14815
   358  0000                     _OSCEN	set	14813
   359  0000                     _OSCCON3	set	14811
   360  0000                     _OSCCON1	set	14809
   361  0000                     _IPR9bits	set	14729
   362  0000                     _IPR7bits	set	14727
   363  0000                     _IPR5bits	set	14725
   364  0000                     _IPR1bits	set	14721
   365  0000                     _IPR3bits	set	14723
   366  0000                     _IPR6bits	set	14726
   367  0000                     _IPR2bits	set	14722
   368  0000                     _PIE7bits	set	14743
   369  0000                     _PIE5bits	set	14741
   370  0000                     _PIE1bits	set	14737
   371  0000                     _PIR7bits	set	14759
   372  0000                     _PIR5bits	set	14757
   373  0000                     _PIR1bits	set	14753
   374  0000                     _PLLR	set	118496
   375  0000                     _SPI1SDIPPS	set	15071
   376  0000                     _RC6PPS	set	14870
   377  0000                     _RC5PPS	set	14869
   378  0000                     _RA6PPS	set	14854
   379  0000                     _RA5PPS	set	14853
   380  0000                     _RA4PPS	set	14852
   381  0000                     _SPI1SCKPPS	set	15070
   382  0000                     _U1RXPPS	set	15077
   383  0000                     _INT1PPS	set	15041
   384  0000                     _INT2PPS	set	15042
   385  0000                     _INT0PPS	set	15040
   386  0000                     _RC3PPS	set	14867
   387  0000                     _RB6PPS	set	14862
   388  0000                     _U2RXPPS	set	15080
   389  0000                     _SLRCONF	set	14995
   390  0000                     _SLRCONE	set	14979
   391  0000                     _SLRCOND	set	14963
   392  0000                     _SLRCONC	set	14947
   393  0000                     _SLRCONB	set	14931
   394  0000                     _SLRCONA	set	14915
   395  0000                     _ODCOND	set	14962
   396  0000                     _ODCONC	set	14946
   397  0000                     _ODCONB	set	14930
   398  0000                     _ODCONA	set	14914
   399  0000                     _ODCONF	set	14994
   400  0000                     _ODCONE	set	14978
   401  0000                     _WPUC	set	14945
   402  0000                     _WPUA	set	14913
   403  0000                     _WPUB	set	14929
   404  0000                     _WPUE	set	14977
   405  0000                     _WPUF	set	14993
   406  0000                     _WPUD	set	14961
   407  0000                     _ANSELA	set	14912
   408  0000                     _ANSELF	set	14992
   409  0000                     _ANSELE	set	14976
   410  0000                     _ANSELB	set	14928
   411  0000                     _ANSELC	set	14944
   412  0000                     _ANSELD	set	14960
   413  0000                     _DMA1SSA	set	15353
   414  0000                     _DMA1DSZ	set	15342
   415  0000                     _DMA1SSZ	set	15351
   416  0000                     _DMA1DSA	set	15344
   417  0000                     _DMA1CON0bits	set	15356
   418  0000                     _DMA1CON1bits	set	15357
   419  0000                     _DMA1CON0	set	15356
   420  0000                     _DMA1AIRQ	set	15358
   421  0000                     _DMA1SIRQ	set	15359
   422  0000                     _DMA1CON1	set	15357
   423  0000                     _CLC1CON	set	15476
   424  0000                     _CLC1GLS3	set	15485
   425  0000                     _CLC1GLS2	set	15484
   426  0000                     _CLC1GLS1	set	15483
   427  0000                     _CLC1GLS0	set	15482
   428  0000                     _CLC1SEL3	set	15481
   429  0000                     _CLC1SEL2	set	15480
   430  0000                     _CLC1SEL1	set	15479
   431  0000                     _CLC1SEL0	set	15478
   432  0000                     _CLC1POL	set	15477
   433  0000                     _CLKRCON	set	15589
   434  0000                     _CLKRCLK	set	15590
   435  0000                     _MD1CARL	set	15613
   436  0000                     _MD1CARH	set	15614
   437  0000                     _MD1SRC	set	15612
   438  0000                     _MD1CON1bits	set	15611
   439  0000                     _MD1CON0bits	set	15610
   440  0000                     _SPI1INTFbits	set	15642
   441  0000                     _SPI1RXB	set	15632
   442  0000                     _SPI1TXB	set	15633
   443  0000                     _SPI1TCNTL	set	15634
   444  0000                     _SPI1CON0	set	15636
   445  0000                     _SPI1CLK	set	15644
   446  0000                     _SPI1BAUD	set	15641
   447  0000                     _SPI1CON2	set	15638
   448  0000                     _SPI1CON1	set	15637
   449  0000                     _U2RXB	set	15824
   450  0000                     _U2TXB	set	15826
   451  0000                     _U2ERRIE	set	15842
   452  0000                     _U2ERRIR	set	15841
   453  0000                     _U2UIR	set	15840
   454  0000                     _U2FIFO	set	15839
   455  0000                     _U2BRGH	set	15838
   456  0000                     _U2BRGL	set	15837
   457  0000                     _U2CON2	set	15836
   458  0000                     _U2CON1	set	15835
   459  0000                     _U2CON0	set	15834
   460  0000                     _U2P3L	set	15832
   461  0000                     _U2P2L	set	15830
   462  0000                     _U2P1L	set	15828
   463  0000                     _U1RXB	set	15848
   464  0000                     _U1TXB	set	15850
   465  0000                     _U1ERRIE	set	15866
   466  0000                     _U1ERRIR	set	15865
   467  0000                     _U1UIR	set	15864
   468  0000                     _U1FIFO	set	15863
   469  0000                     _U1BRGH	set	15862
   470  0000                     _U1BRGL	set	15861
   471  0000                     _U1CON2	set	15860
   472  0000                     _U1CON1	set	15859
   473  0000                     _U1CON0	set	15858
   474  0000                     _U1P3H	set	15857
   475  0000                     _U1P3L	set	15856
   476  0000                     _U1P2H	set	15855
   477  0000                     _U1P2L	set	15854
   478  0000                     _U1P1H	set	15853
   479  0000                     _U1P1L	set	15852
   480  0000                     _ADCON0	set	16120
   481  0000                     _ADCLK	set	16127
   482  0000                     _ADACT	set	16126
   483  0000                     _ADREF	set	16125
   484  0000                     _ADSTAT	set	16124
   485  0000                     _ADCON3	set	16123
   486  0000                     _ADCON2	set	16122
   487  0000                     _ADCON1	set	16121
   488  0000                     _ADPREH	set	16119
   489  0000                     _ADPREL	set	16118
   490  0000                     _ADCAP	set	16117
   491  0000                     _ADACQH	set	16116
   492  0000                     _ADACQL	set	16115
   493  0000                     _ADPCH	set	16113
   494  0000                     _ADRPT	set	16108
   495  0000                     _ADACCU	set	16106
   496  0000                     _ADSTPTH	set	16101
   497  0000                     _ADSTPTL	set	16100
   498  0000                     _ADUTHH	set	16097
   499  0000                     _ADUTHL	set	16096
   500  0000                     _ADLTHH	set	16095
   501  0000                     _ADLTHL	set	16094
   502  0000                     _NCO1CONbits	set	16190
   503  0000                     _NCO1INCL	set	16187
   504  0000                     _NCO1INCH	set	16188
   505  0000                     _NCO1INCU	set	16189
   506  0000                     _NCO1ACCL	set	16184
   507  0000                     _NCO1ACCH	set	16185
   508  0000                     _NCO1ACCU	set	16186
   509  0000                     _NCO1CLK	set	16191
   510  0000                     _NCO1CON	set	16190
   511  0000                     _LATCbits	set	16316
   512  0000                     _LATEbits	set	16318
   513  0000                     _T6CON	set	16276
   514  0000                     _T6TMR	set	16274
   515  0000                     _T6PR	set	16275
   516  0000                     _T6RST	set	16279
   517  0000                     _T6HLT	set	16277
   518  0000                     _T6CLKCON	set	16278
   519  0000                     _TRISD	set	16325
   520  0000                     _TRISC	set	16324
   521  0000                     _TRISB	set	16323
   522  0000                     _TRISA	set	16322
   523  0000                     _TRISF	set	16327
   524  0000                     _TRISE	set	16326
   525  0000                     _LATC	set	16316
   526  0000                     _LATB	set	16315
   527  0000                     _LATF	set	16319
   528  0000                     _LATA	set	16314
   529  0000                     _LATD	set	16317
   530  0000                     _LATE	set	16318
   531  0000                     _IVTLOCKbits	set	16340
   532  0000                     _IVTLOCK	set	16340
   533  0000                     _INTCON0bits	set	16338
   534  0000                     _GIE	set	130711
   535                           
   536                           	psect	smallconst
   537  002000                     __psmallconst:
   538                           	opt callstack 0
   539  002000  00                 	db	0
   540  002001                     STR_1:
   541                           
   542                           ; BSR set to: 57
   543  002001  4D                 	db	77	;'M'
   544  002002  20                 	db	32
   545  002003  25                 	db	37
   546  002004  64                 	db	100	;'d'
   547  002005  2C                 	db	44
   548  002006  20                 	db	32
   549  002007  48                 	db	72	;'H'
   550  002008  20                 	db	32
   551  002009  25                 	db	37
   552  00200A  30                 	db	48	;'0'
   553  00200B  32                 	db	50	;'2'
   554  00200C  78                 	db	120	;'x'
   555  00200D  25                 	db	37
   556  00200E  30                 	db	48	;'0'
   557  00200F  32                 	db	50	;'2'
   558  002010  78                 	db	120	;'x'
   559  002011  25                 	db	37
   560  002012  30                 	db	48	;'0'
   561  002013  32                 	db	50	;'2'
   562  002014  78                 	db	120	;'x'
   563  002015  25                 	db	37
   564  002016  30                 	db	48	;'0'
   565  002017  32                 	db	50	;'2'
   566  002018  78                 	db	120	;'x'
   567  002019  25                 	db	37
   568  00201A  30                 	db	48	;'0'
   569  00201B  32                 	db	50	;'2'
   570  00201C  78                 	db	120	;'x'
   571  00201D  25                 	db	37
   572  00201E  30                 	db	48	;'0'
   573  00201F  32                 	db	50	;'2'
   574  002020  78                 	db	120	;'x'
   575  002021  25                 	db	37
   576  002022  30                 	db	48	;'0'
   577  002023  32                 	db	50	;'2'
   578  002024  78                 	db	120	;'x'
   579  002025  25                 	db	37
   580  002026  30                 	db	48	;'0'
   581  002027  32                 	db	50	;'2'
   582  002028  78                 	db	120	;'x'
   583  002029  25                 	db	37
   584  00202A  30                 	db	48	;'0'
   585  00202B  32                 	db	50	;'2'
   586  00202C  78                 	db	120	;'x'
   587  00202D  25                 	db	37
   588  00202E  30                 	db	48	;'0'
   589  00202F  32                 	db	50	;'2'
   590  002030  78                 	db	120	;'x'
   591  002031  2C                 	db	44
   592  002032  20                 	db	32
   593  002033  43                 	db	67	;'C'
   594  002034  20                 	db	32
   595  002035  30                 	db	48	;'0'
   596  002036  78                 	db	120	;'x'
   597  002037  25                 	db	37
   598  002038  30                 	db	48	;'0'
   599  002039  34                 	db	52	;'4'
   600  00203A  78                 	db	120	;'x'
   601  00203B  20                 	db	32
   602  00203C  23                 	db	35
   603  00203D  00                 	db	0
   604  00203E                     STR_4:
   605                           
   606                           ; BSR set to: 57
   607  00203E  20                 	db	32
   608  00203F  45                 	db	69	;'E'
   609  002040  52                 	db	82	;'R'
   610  002041  52                 	db	82	;'R'
   611  002042  20                 	db	32
   612  002043  52                 	db	82	;'R'
   613  002044  25                 	db	37
   614  002045  64                 	db	100	;'d'
   615  002046  20                 	db	32
   616  002047  54                 	db	84	;'T'
   617  002048  25                 	db	37
   618  002049  64                 	db	100	;'d'
   619  00204A  20                 	db	32
   620  00204B  45                 	db	69	;'E'
   621  00204C  25                 	db	37
   622  00204D  64                 	db	100	;'d'
   623  00204E  20                 	db	32
   624  00204F  23                 	db	35
   625  002050  00                 	db	0
   626  002051                     STR_2:
   627                           
   628                           ; BSR set to: 57
   629  002051  20                 	db	32
   630  002052  53                 	db	83	;'S'
   631  002053  25                 	db	37
   632  002054  64                 	db	100	;'d'
   633  002055  46                 	db	70	;'F'
   634  002056  25                 	db	37
   635  002057  64                 	db	100	;'d'
   636  002058  20                 	db	32
   637  002059  23                 	db	35
   638  00205A  00                 	db	0
   639  00205B                     STR_3:
   640                           
   641                           ; BSR set to: 57
   642  00205B  20                 	db	32
   643  00205C  4F                 	db	79	;'O'
   644  00205D  4B                 	db	75	;'K'
   645  00205E  20                 	db	32
   646  00205F  23                 	db	35
   647  002060  00                 	db	0
   648  002061                     STR_5:
   649                           
   650                           ; BSR set to: 57
   651  002061  25                 	db	37
   652  002062  73                 	db	115	;'s'
   653  002063  00                 	db	0
   654  0000                     
   655                           ; #config settings
   656  002064  00                 	db	0	; dummy byte at the end
   657  0000                     
   658                           	psect	cinit
   659  004A04                     __pcinit:
   660                           	opt callstack 0
   661  004A04                     start_initialization:
   662                           	opt callstack 0
   663  004A04                     __initialization:
   664                           	opt callstack 0
   665                           
   666                           ; Initialize objects allocated to BANK0 (39 bytes)
   667                           ; load TBLPTR registers with __pidataBANK0
   668  004A04  0EE6               	movlw	low __pidataBANK0
   669  004A06  6EF6               	movwf	tblptrl,c
   670  004A08  0E53               	movlw	high __pidataBANK0
   671  004A0A  6EF7               	movwf	tblptrh,c
   672  004A0C  0E00               	movlw	low (__pidataBANK0 shr (0+16))
   673  004A0E  6EF8               	movwf	tblptru,c
   674  004A10  EE00  F0D4         	lfsr	0,__pdataBANK0
   675  004A14  EE20 F027          	lfsr	2,39
   676  004A18                     copy_data0:
   677  004A18  0009               	tblrd		*+
   678  004A1A  006F FFD7 FFEE     	movff	tablat,postinc0
   679  004A20  50DD               	movf	postdec2,w,c
   680  004A22  50D9               	movf	fsr2l,w,c
   681  004A24  E1F9               	bnz	copy_data0
   682                           
   683                           ; Initialize objects allocated to COMRAM (7 bytes)
   684                           ; load TBLPTR registers with __pidataCOMRAM
   685  004A26  0E36               	movlw	low __pidataCOMRAM
   686  004A28  6EF6               	movwf	tblptrl,c
   687  004A2A  0E57               	movlw	high __pidataCOMRAM
   688  004A2C  6EF7               	movwf	tblptrh,c
   689  004A2E  0E00               	movlw	low (__pidataCOMRAM shr (0+16))
   690  004A30  6EF8               	movwf	tblptru,c
   691  004A32  EE00  F057         	lfsr	0,__pdataCOMRAM
   692  004A36  EE20 F007          	lfsr	2,7
   693  004A3A                     copy_data1:
   694  004A3A  0009               	tblrd		*+
   695  004A3C  006F FFD7 FFEE     	movff	tablat,postinc0
   696  004A42  50DD               	movf	postdec2,w,c
   697  004A44  50D9               	movf	fsr2l,w,c
   698  004A46  E1F9               	bnz	copy_data1
   699                           
   700                           ; Clear objects allocated to BANK2 (198 bytes)
   701  004A48  EE00  F200         	lfsr	0,__pbssBANK2
   702  004A4C  0EC6               	movlw	198
   703  004A4E                     clear_0:
   704  004A4E  6AEE               	clrf	postinc0,c
   705  004A50  06E8               	decf	wreg,f,c
   706  004A52  E1FD               	bnz	clear_0
   707                           
   708                           ; Clear objects allocated to BANK1 (224 bytes)
   709  004A54  EE00  F100         	lfsr	0,__pbssBANK1
   710  004A58  0EE0               	movlw	224
   711  004A5A                     clear_1:
   712  004A5A  6AEE               	clrf	postinc0,c
   713  004A5C  06E8               	decf	wreg,f,c
   714  004A5E  E1FD               	bnz	clear_1
   715                           
   716                           ; Clear objects allocated to BANK0 (116 bytes)
   717  004A60  EE00  F060         	lfsr	0,__pbssBANK0
   718  004A64  0E74               	movlw	116
   719  004A66                     clear_2:
   720  004A66  6AEE               	clrf	postinc0,c
   721  004A68  06E8               	decf	wreg,f,c
   722  004A6A  E1FD               	bnz	clear_2
   723                           
   724                           ; Clear objects allocated to COMRAM (54 bytes)
   725  004A6C  EE00  F001         	lfsr	0,__pbssCOMRAM
   726  004A70  0E36               	movlw	54
   727  004A72                     clear_3:
   728  004A72  6AEE               	clrf	postinc0,c
   729  004A74  06E8               	decf	wreg,f,c
   730  004A76  E1FD               	bnz	clear_3
   731                           
   732                           ;
   733                           ; Setup IVTBASE
   734                           ;
   735  004A78  0E08               	movlw	(ivt0x8_base shr 0)& (0+255)
   736  004A7A  6ED5               	movwf	213,c
   737  004A7C  0E00               	movlw	(ivt0x8_base shr (0+8))& (0+255)
   738  004A7E  6ED6               	movwf	214,c
   739  004A80  0E00               	movlw	(ivt0x8_base shr (0+16))& (0+255)
   740  004A82  6ED7               	movwf	215,c
   741  004A84                     end_of_initialization:
   742                           	opt callstack 0
   743  004A84                     __end_of__initialization:
   744                           	opt callstack 0
   745  004A84  0100               	movlb	0
   746  004A86  EFE9  F018         	goto	_main	;jump to C main() function
   747                           
   748                           	psect	bssCOMRAM
   749  000001                     __pbssCOMRAM:
   750                           	opt callstack 0
   751  000001                     wdtdelay@dcount:
   752                           	opt callstack 0
   753  000001                     	ds	4
   754  000005                     _TMR6_InterruptHandler:
   755                           	opt callstack 0
   756  000005                     	ds	3
   757  000008                     _ADCC_ADI_InterruptHandler:
   758                           	opt callstack 0
   759  000008                     	ds	3
   760  00000B                     _UART1_TxInterruptHandler:
   761                           	opt callstack 0
   762  00000B                     	ds	3
   763  00000E                     _UART1_RxInterruptHandler:
   764                           	opt callstack 0
   765  00000E                     	ds	3
   766  000011                     _UART2_TxInterruptHandler:
   767                           	opt callstack 0
   768  000011                     	ds	3
   769  000014                     _UART2_RxInterruptHandler:
   770                           	opt callstack 0
   771  000014                     	ds	3
   772  000017                     _INT2_InterruptHandler:
   773                           	opt callstack 0
   774  000017                     	ds	3
   775  00001A                     _INT1_InterruptHandler:
   776                           	opt callstack 0
   777  00001A                     	ds	3
   778  00001D                     _INT0_InterruptHandler:
   779                           	opt callstack 0
   780  00001D                     	ds	3
   781  000020                     _nout:
   782                           	opt callstack 0
   783  000020                     	ds	2
   784  000022                     _width:
   785                           	opt callstack 0
   786  000022                     	ds	2
   787  000024                     _prec:
   788                           	opt callstack 0
   789  000024                     	ds	2
   790  000026                     _flags:
   791                           	opt callstack 0
   792  000026                     	ds	2
   793  000028                     run_checksum@sum:
   794                           	opt callstack 0
   795  000028                     	ds	2
   796  00002A                     r_protocol@rxData_l:
   797                           	opt callstack 0
   798  00002A                     	ds	1
   799  00002B                     _uart2RxCount:
   800                           	opt callstack 0
   801  00002B                     	ds	1
   802  00002C                     _uart2RxTail:
   803                           	opt callstack 0
   804  00002C                     	ds	1
   805  00002D                     _uart2RxHead:
   806                           	opt callstack 0
   807  00002D                     	ds	1
   808  00002E                     _uart2TxBufferRemaining:
   809                           	opt callstack 0
   810  00002E                     	ds	1
   811  00002F                     _uart2TxTail:
   812                           	opt callstack 0
   813  00002F                     	ds	1
   814  000030                     _uart2TxHead:
   815                           	opt callstack 0
   816  000030                     	ds	1
   817  000031                     _uart1RxCount:
   818                           	opt callstack 0
   819  000031                     	ds	1
   820  000032                     _uart1RxTail:
   821                           	opt callstack 0
   822  000032                     	ds	1
   823  000033                     _uart1RxHead:
   824                           	opt callstack 0
   825  000033                     	ds	1
   826  000034                     _uart1TxBufferRemaining:
   827                           	opt callstack 0
   828  000034                     	ds	1
   829  000035                     _uart1TxTail:
   830                           	opt callstack 0
   831  000035                     	ds	1
   832  000036                     _uart1TxHead:
   833                           	opt callstack 0
   834  000036                     	ds	1
   835                           
   836                           	psect	dataCOMRAM
   837  000057                     __pdataCOMRAM:
   838                           	opt callstack 0
   839  000057                     stoa@F1139:
   840                           	opt callstack 0
   841  000057                     	ds	7
   842                           
   843                           	psect	bssBANK0
   844  000060                     __pbssBANK0:
   845                           	opt callstack 0
   846  000060                     _r_block:
   847                           	opt callstack 0
   848  000060                     	ds	13
   849  00006D                     _spi_link:
   850                           	opt callstack 0
   851  00006D                     	ds	12
   852  000079                     _tickCount:
   853                           	opt callstack 0
   854  000079                     	ds	12
   855  000085                     _V:
   856                           	opt callstack 0
   857  000085                     	ds	79
   858                           
   859                           	psect	dataBANK0
   860  0000D4                     __pdataBANK0:
   861                           	opt callstack 0
   862  0000D4                     _H10:
   863                           	opt callstack 0
   864  0000D4                     	ds	39
   865                           
   866                           	psect	bssBANK1
   867  000100                     __pbssBANK1:
   868                           	opt callstack 0
   869  000100                     _uart2TxBuffer:
   870                           	opt callstack 0
   871  000100                     	ds	64
   872  000140                     _uart1RxBuffer:
   873                           	opt callstack 0
   874  000140                     	ds	64
   875  000180                     _uart1TxBuffer:
   876                           	opt callstack 0
   877  000180                     	ds	64
   878  0001C0                     _dbuf:
   879                           	opt callstack 0
   880  0001C0                     	ds	32
   881                           
   882                           	psect	bssBANK2
   883  000200                     __pbssBANK2:
   884                           	opt callstack 0
   885  000200                     _uart2RxBuffer:
   886                           	opt callstack 0
   887  000200                     	ds	64
   888  000240                     _ring_buf2:
   889                           	opt callstack 0
   890  000240                     	ds	67
   891  000283                     _ring_buf1:
   892                           	opt callstack 0
   893  000283                     	ds	67
   894                           
   895                           	psect	cstackBANK0
   896  000000                     __pcstackBANK0:
   897                           	opt callstack 0
   898  000000                     
   899                           ; 1 bytes @ 0x0
   900                           
   901                           	psect	cstackCOMRAM
   902  00005E                     __pcstackCOMRAM:
   903                           	opt callstack 0
   904  00005E                     ??_TMR6_ISR:
   905  00005E                     
   906                           ; 1 bytes @ 0x0
   907  00005E                     	ds	2
   908                           
   909 ;;
   910 ;;Main: autosize = 4, tempsize = 0, incstack = 0, save=0
   911 ;;
   912 ;; *************** function _main *****************
   913 ;; Defined at:
   914 ;;		line 157 in file "main.c"
   915 ;; Parameters:    Size  Location     Type
   916 ;;		None
   917 ;; Auto vars:     Size  Location     Type
   918 ;;  k               3    0        PTR unsigned char 
   919 ;;  sum             2  [STACK] unsigned short 
   920 ;;  j               1  [STACK] unsigned char 
   921 ;;  mode            1  [STACK] enum E16877
   922 ;;  i               1    0        unsigned char 
   923 ;; Return value:  Size  Location     Type
   924 ;;                  1  [STACK] void 
   925 ;; Registers used:
   926 ;;		wreg, fsr0l, fsr0h, fsr1l, fsr1h, fsr2l, fsr2h, status,2, status,0, btemp, btemp+1, btemp+8, btemp+9, btemp+10, btem
      +p+11, btemp+16, btemp+17, btemp+18, btemp+19, btemp+20, btemp+21, btemp+22, btemp+23, tblptrl, tblptrh, tblptru, prodl, 
      +prodh
   927 ;; Tracked objects:
   928 ;;		On entry : 0/0
   929 ;;		On exit  : 3F/0
   930 ;;		Unchanged: 0/0
   931 ;; Data sizes:     COMRAM   BANK0   BANK1   BANK2   BANK3   BANK4   BANK5   BANK6   BANK7   BANK8   BANK9  BANK10  BANK1
      +1  BANK12  BANK13  BANK14  BANK15  BANK16  BANK17  BANK18  BANK19  BANK20  BANK21  BANK22  BANK23  BANK24  BANK25  BANK2
      +6  BANK27  BANK28  BANK29  BANK30  BANK31
   932 ;;      Params:         0       0       0       0       0       0       0       0       0       0       0       0       
      +0       0       0       0       0       0       0       0       0       0       0       0       0       0       0       
      +0       0       0       0       0       0
   933 ;;      Locals:         0       0       0       0       0       0       0       0       0       0       0       0       
      +0       0       0       0       0       0       0       0       0       0       0       0       0       0       0       
      +0       0       0       0       0       0
   934 ;;      Temps:          0       0       0       0       0       0       0       0       0       0       0       0       
      +0       0       0       0       0       0       0       0       0       0       0       0       0       0       0       
      +0       0       0       0       0       0
   935 ;;      Totals:         0       0       0       0       0       0       0       0       0       0       0       0       
      +0       0       0       0       0       0       0       0       0       0       0       0       0       0       0       
      +0       0       0       0       0       0
   936 ;;Total ram usage:        0 bytes
   937 ;; Hardware stack levels required when called:   13
   938 ;; This function calls:
   939 ;;		_SYSTEM_Initialize
   940 ;;		_UART1_Write
   941 ;;		_block_checksum
   942 ;;		_eaDogM_WriteString
   943 ;;		_init_display
   944 ;;		_r_protocol
   945 ;;		_sprintf
   946 ;;		_t_protocol
   947 ;;		_wait_lcd_check
   948 ;;		_wait_lcd_done
   949 ;; This function is called by:
   950 ;;		Startup code after reset
   951 ;; This function uses a reentrant model
   952 ;;
   953                           
   954                           	psect	text0
   955  0031D2                     __ptext0:
   956                           	opt callstack 0
   957  0031D2                     _main:
   958                           	opt callstack 0
   959                           
   960                           ; autosize = 4, savesize = 0, parsavesize = 0, tempsize = 0 parsize = 0, argsize = 0 var
      +                          gsize = 0, retsize = 0 argfudge = 0
   961  0031D2  52E6               	movf	postinc1,f,c
   962  0031D4  52E6               	movf	postinc1,f,c
   963  0031D6  52E6               	movf	postinc1,f,c
   964  0031D8  52E6               	movf	postinc1,f,c
   965                           
   966                           ;main.c: 159:  uint8_t i, j = 0, *k;
   967                           ;stkvar	_j @ sp[(-4)+2]
   968                           
   969                           ;incstack = 0
   970  0031DA  0EFE               	movlw	-2
   971  0031DC  6AE3               	clrf	plusw1,c
   972                           
   973                           ;main.c: 160:  uint16_t sum;;main.c: 161:  UI_STATES mode = UI_STATE_HOST;
   974                           ;stkvar	_mode @ sp[(-4)+3]
   975  0031DE  0EFF               	movlw	-1
   976  0031E0  6AE3               	clrf	plusw1,c
   977  0031E2  2AE3               	incf	plusw1,f,c
   978                           
   979                           ;main.c: 164:  SYSTEM_Initialize();
   980  0031E4  EC15  F028         	call	_SYSTEM_Initialize	;wreg free
   981                           
   982                           ; BSR set to: 60
   983                           ;main.c: 167:  (INTCON0bits.GIEH = 1);
   984  0031E8  8ED2               	bsf	16338,7,c	;volatile
   985                           
   986                           ; BSR set to: 60
   987                           ;main.c: 170:  (INTCON0bits.GIEL = 1);
   988  0031EA  8CD2               	bsf	16338,6,c	;volatile
   989  0031EC                     l6365:
   990                           
   991                           ;main.c: 172:  V.ui_state = UI_STATE_INIT;
   992  0031EC  0100               	movlb	0	; () banked
   993  0031EE  6B86               	clrf	(_V+1)& (0+255),b	;volatile
   994  0031F0  D150               	goto	l1125
   995  0031F2                     l6367:
   996                           
   997                           ; BSR set to: 0
   998                           ;main.c: 177:    init_display();
   999  0031F2  ECF6  F021         	call	_init_display	;wreg free
  1000                           
  1001                           ; BSR set to: 61
  1002                           ;main.c: 178:    sum = block_checksum((uint8_t*) & H10[j].block.block, sizeof(block10));
  1003  0031F6  0E0A               	movlw	10
  1004  0031F8  6EE6               	movwf	postinc1,c
  1005  0031FA  0E00               	movlw	0
  1006  0031FC  6EE6               	movwf	postinc1,c
  1007                           
  1008                           ;stkvar	_j @ sp[(-6)+2]
  1009  0031FE  0EFC               	movlw	-4
  1010  003200  50E3               	movf	plusw1,w,c
  1011  003202  0D0D               	mullw	13
  1012  003204  50F3               	movf	prodl,w,c
  1013  003206  0FD6               	addlw	low (_H10+2)
  1014  003208  6EE6               	movwf	postinc1,c
  1015  00320A  ECCF  F022         	call	_block_checksum	;wreg free
  1016                           
  1017                           ;stkvar	_sum @ sp[(-4)+0]
  1018  00320E  0EFC               	movlw	-4
  1019  003210  0060  F0DF  FFE3   	movff	btemp,plusw1
  1020  003216  0EFD               	movlw	-3
  1021  003218  0060  F0E3  FFE3   	movff	btemp+1,plusw1
  1022                           
  1023                           ;main.c: 179:    H10[j].checksum = sum;
  1024                           ;stkvar	_sum @ sp[(-4)+0]
  1025  00321E  50E1               	movf	fsr1l,w,c
  1026  003220  0FFC               	addlw	-4
  1027  003222  6ED9               	movwf	fsr2l,c
  1028  003224  50E2               	movf	fsr1h,w,c
  1029  003226  6EDA               	movwf	fsr2h,c
  1030  003228  0EFF               	movlw	255
  1031  00322A  22DA               	addwfc	fsr2h,f,c
  1032                           
  1033                           ;stkvar	_j @ sp[(-4)+2]
  1034  00322C  0EFE               	movlw	-2
  1035  00322E  50E3               	movf	plusw1,w,c
  1036  003230  0D0D               	mullw	13
  1037  003232  50F3               	movf	prodl,w,c
  1038  003234  0FD4               	addlw	low _H10
  1039  003236  6EE9               	movwf	fsr0l,c
  1040  003238  6AEA               	clrf	fsr0h,c
  1041  00323A  006F FF7B FFEE     	movff	postinc2,postinc0
  1042  003240  006F FF77 FFED     	movff	postdec2,postdec0
  1043                           
  1044                           ;main.c: 180:    sprintf(V.buf, "M %d, H %02x%02x%02x%02x%02x%02x%02x%02x%02x%02x, C 0x%
      +                          04x #",
  1045                           ;stkvar	_sum @ sp[(-4)+0]
  1046  003246  0EFC               	movlw	-4
  1047  003248  006F FF8F FFE6     	movff	plusw1,postinc1
  1048  00324E  006F FF8F FFE6     	movff	plusw1,postinc1
  1049                           
  1050                           ;stkvar	_j @ sp[(-6)+2]
  1051  003254  0EFC               	movlw	-4
  1052  003256  50E3               	movf	plusw1,w,c
  1053  003258  0D0D               	mullw	13
  1054  00325A  50F3               	movf	prodl,w,c
  1055  00325C  0FD6               	addlw	low (_H10+2)
  1056  00325E  6ED9               	movwf	fsr2l,c
  1057  003260  6ADA               	clrf	fsr2h,c
  1058  003262  50DF               	movf	indf2,w,c
  1059  003264  6EE6               	movwf	postinc1,c
  1060  003266  0E00               	movlw	0
  1061  003268  6EE6               	movwf	postinc1,c
  1062                           
  1063                           ;stkvar	_j @ sp[(-8)+2]
  1064  00326A  0EFA               	movlw	-6
  1065  00326C  50E3               	movf	plusw1,w,c
  1066  00326E  0D0D               	mullw	13
  1067  003270  50F3               	movf	prodl,w,c
  1068  003272  0FD7               	addlw	low (_H10+3)
  1069  003274  6ED9               	movwf	fsr2l,c
  1070  003276  6ADA               	clrf	fsr2h,c
  1071  003278  50DF               	movf	indf2,w,c
  1072  00327A  6EE6               	movwf	postinc1,c
  1073  00327C  0E00               	movlw	0
  1074  00327E  6EE6               	movwf	postinc1,c
  1075                           
  1076                           ;stkvar	_j @ sp[(-10)+2]
  1077  003280  0EF8               	movlw	-8
  1078  003282  50E3               	movf	plusw1,w,c
  1079  003284  0D0D               	mullw	13
  1080  003286  50F3               	movf	prodl,w,c
  1081  003288  0FD8               	addlw	low (_H10+4)
  1082  00328A  6ED9               	movwf	fsr2l,c
  1083  00328C  6ADA               	clrf	fsr2h,c
  1084  00328E  50DF               	movf	indf2,w,c
  1085  003290  6EE6               	movwf	postinc1,c
  1086  003292  0E00               	movlw	0
  1087  003294  6EE6               	movwf	postinc1,c
  1088                           
  1089                           ;stkvar	_j @ sp[(-12)+2]
  1090  003296  0EF6               	movlw	-10
  1091  003298  50E3               	movf	plusw1,w,c
  1092  00329A  0D0D               	mullw	13
  1093  00329C  50F3               	movf	prodl,w,c
  1094  00329E  0FD9               	addlw	low (_H10+5)
  1095  0032A0  6ED9               	movwf	fsr2l,c
  1096  0032A2  6ADA               	clrf	fsr2h,c
  1097  0032A4  50DF               	movf	indf2,w,c
  1098  0032A6  6EE6               	movwf	postinc1,c
  1099  0032A8  0E00               	movlw	0
  1100  0032AA  6EE6               	movwf	postinc1,c
  1101                           
  1102                           ;stkvar	_j @ sp[(-14)+2]
  1103  0032AC  0EF4               	movlw	-12
  1104  0032AE  50E3               	movf	plusw1,w,c
  1105  0032B0  0D0D               	mullw	13
  1106  0032B2  50F3               	movf	prodl,w,c
  1107  0032B4  0FDA               	addlw	low (_H10+6)
  1108  0032B6  6ED9               	movwf	fsr2l,c
  1109  0032B8  6ADA               	clrf	fsr2h,c
  1110  0032BA  50DF               	movf	indf2,w,c
  1111  0032BC  6EE6               	movwf	postinc1,c
  1112  0032BE  0E00               	movlw	0
  1113  0032C0  6EE6               	movwf	postinc1,c
  1114                           
  1115                           ;stkvar	_j @ sp[(-16)+2]
  1116  0032C2  0EF2               	movlw	-14
  1117  0032C4  50E3               	movf	plusw1,w,c
  1118  0032C6  0D0D               	mullw	13
  1119  0032C8  50F3               	movf	prodl,w,c
  1120  0032CA  0FDB               	addlw	low (_H10+7)
  1121  0032CC  6ED9               	movwf	fsr2l,c
  1122  0032CE  6ADA               	clrf	fsr2h,c
  1123  0032D0  50DF               	movf	indf2,w,c
  1124  0032D2  6EE6               	movwf	postinc1,c
  1125  0032D4  0E00               	movlw	0
  1126  0032D6  6EE6               	movwf	postinc1,c
  1127                           
  1128                           ;stkvar	_j @ sp[(-18)+2]
  1129  0032D8  0EF0               	movlw	-16
  1130  0032DA  50E3               	movf	plusw1,w,c
  1131  0032DC  0D0D               	mullw	13
  1132  0032DE  50F3               	movf	prodl,w,c
  1133  0032E0  0FDC               	addlw	low (_H10+8)
  1134  0032E2  6ED9               	movwf	fsr2l,c
  1135  0032E4  6ADA               	clrf	fsr2h,c
  1136  0032E6  50DF               	movf	indf2,w,c
  1137  0032E8  6EE6               	movwf	postinc1,c
  1138  0032EA  0E00               	movlw	0
  1139  0032EC  6EE6               	movwf	postinc1,c
  1140                           
  1141                           ;stkvar	_j @ sp[(-20)+2]
  1142  0032EE  0EEE               	movlw	-18
  1143  0032F0  50E3               	movf	plusw1,w,c
  1144  0032F2  0D0D               	mullw	13
  1145  0032F4  50F3               	movf	prodl,w,c
  1146  0032F6  0FDD               	addlw	low (_H10+9)
  1147  0032F8  6ED9               	movwf	fsr2l,c
  1148  0032FA  6ADA               	clrf	fsr2h,c
  1149  0032FC  50DF               	movf	indf2,w,c
  1150  0032FE  6EE6               	movwf	postinc1,c
  1151  003300  0E00               	movlw	0
  1152  003302  6EE6               	movwf	postinc1,c
  1153                           
  1154                           ;stkvar	_j @ sp[(-22)+2]
  1155  003304  0EEC               	movlw	-20
  1156  003306  50E3               	movf	plusw1,w,c
  1157  003308  0D0D               	mullw	13
  1158  00330A  50F3               	movf	prodl,w,c
  1159  00330C  0FDE               	addlw	low (_H10+10)
  1160  00330E  6ED9               	movwf	fsr2l,c
  1161  003310  6ADA               	clrf	fsr2h,c
  1162  003312  50DF               	movf	indf2,w,c
  1163  003314  6EE6               	movwf	postinc1,c
  1164  003316  0E00               	movlw	0
  1165  003318  6EE6               	movwf	postinc1,c
  1166                           
  1167                           ;stkvar	_j @ sp[(-24)+2]
  1168  00331A  0EEA               	movlw	-22
  1169  00331C  50E3               	movf	plusw1,w,c
  1170  00331E  0D0D               	mullw	13
  1171  003320  50F3               	movf	prodl,w,c
  1172  003322  0FDF               	addlw	low (_H10+11)
  1173  003324  6ED9               	movwf	fsr2l,c
  1174  003326  6ADA               	clrf	fsr2h,c
  1175  003328  50DF               	movf	indf2,w,c
  1176  00332A  6EE6               	movwf	postinc1,c
  1177  00332C  0E00               	movlw	0
  1178  00332E  6EE6               	movwf	postinc1,c
  1179                           
  1180                           ;stkvar	_mode @ sp[(-26)+3]
  1181  003330  0EE9               	movlw	-23
  1182  003332  50E3               	movf	plusw1,w,c
  1183  003334  6EE6               	movwf	postinc1,c
  1184  003336  0E00               	movlw	0
  1185  003338  6EE6               	movwf	postinc1,c
  1186  00333A  0E01               	movlw	STR_1& (0+255)
  1187  00333C  6EE6               	movwf	postinc1,c
  1188  00333E  0E85               	movlw	_V& (0+255)
  1189  003340  0F04               	addlw	4
  1190  003342  6EE6               	movwf	postinc1,c
  1191  003344  0E1A               	movlw	26
  1192  003346  6EE6               	movwf	postinc1,c
  1193  003348  EC6B  F022         	call	_sprintf	;wreg free
  1194                           
  1195                           ;main.c: 193:    eaDogM_WriteString(V.buf);
  1196  00334C  0E85               	movlw	_V& (0+255)
  1197  00334E  0F04               	addlw	4
  1198  003350  6EE6               	movwf	postinc1,c
  1199  003352  EC2B  F023         	call	_eaDogM_WriteString	;wreg free
  1200                           
  1201                           ; BSR set to: 0
  1202                           ;main.c: 194:    wait_lcd_done();
  1203  003356  EC00  F02B         	call	_wait_lcd_done	;wreg free
  1204                           
  1205                           ;main.c: 195:    V.ui_state = mode;
  1206                           ;stkvar	_mode @ sp[(-4)+3]
  1207  00335A  0EFF               	movlw	-1
  1208  00335C  006F FF8C  F086    	movff	plusw1,_V+1	;volatile
  1209  003362  D07B               	goto	l6421
  1210  003364                     l1130:
  1211                           
  1212                           ; BSR set to: 0
  1213                           ;main.c: 202:     V.r_l_state = LINK_STATE_IDLE;
  1214  003364  6B87               	clrf	(_V+2)& (0+255),b	;volatile
  1215                           
  1216                           ;main.c: 203:     V.t_l_state = LINK_STATE_IDLE;
  1217  003366  6B88               	clrf	(_V+3)& (0+255),b	;volatile
  1218                           
  1219                           ; BSR set to: 0
  1220                           ;main.c: 204:     V.s_state = SEQ_STATE_RX;
  1221  003368  0E01               	movlw	1
  1222  00336A  D03B               	goto	L2
  1223  00336C                     l6385:
  1224                           
  1225                           ; BSR set to: 0
  1226                           ;main.c: 210:     if (r_protocol(&V.r_l_state) == LINK_STATE_DONE) {
  1227  00336C  0E85               	movlw	_V& (0+255)
  1228  00336E  0F02               	addlw	2
  1229  003370  6EE6               	movwf	postinc1,c
  1230  003372  EC0B  F01E         	call	_r_protocol	;wreg free
  1231  003376  0E04               	movlw	4
  1232  003378  1837               	xorwf	btemp,w,c
  1233  00337A  A4D8               	btfss	status,2,c
  1234  00337C  D01C               	goto	l6393
  1235                           
  1236                           ;main.c: 211:      sprintf(V.buf, " S%dF%d #", V.stream, V.function);
  1237  00337E  0100               	movlb	0	; () banked
  1238  003380  51CE               	movf	(_V+73)& (0+255),w,b	;volatile
  1239  003382  6EE6               	movwf	postinc1,c
  1240  003384  0E00               	movlw	0
  1241  003386  6EE6               	movwf	postinc1,c
  1242  003388  51CD               	movf	(_V+72)& (0+255),w,b	;volatile
  1243  00338A  6EE6               	movwf	postinc1,c
  1244  00338C  0E00               	movlw	0
  1245  00338E  6EE6               	movwf	postinc1,c
  1246  003390  0E51               	movlw	STR_2& (0+255)
  1247  003392  6EE6               	movwf	postinc1,c
  1248  003394  0E85               	movlw	_V& (0+255)
  1249  003396  0F04               	addlw	4
  1250  003398  6EE6               	movwf	postinc1,c
  1251  00339A  0E06               	movlw	6
  1252  00339C  6EE6               	movwf	postinc1,c
  1253  00339E  EC6B  F022         	call	_sprintf	;wreg free
  1254                           
  1255                           ;main.c: 212:      eaDogM_WriteString(V.buf);
  1256  0033A2  0E85               	movlw	_V& (0+255)
  1257  0033A4  0F04               	addlw	4
  1258  0033A6  6EE6               	movwf	postinc1,c
  1259  0033A8  EC2B  F023         	call	_eaDogM_WriteString	;wreg free
  1260                           
  1261                           ; BSR set to: 0
  1262                           ;main.c: 213:      wait_lcd_done();
  1263  0033AC  EC00  F02B         	call	_wait_lcd_done	;wreg free
  1264                           
  1265                           ;main.c: 214:      V.s_state = SEQ_STATE_TX;
  1266  0033B0  0E02               	movlw	2
  1267  0033B2  0100               	movlb	0	; () banked
  1268  0033B4  6F85               	movwf	_V& (0+255),b	;volatile
  1269  0033B6                     l6393:
  1270                           
  1271                           ;main.c: 216:     if (V.r_l_state == LINK_STATE_ERROR)
  1272  0033B6  0E06               	movlw	6
  1273  0033B8  0100               	movlb	0	; () banked
  1274  0033BA  1987               	xorwf	(_V+2)& (0+255),w,b	;volatile
  1275  0033BC  D00F               	goto	L23
  1276  0033BE                     l6397:
  1277                           
  1278                           ; BSR set to: 0
  1279                           ;main.c: 223:     if (t_protocol(&V.t_l_state) == LINK_STATE_DONE) {
  1280  0033BE  0E85               	movlw	_V& (0+255)
  1281  0033C0  0F03               	addlw	3
  1282  0033C2  6EE6               	movwf	postinc1,c
  1283  0033C4  EC39  F020         	call	_t_protocol	;wreg free
  1284  0033C8  0E04               	movlw	4
  1285  0033CA  1837               	xorwf	btemp,w,c
  1286  0033CC  A4D8               	btfss	status,2,c
  1287  0033CE  D003               	goto	l6401
  1288                           
  1289                           ;main.c: 224:      V.s_state = SEQ_STATE_TRIGGER;
  1290  0033D0  0E03               	movlw	3
  1291  0033D2  0100               	movlb	0	; () banked
  1292  0033D4  6F85               	movwf	_V& (0+255),b	;volatile
  1293  0033D6                     l6401:
  1294                           
  1295                           ;main.c: 226:     if (V.t_l_state == LINK_STATE_ERROR)
  1296  0033D6  0E06               	movlw	6
  1297  0033D8  0100               	movlb	0	; () banked
  1298  0033DA  1988               	xorwf	(_V+3)& (0+255),w,b	;volatile
  1299  0033DC                     L23:
  1300  0033DC  A4D8               	btfss	status,2,c
  1301  0033DE  D059               	goto	l1125
  1302                           
  1303                           ; BSR set to: 0
  1304                           ;main.c: 227:      V.s_state = SEQ_STATE_ERROR;
  1305  0033E0  0E05               	movlw	5
  1306  0033E2                     L2:
  1307  0033E2  6F85               	movwf	_V& (0+255),b	;volatile
  1308  0033E4  D056               	goto	l1125
  1309  0033E6                     l1139:
  1310                           
  1311                           ; BSR set to: 0
  1312  0033E6  82BE               	bsf	16318,1,c	;volatile
  1313                           
  1314                           ; BSR set to: 0
  1315                           ;main.c: 231:     sprintf(V.buf, " OK #");
  1316  0033E8  0E5B               	movlw	STR_3& (0+255)
  1317  0033EA  6EE6               	movwf	postinc1,c
  1318  0033EC  0E85               	movlw	_V& (0+255)
  1319  0033EE  0F04               	addlw	4
  1320  0033F0  6EE6               	movwf	postinc1,c
  1321  0033F2  0E02               	movlw	2
  1322  0033F4  6EE6               	movwf	postinc1,c
  1323  0033F6  EC6B  F022         	call	_sprintf	;wreg free
  1324                           
  1325                           ;main.c: 232:     eaDogM_WriteString(V.buf);
  1326  0033FA  0E85               	movlw	_V& (0+255)
  1327  0033FC  0F04               	addlw	4
  1328  0033FE  6EE6               	movwf	postinc1,c
  1329  003400  EC2B  F023         	call	_eaDogM_WriteString	;wreg free
  1330                           
  1331                           ; BSR set to: 0
  1332                           ;main.c: 233:     if (wait_lcd_check())
  1333  003404  EC57  F02B         	call	_wait_lcd_check	;wreg free
  1334  003408  5037               	movf	btemp,w,c
  1335  00340A  B4D8               	btfsc	status,2,c
  1336  00340C  D003               	goto	l6411
  1337                           
  1338                           ;main.c: 234:      V.s_state = SEQ_STATE_DONE;
  1339  00340E  0E04               	movlw	4
  1340  003410  0100               	movlb	0	; () banked
  1341  003412  6F85               	movwf	_V& (0+255),b	;volatile
  1342  003414                     l6411:
  1343  003414  92BE               	bcf	16318,1,c	;volatile
  1344  003416  D03D               	goto	l1125
  1345  003418                     l6413:
  1346                           
  1347                           ; BSR set to: 0
  1348                           ;main.c: 242:     UART1_Write(0x15);
  1349  003418  0E15               	movlw	21
  1350  00341A  6EE6               	movwf	postinc1,c
  1351  00341C  ECD7  F027         	call	_UART1_Write	;wreg free
  1352                           
  1353                           ; BSR set to: 57
  1354                           ;main.c: 243:     sprintf(V.buf, " ERR R%d T%d E%d #", V.r_l_state, V.t_l_state, V.error
      +                          );
  1355  003420  0100               	movlb	0	; () banked
  1356  003422  51CF               	movf	(_V+74)& (0+255),w,b	;volatile
  1357  003424  6EE6               	movwf	postinc1,c
  1358  003426  0E00               	movlw	0
  1359  003428  6EE6               	movwf	postinc1,c
  1360  00342A  5188               	movf	(_V+3)& (0+255),w,b	;volatile
  1361  00342C  6EE6               	movwf	postinc1,c
  1362  00342E  0E00               	movlw	0
  1363  003430  6EE6               	movwf	postinc1,c
  1364  003432  5187               	movf	(_V+2)& (0+255),w,b	;volatile
  1365  003434  6EE6               	movwf	postinc1,c
  1366  003436  0E00               	movlw	0
  1367  003438  6EE6               	movwf	postinc1,c
  1368  00343A  0E3E               	movlw	STR_4& (0+255)
  1369  00343C  6EE6               	movwf	postinc1,c
  1370  00343E  0E85               	movlw	_V& (0+255)
  1371  003440  0F04               	addlw	4
  1372  003442  6EE6               	movwf	postinc1,c
  1373  003444  0E08               	movlw	8
  1374  003446  6EE6               	movwf	postinc1,c
  1375  003448  EC6B  F022         	call	_sprintf	;wreg free
  1376                           
  1377                           ;main.c: 244:     eaDogM_WriteString(V.buf);
  1378  00344C  0E85               	movlw	_V& (0+255)
  1379  00344E  0F04               	addlw	4
  1380  003450  6EE6               	movwf	postinc1,c
  1381  003452  EC2B  F023         	call	_eaDogM_WriteString	;wreg free
  1382                           
  1383                           ; BSR set to: 0
  1384                           ;main.c: 245:     wait_lcd_done();
  1385  003456  EC00  F02B         	call	_wait_lcd_done	;wreg free
  1386  00345A                     l6421:
  1387                           
  1388                           ;main.c: 246:     V.s_state = SEQ_STATE_INIT;
  1389  00345A  0100               	movlb	0	; () banked
  1390  00345C  6B85               	clrf	_V& (0+255),b	;volatile
  1391                           
  1392                           ;main.c: 247:     break;
  1393  00345E  D019               	goto	l1125
  1394  003460                     l6425:
  1395                           
  1396                           ; BSR set to: 0
  1397  003460  5185               	movf	_V& (0+255),w,b	;volatile
  1398  003462  6E41               	movwf	btemp+10,c
  1399  003464  6A42               	clrf	btemp+11,c
  1400                           
  1401                           ; Switch on 2 bytes has been partitioned into a top level switch of size 1, and 1 sub-sw
      +                          itches
  1402                           ; Switch size 1, requested type "simple"
  1403                           ; Number of cases is 1, Range of values is 0 to 0
  1404                           ; switch strategies available:
  1405                           ; Name         Instructions Cycles
  1406                           ; simple_byte            4     3 (average)
  1407                           ;	Chosen strategy is simple_byte
  1408  003466  5042               	movf	btemp+11,w,c
  1409  003468  0A00               	xorlw	0	; case 0
  1410  00346A  A4D8               	btfss	status,2,c
  1411  00346C  D7D5               	goto	l6413
  1412                           
  1413                           ; BSR set to: 0
  1414                           ; Switch size 1, requested type "simple"
  1415                           ; Number of cases is 6, Range of values is 0 to 5
  1416                           ; switch strategies available:
  1417                           ; Name         Instructions Cycles
  1418                           ; simple_byte           19    10 (average)
  1419                           ;	Chosen strategy is simple_byte
  1420  00346E  5041               	movf	btemp+10,w,c
  1421  003470  0A00               	xorlw	0	; case 0
  1422  003472  B4D8               	btfsc	status,2,c
  1423  003474  D777               	goto	l1130
  1424  003476  0A01               	xorlw	1	; case 1
  1425  003478  B4D8               	btfsc	status,2,c
  1426  00347A  D778               	goto	l6385
  1427  00347C  0A03               	xorlw	3	; case 2
  1428  00347E  B4D8               	btfsc	status,2,c
  1429  003480  D79E               	goto	l6397
  1430  003482  0A01               	xorlw	1	; case 3
  1431  003484  B4D8               	btfsc	status,2,c
  1432  003486  D7AF               	goto	l1139
  1433  003488  0A07               	xorlw	7	; case 4
  1434  00348A  B4D8               	btfsc	status,2,c
  1435  00348C  D7E7               	goto	L3
  1436  00348E  0A01               	xorlw	1	; case 5
  1437  003490  D7C3               	goto	l6413
  1438  003492                     l1125:
  1439                           
  1440                           ; BSR set to: 0
  1441  003492  0100               	movlb	0	; () banked
  1442  003494  5186               	movf	(_V+1)& (0+255),w,b	;volatile
  1443  003496  6E41               	movwf	btemp+10,c
  1444  003498  6A42               	clrf	btemp+11,c
  1445                           
  1446                           ; Switch on 2 bytes has been partitioned into a top level switch of size 1, and 1 sub-sw
      +                          itches
  1447                           ; Switch size 1, requested type "simple"
  1448                           ; Number of cases is 1, Range of values is 0 to 0
  1449                           ; switch strategies available:
  1450                           ; Name         Instructions Cycles
  1451                           ; simple_byte            4     3 (average)
  1452                           ;	Chosen strategy is simple_byte
  1453  00349A  5042               	movf	btemp+11,w,c
  1454  00349C  0A00               	xorlw	0	; case 0
  1455  00349E  A4D8               	btfss	status,2,c
  1456  0034A0  D6A5               	goto	l6365
  1457                           
  1458                           ; BSR set to: 0
  1459                           ; Switch size 1, requested type "simple"
  1460                           ; Number of cases is 3, Range of values is 0 to 5
  1461                           ; switch strategies available:
  1462                           ; Name         Instructions Cycles
  1463                           ; simple_byte           10     6 (average)
  1464                           ;	Chosen strategy is simple_byte
  1465  0034A2  5041               	movf	btemp+10,w,c
  1466  0034A4  0A00               	xorlw	0	; case 0
  1467  0034A6  B4D8               	btfsc	status,2,c
  1468  0034A8  D6A4               	goto	l6367
  1469  0034AA  0A01               	xorlw	1	; case 1
  1470  0034AC  B4D8               	btfsc	status,2,c
  1471  0034AE  D7D8               	goto	l6425
  1472  0034B0  0A04               	xorlw	4	; case 5
  1473  0034B2  D69C               	goto	l6365
  1474  0034B4                     __end_of_main:
  1475                           	opt callstack 0
  1476                           
  1477 ;; *************** function _wait_lcd_done *****************
  1478 ;; Defined at:
  1479 ;;		line 124 in file "eadog.c"
  1480 ;; Parameters:    Size  Location     Type
  1481 ;;		None
  1482 ;; Auto vars:     Size  Location     Type
  1483 ;;		None
  1484 ;; Return value:  Size  Location     Type
  1485 ;;                  1  [STACK] void 
  1486 ;; Registers used:
  1487 ;;		wreg, fsr1l, fsr1h, status,2, status,0, btemp
  1488 ;; Tracked objects:
  1489 ;;		On entry : 3F/0
  1490 ;;		On exit  : 0/0
  1491 ;;		Unchanged: 0/0
  1492 ;; Data sizes:     COMRAM   BANK0   BANK1   BANK2   BANK3   BANK4   BANK5   BANK6   BANK7   BANK8   BANK9  BANK10  BANK1
      +1  BANK12  BANK13  BANK14  BANK15  BANK16  BANK17  BANK18  BANK19  BANK20  BANK21  BANK22  BANK23  BANK24  BANK25  BANK2
      +6  BANK27  BANK28  BANK29  BANK30  BANK31
  1493 ;;      Params:         0       0       0       0       0       0       0       0       0       0       0       0       
      +0       0       0       0       0       0       0       0       0       0       0       0       0       0       0       
      +0       0       0       0       0       0
  1494 ;;      Locals:         0       0       0       0       0       0       0       0       0       0       0       0       
      +0       0       0       0       0       0       0       0       0       0       0       0       0       0       0       
      +0       0       0       0       0       0
  1495 ;;      Temps:          0       0       0       0       0       0       0       0       0       0       0       0       
      +0       0       0       0       0       0       0       0       0       0       0       0       0       0       0       
      +0       0       0       0       0       0
  1496 ;;      Totals:         0       0       0       0       0       0       0       0       0       0       0       0       
      +0       0       0       0       0       0       0       0       0       0       0       0       0       0       0       
      +0       0       0       0       0       0
  1497 ;;Total ram usage:        0 bytes
  1498 ;; Hardware stack levels used:    1
  1499 ;; Hardware stack levels required when called:    4
  1500 ;; This function calls:
  1501 ;;		_wdtdelay
  1502 ;; This function is called by:
  1503 ;;		_main
  1504 ;; This function uses a reentrant model
  1505 ;;
  1506                           
  1507                           	psect	text1
  1508  005600                     __ptext1:
  1509                           	opt callstack 0
  1510  005600                     _wait_lcd_done:
  1511                           	opt callstack 26
  1512                           
  1513                           ;eadog.c: 126:  while (spi_link.LCD_DATA);
  1514                           
  1515                           ; BSR set to: 0
  1516                           ; autosize = 0, savesize = 0, parsavesize = 0, tempsize = 0 parsize = 0, argsize = 0 var
      +                          gsize = 0, retsize = 0 argfudge = 0
  1517                           ;incstack = 0
  1518  005600  0100               	movlb	0	; () banked
  1519  005602  B76D               	btfsc	_spi_link& (0+255),3,b	;volatile
  1520  005604  D7FD               	goto	_wait_lcd_done
  1521                           
  1522                           ; BSR set to: 0
  1523                           ;eadog.c: 127:  wdtdelay(50);
  1524  005606  0E32               	movlw	50
  1525  005608  6EE6               	movwf	postinc1,c
  1526  00560A  0E00               	movlw	0
  1527  00560C  6EE6               	movwf	postinc1,c
  1528  00560E  0E00               	movlw	0
  1529  005610  6EE6               	movwf	postinc1,c
  1530  005612  0E00               	movlw	0
  1531  005614  6EE6               	movwf	postinc1,c
  1532  005616  ECF2  F026         	call	_wdtdelay	;wreg free
  1533                           
  1534                           ; _wait_lcd_done: autosize = 0, savesize = 0, parsavesize = 0, tempsize = 0 parsize = 0,
      +                           argsize = 0, vargsize = 0
  1535  00561A  0012               	return		;funcret
  1536  00561C                     __end_of_wait_lcd_done:
  1537                           	opt callstack 0
  1538                           
  1539 ;; *************** function _wait_lcd_check *****************
  1540 ;; Defined at:
  1541 ;;		line 119 in file "eadog.c"
  1542 ;; Parameters:    Size  Location     Type
  1543 ;;		None
  1544 ;; Auto vars:     Size  Location     Type
  1545 ;;		None
  1546 ;; Return value:  Size  Location     Type
  1547 ;;                  1  [STACK] _Bool 
  1548 ;; Registers used:
  1549 ;;		btemp
  1550 ;; Tracked objects:
  1551 ;;		On entry : 3F/0
  1552 ;;		On exit  : 0/0
  1553 ;;		Unchanged: 0/0
  1554 ;; Data sizes:     COMRAM   BANK0   BANK1   BANK2   BANK3   BANK4   BANK5   BANK6   BANK7   BANK8   BANK9  BANK10  BANK1
      +1  BANK12  BANK13  BANK14  BANK15  BANK16  BANK17  BANK18  BANK19  BANK20  BANK21  BANK22  BANK23  BANK24  BANK25  BANK2
      +6  BANK27  BANK28  BANK29  BANK30  BANK31
  1555 ;;      Params:         0       0       0       0       0       0       0       0       0       0       0       0       
      +0       0       0       0       0       0       0       0       0       0       0       0       0       0       0       
      +0       0       0       0       0       0
  1556 ;;      Locals:         0       0       0       0       0       0       0       0       0       0       0       0       
      +0       0       0       0       0       0       0       0       0       0       0       0       0       0       0       
      +0       0       0       0       0       0
  1557 ;;      Temps:          0       0       0       0       0       0       0       0       0       0       0       0       
      +0       0       0       0       0       0       0       0       0       0       0       0       0       0       0       
      +0       0       0       0       0       0
  1558 ;;      Totals:         0       0       0       0       0       0       0       0       0       0       0       0       
      +0       0       0       0       0       0       0       0       0       0       0       0       0       0       0       
      +0       0       0       0       0       0
  1559 ;;Total ram usage:        0 bytes
  1560 ;; Hardware stack levels used:    1
  1561 ;; Hardware stack levels required when called:    3
  1562 ;; This function calls:
  1563 ;;		Nothing
  1564 ;; This function is called by:
  1565 ;;		_main
  1566 ;; This function uses a reentrant model
  1567 ;;
  1568                           
  1569                           	psect	text2
  1570  0056AE                     __ptext2:
  1571                           	opt callstack 0
  1572  0056AE                     _wait_lcd_check:
  1573                           	opt callstack 27
  1574                           
  1575                           ;eadog.c: 121:  return spi_link.LCD_DATA;
  1576                           
  1577                           ; autosize = 0, savesize = 0, parsavesize = 0, tempsize = 0 parsize = 0, argsize = 0 var
      +                          gsize = 0, retsize = 0 argfudge = 0
  1578                           ;incstack = 0
  1579  0056AE  0100               	movlb	0	; () banked
  1580  0056B0  A76D               	btfss	_spi_link& (0+255),3,b	;volatile
  1581  0056B2  D003               	goto	u3550
  1582  0056B4  6A37               	clrf	btemp,c
  1583  0056B6  2A37               	incf	btemp,f,c
  1584  0056B8  0012               	return	
  1585  0056BA                     u3550:
  1586  0056BA  6A37               	clrf	btemp,c
  1587                           
  1588                           ; _wait_lcd_check: autosize = 0, savesize = 0, parsavesize = 0, tempsize = 0 parsize = 0
      +                          , argsize = 0, vargsize = 0
  1589  0056BC  0012               	return		;funcret
  1590  0056BE                     __end_of_wait_lcd_check:
  1591                           	opt callstack 0
  1592                           
  1593 ;; *************** function _t_protocol *****************
  1594 ;; Defined at:
  1595 ;;		line 116 in file "gemsecs.c"
  1596 ;; Parameters:    Size  Location     Type
  1597 ;;  t_link          1  [STACK] PTR enum E16164
  1598 ;;		 -> V(79), 
  1599 ;; Auto vars:     Size  Location     Type
  1600 ;;  rxData          1  [STACK] unsigned char 
  1601 ;; Return value:  Size  Location     Type
  1602 ;;                  1  [STACK] enum E16885
  1603 ;; Registers used:
  1604 ;;		wreg, fsr1l, fsr1h, fsr2l, fsr2h, status,2, status,0, btemp, btemp+8, btemp+9, btemp+10, btemp+11, prodl, prodh
  1605 ;; Tracked objects:
  1606 ;;		On entry : 0/0
  1607 ;;		On exit  : 0/0
  1608 ;;		Unchanged: 0/0
  1609 ;; Data sizes:     COMRAM   BANK0   BANK1   BANK2   BANK3   BANK4   BANK5   BANK6   BANK7   BANK8   BANK9  BANK10  BANK1
      +1  BANK12  BANK13  BANK14  BANK15  BANK16  BANK17  BANK18  BANK19  BANK20  BANK21  BANK22  BANK23  BANK24  BANK25  BANK2
      +6  BANK27  BANK28  BANK29  BANK30  BANK31
  1610 ;;      Params:         0       0       0       0       0       0       0       0       0       0       0       0       
      +0       0       0       0       0       0       0       0       0       0       0       0       0       0       0       
      +0       0       0       0       0       0
  1611 ;;      Locals:         0       0       0       0       0       0       0       0       0       0       0       0       
      +0       0       0       0       0       0       0       0       0       0       0       0       0       0       0       
      +0       0       0       0       0       0
  1612 ;;      Temps:          0       0       0       0       0       0       0       0       0       0       0       0       
      +0       0       0       0       0       0       0       0       0       0       0       0       0       0       0       
      +0       0       0       0       0       0
  1613 ;;      Totals:         0       0       0       0       0       0       0       0       0       0       0       0       
      +0       0       0       0       0       0       0       0       0       0       0       0       0       0       0       
      +0       0       0       0       0       0
  1614 ;;Total ram usage:        0 bytes
  1615 ;; Hardware stack levels used:    1
  1616 ;; Hardware stack levels required when called:    4
  1617 ;; This function calls:
  1618 ;;		_StartTimer
  1619 ;;		_TimerDone
  1620 ;;		_UART1_Read
  1621 ;;		_UART1_Write
  1622 ;;		_UART1_is_rx_ready
  1623 ;; This function is called by:
  1624 ;;		_main
  1625 ;; This function uses a reentrant model
  1626 ;;
  1627                           
  1628                           	psect	text3
  1629  004072                     __ptext3:
  1630                           	opt callstack 0
  1631  004072                     _t_protocol:
  1632                           	opt callstack 0
  1633                           
  1634                           ; autosize = 1, savesize = 0, parsavesize = 0, tempsize = 0 parsize = 1, argsize = 1 var
      +                          gsize = 0, retsize = 0 argfudge = 0
  1635  004072  52E6               	movf	postinc1,f,c
  1636                           
  1637                           ;gemsecs.c: 116: LINK_STATES t_protocol(LINK_STATES * t_link);gemsecs.c: 117: {;gemsecs.
      +                          c: 118:  uint8_t rxData;;gemsecs.c: 119:  static uint8_t txData_l = 0;;gemsecs.c: 121:  
      +                          switch (*t_link) {
  1638                           
  1639                           ;incstack = 0
  1640  004074  D081               	goto	l5527
  1641  004076                     l1400:
  1642                           
  1643                           ;gemsecs.c: 124:   txData_l = 0;
  1644  004076  0100               	movlb	0	; () banked
  1645  004078  6BCF               	clrf	(_V+74)& (0+255),b	;volatile
  1646                           
  1647                           ; BSR set to: 0
  1648                           ;gemsecs.c: 125:   UART1_Write(0x05);
  1649  00407A  0E05               	movlw	5
  1650  00407C  6EE6               	movwf	postinc1,c
  1651  00407E  ECD7  F027         	call	_UART1_Write	;wreg free
  1652                           
  1653                           ; BSR set to: 57
  1654                           ;gemsecs.c: 126:   StartTimer(TMR_T2, 2000);
  1655  004082  0ED0               	movlw	208
  1656  004084  6EE6               	movwf	postinc1,c
  1657  004086  0E07               	movlw	7
  1658  004088  6EE6               	movwf	postinc1,c
  1659  00408A  0E02               	movlw	2
  1660  00408C  6EE6               	movwf	postinc1,c
  1661  00408E  EC34  F028         	call	_StartTimer	;wreg free
  1662                           
  1663                           ;gemsecs.c: 127:   *t_link = LINK_STATE_ENQ;
  1664                           ;stkvar	_t_link @ sp[(-1)+-1]
  1665  004092  0EFE               	movlw	-2
  1666  004094  50E3               	movf	plusw1,w,c
  1667  004096  6ED9               	movwf	fsr2l,c
  1668  004098  6ADA               	clrf	fsr2h,c
  1669  00409A  0E01               	movlw	1
  1670  00409C  D06B               	goto	L9
  1671  00409E                     l5485:
  1672                           
  1673                           ;gemsecs.c: 130:   if (TimerDone(TMR_T2)) {
  1674  00409E  0E02               	movlw	2
  1675  0040A0  6EE6               	movwf	postinc1,c
  1676  0040A2  EC6B  F02A         	call	_TimerDone	;wreg free
  1677  0040A6  5037               	movf	btemp,w,c
  1678  0040A8  B4D8               	btfsc	status,2,c
  1679  0040AA  D009               	goto	l5491
  1680                           
  1681                           ;gemsecs.c: 131:    V.error = LINK_ERROR_T2;
  1682  0040AC  0E02               	movlw	2
  1683  0040AE  0100               	movlb	0	; () banked
  1684  0040B0  6FCF               	movwf	(_V+74)& (0+255),b	;volatile
  1685                           
  1686                           ; BSR set to: 0
  1687                           ;gemsecs.c: 132:    *t_link = LINK_STATE_NAK;
  1688                           ;stkvar	_t_link @ sp[(-1)+-1]
  1689  0040B2  0EFE               	movlw	-2
  1690  0040B4  50E3               	movf	plusw1,w,c
  1691  0040B6  6ED9               	movwf	fsr2l,c
  1692  0040B8  6ADA               	clrf	fsr2h,c
  1693  0040BA  0E05               	movlw	5
  1694  0040BC  D05B               	goto	L9
  1695  0040BE                     l5491:
  1696                           
  1697                           ;gemsecs.c: 134:    if (UART1_is_rx_ready()) {
  1698  0040BE  EC97  F02B         	call	_UART1_is_rx_ready	;wreg free
  1699  0040C2  5037               	movf	btemp,w,c
  1700  0040C4  B4D8               	btfsc	status,2,c
  1701  0040C6  D079               	goto	l5529
  1702                           
  1703                           ;gemsecs.c: 135:     rxData = UART1_Read();
  1704  0040C8  ECF6  F027         	call	_UART1_Read	;wreg free
  1705                           
  1706                           ;stkvar	_rxData @ sp[(-1)+0]
  1707  0040CC  0EFF               	movlw	-1
  1708  0040CE  0060  F0DF  FFE3   	movff	btemp,plusw1
  1709                           
  1710                           ; BSR set to: 57
  1711                           ;gemsecs.c: 136:     if (rxData == 0x04) {
  1712                           ;stkvar	_rxData @ sp[(-1)+0]
  1713  0040D4  0EFF               	movlw	-1
  1714  0040D6  006F FF8C  F037    	movff	plusw1,btemp
  1715  0040DC  0E04               	movlw	4
  1716  0040DE  1837               	xorwf	btemp,w,c
  1717  0040E0  A4D8               	btfss	status,2,c
  1718  0040E2  D06B               	goto	l5529
  1719                           
  1720                           ; BSR set to: 57
  1721                           ;gemsecs.c: 137:      StartTimer(TMR_T3, 5000);
  1722  0040E4  0E88               	movlw	136
  1723  0040E6  6EE6               	movwf	postinc1,c
  1724  0040E8  0E13               	movlw	19
  1725  0040EA  6EE6               	movwf	postinc1,c
  1726  0040EC  0E03               	movlw	3
  1727  0040EE  6EE6               	movwf	postinc1,c
  1728  0040F0  EC34  F028         	call	_StartTimer	;wreg free
  1729                           
  1730                           ;gemsecs.c: 138:      *t_link = LINK_STATE_EOT;
  1731                           ;stkvar	_t_link @ sp[(-1)+-1]
  1732  0040F4  0EFE               	movlw	-2
  1733  0040F6  50E3               	movf	plusw1,w,c
  1734  0040F8  6ED9               	movwf	fsr2l,c
  1735  0040FA  6ADA               	clrf	fsr2h,c
  1736  0040FC  0E02               	movlw	2
  1737  0040FE  D03A               	goto	L9
  1738  004100                     l5501:
  1739                           
  1740                           ;gemsecs.c: 145:   *t_link = LINK_STATE_ACK;
  1741                           ;stkvar	_t_link @ sp[(-1)+-1]
  1742  004100  0EFE               	movlw	-2
  1743  004102  50E3               	movf	plusw1,w,c
  1744  004104  6ED9               	movwf	fsr2l,c
  1745  004106  6ADA               	clrf	fsr2h,c
  1746  004108  0E03               	movlw	3
  1747  00410A  D034               	goto	L9
  1748  00410C                     l5503:
  1749                           
  1750                           ;gemsecs.c: 148:   if (TimerDone(TMR_T3)) {
  1751  00410C  0E03               	movlw	3
  1752  00410E  6EE6               	movwf	postinc1,c
  1753  004110  EC6B  F02A         	call	_TimerDone	;wreg free
  1754  004114  5037               	movf	btemp,w,c
  1755  004116  B4D8               	btfsc	status,2,c
  1756  004118  D002               	goto	l5509
  1757                           
  1758                           ;gemsecs.c: 149:    V.error = LINK_ERROR_T3;
  1759  00411A  0E03               	movlw	3
  1760  00411C  D7C8               	goto	L8
  1761  00411E                     l5509:
  1762                           
  1763                           ;gemsecs.c: 152:    if (UART1_is_rx_ready()) {
  1764  00411E  EC97  F02B         	call	_UART1_is_rx_ready	;wreg free
  1765  004122  5037               	movf	btemp,w,c
  1766  004124  B4D8               	btfsc	status,2,c
  1767  004126  D049               	goto	l5529
  1768                           
  1769                           ;gemsecs.c: 153:     rxData = UART1_Read();
  1770  004128  ECF6  F027         	call	_UART1_Read	;wreg free
  1771                           
  1772                           ;stkvar	_rxData @ sp[(-1)+0]
  1773  00412C  0EFF               	movlw	-1
  1774  00412E  0060  F0DF  FFE3   	movff	btemp,plusw1
  1775                           
  1776                           ; BSR set to: 57
  1777                           ;gemsecs.c: 154:     if (rxData == 0x06) {
  1778                           ;stkvar	_rxData @ sp[(-1)+0]
  1779  004134  0EFF               	movlw	-1
  1780  004136  006F FF8C  F037    	movff	plusw1,btemp
  1781  00413C  0E06               	movlw	6
  1782  00413E  1837               	xorwf	btemp,w,c
  1783  004140  A4D8               	btfss	status,2,c
  1784  004142  D03B               	goto	l5529
  1785                           
  1786                           ; BSR set to: 57
  1787                           ;gemsecs.c: 155:      *t_link = LINK_STATE_DONE;
  1788                           ;stkvar	_t_link @ sp[(-1)+-1]
  1789  004144  0EFE               	movlw	-2
  1790  004146  50E3               	movf	plusw1,w,c
  1791  004148  6ED9               	movwf	fsr2l,c
  1792  00414A  6ADA               	clrf	fsr2h,c
  1793  00414C  0E04               	movlw	4
  1794  00414E  D012               	goto	L9
  1795  004150                     l5517:
  1796                           
  1797                           ;gemsecs.c: 161:   *t_link = LINK_STATE_ERROR;
  1798                           ;stkvar	_t_link @ sp[(-1)+-1]
  1799  004150  0EFE               	movlw	-2
  1800  004152  50E3               	movf	plusw1,w,c
  1801  004154  6ED9               	movwf	fsr2l,c
  1802  004156  6ADA               	clrf	fsr2h,c
  1803  004158  0E06               	movlw	6
  1804  00415A  6EDF               	movwf	indf2,c
  1805                           
  1806                           ;gemsecs.c: 162:   while ((uart1RxCount)) {
  1807  00415C  D002               	goto	l5521
  1808  00415E                     l5519:
  1809                           
  1810                           ;gemsecs.c: 163:    UART1_Read();
  1811  00415E  ECF6  F027         	call	_UART1_Read	;wreg free
  1812  004162                     l5521:
  1813                           
  1814                           ;gemsecs.c: 162:   while ((uart1RxCount)) {
  1815  004162  5031               	movf	_uart1RxCount,w,c	;volatile
  1816  004164  B4D8               	btfsc	status,2,c
  1817  004166  D029               	goto	l5529
  1818  004168  D7FA               	goto	l5519
  1819  00416A                     l5523:
  1820                           
  1821                           ;gemsecs.c: 171:   *t_link = LINK_STATE_IDLE;
  1822                           ;stkvar	_t_link @ sp[(-1)+-1]
  1823  00416A  0EFE               	movlw	-2
  1824  00416C  50E3               	movf	plusw1,w,c
  1825  00416E  6ED9               	movwf	fsr2l,c
  1826  004170  6ADA               	clrf	fsr2h,c
  1827  004172  0E00               	movlw	0
  1828  004174                     L9:
  1829  004174  6EDF               	movwf	indf2,c
  1830                           
  1831                           ;gemsecs.c: 172:   break;
  1832  004176  D021               	goto	l5529
  1833  004178                     l5527:
  1834                           
  1835                           ;stkvar	_t_link @ sp[(-1)+-1]
  1836  004178  0EFE               	movlw	-2
  1837  00417A  50E3               	movf	plusw1,w,c
  1838  00417C  6ED9               	movwf	fsr2l,c
  1839  00417E  6ADA               	clrf	fsr2h,c
  1840  004180  50DF               	movf	indf2,w,c
  1841  004182  6E41               	movwf	btemp+10,c
  1842  004184  6A42               	clrf	btemp+11,c
  1843                           
  1844                           ; Switch on 2 bytes has been partitioned into a top level switch of size 1, and 1 sub-sw
      +                          itches
  1845                           ; Switch size 1, requested type "simple"
  1846                           ; Number of cases is 1, Range of values is 0 to 0
  1847                           ; switch strategies available:
  1848                           ; Name         Instructions Cycles
  1849                           ; simple_byte            4     3 (average)
  1850                           ;	Chosen strategy is simple_byte
  1851  004186  5042               	movf	btemp+11,w,c
  1852  004188  0A00               	xorlw	0	; case 0
  1853  00418A  A4D8               	btfss	status,2,c
  1854  00418C  D7EE               	goto	l5523
  1855                           
  1856                           ; Switch size 1, requested type "simple"
  1857                           ; Number of cases is 7, Range of values is 0 to 6
  1858                           ; switch strategies available:
  1859                           ; Name         Instructions Cycles
  1860                           ; simple_byte           22    12 (average)
  1861                           ;	Chosen strategy is simple_byte
  1862  00418E  5041               	movf	btemp+10,w,c
  1863  004190  0A00               	xorlw	0	; case 0
  1864  004192  B4D8               	btfsc	status,2,c
  1865  004194  D770               	goto	l1400
  1866  004196  0A01               	xorlw	1	; case 1
  1867  004198  B4D8               	btfsc	status,2,c
  1868  00419A  D781               	goto	l5485
  1869  00419C  0A03               	xorlw	3	; case 2
  1870  00419E  B4D8               	btfsc	status,2,c
  1871  0041A0  D7AF               	goto	l5501
  1872  0041A2  0A01               	xorlw	1	; case 3
  1873  0041A4  B4D8               	btfsc	status,2,c
  1874  0041A6  D7B2               	goto	l5503
  1875  0041A8  0A07               	xorlw	7	; case 4
  1876  0041AA  B4D8               	btfsc	status,2,c
  1877  0041AC  D006               	goto	l5529
  1878  0041AE  0A01               	xorlw	1	; case 5
  1879  0041B0  B4D8               	btfsc	status,2,c
  1880  0041B2  D7CE               	goto	l5517
  1881  0041B4  0A03               	xorlw	3	; case 6
  1882  0041B6  A4D8               	btfss	status,2,c
  1883  0041B8  D7D8               	goto	l5523
  1884  0041BA                     l5529:
  1885                           
  1886                           ;gemsecs.c: 175:  return *t_link;
  1887                           ;stkvar	_t_link @ sp[(-1)+-1]
  1888  0041BA  0EFE               	movlw	-2
  1889  0041BC  50E3               	movf	plusw1,w,c
  1890  0041BE  6ED9               	movwf	fsr2l,c
  1891  0041C0  6ADA               	clrf	fsr2h,c
  1892  0041C2  50DF               	movf	indf2,w,c
  1893  0041C4  6E37               	movwf	btemp,c
  1894                           
  1895                           ; _t_protocol: autosize = 1, savesize = 0, parsavesize = 0, tempsize = 0 parsize = 1, ar
      +                          gsize = 1, vargsize = 0
  1896  0041C6  52E5               	movf	postdec1,f,c
  1897  0041C8  52E5               	movf	postdec1,f,c
  1898  0041CA  0012               	return		;funcret
  1899  0041CC                     __end_of_t_protocol:
  1900                           	opt callstack 0
  1901                           
  1902 ;; *************** function _sprintf *****************
  1903 ;; Defined at:
  1904 ;;		line 9 in file "/opt/microchip/xc8/v2.05/pic/sources/c99/common/nf_sprintf.c"
  1905 ;; Parameters:    Size  Location     Type
  1906 ;;  s               1  [STACK] PTR unsigned char 
  1907 ;;		 -> V(79), 
  1908 ;;  fmt             1  [STACK] PTR const unsigned char 
  1909 ;;		 -> STR_4(19), STR_3(6), STR_2(10), STR_1(61), 
  1910 ;; Auto vars:     Size  Location     Type
  1911 ;;  f               5  [STACK] struct _IO_FILE
  1912 ;;  ap              2  [STACK] PTR void [1]
  1913 ;;		 -> ?_printf(2), ?_sprintf(2), 
  1914 ;;  ret             2    0        int 
  1915 ;; Return value:  Size  Location     Type
  1916 ;;                  2  [STACK] int 
  1917 ;; Registers used:
  1918 ;;		wreg, fsr0l, fsr0h, fsr1l, fsr1h, fsr2l, fsr2h, status,2, status,0, btemp, btemp+1, btemp+8, btemp+9, btemp+10, btem
      +p+11, btemp+16, btemp+17, btemp+18, btemp+19, btemp+20, btemp+21, btemp+22, btemp+23, tblptrl, tblptrh, tblptru, prodl, 
      +prodh
  1919 ;; Tracked objects:
  1920 ;;		On entry : 0/3D
  1921 ;;		On exit  : 0/0
  1922 ;;		Unchanged: 0/0
  1923 ;; Data sizes:     COMRAM   BANK0   BANK1   BANK2   BANK3   BANK4   BANK5   BANK6   BANK7   BANK8   BANK9  BANK10  BANK1
      +1  BANK12  BANK13  BANK14  BANK15  BANK16  BANK17  BANK18  BANK19  BANK20  BANK21  BANK22  BANK23  BANK24  BANK25  BANK2
      +6  BANK27  BANK28  BANK29  BANK30  BANK31
  1924 ;;      Params:         0       0       0       0       0       0       0       0       0       0       0       0       
      +0       0       0       0       0       0       0       0       0       0       0       0       0       0       0       
      +0       0       0       0       0       0
  1925 ;;      Locals:         0       0       0       0       0       0       0       0       0       0       0       0       
      +0       0       0       0       0       0       0       0       0       0       0       0       0       0       0       
      +0       0       0       0       0       0
  1926 ;;      Temps:          0       0       0       0       0       0       0       0       0       0       0       0       
      +0       0       0       0       0       0       0       0       0       0       0       0       0       0       0       
      +0       0       0       0       0       0
  1927 ;;      Totals:         0       0       0       0       0       0       0       0       0       0       0       0       
      +0       0       0       0       0       0       0       0       0       0       0       0       0       0       0       
      +0       0       0       0       0       0
  1928 ;;Total ram usage:        0 bytes
  1929 ;; Hardware stack levels used:    1
  1930 ;; Hardware stack levels required when called:   11
  1931 ;; This function calls:
  1932 ;;		_vfprintf
  1933 ;; This function is called by:
  1934 ;;		_main
  1935 ;; This function uses a reentrant model
  1936 ;;
  1937                           
  1938                           	psect	text4
  1939  0044D6                     __ptext4:
  1940                           	opt callstack 0
  1941  0044D6                     _sprintf:
  1942                           	opt callstack 0
  1943                           
  1944                           ; autosize = 7, savesize = 0, parsavesize = 0, tempsize = 0 parsize = 26, argsize = 2 va
      +                          rgsize = 0, retsize = 0 argfudge = 0
  1945  0044D6  0E07               	movlw	7
  1946  0044D8  26E1               	addwf	fsr1l,f,c
  1947  0044DA  0E00               	movlw	0
  1948  0044DC  22E2               	addwfc	fsr1h,f,c
  1949                           
  1950                           ;stkvar	?_sprintf @ sp[(-7)+-3]
  1951                           
  1952                           ;incstack = 0
  1953  0044DE  0EF6               	movlw	246
  1954  0044E0  24E1               	addwf	fsr1l,w,c
  1955  0044E2  6E41               	movwf	btemp+10,c
  1956  0044E4  0EFF               	movlw	255
  1957  0044E6  20E2               	addwfc	fsr1h,w,c
  1958  0044E8  6E42               	movwf	btemp+11,c
  1959                           
  1960                           ;stkvar	_ap @ sp[(-7)+5]
  1961  0044EA  0EFF               	movlw	-1
  1962  0044EC  0060  F10B  FFE3   	movff	btemp+11,plusw1
  1963  0044F2  0EFE               	movlw	-2
  1964  0044F4  0060  F107  FFE3   	movff	btemp+10,plusw1
  1965                           
  1966                           ;stkvar	_s @ sp[(-7)+-2]
  1967  0044FA  0EF7               	movlw	-9
  1968  0044FC  006F FF8C  F042    	movff	plusw1,btemp+11
  1969                           
  1970                           ;stkvar	_f @ sp[(-7)+0]
  1971  004502  0EF9               	movlw	-7
  1972  004504  0060  F10B  FFE3   	movff	btemp+11,plusw1
  1973                           
  1974                           ;stkvar	_f @ sp[(-7)+0]
  1975  00450A  0EFA               	movlw	250
  1976  00450C  24E1               	addwf	fsr1l,w,c
  1977  00450E  6ED9               	movwf	fsr2l,c
  1978  004510  0EFF               	movlw	255
  1979  004512  20E2               	addwfc	fsr1h,w,c
  1980  004514  6EDA               	movwf	fsr2h,c
  1981  004516  0E00               	movlw	0
  1982  004518  6EDE               	movwf	postinc2,c
  1983  00451A  0E00               	movlw	0
  1984  00451C  6EDD               	movwf	postdec2,c
  1985                           
  1986                           ;stkvar	_f @ sp[(-7)+0]
  1987  00451E  0EFC               	movlw	252
  1988  004520  24E1               	addwf	fsr1l,w,c
  1989  004522  6ED9               	movwf	fsr2l,c
  1990  004524  0EFF               	movlw	255
  1991  004526  20E2               	addwfc	fsr1h,w,c
  1992  004528  6EDA               	movwf	fsr2h,c
  1993  00452A  0E00               	movlw	0
  1994  00452C  6EDE               	movwf	postinc2,c
  1995  00452E  0E00               	movlw	0
  1996  004530  6EDD               	movwf	postdec2,c
  1997                           
  1998                           ;stkvar	_ap @ sp[(-7)+5]
  1999  004532  0EFE               	movlw	254
  2000  004534  24E1               	addwf	fsr1l,w,c
  2001  004536  6E37               	movwf	btemp,c
  2002  004538  0EFF               	movlw	255
  2003  00453A  20E2               	addwfc	fsr1h,w,c
  2004  00453C  6E38               	movwf	btemp+1,c
  2005  00453E  0060  F0DF  FFE6   	movff	btemp,postinc1
  2006  004544  0060  F0E3  FFE6   	movff	btemp+1,postinc1
  2007                           
  2008                           ;stkvar	_fmt @ sp[(-9)+-3]
  2009  00454A  0EF4               	movlw	-12
  2010  00454C  50E3               	movf	plusw1,w,c
  2011  00454E  6EE6               	movwf	postinc1,c
  2012                           
  2013                           ;stkvar	_f @ sp[(-10)+0]
  2014  004550  0EF6               	movlw	246
  2015  004552  24E1               	addwf	fsr1l,w,c
  2016  004554  6E37               	movwf	btemp,c
  2017  004556  0EFF               	movlw	255
  2018  004558  20E2               	addwfc	fsr1h,w,c
  2019  00455A  6E38               	movwf	btemp+1,c
  2020  00455C  0060  F0DF  FFE6   	movff	btemp,postinc1
  2021  004562  0060  F0E3  FFE6   	movff	btemp+1,postinc1
  2022  004568  EC6F  F024         	call	_vfprintf	;wreg free
  2023                           
  2024                           ;stkvar	_f @ sp[(-7)+0]
  2025  00456C  0EFA               	movlw	250
  2026  00456E  24E1               	addwf	fsr1l,w,c
  2027  004570  6ED9               	movwf	fsr2l,c
  2028  004572  0EFF               	movlw	255
  2029  004574  20E2               	addwfc	fsr1h,w,c
  2030  004576  6EDA               	movwf	fsr2h,c
  2031  004578  50DF               	movf	indf2,w,c
  2032  00457A  6E42               	movwf	btemp+11,c
  2033                           
  2034                           ;stkvar	_s @ sp[(-7)+-2]
  2035  00457C  0EF7               	movlw	-9
  2036  00457E  50E3               	movf	plusw1,w,c
  2037  004580  2442               	addwf	btemp+11,w,c
  2038  004582  6ED9               	movwf	fsr2l,c
  2039  004584  6ADA               	clrf	fsr2h,c
  2040  004586  0E00               	movlw	0
  2041  004588  6EDF               	movwf	indf2,c
  2042                           
  2043                           ; _sprintf: autosize = 7, savesize = 0, parsavesize = 0, tempsize = 0 parsize = 26, args
      +                          ize = 2, vargsize = 0
  2044  00458A  0EF9               	movlw	249
  2045  00458C  26E1               	addwf	fsr1l,f,c
  2046  00458E  0EFF               	movlw	255
  2047  004590  22E2               	addwfc	fsr1h,f,c
  2048  004592  52E5               	movf	postdec1,f,c
  2049  004594  50E7               	movf	indf1,w,c
  2050  004596  5EE1               	subwf	fsr1l,f,c
  2051  004598  0E00               	movlw	0
  2052  00459A  5AE2               	subwfb	fsr1h,f,c
  2053  00459C  0012               	return		;funcret
  2054  00459E                     __end_of_sprintf:
  2055                           	opt callstack 0
  2056                           
  2057 ;; *************** function _r_protocol *****************
  2058 ;; Defined at:
  2059 ;;		line 34 in file "gemsecs.c"
  2060 ;; Parameters:    Size  Location     Type
  2061 ;;  r_link          1  [STACK] PTR enum E16164
  2062 ;;		 -> V(79), 
  2063 ;; Auto vars:     Size  Location     Type
  2064 ;;  rxData          1  [STACK] unsigned char 
  2065 ;; Return value:  Size  Location     Type
  2066 ;;                  1  [STACK] enum E16885
  2067 ;; Registers used:
  2068 ;;		wreg, fsr1l, fsr1h, fsr2l, fsr2h, status,2, status,0, btemp, btemp+1, btemp+8, btemp+9, btemp+10, btemp+11, prodl, p
      +rodh
  2069 ;; Tracked objects:
  2070 ;;		On entry : 0/0
  2071 ;;		On exit  : 0/0
  2072 ;;		Unchanged: 0/0
  2073 ;; Data sizes:     COMRAM   BANK0   BANK1   BANK2   BANK3   BANK4   BANK5   BANK6   BANK7   BANK8   BANK9  BANK10  BANK1
      +1  BANK12  BANK13  BANK14  BANK15  BANK16  BANK17  BANK18  BANK19  BANK20  BANK21  BANK22  BANK23  BANK24  BANK25  BANK2
      +6  BANK27  BANK28  BANK29  BANK30  BANK31
  2074 ;;      Params:         0       0       0       0       0       0       0       0       0       0       0       0       
      +0       0       0       0       0       0       0       0       0       0       0       0       0       0       0       
      +0       0       0       0       0       0
  2075 ;;      Locals:         0       0       0       0       0       0       0       0       0       0       0       0       
      +0       0       0       0       0       0       0       0       0       0       0       0       0       0       0       
      +0       0       0       0       0       0
  2076 ;;      Temps:          0       0       0       0       0       0       0       0       0       0       0       0       
      +0       0       0       0       0       0       0       0       0       0       0       0       0       0       0       
      +0       0       0       0       0       0
  2077 ;;      Totals:         0       0       0       0       0       0       0       0       0       0       0       0       
      +0       0       0       0       0       0       0       0       0       0       0       0       0       0       0       
      +0       0       0       0       0       0
  2078 ;;Total ram usage:        0 bytes
  2079 ;; Hardware stack levels used:    1
  2080 ;; Hardware stack levels required when called:    4
  2081 ;; This function calls:
  2082 ;;		_StartTimer
  2083 ;;		_TimerDone
  2084 ;;		_UART1_Read
  2085 ;;		_UART1_Write
  2086 ;;		_UART1_is_rx_ready
  2087 ;;		_run_checksum
  2088 ;; This function is called by:
  2089 ;;		_main
  2090 ;; This function uses a reentrant model
  2091 ;;
  2092                           
  2093                           	psect	text5
  2094  003C16                     __ptext5:
  2095                           	opt callstack 0
  2096  003C16                     _r_protocol:
  2097                           	opt callstack 0
  2098                           
  2099                           ; autosize = 1, savesize = 0, parsavesize = 0, tempsize = 0 parsize = 1, argsize = 1 var
      +                          gsize = 0, retsize = 0 argfudge = 0
  2100  003C16  52E6               	movf	postinc1,f,c
  2101                           
  2102                           ;gemsecs.c: 34: LINK_STATES r_protocol(LINK_STATES *r_link);gemsecs.c: 35: {;gemsecs.c: 
      +                          36:  uint8_t rxData;;gemsecs.c: 37:  static uint8_t rxData_l = 0;;gemsecs.c: 39:  switch
      +                           (*r_link) {
  2103                           
  2104                           ;incstack = 0
  2105  003C18  D0EB               	goto	l5465
  2106  003C1A                     l5385:
  2107                           
  2108                           ;gemsecs.c: 41:   if (UART1_is_rx_ready()) {
  2109  003C1A  EC97  F02B         	call	_UART1_is_rx_ready	;wreg free
  2110  003C1E  5037               	movf	btemp,w,c
  2111  003C20  B4D8               	btfsc	status,2,c
  2112  003C22  D107               	goto	l5467
  2113                           
  2114                           ;gemsecs.c: 42:    rxData = UART1_Read();
  2115  003C24  ECF6  F027         	call	_UART1_Read	;wreg free
  2116                           
  2117                           ;stkvar	_rxData @ sp[(-1)+0]
  2118  003C28  0EFF               	movlw	-1
  2119  003C2A  0060  F0DF  FFE3   	movff	btemp,plusw1
  2120                           
  2121                           ; BSR set to: 57
  2122                           ;gemsecs.c: 43:    if (rxData == 0x05) {
  2123                           ;stkvar	_rxData @ sp[(-1)+0]
  2124  003C30  0EFF               	movlw	-1
  2125  003C32  006F FF8C  F037    	movff	plusw1,btemp
  2126  003C38  0E05               	movlw	5
  2127  003C3A  1837               	xorwf	btemp,w,c
  2128  003C3C  A4D8               	btfss	status,2,c
  2129  003C3E  D0F9               	goto	l5467
  2130                           
  2131                           ; BSR set to: 57
  2132                           ;gemsecs.c: 44:     V.error = LINK_ERROR_NONE;
  2133  003C40  0100               	movlb	0	; () banked
  2134  003C42  6BCF               	clrf	(_V+74)& (0+255),b	;volatile
  2135                           
  2136                           ; BSR set to: 0
  2137                           ;gemsecs.c: 45:     *r_link = LINK_STATE_ENQ;
  2138                           ;stkvar	_r_link @ sp[(-1)+-1]
  2139  003C44  0EFE               	movlw	-2
  2140  003C46  50E3               	movf	plusw1,w,c
  2141  003C48  6ED9               	movwf	fsr2l,c
  2142  003C4A  6ADA               	clrf	fsr2h,c
  2143  003C4C  0E01               	movlw	1
  2144  003C4E  D0CE               	goto	L15
  2145  003C50                     l1372:
  2146                           
  2147                           ;gemsecs.c: 50:   rxData_l = 0;
  2148  003C50  6A2A               	clrf	r_protocol@rxData_l,c
  2149                           
  2150                           ;gemsecs.c: 51:   UART1_Write(0x04);
  2151  003C52  0E04               	movlw	4
  2152  003C54  6EE6               	movwf	postinc1,c
  2153  003C56  ECD7  F027         	call	_UART1_Write	;wreg free
  2154                           
  2155                           ; BSR set to: 57
  2156                           ;gemsecs.c: 52:   StartTimer(TMR_T2, 2000);
  2157  003C5A  0ED0               	movlw	208
  2158  003C5C  6EE6               	movwf	postinc1,c
  2159  003C5E  0E07               	movlw	7
  2160  003C60  6EE6               	movwf	postinc1,c
  2161  003C62  0E02               	movlw	2
  2162  003C64  6EE6               	movwf	postinc1,c
  2163  003C66  EC34  F028         	call	_StartTimer	;wreg free
  2164                           
  2165                           ;gemsecs.c: 53:   *r_link = LINK_STATE_EOT;
  2166                           ;stkvar	_r_link @ sp[(-1)+-1]
  2167  003C6A  0EFE               	movlw	-2
  2168  003C6C  50E3               	movf	plusw1,w,c
  2169  003C6E  6ED9               	movwf	fsr2l,c
  2170  003C70  6ADA               	clrf	fsr2h,c
  2171  003C72  0E02               	movlw	2
  2172  003C74  D0BB               	goto	L15
  2173  003C76                     l5401:
  2174                           
  2175                           ;gemsecs.c: 56:   if (TimerDone(TMR_T2)) {
  2176  003C76  0E02               	movlw	2
  2177  003C78  6EE6               	movwf	postinc1,c
  2178  003C7A  EC6B  F02A         	call	_TimerDone	;wreg free
  2179  003C7E  5037               	movf	btemp,w,c
  2180  003C80  B4D8               	btfsc	status,2,c
  2181  003C82  D009               	goto	l5407
  2182                           
  2183                           ;gemsecs.c: 57:    V.error = LINK_ERROR_T2;
  2184  003C84  0E02               	movlw	2
  2185  003C86  0100               	movlb	0	; () banked
  2186  003C88  6FCF               	movwf	(_V+74)& (0+255),b	;volatile
  2187                           
  2188                           ; BSR set to: 0
  2189                           ;gemsecs.c: 58:    *r_link = LINK_STATE_NAK;
  2190                           ;stkvar	_r_link @ sp[(-1)+-1]
  2191  003C8A  0EFE               	movlw	-2
  2192  003C8C  50E3               	movf	plusw1,w,c
  2193  003C8E  6ED9               	movwf	fsr2l,c
  2194  003C90  6ADA               	clrf	fsr2h,c
  2195  003C92  0E05               	movlw	5
  2196  003C94  D0AB               	goto	L15
  2197  003C96                     l5407:
  2198                           
  2199                           ;gemsecs.c: 60:    if (UART1_is_rx_ready()) {
  2200  003C96  EC97  F02B         	call	_UART1_is_rx_ready	;wreg free
  2201  003C9A  5037               	movf	btemp,w,c
  2202  003C9C  B4D8               	btfsc	status,2,c
  2203  003C9E  D0C9               	goto	l5467
  2204                           
  2205                           ;gemsecs.c: 61:     rxData = UART1_Read();
  2206  003CA0  ECF6  F027         	call	_UART1_Read	;wreg free
  2207                           
  2208                           ;stkvar	_rxData @ sp[(-1)+0]
  2209  003CA4  0EFF               	movlw	-1
  2210  003CA6  0060  F0DF  FFE3   	movff	btemp,plusw1
  2211                           
  2212                           ; BSR set to: 57
  2213                           ;gemsecs.c: 62:     if (rxData_l == 0) {
  2214  003CAC  502A               	movf	r_protocol@rxData_l,w,c
  2215  003CAE  A4D8               	btfss	status,2,c
  2216  003CB0  D00C               	goto	l5419
  2217                           
  2218                           ; BSR set to: 57
  2219                           ;gemsecs.c: 63:      r_block.length = rxData;
  2220                           ;stkvar	_rxData @ sp[(-1)+0]
  2221  003CB2  0EFF               	movlw	-1
  2222  003CB4  006F FF8C  F06C    	movff	plusw1,_r_block+12
  2223                           
  2224                           ; BSR set to: 57
  2225                           ;gemsecs.c: 64:      run_checksum(0, 1);
  2226  003CBA  0E01               	movlw	1
  2227  003CBC  6EE6               	movwf	postinc1,c
  2228  003CBE  0E00               	movlw	0
  2229  003CC0  6EE6               	movwf	postinc1,c
  2230  003CC2  ECDB  F028         	call	_run_checksum	;wreg free
  2231                           
  2232                           ;gemsecs.c: 65:      rxData_l++;
  2233  003CC6  2A2A               	incf	r_protocol@rxData_l,f,c
  2234                           
  2235                           ;gemsecs.c: 66:     } else {
  2236  003CC8  D0B4               	goto	l5467
  2237  003CCA                     l5419:
  2238                           
  2239                           ; BSR set to: 57
  2240                           ;gemsecs.c: 70:      if (rxData_l <= 10)
  2241  003CCA  0E0B               	movlw	11
  2242  003CCC  602A               	cpfslt	r_protocol@rxData_l,c
  2243  003CCE  D00A               	goto	l5423
  2244                           
  2245                           ; BSR set to: 57
  2246                           ;gemsecs.c: 71:       H10[1].block.b[r_block.length - rxData_l] = rxData;
  2247                           ;stkvar	_rxData @ sp[(-1)+0]
  2248  003CD0  502A               	movf	r_protocol@rxData_l,w,c
  2249  003CD2  08E3               	sublw	low (_H10+15)
  2250  003CD4  0100               	movlb	0	; () banked
  2251  003CD6  256C               	addwf	(_r_block+12)& (0+255),w,b
  2252  003CD8  6ED9               	movwf	fsr2l,c
  2253  003CDA  6ADA               	clrf	fsr2h,c
  2254  003CDC  0EFF               	movlw	-1
  2255  003CDE  006F FF8F FFDF     	movff	plusw1,indf2
  2256  003CE4                     l5423:
  2257                           
  2258                           ;gemsecs.c: 72:      if (rxData_l <= r_block.length)
  2259  003CE4  502A               	movf	r_protocol@rxData_l,w,c
  2260  003CE6  0100               	movlb	0	; () banked
  2261  003CE8  5D6C               	subwf	(_r_block+12)& (0+255),w,b
  2262  003CEA  A0D8               	btfss	status,0,c
  2263  003CEC  D00D               	goto	l5427
  2264                           
  2265                           ; BSR set to: 0
  2266                           ;gemsecs.c: 73:       V.r_checksum = run_checksum(rxData, 0);
  2267  003CEE  0E00               	movlw	0
  2268  003CF0  6EE6               	movwf	postinc1,c
  2269                           
  2270                           ;stkvar	_rxData @ sp[(-2)+0]
  2271  003CF2  0EFE               	movlw	-2
  2272  003CF4  50E3               	movf	plusw1,w,c
  2273  003CF6  6EE6               	movwf	postinc1,c
  2274  003CF8  ECDB  F028         	call	_run_checksum	;wreg free
  2275  003CFC  0060  F0DC  F0D0   	movff	btemp,_V+75	;volatile
  2276  003D02  0060  F0E0  F0D1   	movff	btemp+1,_V+76	;volatile
  2277  003D08                     l5427:
  2278                           
  2279                           ;gemsecs.c: 75:      if (rxData_l == r_block.length + 1)
  2280  003D08  502A               	movf	r_protocol@rxData_l,w,c
  2281  003D0A  6E41               	movwf	btemp+10,c
  2282  003D0C  6A42               	clrf	btemp+11,c
  2283  003D0E  0100               	movlb	0	; () banked
  2284  003D10  516C               	movf	(_r_block+12)& (0+255),w,b
  2285  003D12  6E3F               	movwf	btemp+8,c
  2286  003D14  6A40               	clrf	btemp+9,c
  2287  003D16  0E01               	movlw	1
  2288  003D18  263F               	addwf	btemp+8,f,c
  2289  003D1A  0E00               	movlw	0
  2290  003D1C  2240               	addwfc	btemp+9,f,c
  2291  003D1E  5041               	movf	btemp+10,w,c
  2292  003D20  183F               	xorwf	btemp+8,w,c
  2293  003D22  E108               	bnz	l5431
  2294  003D24  5042               	movf	btemp+11,w,c
  2295  003D26  1840               	xorwf	btemp+9,w,c
  2296  003D28  A4D8               	btfss	status,2,c
  2297  003D2A  D004               	goto	l5431
  2298                           
  2299                           ; BSR set to: 0
  2300                           ;gemsecs.c: 76:       H10[1].checksum = (uint16_t) rxData << 8;
  2301                           ;stkvar	_rxData @ sp[(-1)+0]
  2302  003D2C  0EFF               	movlw	-1
  2303  003D2E  50E3               	movf	plusw1,w,c
  2304  003D30  6FE2               	movwf	(_H10+14)& (0+255),b
  2305  003D32  6BE1               	clrf	(_H10+13)& (0+255),b
  2306  003D34                     l5431:
  2307                           
  2308                           ; BSR set to: 0
  2309                           ;gemsecs.c: 77:      if (rxData_l == r_block.length + 2)
  2310  003D34  502A               	movf	r_protocol@rxData_l,w,c
  2311  003D36  6E41               	movwf	btemp+10,c
  2312  003D38  6A42               	clrf	btemp+11,c
  2313  003D3A  516C               	movf	(_r_block+12)& (0+255),w,b
  2314  003D3C  6E3F               	movwf	btemp+8,c
  2315  003D3E  6A40               	clrf	btemp+9,c
  2316  003D40  0E02               	movlw	2
  2317  003D42  263F               	addwf	btemp+8,f,c
  2318  003D44  0E00               	movlw	0
  2319  003D46  2240               	addwfc	btemp+9,f,c
  2320  003D48  5041               	movf	btemp+10,w,c
  2321  003D4A  183F               	xorwf	btemp+8,w,c
  2322  003D4C  E109               	bnz	l5435
  2323  003D4E  5042               	movf	btemp+11,w,c
  2324  003D50  1840               	xorwf	btemp+9,w,c
  2325  003D52  A4D8               	btfss	status,2,c
  2326  003D54  D005               	goto	l5435
  2327                           
  2328                           ; BSR set to: 0
  2329                           ;gemsecs.c: 78:       H10[1].checksum += rxData;
  2330                           ;stkvar	_rxData @ sp[(-1)+0]
  2331  003D56  0EFF               	movlw	-1
  2332  003D58  50E3               	movf	plusw1,w,c
  2333  003D5A  27E1               	addwf	(_H10+13)& (0+255),f,b
  2334  003D5C  0E00               	movlw	0
  2335  003D5E  23E2               	addwfc	(_H10+14)& (0+255),f,b
  2336  003D60                     l5435:
  2337                           
  2338                           ; BSR set to: 0
  2339                           ;gemsecs.c: 80:      rxData_l++;
  2340  003D60  2A2A               	incf	r_protocol@rxData_l,f,c
  2341                           
  2342                           ; BSR set to: 0
  2343                           ;gemsecs.c: 81:      if (rxData_l > (r_block.length + 2)) {
  2344  003D62  502A               	movf	r_protocol@rxData_l,w,c
  2345  003D64  6E41               	movwf	btemp+10,c
  2346  003D66  6A42               	clrf	btemp+11,c
  2347  003D68  516C               	movf	(_r_block+12)& (0+255),w,b
  2348  003D6A  6E3F               	movwf	btemp+8,c
  2349  003D6C  6A40               	clrf	btemp+9,c
  2350  003D6E  0E02               	movlw	2
  2351  003D70  263F               	addwf	btemp+8,f,c
  2352  003D72  0E00               	movlw	0
  2353  003D74  2240               	addwfc	btemp+9,f,c
  2354  003D76  5041               	movf	btemp+10,w,c
  2355  003D78  5C3F               	subwf	btemp+8,w,c
  2356  003D7A  5040               	movf	btemp+9,w,c
  2357  003D7C  0A80               	xorlw	128
  2358  003D7E  6E37               	movwf	btemp,c
  2359  003D80  5042               	movf	btemp+11,w,c
  2360  003D82  0A80               	xorlw	128
  2361  003D84  5837               	subwfb	btemp,w,c
  2362  003D86  B0D8               	btfsc	status,0,c
  2363  003D88  D054               	goto	l5467
  2364                           
  2365                           ; BSR set to: 0
  2366                           ;gemsecs.c: 82:       if (V.r_checksum == H10[1].checksum) {
  2367  003D8A  51E1               	movf	(_H10+13)& (0+255),w,b
  2368  003D8C  19D0               	xorwf	(_V+75)& (0+255),w,b	;volatile
  2369  003D8E  E10A               	bnz	l5443
  2370  003D90  51E2               	movf	(_H10+14)& (0+255),w,b
  2371  003D92  19D1               	xorwf	(_V+76)& (0+255),w,b	;volatile
  2372  003D94  A4D8               	btfss	status,2,c
  2373  003D96  D006               	goto	l5443
  2374                           
  2375                           ; BSR set to: 0
  2376                           ;gemsecs.c: 83:        *r_link = LINK_STATE_ACK;
  2377                           ;stkvar	_r_link @ sp[(-1)+-1]
  2378  003D98  0EFE               	movlw	-2
  2379  003D9A  50E3               	movf	plusw1,w,c
  2380  003D9C  6ED9               	movwf	fsr2l,c
  2381  003D9E  6ADA               	clrf	fsr2h,c
  2382  003DA0  0E03               	movlw	3
  2383  003DA2  D024               	goto	L15
  2384  003DA4                     l5443:
  2385                           
  2386                           ; BSR set to: 0
  2387                           ;gemsecs.c: 85:        V.error = LINK_ERROR_CHECKSUM;
  2388  003DA4  0E05               	movlw	5
  2389  003DA6  D770               	goto	L14
  2390  003DA8                     l5447:
  2391                           
  2392                           ;gemsecs.c: 94:   V.stream = H10[1].block.block.stream;
  2393  003DA8  0100               	movlb	0	; () banked
  2394  003DAA  51EA               	movf	(_H10+22)& (0+255),w,b
  2395  003DAC  0B7F               	andlw	127
  2396  003DAE  6FCD               	movwf	(_V+72)& (0+255),b	;volatile
  2397                           
  2398                           ; BSR set to: 0
  2399                           ;gemsecs.c: 95:   V.function = H10[1].block.block.function;
  2400  003DB0  C0E9  F0CE         	movff	_H10+21,_V+73	;volatile
  2401                           
  2402                           ; BSR set to: 0
  2403                           ;gemsecs.c: 96:   UART1_Write(0x06);
  2404  003DB4  0E06               	movlw	6
  2405  003DB6  6EE6               	movwf	postinc1,c
  2406  003DB8  ECD7  F027         	call	_UART1_Write	;wreg free
  2407                           
  2408                           ; BSR set to: 57
  2409                           ;gemsecs.c: 97:   *r_link = LINK_STATE_DONE;
  2410                           ;stkvar	_r_link @ sp[(-1)+-1]
  2411  003DBC  0EFE               	movlw	-2
  2412  003DBE  50E3               	movf	plusw1,w,c
  2413  003DC0  6ED9               	movwf	fsr2l,c
  2414  003DC2  6ADA               	clrf	fsr2h,c
  2415  003DC4  0E04               	movlw	4
  2416  003DC6  D012               	goto	L15
  2417  003DC8                     l5455:
  2418                           
  2419                           ;gemsecs.c: 100:   *r_link = LINK_STATE_ERROR;
  2420                           ;stkvar	_r_link @ sp[(-1)+-1]
  2421  003DC8  0EFE               	movlw	-2
  2422  003DCA  50E3               	movf	plusw1,w,c
  2423  003DCC  6ED9               	movwf	fsr2l,c
  2424  003DCE  6ADA               	clrf	fsr2h,c
  2425  003DD0  0E06               	movlw	6
  2426  003DD2  6EDF               	movwf	indf2,c
  2427                           
  2428                           ;gemsecs.c: 101:   while ((uart1RxCount)) {
  2429  003DD4  D002               	goto	l5459
  2430  003DD6                     l5457:
  2431                           
  2432                           ;gemsecs.c: 102:    UART1_Read();
  2433  003DD6  ECF6  F027         	call	_UART1_Read	;wreg free
  2434  003DDA                     l5459:
  2435                           
  2436                           ;gemsecs.c: 101:   while ((uart1RxCount)) {
  2437  003DDA  5031               	movf	_uart1RxCount,w,c	;volatile
  2438  003DDC  B4D8               	btfsc	status,2,c
  2439  003DDE  D029               	goto	l5467
  2440  003DE0  D7FA               	goto	l5457
  2441  003DE2                     l5461:
  2442                           
  2443                           ;gemsecs.c: 109:   *r_link = LINK_STATE_IDLE;
  2444                           ;stkvar	_r_link @ sp[(-1)+-1]
  2445  003DE2  0EFE               	movlw	-2
  2446  003DE4  50E3               	movf	plusw1,w,c
  2447  003DE6  6ED9               	movwf	fsr2l,c
  2448  003DE8  6ADA               	clrf	fsr2h,c
  2449  003DEA  0E00               	movlw	0
  2450  003DEC                     L15:
  2451  003DEC  6EDF               	movwf	indf2,c
  2452                           
  2453                           ;gemsecs.c: 110:   break;
  2454  003DEE  D021               	goto	l5467
  2455  003DF0                     l5465:
  2456                           
  2457                           ;stkvar	_r_link @ sp[(-1)+-1]
  2458  003DF0  0EFE               	movlw	-2
  2459  003DF2  50E3               	movf	plusw1,w,c
  2460  003DF4  6ED9               	movwf	fsr2l,c
  2461  003DF6  6ADA               	clrf	fsr2h,c
  2462  003DF8  50DF               	movf	indf2,w,c
  2463  003DFA  6E41               	movwf	btemp+10,c
  2464  003DFC  6A42               	clrf	btemp+11,c
  2465                           
  2466                           ; Switch on 2 bytes has been partitioned into a top level switch of size 1, and 1 sub-sw
      +                          itches
  2467                           ; Switch size 1, requested type "simple"
  2468                           ; Number of cases is 1, Range of values is 0 to 0
  2469                           ; switch strategies available:
  2470                           ; Name         Instructions Cycles
  2471                           ; simple_byte            4     3 (average)
  2472                           ;	Chosen strategy is simple_byte
  2473  003DFE  5042               	movf	btemp+11,w,c
  2474  003E00  0A00               	xorlw	0	; case 0
  2475  003E02  A4D8               	btfss	status,2,c
  2476  003E04  D7EE               	goto	l5461
  2477                           
  2478                           ; Switch size 1, requested type "simple"
  2479                           ; Number of cases is 7, Range of values is 0 to 6
  2480                           ; switch strategies available:
  2481                           ; Name         Instructions Cycles
  2482                           ; simple_byte           22    12 (average)
  2483                           ;	Chosen strategy is simple_byte
  2484  003E06  5041               	movf	btemp+10,w,c
  2485  003E08  0A00               	xorlw	0	; case 0
  2486  003E0A  B4D8               	btfsc	status,2,c
  2487  003E0C  D706               	goto	l5385
  2488  003E0E  0A01               	xorlw	1	; case 1
  2489  003E10  B4D8               	btfsc	status,2,c
  2490  003E12  D71E               	goto	l1372
  2491  003E14  0A03               	xorlw	3	; case 2
  2492  003E16  B4D8               	btfsc	status,2,c
  2493  003E18  D72E               	goto	l5401
  2494  003E1A  0A01               	xorlw	1	; case 3
  2495  003E1C  B4D8               	btfsc	status,2,c
  2496  003E1E  D7C4               	goto	l5447
  2497  003E20  0A07               	xorlw	7	; case 4
  2498  003E22  B4D8               	btfsc	status,2,c
  2499  003E24  D7DE               	goto	l5461
  2500  003E26  0A01               	xorlw	1	; case 5
  2501  003E28  B4D8               	btfsc	status,2,c
  2502  003E2A  D7CE               	goto	l5455
  2503  003E2C  0A03               	xorlw	3	; case 6
  2504  003E2E  A4D8               	btfss	status,2,c
  2505  003E30  D7D8               	goto	l5461
  2506  003E32                     l5467:
  2507                           
  2508                           ;gemsecs.c: 113:  return *r_link;
  2509                           ;stkvar	_r_link @ sp[(-1)+-1]
  2510  003E32  0EFE               	movlw	-2
  2511  003E34  50E3               	movf	plusw1,w,c
  2512  003E36  6ED9               	movwf	fsr2l,c
  2513  003E38  6ADA               	clrf	fsr2h,c
  2514  003E3A  50DF               	movf	indf2,w,c
  2515  003E3C  6E37               	movwf	btemp,c
  2516                           
  2517                           ; _r_protocol: autosize = 1, savesize = 0, parsavesize = 0, tempsize = 0 parsize = 1, ar
      +                          gsize = 1, vargsize = 0
  2518  003E3E  52E5               	movf	postdec1,f,c
  2519  003E40  52E5               	movf	postdec1,f,c
  2520  003E42  0012               	return		;funcret
  2521  003E44                     __end_of_r_protocol:
  2522                           	opt callstack 0
  2523                           
  2524 ;; *************** function _run_checksum *****************
  2525 ;; Defined at:
  2526 ;;		line 23 in file "gemsecs.c"
  2527 ;; Parameters:    Size  Location     Type
  2528 ;;  byte_block      1  [STACK] unsigned char 
  2529 ;;  clear           1  [STACK] _Bool 
  2530 ;; Auto vars:     Size  Location     Type
  2531 ;;		None
  2532 ;; Return value:  Size  Location     Type
  2533 ;;                  2  [STACK] unsigned short 
  2534 ;; Registers used:
  2535 ;;		wreg, fsr1l, fsr1h, status,2, status,0, btemp, btemp+1
  2536 ;; Tracked objects:
  2537 ;;		On entry : 6/39
  2538 ;;		On exit  : 0/0
  2539 ;;		Unchanged: 0/0
  2540 ;; Data sizes:     COMRAM   BANK0   BANK1   BANK2   BANK3   BANK4   BANK5   BANK6   BANK7   BANK8   BANK9  BANK10  BANK1
      +1  BANK12  BANK13  BANK14  BANK15  BANK16  BANK17  BANK18  BANK19  BANK20  BANK21  BANK22  BANK23  BANK24  BANK25  BANK2
      +6  BANK27  BANK28  BANK29  BANK30  BANK31
  2541 ;;      Params:         0       0       0       0       0       0       0       0       0       0       0       0       
      +0       0       0       0       0       0       0       0       0       0       0       0       0       0       0       
      +0       0       0       0       0       0
  2542 ;;      Locals:         0       0       0       0       0       0       0       0       0       0       0       0       
      +0       0       0       0       0       0       0       0       0       0       0       0       0       0       0       
      +0       0       0       0       0       0
  2543 ;;      Temps:          0       0       0       0       0       0       0       0       0       0       0       0       
      +0       0       0       0       0       0       0       0       0       0       0       0       0       0       0       
      +0       0       0       0       0       0
  2544 ;;      Totals:         0       0       0       0       0       0       0       0       0       0       0       0       
      +0       0       0       0       0       0       0       0       0       0       0       0       0       0       0       
      +0       0       0       0       0       0
  2545 ;;Total ram usage:        0 bytes
  2546 ;; Hardware stack levels used:    1
  2547 ;; Hardware stack levels required when called:    3
  2548 ;; This function calls:
  2549 ;;		Nothing
  2550 ;; This function is called by:
  2551 ;;		_r_protocol
  2552 ;; This function uses a reentrant model
  2553 ;;
  2554                           
  2555                           	psect	text6
  2556  0051B6                     __ptext6:
  2557                           	opt callstack 0
  2558  0051B6                     _run_checksum:
  2559                           	opt callstack 26
  2560                           
  2561                           ;gemsecs.c: 23: uint16_t run_checksum(uint8_t byte_block, _Bool clear);gemsecs.c: 24: {;
      +                          gemsecs.c: 25:  static uint16_t sum = 0;;gemsecs.c: 27:  if (clear)
  2562                           ;stkvar	_clear @ sp[(0)+-2]
  2563                           
  2564                           ; autosize = 0, savesize = 0, parsavesize = 0, tempsize = 0 parsize = 2, argsize = 2 var
      +                          gsize = 0, retsize = 0 argfudge = 0
  2565                           ;incstack = 0
  2566  0051B6  0EFE               	movlw	-2
  2567  0051B8  50E3               	movf	plusw1,w,c
  2568  0051BA  B4D8               	btfsc	status,2,c
  2569  0051BC  D002               	goto	l5173
  2570                           
  2571                           ;gemsecs.c: 28:   sum = 0;
  2572  0051BE  6A28               	clrf	run_checksum@sum,c
  2573  0051C0  6A29               	clrf	run_checksum@sum+1,c
  2574  0051C2                     l5173:
  2575                           
  2576                           ;gemsecs.c: 30:  sum += byte_block;
  2577                           ;stkvar	_byte_block @ sp[(0)+-1]
  2578  0051C2  0EFF               	movlw	-1
  2579  0051C4  50E3               	movf	plusw1,w,c
  2580  0051C6  2628               	addwf	run_checksum@sum,f,c
  2581  0051C8  0E00               	movlw	0
  2582  0051CA  2229               	addwfc	run_checksum@sum+1,f,c
  2583                           
  2584                           ;gemsecs.c: 31:  return sum;
  2585  0051CC  0060  F0A0  F037   	movff	run_checksum@sum,btemp
  2586  0051D2  0060  F0A4  F038   	movff	run_checksum@sum+1,btemp+1
  2587                           
  2588                           ; _run_checksum: autosize = 0, savesize = 0, parsavesize = 0, tempsize = 0 parsize = 2, 
      +                          argsize = 2, vargsize = 0
  2589  0051D8  52E5               	movf	postdec1,f,c
  2590  0051DA  52E5               	movf	postdec1,f,c
  2591  0051DC  0012               	return		;funcret
  2592  0051DE                     __end_of_run_checksum:
  2593                           	opt callstack 0
  2594                           
  2595 ;; *************** function _UART1_is_rx_ready *****************
  2596 ;; Defined at:
  2597 ;;		line 146 in file "mcc_generated_files/uart1.c"
  2598 ;; Parameters:    Size  Location     Type
  2599 ;;		None
  2600 ;; Auto vars:     Size  Location     Type
  2601 ;;		None
  2602 ;; Return value:  Size  Location     Type
  2603 ;;                  1  [STACK] unsigned char 
  2604 ;; Registers used:
  2605 ;;		btemp
  2606 ;; Tracked objects:
  2607 ;;		On entry : 0/0
  2608 ;;		On exit  : 0/0
  2609 ;;		Unchanged: 0/0
  2610 ;; Data sizes:     COMRAM   BANK0   BANK1   BANK2   BANK3   BANK4   BANK5   BANK6   BANK7   BANK8   BANK9  BANK10  BANK1
      +1  BANK12  BANK13  BANK14  BANK15  BANK16  BANK17  BANK18  BANK19  BANK20  BANK21  BANK22  BANK23  BANK24  BANK25  BANK2
      +6  BANK27  BANK28  BANK29  BANK30  BANK31
  2611 ;;      Params:         0       0       0       0       0       0       0       0       0       0       0       0       
      +0       0       0       0       0       0       0       0       0       0       0       0       0       0       0       
      +0       0       0       0       0       0
  2612 ;;      Locals:         0       0       0       0       0       0       0       0       0       0       0       0       
      +0       0       0       0       0       0       0       0       0       0       0       0       0       0       0       
      +0       0       0       0       0       0
  2613 ;;      Temps:          0       0       0       0       0       0       0       0       0       0       0       0       
      +0       0       0       0       0       0       0       0       0       0       0       0       0       0       0       
      +0       0       0       0       0       0
  2614 ;;      Totals:         0       0       0       0       0       0       0       0       0       0       0       0       
      +0       0       0       0       0       0       0       0       0       0       0       0       0       0       0       
      +0       0       0       0       0       0
  2615 ;;Total ram usage:        0 bytes
  2616 ;; Hardware stack levels used:    1
  2617 ;; Hardware stack levels required when called:    3
  2618 ;; This function calls:
  2619 ;;		Nothing
  2620 ;; This function is called by:
  2621 ;;		_r_protocol
  2622 ;;		_t_protocol
  2623 ;; This function uses a reentrant model
  2624 ;;
  2625                           
  2626                           	psect	text7
  2627  00572E                     __ptext7:
  2628                           	opt callstack 0
  2629  00572E                     _UART1_is_rx_ready:
  2630                           	opt callstack 26
  2631                           
  2632                           ;mcc_generated_files/uart1.c: 148:  return uart1RxCount;
  2633                           
  2634                           ; autosize = 0, savesize = 0, parsavesize = 0, tempsize = 0 parsize = 0, argsize = 0 var
      +                          gsize = 0, retsize = 0 argfudge = 0
  2635                           ;incstack = 0
  2636  00572E  0060  F0C4  F037   	movff	_uart1RxCount,btemp	;volatile
  2637                           
  2638                           ; _UART1_is_rx_ready: autosize = 0, savesize = 0, parsavesize = 0, tempsize = 0 parsize 
      +                          = 0, argsize = 0, vargsize = 0
  2639  005734  0012               	return		;funcret
  2640  005736                     __end_of_UART1_is_rx_ready:
  2641                           	opt callstack 0
  2642                           
  2643 ;; *************** function _UART1_Write *****************
  2644 ;; Defined at:
  2645 ;;		line 192 in file "mcc_generated_files/uart1.c"
  2646 ;; Parameters:    Size  Location     Type
  2647 ;;  txData          1  [STACK] unsigned char 
  2648 ;; Auto vars:     Size  Location     Type
  2649 ;;		None
  2650 ;; Return value:  Size  Location     Type
  2651 ;;                  1  [STACK] void 
  2652 ;; Registers used:
  2653 ;;		wreg, fsr1l, fsr1h, fsr2l, fsr2h, status,2, status,0
  2654 ;; Tracked objects:
  2655 ;;		On entry : 0/0
  2656 ;;		On exit  : 3F/39
  2657 ;;		Unchanged: 0/0
  2658 ;; Data sizes:     COMRAM   BANK0   BANK1   BANK2   BANK3   BANK4   BANK5   BANK6   BANK7   BANK8   BANK9  BANK10  BANK1
      +1  BANK12  BANK13  BANK14  BANK15  BANK16  BANK17  BANK18  BANK19  BANK20  BANK21  BANK22  BANK23  BANK24  BANK25  BANK2
      +6  BANK27  BANK28  BANK29  BANK30  BANK31
  2659 ;;      Params:         0       0       0       0       0       0       0       0       0       0       0       0       
      +0       0       0       0       0       0       0       0       0       0       0       0       0       0       0       
      +0       0       0       0       0       0
  2660 ;;      Locals:         0       0       0       0       0       0       0       0       0       0       0       0       
      +0       0       0       0       0       0       0       0       0       0       0       0       0       0       0       
      +0       0       0       0       0       0
  2661 ;;      Temps:          0       0       0       0       0       0       0       0       0       0       0       0       
      +0       0       0       0       0       0       0       0       0       0       0       0       0       0       0       
      +0       0       0       0       0       0
  2662 ;;      Totals:         0       0       0       0       0       0       0       0       0       0       0       0       
      +0       0       0       0       0       0       0       0       0       0       0       0       0       0       0       
      +0       0       0       0       0       0
  2663 ;;Total ram usage:        0 bytes
  2664 ;; Hardware stack levels used:    1
  2665 ;; Hardware stack levels required when called:    3
  2666 ;; This function calls:
  2667 ;;		Nothing
  2668 ;; This function is called by:
  2669 ;;		_main
  2670 ;;		_r_protocol
  2671 ;;		_t_protocol
  2672 ;; This function uses a reentrant model
  2673 ;;
  2674                           
  2675                           	psect	text8
  2676  004FAE                     __ptext8:
  2677                           	opt callstack 0
  2678  004FAE                     _UART1_Write:
  2679                           	opt callstack 26
  2680                           
  2681                           ;mcc_generated_files/uart1.c: 194:  while (0 == uart1TxBufferRemaining) {
  2682                           
  2683                           ;mcc_generated_files/uart1.c: 192: void UART1_Write(uint8_t txData);mcc_generated_files/
      +                          uart1.c: 193: {;mcc_generated_files/uart1.c: 194:  while (0 == uart1TxBufferRemaining) {
  2684                           
  2685                           ; autosize = 0, savesize = 0, parsavesize = 0, tempsize = 0 parsize = 1, argsize = 1 var
      +                          gsize = 0, retsize = 0 argfudge = 0
  2686                           ;incstack = 0
  2687  004FAE  5034               	movf	_uart1TxBufferRemaining,w,c	;volatile
  2688  004FB0  B4D8               	btfsc	status,2,c
  2689  004FB2  D7FD               	goto	_UART1_Write
  2690                           
  2691                           ;mcc_generated_files/uart1.c: 197:  if (0 == PIE3bits.U1TXIE) {
  2692  004FB4  0139               	movlb	57	; () banked
  2693  004FB6  B993               	btfsc	147,4,b	;volatile
  2694  004FB8  D005               	goto	l579
  2695                           
  2696                           ; BSR set to: 57
  2697                           ;mcc_generated_files/uart1.c: 198:   U1TXB = txData;
  2698                           ;stkvar	_txData @ sp[(0)+-1]
  2699  004FBA  0EFF               	movlw	-1
  2700  004FBC  006F FF8F FDEA     	movff	plusw1,15850	;volatile
  2701                           
  2702                           ;mcc_generated_files/uart1.c: 199:  } else {
  2703  004FC2  D011               	goto	l5121
  2704  004FC4                     l579:
  2705                           
  2706                           ; BSR set to: 57
  2707                           ;mcc_generated_files/uart1.c: 200:   PIE3bits.U1TXIE = 0;
  2708  004FC4  9993               	bcf	147,4,b	;volatile
  2709                           
  2710                           ; BSR set to: 57
  2711                           ;mcc_generated_files/uart1.c: 201:   uart1TxBuffer[uart1TxHead++] = txData;
  2712                           ;stkvar	_txData @ sp[(0)+-1]
  2713  004FC6  0E80               	movlw	low _uart1TxBuffer
  2714  004FC8  2436               	addwf	_uart1TxHead,w,c	;volatile
  2715  004FCA  6ED9               	movwf	fsr2l,c
  2716  004FCC  6ADA               	clrf	fsr2h,c
  2717  004FCE  0E01               	movlw	high _uart1TxBuffer
  2718  004FD0  22DA               	addwfc	fsr2h,f,c
  2719  004FD2  0EFF               	movlw	-1
  2720  004FD4  006F FF8F FFDF     	movff	plusw1,indf2
  2721                           
  2722                           ; BSR set to: 57
  2723  004FDA  2A36               	incf	_uart1TxHead,f,c	;volatile
  2724                           
  2725                           ; BSR set to: 57
  2726                           ;mcc_generated_files/uart1.c: 202:   if (sizeof(uart1TxBuffer) <= uart1TxHead) {
  2727  004FDC  0E3F               	movlw	63
  2728  004FDE  6436               	cpfsgt	_uart1TxHead,c
  2729  004FE0  D001               	goto	l5119
  2730                           
  2731                           ; BSR set to: 57
  2732                           ;mcc_generated_files/uart1.c: 203:    uart1TxHead = 0;
  2733  004FE2  6A36               	clrf	_uart1TxHead,c	;volatile
  2734  004FE4                     l5119:
  2735                           
  2736                           ; BSR set to: 57
  2737                           ;mcc_generated_files/uart1.c: 205:   uart1TxBufferRemaining--;
  2738  004FE4  0634               	decf	_uart1TxBufferRemaining,f,c	;volatile
  2739  004FE6                     l5121:
  2740                           
  2741                           ; BSR set to: 57
  2742                           ;mcc_generated_files/uart1.c: 207:  PIE3bits.U1TXIE = 1;
  2743  004FE6  8993               	bsf	147,4,b	;volatile
  2744                           
  2745                           ; BSR set to: 57
  2746                           ; _UART1_Write: autosize = 0, savesize = 0, parsavesize = 0, tempsize = 0 parsize = 1, a
      +                          rgsize = 1, vargsize = 0
  2747  004FE8  52E5               	movf	postdec1,f,c
  2748  004FEA  0012               	return		;funcret
  2749  004FEC                     __end_of_UART1_Write:
  2750                           	opt callstack 0
  2751                           
  2752 ;; *************** function _UART1_Read *****************
  2753 ;; Defined at:
  2754 ;;		line 161 in file "mcc_generated_files/uart1.c"
  2755 ;; Parameters:    Size  Location     Type
  2756 ;;		None
  2757 ;; Auto vars:     Size  Location     Type
  2758 ;;  readValue       1  [STACK] unsigned char 
  2759 ;; Return value:  Size  Location     Type
  2760 ;;                  1  [STACK] unsigned char 
  2761 ;; Registers used:
  2762 ;;		wreg, fsr1l, fsr1h, fsr2l, fsr2h, status,2, status,0, btemp, btemp+11
  2763 ;; Tracked objects:
  2764 ;;		On entry : 0/0
  2765 ;;		On exit  : 3F/39
  2766 ;;		Unchanged: 0/0
  2767 ;; Data sizes:     COMRAM   BANK0   BANK1   BANK2   BANK3   BANK4   BANK5   BANK6   BANK7   BANK8   BANK9  BANK10  BANK1
      +1  BANK12  BANK13  BANK14  BANK15  BANK16  BANK17  BANK18  BANK19  BANK20  BANK21  BANK22  BANK23  BANK24  BANK25  BANK2
      +6  BANK27  BANK28  BANK29  BANK30  BANK31
  2768 ;;      Params:         0       0       0       0       0       0       0       0       0       0       0       0       
      +0       0       0       0       0       0       0       0       0       0       0       0       0       0       0       
      +0       0       0       0       0       0
  2769 ;;      Locals:         0       0       0       0       0       0       0       0       0       0       0       0       
      +0       0       0       0       0       0       0       0       0       0       0       0       0       0       0       
      +0       0       0       0       0       0
  2770 ;;      Temps:          0       0       0       0       0       0       0       0       0       0       0       0       
      +0       0       0       0       0       0       0       0       0       0       0       0       0       0       0       
      +0       0       0       0       0       0
  2771 ;;      Totals:         0       0       0       0       0       0       0       0       0       0       0       0       
      +0       0       0       0       0       0       0       0       0       0       0       0       0       0       0       
      +0       0       0       0       0       0
  2772 ;;Total ram usage:        0 bytes
  2773 ;; Hardware stack levels used:    1
  2774 ;; Hardware stack levels required when called:    3
  2775 ;; This function calls:
  2776 ;;		Nothing
  2777 ;; This function is called by:
  2778 ;;		_r_protocol
  2779 ;;		_t_protocol
  2780 ;; This function uses a reentrant model
  2781 ;;
  2782                           
  2783                           	psect	text9
  2784  004FEC                     __ptext9:
  2785                           	opt callstack 0
  2786  004FEC                     _UART1_Read:
  2787                           	opt callstack 0
  2788                           
  2789                           ; BSR set to: 57
  2790                           ; autosize = 1, savesize = 0, parsavesize = 0, tempsize = 0 parsize = 0, argsize = 0 var
      +                          gsize = 0, retsize = 0 argfudge = 0
  2791  004FEC  52E6               	movf	postinc1,f,c
  2792  004FEE                     
  2793                           ;mcc_generated_files/uart1.c: 165:  while (0 == uart1RxCount) {
  2794                           
  2795                           ;mcc_generated_files/uart1.c: 165:  while (0 == uart1RxCount) {
  2796  004FEE  5031               	movf	_uart1RxCount,w,c	;volatile
  2797  004FF0  B4D8               	btfsc	status,2,c
  2798  004FF2  D7FD               	goto	l5085
  2799                           
  2800                           ;mcc_generated_files/uart1.c: 168:  readValue = uart1RxBuffer[uart1RxTail++];
  2801  004FF4  0E40               	movlw	low _uart1RxBuffer
  2802  004FF6  2432               	addwf	_uart1RxTail,w,c	;volatile
  2803  004FF8  6ED9               	movwf	fsr2l,c
  2804  004FFA  6ADA               	clrf	fsr2h,c
  2805  004FFC  0E01               	movlw	high _uart1RxBuffer
  2806  004FFE  22DA               	addwfc	fsr2h,f,c
  2807  005000  50DF               	movf	indf2,w,c
  2808  005002  6E42               	movwf	btemp+11,c
  2809                           
  2810                           ;stkvar	_readValue @ sp[(-1)+0]
  2811  005004  0EFF               	movlw	-1
  2812  005006  0060  F10B  FFE3   	movff	btemp+11,plusw1
  2813  00500C  2A32               	incf	_uart1RxTail,f,c	;volatile
  2814                           
  2815                           ;mcc_generated_files/uart1.c: 169:  if (sizeof(uart1RxBuffer) <= uart1RxTail) {
  2816  00500E  0E3F               	movlw	63
  2817  005010  6432               	cpfsgt	_uart1RxTail,c
  2818  005012  D001               	goto	l568
  2819                           
  2820                           ;mcc_generated_files/uart1.c: 170:   uart1RxTail = 0;
  2821  005014  6A32               	clrf	_uart1RxTail,c	;volatile
  2822  005016                     l568:
  2823                           
  2824                           ;mcc_generated_files/uart1.c: 172:  PIE3bits.U1RXIE = 0;
  2825  005016  0139               	movlb	57	; () banked
  2826  005018  9793               	bcf	147,3,b	;volatile
  2827                           
  2828                           ; BSR set to: 57
  2829                           ;mcc_generated_files/uart1.c: 173:  uart1RxCount--;
  2830  00501A  0631               	decf	_uart1RxCount,f,c	;volatile
  2831                           
  2832                           ; BSR set to: 57
  2833                           ;mcc_generated_files/uart1.c: 174:  PIE3bits.U1RXIE = 1;
  2834  00501C  8793               	bsf	147,3,b	;volatile
  2835                           
  2836                           ; BSR set to: 57
  2837                           ;mcc_generated_files/uart1.c: 176:  return readValue;
  2838                           ;stkvar	_readValue @ sp[(-1)+0]
  2839  00501E  0EFF               	movlw	-1
  2840  005020  006F FF8C  F037    	movff	plusw1,btemp
  2841                           
  2842                           ; BSR set to: 57
  2843                           ; _UART1_Read: autosize = 1, savesize = 0, parsavesize = 0, tempsize = 0 parsize = 0, ar
      +                          gsize = 0, vargsize = 0
  2844  005026  52E5               	movf	postdec1,f,c
  2845  005028  0012               	return		;funcret
  2846  00502A                     __end_of_UART1_Read:
  2847                           	opt callstack 0
  2848                           
  2849 ;; *************** function _TimerDone *****************
  2850 ;; Defined at:
  2851 ;;		line 20 in file "timers.c"
  2852 ;; Parameters:    Size  Location     Type
  2853 ;;  timer           1  [STACK] unsigned char 
  2854 ;; Auto vars:     Size  Location     Type
  2855 ;;		None
  2856 ;; Return value:  Size  Location     Type
  2857 ;;                  1  [STACK] _Bool 
  2858 ;; Registers used:
  2859 ;;		wreg, fsr1l, fsr1h, fsr2l, fsr2h, status,2, status,0, btemp, prodl, prodh
  2860 ;; Tracked objects:
  2861 ;;		On entry : 0/0
  2862 ;;		On exit  : 0/0
  2863 ;;		Unchanged: 0/0
  2864 ;; Data sizes:     COMRAM   BANK0   BANK1   BANK2   BANK3   BANK4   BANK5   BANK6   BANK7   BANK8   BANK9  BANK10  BANK1
      +1  BANK12  BANK13  BANK14  BANK15  BANK16  BANK17  BANK18  BANK19  BANK20  BANK21  BANK22  BANK23  BANK24  BANK25  BANK2
      +6  BANK27  BANK28  BANK29  BANK30  BANK31
  2865 ;;      Params:         0       0       0       0       0       0       0       0       0       0       0       0       
      +0       0       0       0       0       0       0       0       0       0       0       0       0       0       0       
      +0       0       0       0       0       0
  2866 ;;      Locals:         0       0       0       0       0       0       0       0       0       0       0       0       
      +0       0       0       0       0       0       0       0       0       0       0       0       0       0       0       
      +0       0       0       0       0       0
  2867 ;;      Temps:          0       0       0       0       0       0       0       0       0       0       0       0       
      +0       0       0       0       0       0       0       0       0       0       0       0       0       0       0       
      +0       0       0       0       0       0
  2868 ;;      Totals:         0       0       0       0       0       0       0       0       0       0       0       0       
      +0       0       0       0       0       0       0       0       0       0       0       0       0       0       0       
      +0       0       0       0       0       0
  2869 ;;Total ram usage:        0 bytes
  2870 ;; Hardware stack levels used:    1
  2871 ;; Hardware stack levels required when called:    3
  2872 ;; This function calls:
  2873 ;;		Nothing
  2874 ;; This function is called by:
  2875 ;;		_r_protocol
  2876 ;;		_t_protocol
  2877 ;; This function uses a reentrant model
  2878 ;;
  2879                           
  2880                           	psect	text10
  2881  0054D6                     __ptext10:
  2882                           	opt callstack 0
  2883  0054D6                     _TimerDone:
  2884                           	opt callstack 26
  2885                           
  2886                           ;timers.c: 20: __attribute__((inline)) _Bool TimerDone(uint8_t timer);timers.c: 21: {;ti
      +                          mers.c: 22:  if (tickCount[timer] == 0) {
  2887                           ;stkvar	_timer @ sp[(0)+-1]
  2888                           
  2889                           ; BSR set to: 57
  2890                           ; autosize = 0, savesize = 0, parsavesize = 0, tempsize = 0 parsize = 1, argsize = 1 var
      +                          gsize = 0, retsize = 0 argfudge = 0
  2891                           ;incstack = 0
  2892  0054D6  0EFF               	movlw	-1
  2893  0054D8  50E3               	movf	plusw1,w,c
  2894  0054DA  0D02               	mullw	2
  2895  0054DC  50F3               	movf	prodl,w,c
  2896  0054DE  0F79               	addlw	low _tickCount
  2897  0054E0  6ED9               	movwf	fsr2l,c
  2898  0054E2  6ADA               	clrf	fsr2h,c
  2899  0054E4  50DE               	movf	postinc2,w,c
  2900  0054E6  10DE               	iorwf	postinc2,w,c
  2901  0054E8  A4D8               	btfss	status,2,c
  2902  0054EA  D002               	goto	l5187
  2903                           
  2904                           ;timers.c: 23:   return 1;
  2905  0054EC  0E01               	movlw	1
  2906  0054EE  D001               	goto	L16
  2907  0054F0                     l5187:
  2908                           
  2909                           ;timers.c: 25:  return 0;
  2910  0054F0  0E00               	movlw	0
  2911  0054F2                     L16:
  2912  0054F2  6E37               	movwf	btemp,c
  2913                           
  2914                           ; _TimerDone: autosize = 0, savesize = 0, parsavesize = 0, tempsize = 0 parsize = 1, arg
      +                          size = 1, vargsize = 0
  2915  0054F4  52E5               	movf	postdec1,f,c
  2916  0054F6  0012               	return		;funcret
  2917  0054F8                     __end_of_TimerDone:
  2918                           	opt callstack 0
  2919                           
  2920 ;; *************** function _StartTimer *****************
  2921 ;; Defined at:
  2922 ;;		line 12 in file "timers.c"
  2923 ;; Parameters:    Size  Location     Type
  2924 ;;  timer           1  [STACK] unsigned char 
  2925 ;;  count           2  [STACK] unsigned short 
  2926 ;; Auto vars:     Size  Location     Type
  2927 ;;		None
  2928 ;; Return value:  Size  Location     Type
  2929 ;;                  1  [STACK] void 
  2930 ;; Registers used:
  2931 ;;		wreg, fsr1l, fsr1h, fsr2l, fsr2h, status,2, status,0, btemp+8, btemp+9, btemp+10, btemp+11, prodl, prodh
  2932 ;; Tracked objects:
  2933 ;;		On entry : 3F/39
  2934 ;;		On exit  : 0/0
  2935 ;;		Unchanged: 0/0
  2936 ;; Data sizes:     COMRAM   BANK0   BANK1   BANK2   BANK3   BANK4   BANK5   BANK6   BANK7   BANK8   BANK9  BANK10  BANK1
      +1  BANK12  BANK13  BANK14  BANK15  BANK16  BANK17  BANK18  BANK19  BANK20  BANK21  BANK22  BANK23  BANK24  BANK25  BANK2
      +6  BANK27  BANK28  BANK29  BANK30  BANK31
  2937 ;;      Params:         0       0       0       0       0       0       0       0       0       0       0       0       
      +0       0       0       0       0       0       0       0       0       0       0       0       0       0       0       
      +0       0       0       0       0       0
  2938 ;;      Locals:         0       0       0       0       0       0       0       0       0       0       0       0       
      +0       0       0       0       0       0       0       0       0       0       0       0       0       0       0       
      +0       0       0       0       0       0
  2939 ;;      Temps:          0       0       0       0       0       0       0       0       0       0       0       0       
      +0       0       0       0       0       0       0       0       0       0       0       0       0       0       0       
      +0       0       0       0       0       0
  2940 ;;      Totals:         0       0       0       0       0       0       0       0       0       0       0       0       
      +0       0       0       0       0       0       0       0       0       0       0       0       0       0       0       
      +0       0       0       0       0       0
  2941 ;;Total ram usage:        0 bytes
  2942 ;; Hardware stack levels used:    1
  2943 ;; Hardware stack levels required when called:    3
  2944 ;; This function calls:
  2945 ;;		Nothing
  2946 ;; This function is called by:
  2947 ;;		_r_protocol
  2948 ;;		_t_protocol
  2949 ;; This function uses a reentrant model
  2950 ;;
  2951                           
  2952                           	psect	text11
  2953  005068                     __ptext11:
  2954                           	opt callstack 0
  2955  005068                     _StartTimer:
  2956                           	opt callstack 26
  2957                           
  2958                           ;timers.c: 12: __attribute__((inline)) void StartTimer(uint8_t timer, uint16_t count);ti
      +                          mers.c: 13: {;timers.c: 14:  tickCount[timer] = count << 1;
  2959                           ;stkvar	_count @ sp[(0)+-3]
  2960                           
  2961                           ; autosize = 0, savesize = 0, parsavesize = 0, tempsize = 0 parsize = 3, argsize = 3 var
      +                          gsize = 0, retsize = 0 argfudge = 0
  2962                           ;incstack = 0
  2963  005068  0EFD               	movlw	-3
  2964  00506A  006F FF8C  F041    	movff	plusw1,btemp+10
  2965  005070  0EFE               	movlw	-2
  2966  005072  006F FF8C  F042    	movff	plusw1,btemp+11
  2967  005078  90D8               	bcf	status,0,c
  2968  00507A  3441               	rlcf	btemp+10,w,c
  2969  00507C  6E3F               	movwf	btemp+8,c
  2970  00507E  3442               	rlcf	btemp+11,w,c
  2971  005080  6E40               	movwf	btemp+9,c
  2972                           
  2973                           ;stkvar	_timer @ sp[(0)+-1]
  2974  005082  0EFF               	movlw	-1
  2975  005084  50E3               	movf	plusw1,w,c
  2976  005086  0D02               	mullw	2
  2977  005088  50F3               	movf	prodl,w,c
  2978  00508A  0F79               	addlw	low _tickCount
  2979  00508C  6ED9               	movwf	fsr2l,c
  2980  00508E  6ADA               	clrf	fsr2h,c
  2981  005090  0060  F0FF  FFDE   	movff	btemp+8,postinc2
  2982  005096  0060  F103  FFDD   	movff	btemp+9,postdec2
  2983                           
  2984                           ; _StartTimer: autosize = 0, savesize = 0, parsavesize = 0, tempsize = 0 parsize = 3, ar
      +                          gsize = 3, vargsize = 0
  2985  00509C  52E5               	movf	postdec1,f,c
  2986  00509E  52E5               	movf	postdec1,f,c
  2987  0050A0  52E5               	movf	postdec1,f,c
  2988  0050A2  0012               	return		;funcret
  2989  0050A4                     __end_of_StartTimer:
  2990                           	opt callstack 0
  2991                           
  2992 ;; *************** function _init_display *****************
  2993 ;; Defined at:
  2994 ;;		line 35 in file "eadog.c"
  2995 ;; Parameters:    Size  Location     Type
  2996 ;;		None
  2997 ;; Auto vars:     Size  Location     Type
  2998 ;;		None
  2999 ;; Return value:  Size  Location     Type
  3000 ;;                  1  [STACK] void 
  3001 ;; Registers used:
  3002 ;;		wreg, fsr1l, fsr1h, fsr2l, fsr2h, status,2, status,0, btemp, btemp+10, btemp+11, prodl
  3003 ;; Tracked objects:
  3004 ;;		On entry : 0/0
  3005 ;;		On exit  : 3F/3D
  3006 ;;		Unchanged: 0/0
  3007 ;; Data sizes:     COMRAM   BANK0   BANK1   BANK2   BANK3   BANK4   BANK5   BANK6   BANK7   BANK8   BANK9  BANK10  BANK1
      +1  BANK12  BANK13  BANK14  BANK15  BANK16  BANK17  BANK18  BANK19  BANK20  BANK21  BANK22  BANK23  BANK24  BANK25  BANK2
      +6  BANK27  BANK28  BANK29  BANK30  BANK31
  3008 ;;      Params:         0       0       0       0       0       0       0       0       0       0       0       0       
      +0       0       0       0       0       0       0       0       0       0       0       0       0       0       0       
      +0       0       0       0       0       0
  3009 ;;      Locals:         0       0       0       0       0       0       0       0       0       0       0       0       
      +0       0       0       0       0       0       0       0       0       0       0       0       0       0       0       
      +0       0       0       0       0       0
  3010 ;;      Temps:          0       0       0       0       0       0       0       0       0       0       0       0       
      +0       0       0       0       0       0       0       0       0       0       0       0       0       0       0       
      +0       0       0       0       0       0
  3011 ;;      Totals:         0       0       0       0       0       0       0       0       0       0       0       0       
      +0       0       0       0       0       0       0       0       0       0       0       0       0       0       0       
      +0       0       0       0       0       0
  3012 ;;Total ram usage:        0 bytes
  3013 ;; Hardware stack levels used:    1
  3014 ;; Hardware stack levels required when called:    5
  3015 ;; This function calls:
  3016 ;;		_ringBufS_init
  3017 ;;		_send_lcd_cmd
  3018 ;;		_send_lcd_cmd_long
  3019 ;;		_wdtdelay
  3020 ;; This function is called by:
  3021 ;;		_main
  3022 ;; This function uses a reentrant model
  3023 ;;
  3024                           
  3025                           	psect	text12
  3026  0043EC                     __ptext12:
  3027                           	opt callstack 0
  3028  0043EC                     _init_display:
  3029                           	opt callstack 25
  3030                           
  3031                           ;eadog.c: 37:  spi_link.tx1a = &ring_buf1;
  3032                           
  3033                           ; autosize = 0, savesize = 0, parsavesize = 0, tempsize = 0 parsize = 0, argsize = 0 var
      +                          gsize = 0, retsize = 0 argfudge = 0
  3034                           ;incstack = 0
  3035  0043EC  0E83               	movlw	low _ring_buf1
  3036  0043EE  0100               	movlb	0	; () banked
  3037  0043F0  6F73               	movwf	(_spi_link+6)& (0+255),b	;volatile
  3038  0043F2  0E02               	movlw	high _ring_buf1
  3039  0043F4  6F74               	movwf	(_spi_link+7)& (0+255),b	;volatile
  3040                           
  3041                           ;eadog.c: 38:  spi_link.tx1b = &ring_buf2;
  3042  0043F6  0E40               	movlw	low _ring_buf2
  3043  0043F8  6F71               	movwf	(_spi_link+4)& (0+255),b	;volatile
  3044  0043FA  0E02               	movlw	high _ring_buf2
  3045  0043FC  6F72               	movwf	(_spi_link+5)& (0+255),b	;volatile
  3046                           
  3047                           ; BSR set to: 0
  3048                           ;eadog.c: 39:  ringBufS_init(spi_link.tx1a);
  3049  0043FE  0060  F1CF  FFE6   	movff	_spi_link+6,postinc1
  3050  004404  0060  F1D3  FFE6   	movff	_spi_link+7,postinc1
  3051  00440A  EC17  F029         	call	_ringBufS_init	;wreg free
  3052                           
  3053                           ;eadog.c: 40:  ringBufS_init(spi_link.tx1b);
  3054  00440E  0060  F1C7  FFE6   	movff	_spi_link+4,postinc1
  3055  004414  0060  F1CB  FFE6   	movff	_spi_link+5,postinc1
  3056  00441A  EC17  F029         	call	_ringBufS_init	;wreg free
  3057                           
  3058                           ;eadog.c: 42:  LATEbits.LATE0 = 1;
  3059  00441E  80BE               	bsf	16318,0,c	;volatile
  3060  004420  84BC               	bsf	16316,2,c	;volatile
  3061                           
  3062                           ;eadog.c: 44:  wdtdelay(350000);
  3063  004422  0E30               	movlw	48
  3064  004424  6EE6               	movwf	postinc1,c
  3065  004426  0E57               	movlw	87
  3066  004428  6EE6               	movwf	postinc1,c
  3067  00442A  0E05               	movlw	5
  3068  00442C  6EE6               	movwf	postinc1,c
  3069  00442E  0E00               	movlw	0
  3070  004430  6EE6               	movwf	postinc1,c
  3071  004432  ECF2  F026         	call	_wdtdelay	;wreg free
  3072                           
  3073                           ;eadog.c: 45:  send_lcd_cmd(0x39);
  3074  004436  0E39               	movlw	57
  3075  004438  6EE6               	movwf	postinc1,c
  3076  00443A  EC03  F029         	call	_send_lcd_cmd	;wreg free
  3077                           
  3078                           ;eadog.c: 46:  send_lcd_cmd(0x1d);
  3079  00443E  0E1D               	movlw	29
  3080  004440  6EE6               	movwf	postinc1,c
  3081  004442  EC03  F029         	call	_send_lcd_cmd	;wreg free
  3082                           
  3083                           ;eadog.c: 47:  send_lcd_cmd(0x50);
  3084  004446  0E50               	movlw	80
  3085  004448  6EE6               	movwf	postinc1,c
  3086  00444A  EC03  F029         	call	_send_lcd_cmd	;wreg free
  3087                           
  3088                           ;eadog.c: 48:  send_lcd_cmd(0x6c);
  3089  00444E  0E6C               	movlw	108
  3090  004450  6EE6               	movwf	postinc1,c
  3091  004452  EC03  F029         	call	_send_lcd_cmd	;wreg free
  3092                           
  3093                           ;eadog.c: 49:  send_lcd_cmd(0x76);
  3094  004456  0E76               	movlw	118
  3095  004458  6EE6               	movwf	postinc1,c
  3096  00445A  EC03  F029         	call	_send_lcd_cmd	;wreg free
  3097                           
  3098                           ;eadog.c: 50:  send_lcd_cmd_long(0x38);
  3099  00445E  0E38               	movlw	56
  3100  004460  6EE6               	movwf	postinc1,c
  3101  004462  ECEF  F028         	call	_send_lcd_cmd_long	;wreg free
  3102                           
  3103                           ;eadog.c: 51:  send_lcd_cmd(0x0f);
  3104  004466  0E0F               	movlw	15
  3105  004468  6EE6               	movwf	postinc1,c
  3106  00446A  EC03  F029         	call	_send_lcd_cmd	;wreg free
  3107                           
  3108                           ;eadog.c: 52:  send_lcd_cmd_long(0x01);
  3109  00446E  0E01               	movlw	1
  3110  004470  6EE6               	movwf	postinc1,c
  3111  004472  ECEF  F028         	call	_send_lcd_cmd_long	;wreg free
  3112                           
  3113                           ;eadog.c: 53:  send_lcd_cmd(0x02);
  3114  004476  0E02               	movlw	2
  3115  004478  6EE6               	movwf	postinc1,c
  3116  00447A  EC03  F029         	call	_send_lcd_cmd	;wreg free
  3117                           
  3118                           ;eadog.c: 54:  send_lcd_cmd(0x06);
  3119  00447E  0E06               	movlw	6
  3120  004480  6EE6               	movwf	postinc1,c
  3121  004482  EC03  F029         	call	_send_lcd_cmd	;wreg free
  3122                           
  3123                           ;eadog.c: 55:  wdtdelay(30);
  3124  004486  0E1E               	movlw	30
  3125  004488  6EE6               	movwf	postinc1,c
  3126  00448A  0E00               	movlw	0
  3127  00448C  6EE6               	movwf	postinc1,c
  3128  00448E  0E00               	movlw	0
  3129  004490  6EE6               	movwf	postinc1,c
  3130  004492  0E00               	movlw	0
  3131  004494  6EE6               	movwf	postinc1,c
  3132  004496  ECF2  F026         	call	_wdtdelay	;wreg free
  3133                           
  3134                           ;eadog.c: 56:  SPI1CON2 = 0x02;
  3135  00449A  0E02               	movlw	2
  3136  00449C  013D               	movlb	61	; () banked
  3137  00449E  6F16               	movwf	22,b	;volatile
  3138                           
  3139                           ; BSR set to: 61
  3140                           ;eadog.c: 57:  SPI1CON1 = 0x40;
  3141  0044A0  0E40               	movlw	64
  3142  0044A2  6F15               	movwf	21,b	;volatile
  3143                           
  3144                           ; BSR set to: 61
  3145                           ;eadog.c: 58:  SPI1CON0 = 0x83;
  3146  0044A4  0E83               	movlw	131
  3147  0044A6  6F14               	movwf	20,b	;volatile
  3148                           
  3149                           ; BSR set to: 61
  3150                           ;eadog.c: 59:  SPI1INTFbits.SPI1TXUIF = 0;
  3151  0044A8  931A               	bcf	26,1,b	;volatile
  3152                           
  3153                           ; BSR set to: 61
  3154                           ;eadog.c: 60:  DMA1CON1bits.DMODE = 0;
  3155  0044AA  0E3F               	movlw	-193
  3156  0044AC  013B               	movlb	59	; () banked
  3157  0044AE  17FD               	andwf	253,f,b	;volatile
  3158                           
  3159                           ; BSR set to: 59
  3160                           ;eadog.c: 61:  DMA1CON1bits.DSTP = 0;
  3161  0044B0  9BFD               	bcf	253,5,b	;volatile
  3162                           
  3163                           ; BSR set to: 59
  3164                           ;eadog.c: 62:  DMA1CON1bits.SMODE = 1;
  3165  0044B2  51FD               	movf	253,w,b	;volatile
  3166  0044B4  0BF9               	andlw	-7
  3167  0044B6  0902               	iorlw	2
  3168  0044B8  6FFD               	movwf	253,b	;volatile
  3169                           
  3170                           ; BSR set to: 59
  3171                           ;eadog.c: 63:  DMA1CON1bits.SMR = 0;
  3172  0044BA  0EE7               	movlw	-25
  3173  0044BC  17FD               	andwf	253,f,b	;volatile
  3174                           
  3175                           ; BSR set to: 59
  3176                           ;eadog.c: 64:  DMA1CON1bits.SSTP = 1;
  3177  0044BE  81FD               	bsf	253,0,b	;volatile
  3178                           
  3179                           ; BSR set to: 59
  3180                           ;eadog.c: 65:  DMA1SSA = (uint32_t) & ring_buf1;
  3181  0044C0  0E83               	movlw	low _ring_buf1
  3182  0044C2  6FF9               	movwf	249,b	;volatile
  3183  0044C4  0E02               	movlw	high _ring_buf1
  3184  0044C6  6FFA               	movwf	250,b	;volatile
  3185  0044C8  0E00               	movlw	low (_ring_buf1 shr (0+16))
  3186  0044CA  6FFB               	movwf	251,b	;volatile
  3187                           
  3188                           ; BSR set to: 59
  3189                           ;eadog.c: 66:  DMA1CON0bits.DGO = 0;
  3190  0044CC  9BFC               	bcf	252,5,b	;volatile
  3191                           
  3192                           ; BSR set to: 59
  3193                           ;eadog.c: 67:  SPI1INTFbits.SPI1TXUIF = 1;
  3194  0044CE  013D               	movlb	61	; () banked
  3195  0044D0  831A               	bsf	26,1,b	;volatile
  3196                           
  3197                           ; BSR set to: 61
  3198                           ;eadog.c: 68:  LATEbits.LATE0 = 0;
  3199  0044D2  90BE               	bcf	16318,0,c	;volatile
  3200                           
  3201                           ; BSR set to: 61
  3202                           ; _init_display: autosize = 0, savesize = 0, parsavesize = 0, tempsize = 0 parsize = 0, 
      +                          argsize = 0, vargsize = 0
  3203  0044D4  0012               	return		;funcret
  3204  0044D6                     __end_of_init_display:
  3205                           	opt callstack 0
  3206                           
  3207 ;; *************** function _send_lcd_cmd_long *****************
  3208 ;; Defined at:
  3209 ;;		line 97 in file "eadog.c"
  3210 ;; Parameters:    Size  Location     Type
  3211 ;;  cmd             1  [STACK] unsigned char 
  3212 ;; Auto vars:     Size  Location     Type
  3213 ;;		None
  3214 ;; Return value:  Size  Location     Type
  3215 ;;                  1  [STACK] void 
  3216 ;; Registers used:
  3217 ;;		wreg, fsr1l, fsr1h, status,2, status,0, btemp
  3218 ;; Tracked objects:
  3219 ;;		On entry : 0/0
  3220 ;;		On exit  : 0/0
  3221 ;;		Unchanged: 0/0
  3222 ;; Data sizes:     COMRAM   BANK0   BANK1   BANK2   BANK3   BANK4   BANK5   BANK6   BANK7   BANK8   BANK9  BANK10  BANK1
      +1  BANK12  BANK13  BANK14  BANK15  BANK16  BANK17  BANK18  BANK19  BANK20  BANK21  BANK22  BANK23  BANK24  BANK25  BANK2
      +6  BANK27  BANK28  BANK29  BANK30  BANK31
  3223 ;;      Params:         0       0       0       0       0       0       0       0       0       0       0       0       
      +0       0       0       0       0       0       0       0       0       0       0       0       0       0       0       
      +0       0       0       0       0       0
  3224 ;;      Locals:         0       0       0       0       0       0       0       0       0       0       0       0       
      +0       0       0       0       0       0       0       0       0       0       0       0       0       0       0       
      +0       0       0       0       0       0
  3225 ;;      Temps:          0       0       0       0       0       0       0       0       0       0       0       0       
      +0       0       0       0       0       0       0       0       0       0       0       0       0       0       0       
      +0       0       0       0       0       0
  3226 ;;      Totals:         0       0       0       0       0       0       0       0       0       0       0       0       
      +0       0       0       0       0       0       0       0       0       0       0       0       0       0       0       
      +0       0       0       0       0       0
  3227 ;;Total ram usage:        0 bytes
  3228 ;; Hardware stack levels used:    1
  3229 ;; Hardware stack levels required when called:    4
  3230 ;; This function calls:
  3231 ;;		_SPI1_Exchange8bit
  3232 ;;		_wdtdelay
  3233 ;; This function is called by:
  3234 ;;		_init_display
  3235 ;; This function uses a reentrant model
  3236 ;;
  3237                           
  3238                           	psect	text13
  3239  0051DE                     __ptext13:
  3240                           	opt callstack 0
  3241  0051DE                     _send_lcd_cmd_long:
  3242                           	opt callstack 25
  3243                           
  3244                           ; BSR set to: 61
  3245                           ; autosize = 0, savesize = 0, parsavesize = 0, tempsize = 0 parsize = 1, argsize = 1 var
      +                          gsize = 0, retsize = 0 argfudge = 0
  3246                           ;incstack = 0
  3247                           ;eadog.c: 97: void send_lcd_cmd_long(uint8_t cmd);eadog.c: 98: {;eadog.c: 99:  do { LATC
      +                          bits.LATC1 = 0; } while(0);
  3248  0051DE  92BC               	bcf	16316,1,c	;volatile
  3249                           
  3250                           ;eadog.c: 100:  do { LATCbits.LATC2 = 0; } while(0);
  3251  0051E0  94BC               	bcf	16316,2,c	;volatile
  3252                           
  3253                           ;eadog.c: 101:  SPI1_Exchange8bit(cmd);
  3254                           ;stkvar	_cmd @ sp[(0)+-1]
  3255  0051E2  0EFF               	movlw	-1
  3256  0051E4  50E3               	movf	plusw1,w,c
  3257  0051E6  6EE6               	movwf	postinc1,c
  3258  0051E8  ECF1  F02A         	call	_SPI1_Exchange8bit	;wreg free
  3259                           
  3260                           ; BSR set to: 57
  3261                           ;eadog.c: 102:  wdtdelay(800);
  3262  0051EC  0E20               	movlw	32
  3263  0051EE  6EE6               	movwf	postinc1,c
  3264  0051F0  0E03               	movlw	3
  3265  0051F2  6EE6               	movwf	postinc1,c
  3266  0051F4  0E00               	movlw	0
  3267  0051F6  6EE6               	movwf	postinc1,c
  3268  0051F8  0E00               	movlw	0
  3269  0051FA  6EE6               	movwf	postinc1,c
  3270  0051FC  ECF2  F026         	call	_wdtdelay	;wreg free
  3271  005200  82BC               	bsf	16316,1,c	;volatile
  3272                           
  3273                           ; _send_lcd_cmd_long: autosize = 0, savesize = 0, parsavesize = 0, tempsize = 0 parsize 
      +                          = 1, argsize = 1, vargsize = 0
  3274  005202  52E5               	movf	postdec1,f,c
  3275  005204  0012               	return		;funcret
  3276  005206                     __end_of_send_lcd_cmd_long:
  3277                           	opt callstack 0
  3278                           
  3279 ;; *************** function _send_lcd_cmd *****************
  3280 ;; Defined at:
  3281 ;;		line 85 in file "eadog.c"
  3282 ;; Parameters:    Size  Location     Type
  3283 ;;  cmd             1  [STACK] unsigned char 
  3284 ;; Auto vars:     Size  Location     Type
  3285 ;;		None
  3286 ;; Return value:  Size  Location     Type
  3287 ;;                  1  [STACK] void 
  3288 ;; Registers used:
  3289 ;;		wreg, fsr1l, fsr1h, status,2, status,0, btemp
  3290 ;; Tracked objects:
  3291 ;;		On entry : 0/0
  3292 ;;		On exit  : 0/0
  3293 ;;		Unchanged: 0/0
  3294 ;; Data sizes:     COMRAM   BANK0   BANK1   BANK2   BANK3   BANK4   BANK5   BANK6   BANK7   BANK8   BANK9  BANK10  BANK1
      +1  BANK12  BANK13  BANK14  BANK15  BANK16  BANK17  BANK18  BANK19  BANK20  BANK21  BANK22  BANK23  BANK24  BANK25  BANK2
      +6  BANK27  BANK28  BANK29  BANK30  BANK31
  3295 ;;      Params:         0       0       0       0       0       0       0       0       0       0       0       0       
      +0       0       0       0       0       0       0       0       0       0       0       0       0       0       0       
      +0       0       0       0       0       0
  3296 ;;      Locals:         0       0       0       0       0       0       0       0       0       0       0       0       
      +0       0       0       0       0       0       0       0       0       0       0       0       0       0       0       
      +0       0       0       0       0       0
  3297 ;;      Temps:          0       0       0       0       0       0       0       0       0       0       0       0       
      +0       0       0       0       0       0       0       0       0       0       0       0       0       0       0       
      +0       0       0       0       0       0
  3298 ;;      Totals:         0       0       0       0       0       0       0       0       0       0       0       0       
      +0       0       0       0       0       0       0       0       0       0       0       0       0       0       0       
      +0       0       0       0       0       0
  3299 ;;Total ram usage:        0 bytes
  3300 ;; Hardware stack levels used:    1
  3301 ;; Hardware stack levels required when called:    4
  3302 ;; This function calls:
  3303 ;;		_SPI1_Exchange8bit
  3304 ;;		_wdtdelay
  3305 ;; This function is called by:
  3306 ;;		_init_display
  3307 ;; This function uses a reentrant model
  3308 ;;
  3309                           
  3310                           	psect	text14
  3311  005206                     __ptext14:
  3312                           	opt callstack 0
  3313  005206                     _send_lcd_cmd:
  3314                           	opt callstack 25
  3315                           
  3316                           ; autosize = 0, savesize = 0, parsavesize = 0, tempsize = 0 parsize = 1, argsize = 1 var
      +                          gsize = 0, retsize = 0 argfudge = 0
  3317                           ;incstack = 0
  3318                           ;eadog.c: 85: void send_lcd_cmd(uint8_t cmd);eadog.c: 86: {;eadog.c: 87:  do { LATCbits.
      +                          LATC1 = 0; } while(0);
  3319  005206  92BC               	bcf	16316,1,c	;volatile
  3320                           
  3321                           ;eadog.c: 88:  do { LATCbits.LATC2 = 0; } while(0);
  3322  005208  94BC               	bcf	16316,2,c	;volatile
  3323                           
  3324                           ;eadog.c: 89:  SPI1_Exchange8bit(cmd);
  3325                           ;stkvar	_cmd @ sp[(0)+-1]
  3326  00520A  0EFF               	movlw	-1
  3327  00520C  50E3               	movf	plusw1,w,c
  3328  00520E  6EE6               	movwf	postinc1,c
  3329  005210  ECF1  F02A         	call	_SPI1_Exchange8bit	;wreg free
  3330                           
  3331                           ; BSR set to: 57
  3332                           ;eadog.c: 90:  wdtdelay(30);
  3333  005214  0E1E               	movlw	30
  3334  005216  6EE6               	movwf	postinc1,c
  3335  005218  0E00               	movlw	0
  3336  00521A  6EE6               	movwf	postinc1,c
  3337  00521C  0E00               	movlw	0
  3338  00521E  6EE6               	movwf	postinc1,c
  3339  005220  0E00               	movlw	0
  3340  005222  6EE6               	movwf	postinc1,c
  3341  005224  ECF2  F026         	call	_wdtdelay	;wreg free
  3342  005228  82BC               	bsf	16316,1,c	;volatile
  3343                           
  3344                           ; _send_lcd_cmd: autosize = 0, savesize = 0, parsavesize = 0, tempsize = 0 parsize = 1, 
      +                          argsize = 1, vargsize = 0
  3345  00522A  52E5               	movf	postdec1,f,c
  3346  00522C  0012               	return		;funcret
  3347  00522E                     __end_of_send_lcd_cmd:
  3348                           	opt callstack 0
  3349                           
  3350 ;; *************** function _wdtdelay *****************
  3351 ;; Defined at:
  3352 ;;		line 21 in file "eadog.c"
  3353 ;; Parameters:    Size  Location     Type
  3354 ;;  delay           4  [STACK] unsigned long 
  3355 ;; Auto vars:     Size  Location     Type
  3356 ;;		None
  3357 ;; Return value:  Size  Location     Type
  3358 ;;                  1  [STACK] void 
  3359 ;; Registers used:
  3360 ;;		wreg, fsr1l, fsr1h, status,2, status,0, btemp
  3361 ;; Tracked objects:
  3362 ;;		On entry : 0/0
  3363 ;;		On exit  : 0/0
  3364 ;;		Unchanged: 0/0
  3365 ;; Data sizes:     COMRAM   BANK0   BANK1   BANK2   BANK3   BANK4   BANK5   BANK6   BANK7   BANK8   BANK9  BANK10  BANK1
      +1  BANK12  BANK13  BANK14  BANK15  BANK16  BANK17  BANK18  BANK19  BANK20  BANK21  BANK22  BANK23  BANK24  BANK25  BANK2
      +6  BANK27  BANK28  BANK29  BANK30  BANK31
  3366 ;;      Params:         0       0       0       0       0       0       0       0       0       0       0       0       
      +0       0       0       0       0       0       0       0       0       0       0       0       0       0       0       
      +0       0       0       0       0       0
  3367 ;;      Locals:         0       0       0       0       0       0       0       0       0       0       0       0       
      +0       0       0       0       0       0       0       0       0       0       0       0       0       0       0       
      +0       0       0       0       0       0
  3368 ;;      Temps:          0       0       0       0       0       0       0       0       0       0       0       0       
      +0       0       0       0       0       0       0       0       0       0       0       0       0       0       0       
      +0       0       0       0       0       0
  3369 ;;      Totals:         0       0       0       0       0       0       0       0       0       0       0       0       
      +0       0       0       0       0       0       0       0       0       0       0       0       0       0       0       
      +0       0       0       0       0       0
  3370 ;;Total ram usage:        0 bytes
  3371 ;; Hardware stack levels used:    1
  3372 ;; Hardware stack levels required when called:    3
  3373 ;; This function calls:
  3374 ;;		Nothing
  3375 ;; This function is called by:
  3376 ;;		_init_display
  3377 ;;		_send_lcd_cmd
  3378 ;;		_send_lcd_cmd_long
  3379 ;;		_wait_lcd_done
  3380 ;; This function uses a reentrant model
  3381 ;;
  3382                           
  3383                           	psect	text15
  3384  004DE4                     __ptext15:
  3385                           	opt callstack 0
  3386  004DE4                     _wdtdelay:
  3387                           	opt callstack 26
  3388                           
  3389                           ;eadog.c: 21: void wdtdelay(uint32_t delay);eadog.c: 22: {;eadog.c: 23:  static uint32_t
      +                           dcount;;eadog.c: 25:  for (dcount = 0; dcount <= delay; dcount++) {
  3390                           
  3391                           ; autosize = 0, savesize = 0, parsavesize = 0, tempsize = 0 parsize = 4, argsize = 4 var
      +                          gsize = 0, retsize = 0 argfudge = 0
  3392                           ;incstack = 0
  3393  004DE4  6A01               	clrf	wdtdelay@dcount,c
  3394  004DE6  6A02               	clrf	wdtdelay@dcount+1,c
  3395  004DE8  6A03               	clrf	wdtdelay@dcount+2,c
  3396  004DEA  6A04               	clrf	wdtdelay@dcount+3,c
  3397  004DEC  D008               	goto	l4713
  3398  004DEE                     l1203:
  3399                           
  3400                           ;eadog.c: 26:   __nop();
  3401  004DEE  F000               	nop	
  3402  004DF0  0004               	clrwdt		;# 
  3403                           
  3404                           ;eadog.c: 28:  };
  3405  004DF2  0E01               	movlw	1
  3406  004DF4  2601               	addwf	wdtdelay@dcount,f,c
  3407  004DF6  0E00               	movlw	0
  3408  004DF8  2202               	addwfc	wdtdelay@dcount+1,f,c
  3409  004DFA  2203               	addwfc	wdtdelay@dcount+2,f,c
  3410  004DFC  2204               	addwfc	wdtdelay@dcount+3,f,c
  3411  004DFE                     l4713:
  3412                           
  3413                           ;stkvar	_delay @ sp[(0)+-4]
  3414  004DFE  0EFC               	movlw	-4
  3415  004E00  006F FF8C  F037    	movff	plusw1,btemp
  3416  004E06  5001               	movf	wdtdelay@dcount,w,c
  3417  004E08  5C37               	subwf	btemp,w,c
  3418  004E0A  0EFD               	movlw	-3
  3419  004E0C  006F FF8C  F037    	movff	plusw1,btemp
  3420  004E12  5002               	movf	wdtdelay@dcount+1,w,c
  3421  004E14  5837               	subwfb	btemp,w,c
  3422  004E16  0EFE               	movlw	-2
  3423  004E18  006F FF8C  F037    	movff	plusw1,btemp
  3424  004E1E  5003               	movf	wdtdelay@dcount+2,w,c
  3425  004E20  5837               	subwfb	btemp,w,c
  3426  004E22  0EFF               	movlw	-1
  3427  004E24  006F FF8C  F037    	movff	plusw1,btemp
  3428  004E2A  5004               	movf	wdtdelay@dcount+3,w,c
  3429  004E2C  5837               	subwfb	btemp,w,c
  3430  004E2E  B0D8               	btfsc	status,0,c
  3431  004E30  D7DE               	goto	l1203
  3432                           
  3433                           ; _wdtdelay: autosize = 0, savesize = 0, parsavesize = 0, tempsize = 0 parsize = 4, args
      +                          ize = 4, vargsize = 0
  3434  004E32  52E5               	movf	postdec1,f,c
  3435  004E34  52E5               	movf	postdec1,f,c
  3436  004E36  52E5               	movf	postdec1,f,c
  3437  004E38  52E5               	movf	postdec1,f,c
  3438  004E3A  0012               	return		;funcret
  3439  004E3C                     __end_of_wdtdelay:
  3440                           	opt callstack 0
  3441                           
  3442 ;; *************** function _SPI1_Exchange8bit *****************
  3443 ;; Defined at:
  3444 ;;		line 79 in file "mcc_generated_files/spi1.c"
  3445 ;; Parameters:    Size  Location     Type
  3446 ;;  data            1  [STACK] unsigned char 
  3447 ;; Auto vars:     Size  Location     Type
  3448 ;;		None
  3449 ;; Return value:  Size  Location     Type
  3450 ;;                  1  [STACK] unsigned char 
  3451 ;; Registers used:
  3452 ;;		wreg, fsr1l, fsr1h, status,2, btemp
  3453 ;; Tracked objects:
  3454 ;;		On entry : 0/0
  3455 ;;		On exit  : 3F/39
  3456 ;;		Unchanged: 0/0
  3457 ;; Data sizes:     COMRAM   BANK0   BANK1   BANK2   BANK3   BANK4   BANK5   BANK6   BANK7   BANK8   BANK9  BANK10  BANK1
      +1  BANK12  BANK13  BANK14  BANK15  BANK16  BANK17  BANK18  BANK19  BANK20  BANK21  BANK22  BANK23  BANK24  BANK25  BANK2
      +6  BANK27  BANK28  BANK29  BANK30  BANK31
  3458 ;;      Params:         0       0       0       0       0       0       0       0       0       0       0       0       
      +0       0       0       0       0       0       0       0       0       0       0       0       0       0       0       
      +0       0       0       0       0       0
  3459 ;;      Locals:         0       0       0       0       0       0       0       0       0       0       0       0       
      +0       0       0       0       0       0       0       0       0       0       0       0       0       0       0       
      +0       0       0       0       0       0
  3460 ;;      Temps:          0       0       0       0       0       0       0       0       0       0       0       0       
      +0       0       0       0       0       0       0       0       0       0       0       0       0       0       0       
      +0       0       0       0       0       0
  3461 ;;      Totals:         0       0       0       0       0       0       0       0       0       0       0       0       
      +0       0       0       0       0       0       0       0       0       0       0       0       0       0       0       
      +0       0       0       0       0       0
  3462 ;;Total ram usage:        0 bytes
  3463 ;; Hardware stack levels used:    1
  3464 ;; Hardware stack levels required when called:    3
  3465 ;; This function calls:
  3466 ;;		Nothing
  3467 ;; This function is called by:
  3468 ;;		_send_lcd_cmd
  3469 ;;		_send_lcd_cmd_long
  3470 ;; This function uses a reentrant model
  3471 ;;
  3472                           
  3473                           	psect	text16
  3474  0055E2                     __ptext16:
  3475                           	opt callstack 0
  3476  0055E2                     _SPI1_Exchange8bit:
  3477                           	opt callstack 25
  3478                           
  3479                           ;mcc_generated_files/spi1.c: 79: uint8_t SPI1_Exchange8bit(uint8_t data);mcc_generated_f
      +                          iles/spi1.c: 80: {;mcc_generated_files/spi1.c: 82:     SPI1TCNTL = 1;
  3480                           
  3481                           ; autosize = 0, savesize = 0, parsavesize = 0, tempsize = 0 parsize = 1, argsize = 1 var
      +                          gsize = 0, retsize = 0 argfudge = 0
  3482                           ;incstack = 0
  3483  0055E2  0E01               	movlw	1
  3484  0055E4  013D               	movlb	61	; () banked
  3485  0055E6  6F12               	movwf	18,b	;volatile
  3486                           
  3487                           ; BSR set to: 61
  3488                           ;mcc_generated_files/spi1.c: 83:     SPI1TXB = data;
  3489                           ;stkvar	_data @ sp[(0)+-1]
  3490  0055E8  0EFF               	movlw	-1
  3491  0055EA  006F FF8F FD11     	movff	plusw1,15633	;volatile
  3492  0055F0                     l845:
  3493                           
  3494                           ;mcc_generated_files/spi1.c: 85:     while(PIR2bits.SPI1RXIF == 0x0)
  3495  0055F0  0139               	movlb	57	; () banked
  3496  0055F2  A9A2               	btfss	162,4,b	;volatile
  3497  0055F4  D7FD               	goto	l845
  3498                           
  3499                           ; BSR set to: 57
  3500                           ;mcc_generated_files/spi1.c: 89:     return (SPI1RXB);
  3501  0055F6  006F F440  F037    	movff	15632,btemp	;volatile
  3502                           
  3503                           ; BSR set to: 57
  3504                           ; _SPI1_Exchange8bit: autosize = 0, savesize = 0, parsavesize = 0, tempsize = 0 parsize 
      +                          = 1, argsize = 1, vargsize = 0
  3505  0055FC  52E5               	movf	postdec1,f,c
  3506  0055FE  0012               	return		;funcret
  3507  005600                     __end_of_SPI1_Exchange8bit:
  3508                           	opt callstack 0
  3509                           
  3510 ;; *************** function _ringBufS_init *****************
  3511 ;; Defined at:
  3512 ;;		line 22 in file "ringbufs.c"
  3513 ;; Parameters:    Size  Location     Type
  3514 ;;  _this           2  [STACK] PTR volatile struct ring
  3515 ;;		 -> ring_buf2(67), ring_buf1(67), 
  3516 ;; Auto vars:     Size  Location     Type
  3517 ;;		None
  3518 ;; Return value:  Size  Location     Type
  3519 ;;                  1  [STACK] void 
  3520 ;; Registers used:
  3521 ;;		wreg, fsr1l, fsr1h, fsr2l, fsr2h, status,2, status,0, btemp, btemp+10, btemp+11, prodl
  3522 ;; Tracked objects:
  3523 ;;		On entry : 0/0
  3524 ;;		On exit  : 0/0
  3525 ;;		Unchanged: 0/0
  3526 ;; Data sizes:     COMRAM   BANK0   BANK1   BANK2   BANK3   BANK4   BANK5   BANK6   BANK7   BANK8   BANK9  BANK10  BANK1
      +1  BANK12  BANK13  BANK14  BANK15  BANK16  BANK17  BANK18  BANK19  BANK20  BANK21  BANK22  BANK23  BANK24  BANK25  BANK2
      +6  BANK27  BANK28  BANK29  BANK30  BANK31
  3527 ;;      Params:         0       0       0       0       0       0       0       0       0       0       0       0       
      +0       0       0       0       0       0       0       0       0       0       0       0       0       0       0       
      +0       0       0       0       0       0
  3528 ;;      Locals:         0       0       0       0       0       0       0       0       0       0       0       0       
      +0       0       0       0       0       0       0       0       0       0       0       0       0       0       0       
      +0       0       0       0       0       0
  3529 ;;      Temps:          0       0       0       0       0       0       0       0       0       0       0       0       
      +0       0       0       0       0       0       0       0       0       0       0       0       0       0       0       
      +0       0       0       0       0       0
  3530 ;;      Totals:         0       0       0       0       0       0       0       0       0       0       0       0       
      +0       0       0       0       0       0       0       0       0       0       0       0       0       0       0       
      +0       0       0       0       0       0
  3531 ;;Total ram usage:        0 bytes
  3532 ;; Hardware stack levels used:    1
  3533 ;; Hardware stack levels required when called:    4
  3534 ;; This function calls:
  3535 ;;		_memset
  3536 ;; This function is called by:
  3537 ;;		_init_display
  3538 ;; This function uses a reentrant model
  3539 ;;
  3540                           
  3541                           	psect	text17
  3542  00522E                     __ptext17:
  3543                           	opt callstack 0
  3544  00522E                     _ringBufS_init:
  3545                           	opt callstack 25
  3546                           
  3547                           ;ringbufs.c: 22: void ringBufS_init(volatile ringBufS_t *_this);ringbufs.c: 23: {;ringbu
      +                          fs.c: 32:  memset((void*)_this, 0, sizeof(*_this));
  3548                           
  3549                           ; BSR set to: 57
  3550                           ; autosize = 0, savesize = 0, parsavesize = 0, tempsize = 0 parsize = 2, argsize = 2 var
      +                          gsize = 0, retsize = 0 argfudge = 0
  3551                           ;incstack = 0
  3552  00522E  0E43               	movlw	67
  3553  005230  6EE6               	movwf	postinc1,c
  3554  005232  0E00               	movlw	0
  3555  005234  6EE6               	movwf	postinc1,c
  3556  005236  0E00               	movlw	0
  3557  005238  6EE6               	movwf	postinc1,c
  3558  00523A  0E00               	movlw	0
  3559  00523C  6EE6               	movwf	postinc1,c
  3560                           
  3561                           ;stkvar	__this @ sp[(-4)+-2]
  3562  00523E  0EFA               	movlw	-6
  3563  005240  006F FF8F FFE6     	movff	plusw1,postinc1
  3564  005246  006F FF8F FFE6     	movff	plusw1,postinc1
  3565  00524C  EC73  F017         	call	_memset	;wreg free
  3566                           
  3567                           ; _ringBufS_init: autosize = 0, savesize = 0, parsavesize = 0, tempsize = 0 parsize = 2,
      +                           argsize = 2, vargsize = 0
  3568  005250  52E5               	movf	postdec1,f,c
  3569  005252  52E5               	movf	postdec1,f,c
  3570  005254  0012               	return		;funcret
  3571  005256                     __end_of_ringBufS_init:
  3572                           	opt callstack 0
  3573                           
  3574 ;; *************** function _eaDogM_WriteString *****************
  3575 ;; Defined at:
  3576 ;;		line 167 in file "eadog.c"
  3577 ;; Parameters:    Size  Location     Type
  3578 ;;  strPtr          1  [STACK] PTR unsigned char 
  3579 ;;		 -> V(79), 
  3580 ;; Auto vars:     Size  Location     Type
  3581 ;;		None
  3582 ;; Return value:  Size  Location     Type
  3583 ;;                  1  [STACK] void 
  3584 ;; Registers used:
  3585 ;;		wreg, fsr0l, fsr0h, fsr1l, fsr1h, fsr2l, fsr2h, status,2, status,0, btemp, btemp+1, btemp+8, btemp+9, btemp+10, btem
      +p+11, btemp+16, btemp+17, btemp+18, btemp+19, btemp+20, btemp+21, btemp+22, btemp+23, tblptrl, tblptrh, tblptru, prodl, 
      +prodh
  3586 ;; Tracked objects:
  3587 ;;		On entry : 0/3D
  3588 ;;		On exit  : 3F/0
  3589 ;;		Unchanged: 0/0
  3590 ;; Data sizes:     COMRAM   BANK0   BANK1   BANK2   BANK3   BANK4   BANK5   BANK6   BANK7   BANK8   BANK9  BANK10  BANK1
      +1  BANK12  BANK13  BANK14  BANK15  BANK16  BANK17  BANK18  BANK19  BANK20  BANK21  BANK22  BANK23  BANK24  BANK25  BANK2
      +6  BANK27  BANK28  BANK29  BANK30  BANK31
  3591 ;;      Params:         0       0       0       0       0       0       0       0       0       0       0       0       
      +0       0       0       0       0       0       0       0       0       0       0       0       0       0       0       
      +0       0       0       0       0       0
  3592 ;;      Locals:         0       0       0       0       0       0       0       0       0       0       0       0       
      +0       0       0       0       0       0       0       0       0       0       0       0       0       0       0       
      +0       0       0       0       0       0
  3593 ;;      Temps:          0       0       0       0       0       0       0       0       0       0       0       0       
      +0       0       0       0       0       0       0       0       0       0       0       0       0       0       0       
      +0       0       0       0       0       0
  3594 ;;      Totals:         0       0       0       0       0       0       0       0       0       0       0       0       
      +0       0       0       0       0       0       0       0       0       0       0       0       0       0       0       
      +0       0       0       0       0       0
  3595 ;;Total ram usage:        0 bytes
  3596 ;; Hardware stack levels used:    1
  3597 ;; Hardware stack levels required when called:   12
  3598 ;; This function calls:
  3599 ;;		_printf
  3600 ;;		_ringBufS_flush
  3601 ;;		_start_lcd
  3602 ;;		_strlen
  3603 ;;		_wait_lcd_set
  3604 ;; This function is called by:
  3605 ;;		_main
  3606 ;; This function uses a reentrant model
  3607 ;;
  3608                           
  3609                           	psect	text18
  3610  004656                     __ptext18:
  3611                           	opt callstack 0
  3612  004656                     _eaDogM_WriteString:
  3613                           	opt callstack 18
  3614                           
  3615                           ;eadog.c: 167: void eaDogM_WriteString(char *strPtr);eadog.c: 168: {;eadog.c: 169:  wait
      +                          _lcd_set();
  3616                           
  3617                           ; autosize = 0, savesize = 0, parsavesize = 0, tempsize = 0 parsize = 1, argsize = 1 var
      +                          gsize = 0, retsize = 0 argfudge = 0
  3618                           ;incstack = 0
  3619  004656  EC9F  F02B         	call	_wait_lcd_set	;wreg free
  3620                           
  3621                           ; BSR set to: 0
  3622                           ;eadog.c: 171:  ringBufS_flush(spi_link.tx1a, 0);
  3623  00465A  0E00               	movlw	0
  3624  00465C  6EE6               	movwf	postinc1,c
  3625  00465E  0060  F1CF  FFE6   	movff	_spi_link+6,postinc1
  3626  004664  0060  F1D3  FFE6   	movff	_spi_link+7,postinc1
  3627  00466A  ECB9  F024         	call	_ringBufS_flush	;wreg free
  3628  00466E  94BC               	bcf	16316,2,c	;volatile
  3629                           
  3630                           ;eadog.c: 173:  if (strlen(strPtr) > 64) strPtr[64] = 0;
  3631                           ;stkvar	_strPtr @ sp[(0)+-1]
  3632  004670  0EFF               	movlw	-1
  3633  004672  006F FF8C  F042    	movff	plusw1,btemp+11
  3634  004678  0060  F10B  FFE6   	movff	btemp+11,postinc1
  3635  00467E  0E00               	movlw	0
  3636  004680  6EE6               	movwf	postinc1,c
  3637  004682  EC87  F025         	call	_strlen	;wreg free
  3638  004686  5038               	movf	btemp+1,w,c
  3639  004688  E104               	bnz	u4440
  3640  00468A  0E41               	movlw	65
  3641  00468C  5C37               	subwf	btemp,w,c
  3642  00468E  A0D8               	btfss	status,0,c
  3643  004690  D008               	goto	l6333
  3644  004692                     u4440:
  3645                           
  3646                           ;stkvar	_strPtr @ sp[(0)+-1]
  3647  004692  0EFF               	movlw	-1
  3648  004694  50E3               	movf	plusw1,w,c
  3649  004696  6ED9               	movwf	fsr2l,c
  3650  004698  6ADA               	clrf	fsr2h,c
  3651  00469A  0E40               	movlw	64
  3652  00469C  26D9               	addwf	fsr2l,f,c
  3653  00469E  0E00               	movlw	0
  3654  0046A0  6EDF               	movwf	indf2,c
  3655  0046A2                     l6333:
  3656                           
  3657                           ;eadog.c: 174:  DMA1CON0bits.EN = 0;
  3658  0046A2  013B               	movlb	59	; () banked
  3659  0046A4  9FFC               	bcf	252,7,b	;volatile
  3660                           
  3661                           ; BSR set to: 59
  3662                           ;eadog.c: 175:  DMA1SSZ = strlen(strPtr);
  3663                           ;stkvar	_strPtr @ sp[(0)+-1]
  3664  0046A6  0EFF               	movlw	-1
  3665  0046A8  006F FF8C  F042    	movff	plusw1,btemp+11
  3666  0046AE  0060  F10B  FFE6   	movff	btemp+11,postinc1
  3667  0046B4  0E00               	movlw	0
  3668  0046B6  6EE6               	movwf	postinc1,c
  3669  0046B8  EC87  F025         	call	_strlen	;wreg free
  3670  0046BC  0060  F0DF  FBF7   	movff	btemp,15351	;volatile
  3671  0046C2  0060  F0E3  FBF8   	movff	btemp+1,15352	;volatile
  3672                           
  3673                           ;eadog.c: 176:  DMA1CON0bits.EN = 1;
  3674  0046C8  013B               	movlb	59	; () banked
  3675  0046CA  8FFC               	bsf	252,7,b	;volatile
  3676                           
  3677                           ; BSR set to: 59
  3678                           ;eadog.c: 177:  printf("%s", strPtr);
  3679                           ;stkvar	_strPtr @ sp[(0)+-1]
  3680  0046CC  0EFF               	movlw	-1
  3681  0046CE  006F FF8C  F042    	movff	plusw1,btemp+11
  3682  0046D4  0060  F10B  FFE6   	movff	btemp+11,postinc1
  3683  0046DA  0E00               	movlw	0
  3684  0046DC  6EE6               	movwf	postinc1,c
  3685  0046DE  0E61               	movlw	STR_5& (0+255)
  3686  0046E0  6EE6               	movwf	postinc1,c
  3687  0046E2  0E03               	movlw	3
  3688  0046E4  6EE6               	movwf	postinc1,c
  3689  0046E6  EC63  F026         	call	_printf	;wreg free
  3690  0046EA  94BE               	bcf	16318,2,c	;volatile
  3691                           
  3692                           ;eadog.c: 179:  start_lcd();
  3693  0046EC  ECA2  F02B         	call	_start_lcd	;wreg free
  3694                           
  3695                           ; BSR set to: 59
  3696                           ;eadog.c: 180:  ++V.ticks;
  3697  0046F0  0E01               	movlw	1
  3698  0046F2  0100               	movlb	0	; () banked
  3699  0046F4  27C9               	addwf	(_V+68)& (0+255),f,b	;volatile
  3700  0046F6  0E00               	movlw	0
  3701  0046F8  23CA               	addwfc	(_V+69)& (0+255),f,b	;volatile
  3702  0046FA  23CB               	addwfc	(_V+70)& (0+255),f,b	;volatile
  3703  0046FC  23CC               	addwfc	(_V+71)& (0+255),f,b	;volatile
  3704                           
  3705                           ; BSR set to: 0
  3706                           ; _eaDogM_WriteString: autosize = 0, savesize = 0, parsavesize = 0, tempsize = 0 parsize
      +                           = 1, argsize = 1, vargsize = 0
  3707  0046FE  52E5               	movf	postdec1,f,c
  3708  004700  0012               	return		;funcret
  3709  004702                     __end_of_eaDogM_WriteString:
  3710                           	opt callstack 0
  3711                           
  3712 ;; *************** function _wait_lcd_set *****************
  3713 ;; Defined at:
  3714 ;;		line 114 in file "eadog.c"
  3715 ;; Parameters:    Size  Location     Type
  3716 ;;		None
  3717 ;; Auto vars:     Size  Location     Type
  3718 ;;		None
  3719 ;; Return value:  Size  Location     Type
  3720 ;;                  1  [STACK] void 
  3721 ;; Registers used:
  3722 ;;		None
  3723 ;; Tracked objects:
  3724 ;;		On entry : 0/3D
  3725 ;;		On exit  : 3F/0
  3726 ;;		Unchanged: 0/0
  3727 ;; Data sizes:     COMRAM   BANK0   BANK1   BANK2   BANK3   BANK4   BANK5   BANK6   BANK7   BANK8   BANK9  BANK10  BANK1
      +1  BANK12  BANK13  BANK14  BANK15  BANK16  BANK17  BANK18  BANK19  BANK20  BANK21  BANK22  BANK23  BANK24  BANK25  BANK2
      +6  BANK27  BANK28  BANK29  BANK30  BANK31
  3728 ;;      Params:         0       0       0       0       0       0       0       0       0       0       0       0       
      +0       0       0       0       0       0       0       0       0       0       0       0       0       0       0       
      +0       0       0       0       0       0
  3729 ;;      Locals:         0       0       0       0       0       0       0       0       0       0       0       0       
      +0       0       0       0       0       0       0       0       0       0       0       0       0       0       0       
      +0       0       0       0       0       0
  3730 ;;      Temps:          0       0       0       0       0       0       0       0       0       0       0       0       
      +0       0       0       0       0       0       0       0       0       0       0       0       0       0       0       
      +0       0       0       0       0       0
  3731 ;;      Totals:         0       0       0       0       0       0       0       0       0       0       0       0       
      +0       0       0       0       0       0       0       0       0       0       0       0       0       0       0       
      +0       0       0       0       0       0
  3732 ;;Total ram usage:        0 bytes
  3733 ;; Hardware stack levels used:    1
  3734 ;; Hardware stack levels required when called:    3
  3735 ;; This function calls:
  3736 ;;		Nothing
  3737 ;; This function is called by:
  3738 ;;		_eaDogM_WriteString
  3739 ;; This function uses a reentrant model
  3740 ;;
  3741                           
  3742                           	psect	text19
  3743  00573E                     __ptext19:
  3744                           	opt callstack 0
  3745  00573E                     _wait_lcd_set:
  3746                           	opt callstack 26
  3747                           
  3748                           ;eadog.c: 116:  spi_link.LCD_DATA = 1;
  3749                           
  3750                           ; BSR set to: 0
  3751                           ; autosize = 0, savesize = 0, parsavesize = 0, tempsize = 0 parsize = 0, argsize = 0 var
      +                          gsize = 0, retsize = 0 argfudge = 0
  3752                           ;incstack = 0
  3753  00573E  0100               	movlb	0	; () banked
  3754  005740  876D               	bsf	_spi_link& (0+255),3,b	;volatile
  3755                           
  3756                           ; BSR set to: 0
  3757                           ; _wait_lcd_set: autosize = 0, savesize = 0, parsavesize = 0, tempsize = 0 parsize = 0, 
      +                          argsize = 0, vargsize = 0
  3758  005742  0012               	return		;funcret
  3759  005744                     __end_of_wait_lcd_set:
  3760                           	opt callstack 0
  3761                           
  3762 ;; *************** function _start_lcd *****************
  3763 ;; Defined at:
  3764 ;;		line 109 in file "eadog.c"
  3765 ;; Parameters:    Size  Location     Type
  3766 ;;		None
  3767 ;; Auto vars:     Size  Location     Type
  3768 ;;		None
  3769 ;; Return value:  Size  Location     Type
  3770 ;;                  1  [STACK] void 
  3771 ;; Registers used:
  3772 ;;		None
  3773 ;; Tracked objects:
  3774 ;;		On entry : 0/3B
  3775 ;;		On exit  : 3F/3B
  3776 ;;		Unchanged: 0/0
  3777 ;; Data sizes:     COMRAM   BANK0   BANK1   BANK2   BANK3   BANK4   BANK5   BANK6   BANK7   BANK8   BANK9  BANK10  BANK1
      +1  BANK12  BANK13  BANK14  BANK15  BANK16  BANK17  BANK18  BANK19  BANK20  BANK21  BANK22  BANK23  BANK24  BANK25  BANK2
      +6  BANK27  BANK28  BANK29  BANK30  BANK31
  3778 ;;      Params:         0       0       0       0       0       0       0       0       0       0       0       0       
      +0       0       0       0       0       0       0       0       0       0       0       0       0       0       0       
      +0       0       0       0       0       0
  3779 ;;      Locals:         0       0       0       0       0       0       0       0       0       0       0       0       
      +0       0       0       0       0       0       0       0       0       0       0       0       0       0       0       
      +0       0       0       0       0       0
  3780 ;;      Temps:          0       0       0       0       0       0       0       0       0       0       0       0       
      +0       0       0       0       0       0       0       0       0       0       0       0       0       0       0       
      +0       0       0       0       0       0
  3781 ;;      Totals:         0       0       0       0       0       0       0       0       0       0       0       0       
      +0       0       0       0       0       0       0       0       0       0       0       0       0       0       0       
      +0       0       0       0       0       0
  3782 ;;Total ram usage:        0 bytes
  3783 ;; Hardware stack levels used:    1
  3784 ;; Hardware stack levels required when called:    3
  3785 ;; This function calls:
  3786 ;;		Nothing
  3787 ;; This function is called by:
  3788 ;;		_eaDogM_WriteString
  3789 ;; This function uses a reentrant model
  3790 ;;
  3791                           
  3792                           	psect	text20
  3793  005744                     __ptext20:
  3794                           	opt callstack 0
  3795  005744                     _start_lcd:
  3796                           	opt callstack 26
  3797                           
  3798                           ;eadog.c: 111:  DMA1CON0bits.DMA1SIRQEN = 1;
  3799                           
  3800                           ; BSR set to: 0
  3801                           ; autosize = 0, savesize = 0, parsavesize = 0, tempsize = 0 parsize = 0, argsize = 0 var
      +                          gsize = 0, retsize = 0 argfudge = 0
  3802                           ;incstack = 0
  3803  005744  013B               	movlb	59	; () banked
  3804  005746  8DFC               	bsf	252,6,b	;volatile
  3805                           
  3806                           ; BSR set to: 59
  3807                           ; _start_lcd: autosize = 0, savesize = 0, parsavesize = 0, tempsize = 0 parsize = 0, arg
      +                          size = 0, vargsize = 0
  3808  005748  0012               	return		;funcret
  3809  00574A                     __end_of_start_lcd:
  3810                           	opt callstack 0
  3811                           
  3812 ;; *************** function _ringBufS_flush *****************
  3813 ;; Defined at:
  3814 ;;		line 76 in file "ringbufs.c"
  3815 ;; Parameters:    Size  Location     Type
  3816 ;;  _this           2  [STACK] PTR struct ringBufS_t
  3817 ;;		 -> ring_buf1(67), 
  3818 ;;  clearBuffer     1  [STACK] const char 
  3819 ;; Auto vars:     Size  Location     Type
  3820 ;;		None
  3821 ;; Return value:  Size  Location     Type
  3822 ;;                  1  [STACK] void 
  3823 ;; Registers used:
  3824 ;;		wreg, fsr1l, fsr1h, fsr2l, fsr2h, status,2, status,0, btemp, btemp+10, btemp+11, prodl
  3825 ;; Tracked objects:
  3826 ;;		On entry : 3F/0
  3827 ;;		On exit  : 0/0
  3828 ;;		Unchanged: 0/0
  3829 ;; Data sizes:     COMRAM   BANK0   BANK1   BANK2   BANK3   BANK4   BANK5   BANK6   BANK7   BANK8   BANK9  BANK10  BANK1
      +1  BANK12  BANK13  BANK14  BANK15  BANK16  BANK17  BANK18  BANK19  BANK20  BANK21  BANK22  BANK23  BANK24  BANK25  BANK2
      +6  BANK27  BANK28  BANK29  BANK30  BANK31
  3830 ;;      Params:         0       0       0       0       0       0       0       0       0       0       0       0       
      +0       0       0       0       0       0       0       0       0       0       0       0       0       0       0       
      +0       0       0       0       0       0
  3831 ;;      Locals:         0       0       0       0       0       0       0       0       0       0       0       0       
      +0       0       0       0       0       0       0       0       0       0       0       0       0       0       0       
      +0       0       0       0       0       0
  3832 ;;      Temps:          0       0       0       0       0       0       0       0       0       0       0       0       
      +0       0       0       0       0       0       0       0       0       0       0       0       0       0       0       
      +0       0       0       0       0       0
  3833 ;;      Totals:         0       0       0       0       0       0       0       0       0       0       0       0       
      +0       0       0       0       0       0       0       0       0       0       0       0       0       0       0       
      +0       0       0       0       0       0
  3834 ;;Total ram usage:        0 bytes
  3835 ;; Hardware stack levels used:    1
  3836 ;; Hardware stack levels required when called:    4
  3837 ;; This function calls:
  3838 ;;		_memset
  3839 ;; This function is called by:
  3840 ;;		_eaDogM_WriteString
  3841 ;; This function uses a reentrant model
  3842 ;;
  3843                           
  3844                           	psect	text21
  3845  004972                     __ptext21:
  3846                           	opt callstack 0
  3847  004972                     _ringBufS_flush:
  3848                           	opt callstack 25
  3849                           
  3850                           ;ringbufs.c: 76: void ringBufS_flush(ringBufS_t *_this, const int8_t clearBuffer);ringbu
      +                          fs.c: 77: {;ringbufs.c: 78:  _this->count = 0;
  3851                           ;stkvar	__this @ sp[(0)+-2]
  3852                           
  3853                           ; BSR set to: 59
  3854                           ; autosize = 0, savesize = 0, parsavesize = 0, tempsize = 0 parsize = 3, argsize = 3 var
      +                          gsize = 0, retsize = 0 argfudge = 0
  3855                           ;incstack = 0
  3856  004972  0EFE               	movlw	-2
  3857  004974  006F FF8C  F041    	movff	plusw1,btemp+10
  3858  00497A  0EFF               	movlw	-1
  3859  00497C  006F FF8C  F042    	movff	plusw1,btemp+11
  3860  004982  0E42               	movlw	66
  3861  004984  2441               	addwf	btemp+10,w,c
  3862  004986  6ED9               	movwf	fsr2l,c
  3863  004988  0E00               	movlw	0
  3864  00498A  2042               	addwfc	btemp+11,w,c
  3865  00498C  6EDA               	movwf	fsr2h,c
  3866  00498E  0E00               	movlw	0
  3867  004990  6EDF               	movwf	indf2,c
  3868                           
  3869                           ;ringbufs.c: 79:  _this->head = 0;
  3870                           ;stkvar	__this @ sp[(0)+-2]
  3871  004992  0EFE               	movlw	-2
  3872  004994  006F FF8C  F041    	movff	plusw1,btemp+10
  3873  00499A  0EFF               	movlw	-1
  3874  00499C  006F FF8C  F042    	movff	plusw1,btemp+11
  3875  0049A2  0E40               	movlw	64
  3876  0049A4  2441               	addwf	btemp+10,w,c
  3877  0049A6  6ED9               	movwf	fsr2l,c
  3878  0049A8  0E00               	movlw	0
  3879  0049AA  2042               	addwfc	btemp+11,w,c
  3880  0049AC  6EDA               	movwf	fsr2h,c
  3881  0049AE  0E00               	movlw	0
  3882  0049B0  6EDF               	movwf	indf2,c
  3883                           
  3884                           ;ringbufs.c: 80:  _this->tail = 0;
  3885                           ;stkvar	__this @ sp[(0)+-2]
  3886  0049B2  0EFE               	movlw	-2
  3887  0049B4  006F FF8C  F041    	movff	plusw1,btemp+10
  3888  0049BA  0EFF               	movlw	-1
  3889  0049BC  006F FF8C  F042    	movff	plusw1,btemp+11
  3890  0049C2  0E41               	movlw	65
  3891  0049C4  2441               	addwf	btemp+10,w,c
  3892  0049C6  6ED9               	movwf	fsr2l,c
  3893  0049C8  0E00               	movlw	0
  3894  0049CA  2042               	addwfc	btemp+11,w,c
  3895  0049CC  6EDA               	movwf	fsr2h,c
  3896  0049CE  0E00               	movlw	0
  3897  0049D0  6EDF               	movwf	indf2,c
  3898                           
  3899                           ;ringbufs.c: 81:  if (clearBuffer) {
  3900                           ;stkvar	_clearBuffer @ sp[(0)+-3]
  3901  0049D2  0EFD               	movlw	-3
  3902  0049D4  50E3               	movf	plusw1,w,c
  3903  0049D6  B4D8               	btfsc	status,2,c
  3904  0049D8  D011               	goto	l1324
  3905                           
  3906                           ;ringbufs.c: 82:   memset(_this->buf, 0, sizeof(_this->buf));
  3907  0049DA  0E40               	movlw	64
  3908  0049DC  6EE6               	movwf	postinc1,c
  3909  0049DE  0E00               	movlw	0
  3910  0049E0  6EE6               	movwf	postinc1,c
  3911  0049E2  0E00               	movlw	0
  3912  0049E4  6EE6               	movwf	postinc1,c
  3913  0049E6  0E00               	movlw	0
  3914  0049E8  6EE6               	movwf	postinc1,c
  3915                           
  3916                           ;stkvar	__this @ sp[(-4)+-2]
  3917  0049EA  0EFA               	movlw	-6
  3918  0049EC  006F FF8F FFE6     	movff	plusw1,postinc1
  3919  0049F2  006F FF8F FFE6     	movff	plusw1,postinc1
  3920  0049F8  EC73  F017         	call	_memset	;wreg free
  3921  0049FC                     l1324:
  3922                           
  3923                           ; _ringBufS_flush: autosize = 0, savesize = 0, parsavesize = 0, tempsize = 0 parsize = 3
      +                          , argsize = 3, vargsize = 0
  3924  0049FC  52E5               	movf	postdec1,f,c
  3925  0049FE  52E5               	movf	postdec1,f,c
  3926  004A00  52E5               	movf	postdec1,f,c
  3927  004A02  0012               	return		;funcret
  3928  004A04                     __end_of_ringBufS_flush:
  3929                           	opt callstack 0
  3930                           
  3931 ;; *************** function _memset *****************
  3932 ;; Defined at:
  3933 ;;		line 4 in file "/opt/microchip/xc8/v2.05/pic/sources/c99/common/memset.c"
  3934 ;; Parameters:    Size  Location     Type
  3935 ;;  dest            2  [STACK] PTR void 
  3936 ;;		 -> ring_buf2(67), ring_buf1(67), 
  3937 ;;  c               2  [STACK] int 
  3938 ;;  n               2  [STACK] unsigned int 
  3939 ;; Auto vars:     Size  Location     Type
  3940 ;;  s               2  [STACK] PTR unsigned char 
  3941 ;;		 -> ring_buf2(67), ring_buf1(67), 
  3942 ;;  k               2  [STACK] unsigned int 
  3943 ;; Return value:  Size  Location     Type
  3944 ;;                  2  [STACK] PTR void 
  3945 ;; Registers used:
  3946 ;;		wreg, fsr1l, fsr1h, fsr2l, fsr2h, status,2, status,0, btemp, btemp+10, btemp+11, prodl
  3947 ;; Tracked objects:
  3948 ;;		On entry : 0/0
  3949 ;;		On exit  : 0/0
  3950 ;;		Unchanged: 0/0
  3951 ;; Data sizes:     COMRAM   BANK0   BANK1   BANK2   BANK3   BANK4   BANK5   BANK6   BANK7   BANK8   BANK9  BANK10  BANK1
      +1  BANK12  BANK13  BANK14  BANK15  BANK16  BANK17  BANK18  BANK19  BANK20  BANK21  BANK22  BANK23  BANK24  BANK25  BANK2
      +6  BANK27  BANK28  BANK29  BANK30  BANK31
  3952 ;;      Params:         0       0       0       0       0       0       0       0       0       0       0       0       
      +0       0       0       0       0       0       0       0       0       0       0       0       0       0       0       
      +0       0       0       0       0       0
  3953 ;;      Locals:         0       0       0       0       0       0       0       0       0       0       0       0       
      +0       0       0       0       0       0       0       0       0       0       0       0       0       0       0       
      +0       0       0       0       0       0
  3954 ;;      Temps:          0       0       0       0       0       0       0       0       0       0       0       0       
      +0       0       0       0       0       0       0       0       0       0       0       0       0       0       0       
      +0       0       0       0       0       0
  3955 ;;      Totals:         0       0       0       0       0       0       0       0       0       0       0       0       
      +0       0       0       0       0       0       0       0       0       0       0       0       0       0       0       
      +0       0       0       0       0       0
  3956 ;;Total ram usage:        0 bytes
  3957 ;; Hardware stack levels used:    1
  3958 ;; Hardware stack levels required when called:    3
  3959 ;; This function calls:
  3960 ;;		Nothing
  3961 ;; This function is called by:
  3962 ;;		_ringBufS_init
  3963 ;;		_ringBufS_flush
  3964 ;; This function uses a reentrant model
  3965 ;;
  3966                           
  3967                           	psect	text22
  3968  002EE6                     __ptext22:
  3969                           	opt callstack 0
  3970  002EE6                     _memset:
  3971                           	opt callstack 0
  3972                           
  3973                           ; autosize = 4, savesize = 0, parsavesize = 0, tempsize = 0 parsize = 6, argsize = 6 var
      +                          gsize = 0, retsize = 0 argfudge = 0
  3974  002EE6  52E6               	movf	postinc1,f,c
  3975  002EE8  52E6               	movf	postinc1,f,c
  3976  002EEA  52E6               	movf	postinc1,f,c
  3977  002EEC  52E6               	movf	postinc1,f,c
  3978                           
  3979                           ;stkvar	_dest @ sp[(-4)+-2]
  3980                           
  3981                           ;incstack = 0
  3982  002EEE  0EFA               	movlw	-6
  3983  002EF0  006F FF8C  F041    	movff	plusw1,btemp+10
  3984  002EF6  0EFB               	movlw	-5
  3985  002EF8  006F FF8C  F042    	movff	plusw1,btemp+11
  3986                           
  3987                           ;stkvar	_s @ sp[(-4)+0]
  3988  002EFE  0EFD               	movlw	-3
  3989  002F00  0060  F10B  FFE3   	movff	btemp+11,plusw1
  3990  002F06  0EFC               	movlw	-4
  3991  002F08  0060  F107  FFE3   	movff	btemp+10,plusw1
  3992                           
  3993                           ;stkvar	_n @ sp[(-4)+-6]
  3994  002F0E  0EF6               	movlw	-10
  3995  002F10  006F FF8C  F037    	movff	plusw1,btemp
  3996  002F16  0EF7               	movlw	-9
  3997  002F18  50E3               	movf	plusw1,w,c
  3998  002F1A  1037               	iorwf	btemp,w,c
  3999  002F1C  B4D8               	btfsc	status,2,c
  4000  002F1E  D154               	goto	u4410
  4001                           
  4002                           ;stkvar	_c @ sp[(-4)+-4]
  4003                           ;stkvar	_s @ sp[(-4)+0]
  4004  002F20  0EFC               	movlw	-4
  4005  002F22  006F FF8F FFD9     	movff	plusw1,fsr2l
  4006  002F28  0EFD               	movlw	-3
  4007  002F2A  006F FF8F FFDA     	movff	plusw1,fsr2h
  4008  002F30  0EF8               	movlw	-8
  4009  002F32  006F FF8F FFDF     	movff	plusw1,indf2
  4010                           
  4011                           ;stkvar	_c @ sp[(-4)+-4]
  4012                           ;stkvar	_n @ sp[(-4)+-6]
  4013                           ;stkvar	_s @ sp[(-4)+0]
  4014  002F38  0EFC               	movlw	-4
  4015  002F3A  006F FF8C  F041    	movff	plusw1,btemp+10
  4016  002F40  0EFD               	movlw	-3
  4017  002F42  006F FF8C  F042    	movff	plusw1,btemp+11
  4018  002F48  0EF6               	movlw	-10
  4019  002F4A  50E3               	movf	plusw1,w,c
  4020  002F4C  2641               	addwf	btemp+10,f,c
  4021  002F4E  0EF7               	movlw	-9
  4022  002F50  50E3               	movf	plusw1,w,c
  4023  002F52  2242               	addwfc	btemp+11,f,c
  4024  002F54  0EFF               	movlw	255
  4025  002F56  2441               	addwf	btemp+10,w,c
  4026  002F58  6ED9               	movwf	fsr2l,c
  4027  002F5A  0EFF               	movlw	255
  4028  002F5C  2042               	addwfc	btemp+11,w,c
  4029  002F5E  6EDA               	movwf	fsr2h,c
  4030  002F60  0EF8               	movlw	-8
  4031  002F62  006F FF8F FFDF     	movff	plusw1,indf2
  4032                           
  4033                           ;stkvar	_n @ sp[(-4)+-6]
  4034  002F68  0EF7               	movlw	-9
  4035  002F6A  50E3               	movf	plusw1,w,c
  4036  002F6C  E108               	bnz	l6195
  4037  002F6E  0EF6               	movlw	-10
  4038  002F70  006F FF8C  F037    	movff	plusw1,btemp
  4039  002F76  0E03               	movlw	3
  4040  002F78  5E37               	subwf	btemp,f,c
  4041  002F7A  A0D8               	btfss	status,0,c
  4042  002F7C  D125               	goto	u4410
  4043  002F7E                     l6195:
  4044                           
  4045                           ;stkvar	_c @ sp[(-4)+-4]
  4046                           ;stkvar	_s @ sp[(-4)+0]
  4047  002F7E  0EFC               	movlw	-4
  4048  002F80  006F FF8C  F041    	movff	plusw1,btemp+10
  4049  002F86  0EFD               	movlw	-3
  4050  002F88  006F FF8C  F042    	movff	plusw1,btemp+11
  4051  002F8E  0E01               	movlw	1
  4052  002F90  2441               	addwf	btemp+10,w,c
  4053  002F92  6ED9               	movwf	fsr2l,c
  4054  002F94  0E00               	movlw	0
  4055  002F96  2042               	addwfc	btemp+11,w,c
  4056  002F98  6EDA               	movwf	fsr2h,c
  4057  002F9A  0EF8               	movlw	-8
  4058  002F9C  006F FF8F FFDF     	movff	plusw1,indf2
  4059                           
  4060                           ;stkvar	_c @ sp[(-4)+-4]
  4061                           ;stkvar	_s @ sp[(-4)+0]
  4062  002FA2  0EFC               	movlw	-4
  4063  002FA4  006F FF8C  F041    	movff	plusw1,btemp+10
  4064  002FAA  0EFD               	movlw	-3
  4065  002FAC  006F FF8C  F042    	movff	plusw1,btemp+11
  4066  002FB2  0E02               	movlw	2
  4067  002FB4  2441               	addwf	btemp+10,w,c
  4068  002FB6  6ED9               	movwf	fsr2l,c
  4069  002FB8  0E00               	movlw	0
  4070  002FBA  2042               	addwfc	btemp+11,w,c
  4071  002FBC  6EDA               	movwf	fsr2h,c
  4072  002FBE  0EF8               	movlw	-8
  4073  002FC0  006F FF8F FFDF     	movff	plusw1,indf2
  4074                           
  4075                           ;stkvar	_c @ sp[(-4)+-4]
  4076                           ;stkvar	_n @ sp[(-4)+-6]
  4077                           ;stkvar	_s @ sp[(-4)+0]
  4078  002FC6  0EFC               	movlw	-4
  4079  002FC8  006F FF8C  F041    	movff	plusw1,btemp+10
  4080  002FCE  0EFD               	movlw	-3
  4081  002FD0  006F FF8C  F042    	movff	plusw1,btemp+11
  4082  002FD6  0EF6               	movlw	-10
  4083  002FD8  50E3               	movf	plusw1,w,c
  4084  002FDA  2641               	addwf	btemp+10,f,c
  4085  002FDC  0EF7               	movlw	-9
  4086  002FDE  50E3               	movf	plusw1,w,c
  4087  002FE0  2242               	addwfc	btemp+11,f,c
  4088  002FE2  0EFE               	movlw	254
  4089  002FE4  2441               	addwf	btemp+10,w,c
  4090  002FE6  6ED9               	movwf	fsr2l,c
  4091  002FE8  0EFF               	movlw	255
  4092  002FEA  2042               	addwfc	btemp+11,w,c
  4093  002FEC  6EDA               	movwf	fsr2h,c
  4094  002FEE  0EF8               	movlw	-8
  4095  002FF0  006F FF8F FFDF     	movff	plusw1,indf2
  4096                           
  4097                           ;stkvar	_c @ sp[(-4)+-4]
  4098                           ;stkvar	_n @ sp[(-4)+-6]
  4099                           ;stkvar	_s @ sp[(-4)+0]
  4100  002FF6  0EFC               	movlw	-4
  4101  002FF8  006F FF8C  F041    	movff	plusw1,btemp+10
  4102  002FFE  0EFD               	movlw	-3
  4103  003000  006F FF8C  F042    	movff	plusw1,btemp+11
  4104  003006  0EF6               	movlw	-10
  4105  003008  50E3               	movf	plusw1,w,c
  4106  00300A  2641               	addwf	btemp+10,f,c
  4107  00300C  0EF7               	movlw	-9
  4108  00300E  50E3               	movf	plusw1,w,c
  4109  003010  2242               	addwfc	btemp+11,f,c
  4110  003012  0EFD               	movlw	253
  4111  003014  2441               	addwf	btemp+10,w,c
  4112  003016  6ED9               	movwf	fsr2l,c
  4113  003018  0EFF               	movlw	255
  4114  00301A  2042               	addwfc	btemp+11,w,c
  4115  00301C  6EDA               	movwf	fsr2h,c
  4116  00301E  0EF8               	movlw	-8
  4117  003020  006F FF8F FFDF     	movff	plusw1,indf2
  4118                           
  4119                           ;stkvar	_n @ sp[(-4)+-6]
  4120  003026  0EF7               	movlw	-9
  4121  003028  50E3               	movf	plusw1,w,c
  4122  00302A  E108               	bnz	l6201
  4123  00302C  0EF6               	movlw	-10
  4124  00302E  006F FF8C  F037    	movff	plusw1,btemp
  4125  003034  0E07               	movlw	7
  4126  003036  5E37               	subwf	btemp,f,c
  4127  003038  A0D8               	btfss	status,0,c
  4128  00303A  D0C6               	goto	u4410
  4129  00303C                     l6201:
  4130                           
  4131                           ;stkvar	_c @ sp[(-4)+-4]
  4132                           ;stkvar	_s @ sp[(-4)+0]
  4133  00303C  0EFC               	movlw	-4
  4134  00303E  006F FF8C  F041    	movff	plusw1,btemp+10
  4135  003044  0EFD               	movlw	-3
  4136  003046  006F FF8C  F042    	movff	plusw1,btemp+11
  4137  00304C  0E03               	movlw	3
  4138  00304E  2441               	addwf	btemp+10,w,c
  4139  003050  6ED9               	movwf	fsr2l,c
  4140  003052  0E00               	movlw	0
  4141  003054  2042               	addwfc	btemp+11,w,c
  4142  003056  6EDA               	movwf	fsr2h,c
  4143  003058  0EF8               	movlw	-8
  4144  00305A  006F FF8F FFDF     	movff	plusw1,indf2
  4145                           
  4146                           ;stkvar	_c @ sp[(-4)+-4]
  4147                           ;stkvar	_n @ sp[(-4)+-6]
  4148                           ;stkvar	_s @ sp[(-4)+0]
  4149  003060  0EFC               	movlw	-4
  4150  003062  006F FF8C  F041    	movff	plusw1,btemp+10
  4151  003068  0EFD               	movlw	-3
  4152  00306A  006F FF8C  F042    	movff	plusw1,btemp+11
  4153  003070  0EF6               	movlw	-10
  4154  003072  50E3               	movf	plusw1,w,c
  4155  003074  2641               	addwf	btemp+10,f,c
  4156  003076  0EF7               	movlw	-9
  4157  003078  50E3               	movf	plusw1,w,c
  4158  00307A  2242               	addwfc	btemp+11,f,c
  4159  00307C  0EFC               	movlw	252
  4160  00307E  2441               	addwf	btemp+10,w,c
  4161  003080  6ED9               	movwf	fsr2l,c
  4162  003082  0EFF               	movlw	255
  4163  003084  2042               	addwfc	btemp+11,w,c
  4164  003086  6EDA               	movwf	fsr2h,c
  4165  003088  0EF8               	movlw	-8
  4166  00308A  006F FF8F FFDF     	movff	plusw1,indf2
  4167                           
  4168                           ;stkvar	_n @ sp[(-4)+-6]
  4169  003090  0EF7               	movlw	-9
  4170  003092  50E3               	movf	plusw1,w,c
  4171  003094  E108               	bnz	l6207
  4172  003096  0EF6               	movlw	-10
  4173  003098  006F FF8C  F037    	movff	plusw1,btemp
  4174  00309E  0E09               	movlw	9
  4175  0030A0  5E37               	subwf	btemp,f,c
  4176  0030A2  A0D8               	btfss	status,0,c
  4177  0030A4  D091               	goto	u4410
  4178  0030A6                     l6207:
  4179                           
  4180                           ;stkvar	_s @ sp[(-4)+0]
  4181  0030A6  0EFC               	movlw	-4
  4182  0030A8  006F FF8C  F041    	movff	plusw1,btemp+10
  4183  0030AE  1E41               	comf	btemp+10,f,c
  4184  0030B0  0EFD               	movlw	-3
  4185  0030B2  006F FF8C  F042    	movff	plusw1,btemp+11
  4186  0030B8  1E42               	comf	btemp+11,f,c
  4187  0030BA  2A41               	incf	btemp+10,f,c
  4188  0030BC  B4D8               	btfsc	status,2,c
  4189  0030BE  2A42               	incf	btemp+11,f,c
  4190  0030C0  0E03               	movlw	3
  4191  0030C2  1641               	andwf	btemp+10,f,c
  4192  0030C4  0E00               	movlw	0
  4193  0030C6  1642               	andwf	btemp+11,f,c
  4194                           
  4195                           ;stkvar	_k @ sp[(-4)+2]
  4196  0030C8  0EFE               	movlw	-2
  4197  0030CA  0060  F107  FFE3   	movff	btemp+10,plusw1
  4198  0030D0  0EFF               	movlw	-1
  4199  0030D2  0060  F10B  FFE3   	movff	btemp+11,plusw1
  4200                           
  4201                           ;stkvar	_k @ sp[(-4)+2]
  4202                           ;stkvar	_s @ sp[(-4)+0]
  4203  0030D8  0EFC               	movlw	-4
  4204  0030DA  50E3               	movf	plusw1,w,c
  4205  0030DC  6E37               	movwf	btemp,c
  4206  0030DE  0EFE               	movlw	-2
  4207  0030E0  50E3               	movf	plusw1,w,c
  4208  0030E2  2637               	addwf	btemp,f,c
  4209  0030E4  0EFC               	movlw	-4
  4210  0030E6  0060  F0DF  FFE3   	movff	btemp,plusw1
  4211  0030EC  0EFD               	movlw	-3
  4212  0030EE  50E3               	movf	plusw1,w,c
  4213  0030F0  6E37               	movwf	btemp,c
  4214  0030F2  0EFF               	movlw	-1
  4215  0030F4  50E3               	movf	plusw1,w,c
  4216  0030F6  2237               	addwfc	btemp,f,c
  4217  0030F8  0EFD               	movlw	-3
  4218  0030FA  0060  F0DF  FFE3   	movff	btemp,plusw1
  4219                           
  4220                           ;stkvar	_k @ sp[(-4)+2]
  4221                           ;stkvar	_n @ sp[(-4)+-6]
  4222  003100  0EF6               	movlw	-10
  4223  003102  50E3               	movf	plusw1,w,c
  4224  003104  6E37               	movwf	btemp,c
  4225  003106  0EFE               	movlw	-2
  4226  003108  50E3               	movf	plusw1,w,c
  4227  00310A  5E37               	subwf	btemp,f,c
  4228  00310C  0EF6               	movlw	-10
  4229  00310E  0060  F0DF  FFE3   	movff	btemp,plusw1
  4230  003114  0EF7               	movlw	-9
  4231  003116  50E3               	movf	plusw1,w,c
  4232  003118  6E37               	movwf	btemp,c
  4233  00311A  0EFF               	movlw	-1
  4234  00311C  50E3               	movf	plusw1,w,c
  4235  00311E  5A37               	subwfb	btemp,f,c
  4236  003120  0EF7               	movlw	-9
  4237  003122  0060  F0DF  FFE3   	movff	btemp,plusw1
  4238  003128  0EFC               	movlw	252
  4239  00312A  6E41               	movwf	btemp+10,c
  4240  00312C  0EFF               	movlw	255
  4241  00312E  6E42               	movwf	btemp+11,c
  4242                           
  4243                           ;stkvar	_n @ sp[(-4)+-6]
  4244  003130  0EF6               	movlw	-10
  4245  003132  006F FF8C  F037    	movff	plusw1,btemp
  4246  003138  5041               	movf	btemp+10,w,c
  4247  00313A  1637               	andwf	btemp,f,c
  4248  00313C  0EF6               	movlw	-10
  4249  00313E  0060  F0DF  FFE3   	movff	btemp,plusw1
  4250  003144  0EF7               	movlw	-9
  4251  003146  006F FF8C  F037    	movff	plusw1,btemp
  4252  00314C  5042               	movf	btemp+11,w,c
  4253  00314E  1637               	andwf	btemp,f,c
  4254  003150  0EF7               	movlw	-9
  4255  003152  D02E               	goto	L17
  4256  003154                     l6215:
  4257                           
  4258                           ;stkvar	_c @ sp[(-4)+-4]
  4259                           ;stkvar	_s @ sp[(-4)+0]
  4260  003154  0EFC               	movlw	-4
  4261  003156  006F FF8F FFD9     	movff	plusw1,fsr2l
  4262  00315C  0EFD               	movlw	-3
  4263  00315E  006F FF8F FFDA     	movff	plusw1,fsr2h
  4264  003164  0EF8               	movlw	-8
  4265  003166  006F FF8F FFDF     	movff	plusw1,indf2
  4266                           
  4267                           ;stkvar	_n @ sp[(-4)+-6]
  4268  00316C  0EF6               	movlw	-10
  4269  00316E  006F FF8C  F037    	movff	plusw1,btemp
  4270  003174  0E01               	movlw	1
  4271  003176  5E37               	subwf	btemp,f,c
  4272  003178  0EF6               	movlw	-10
  4273  00317A  0060  F0DF  FFE3   	movff	btemp,plusw1
  4274  003180  0EF7               	movlw	-9
  4275  003182  006F FF8C  F037    	movff	plusw1,btemp
  4276  003188  0E00               	movlw	0
  4277  00318A  5A37               	subwfb	btemp,f,c
  4278  00318C  0EF7               	movlw	-9
  4279  00318E  0060  F0DF  FFE3   	movff	btemp,plusw1
  4280                           
  4281                           ;stkvar	_s @ sp[(-4)+0]
  4282  003194  0EFC               	movlw	-4
  4283  003196  50E3               	movf	plusw1,w,c
  4284  003198  0F01               	addlw	1
  4285  00319A  6E37               	movwf	btemp,c
  4286  00319C  0EFC               	movlw	-4
  4287  00319E  0060  F0DF  FFE3   	movff	btemp,plusw1
  4288  0031A4  6A37               	clrf	btemp,c
  4289  0031A6  0EFD               	movlw	-3
  4290  0031A8  50E3               	movf	plusw1,w,c
  4291  0031AA  2037               	addwfc	btemp,w,c
  4292  0031AC  6E37               	movwf	btemp,c
  4293  0031AE  0EFD               	movlw	-3
  4294  0031B0                     L17:
  4295  0031B0  0060  F0DF  FFE3   	movff	btemp,plusw1
  4296                           
  4297                           ;stkvar	_n @ sp[(-4)+-6]
  4298  0031B6  0EF6               	movlw	-10
  4299  0031B8  006F FF8C  F037    	movff	plusw1,btemp
  4300  0031BE  0EF7               	movlw	-9
  4301  0031C0  50E3               	movf	plusw1,w,c
  4302  0031C2  1037               	iorwf	btemp,w,c
  4303  0031C4  A4D8               	btfss	status,2,c
  4304  0031C6  D7C6               	goto	l6215
  4305  0031C8                     u4410:
  4306                           
  4307                           ; _memset: autosize = 4, savesize = 0, parsavesize = 0, tempsize = 0 parsize = 6, argsiz
      +                          e = 6, vargsize = 0
  4308  0031C8  0EF6               	movlw	246
  4309  0031CA  26E1               	addwf	fsr1l,f,c
  4310  0031CC  0EFF               	movlw	255
  4311  0031CE  22E2               	addwfc	fsr1h,f,c
  4312  0031D0  0012               	return		;funcret
  4313  0031D2                     __end_of_memset:
  4314                           	opt callstack 0
  4315                           
  4316 ;; *************** function _printf *****************
  4317 ;; Defined at:
  4318 ;;		line 5 in file "/opt/microchip/xc8/v2.05/pic/sources/c99/common/printf.c"
  4319 ;; Parameters:    Size  Location     Type
  4320 ;;  fmt             1  [STACK] PTR const unsigned char 
  4321 ;;		 -> STR_6(3), STR_5(3), 
  4322 ;; Auto vars:     Size  Location     Type
  4323 ;;  ap              2  [STACK] PTR void [1]
  4324 ;;		 -> ?_printf(2), ?_sprintf(2), 
  4325 ;;  ret             2    0        int 
  4326 ;; Return value:  Size  Location     Type
  4327 ;;                  2  [STACK] int 
  4328 ;; Registers used:
  4329 ;;		wreg, fsr0l, fsr0h, fsr1l, fsr1h, fsr2l, fsr2h, status,2, status,0, btemp, btemp+1, btemp+8, btemp+9, btemp+10, btem
      +p+11, btemp+16, btemp+17, btemp+18, btemp+19, btemp+20, btemp+21, btemp+22, btemp+23, tblptrl, tblptrh, tblptru, prodl, 
      +prodh
  4330 ;; Tracked objects:
  4331 ;;		On entry : 3F/3B
  4332 ;;		On exit  : 0/0
  4333 ;;		Unchanged: 0/0
  4334 ;; Data sizes:     COMRAM   BANK0   BANK1   BANK2   BANK3   BANK4   BANK5   BANK6   BANK7   BANK8   BANK9  BANK10  BANK1
      +1  BANK12  BANK13  BANK14  BANK15  BANK16  BANK17  BANK18  BANK19  BANK20  BANK21  BANK22  BANK23  BANK24  BANK25  BANK2
      +6  BANK27  BANK28  BANK29  BANK30  BANK31
  4335 ;;      Params:         0       0       0       0       0       0       0       0       0       0       0       0       
      +0       0       0       0       0       0       0       0       0       0       0       0       0       0       0       
      +0       0       0       0       0       0
  4336 ;;      Locals:         0       0       0       0       0       0       0       0       0       0       0       0       
      +0       0       0       0       0       0       0       0       0       0       0       0       0       0       0       
      +0       0       0       0       0       0
  4337 ;;      Temps:          0       0       0       0       0       0       0       0       0       0       0       0       
      +0       0       0       0       0       0       0       0       0       0       0       0       0       0       0       
      +0       0       0       0       0       0
  4338 ;;      Totals:         0       0       0       0       0       0       0       0       0       0       0       0       
      +0       0       0       0       0       0       0       0       0       0       0       0       0       0       0       
      +0       0       0       0       0       0
  4339 ;;Total ram usage:        0 bytes
  4340 ;; Hardware stack levels used:    1
  4341 ;; Hardware stack levels required when called:   11
  4342 ;; This function calls:
  4343 ;;		_vfprintf
  4344 ;; This function is called by:
  4345 ;;		_eaDogM_WriteString
  4346 ;; This function uses a reentrant model
  4347 ;;
  4348                           
  4349                           	psect	text23
  4350  004CC6                     __ptext23:
  4351                           	opt callstack 0
  4352  004CC6                     _printf:
  4353                           	opt callstack 0
  4354                           
  4355                           ; autosize = 2, savesize = 0, parsavesize = 0, tempsize = 0 parsize = 3, argsize = 1 var
      +                          gsize = 0, retsize = 0 argfudge = 0
  4356  004CC6  52E6               	movf	postinc1,f,c
  4357  004CC8  52E6               	movf	postinc1,f,c
  4358                           
  4359                           ;stkvar	?_printf @ sp[(-2)+-3]
  4360                           
  4361                           ;incstack = 0
  4362  004CCA  0EFB               	movlw	251
  4363  004CCC  24E1               	addwf	fsr1l,w,c
  4364  004CCE  6E41               	movwf	btemp+10,c
  4365  004CD0  0EFF               	movlw	255
  4366  004CD2  20E2               	addwfc	fsr1h,w,c
  4367  004CD4  6E42               	movwf	btemp+11,c
  4368  004CD6  0E01               	movlw	1
  4369  004CD8  2641               	addwf	btemp+10,f,c
  4370  004CDA  0E00               	movlw	0
  4371  004CDC  2242               	addwfc	btemp+11,f,c
  4372                           
  4373                           ;stkvar	_ap @ sp[(-2)+0]
  4374  004CDE  0EFF               	movlw	-1
  4375  004CE0  0060  F10B  FFE3   	movff	btemp+11,plusw1
  4376  004CE6  0EFE               	movlw	-2
  4377  004CE8  0060  F107  FFE3   	movff	btemp+10,plusw1
  4378                           
  4379                           ;stkvar	_ap @ sp[(-2)+0]
  4380  004CEE  0EFE               	movlw	254
  4381  004CF0  24E1               	addwf	fsr1l,w,c
  4382  004CF2  6E37               	movwf	btemp,c
  4383  004CF4  0EFF               	movlw	255
  4384  004CF6  20E2               	addwfc	fsr1h,w,c
  4385  004CF8  6E38               	movwf	btemp+1,c
  4386  004CFA  0060  F0DF  FFE6   	movff	btemp,postinc1
  4387  004D00  0060  F0E3  FFE6   	movff	btemp+1,postinc1
  4388                           
  4389                           ;stkvar	_fmt @ sp[(-4)+-2]
  4390  004D06  0EFA               	movlw	-6
  4391  004D08  50E3               	movf	plusw1,w,c
  4392  004D0A  6EE6               	movwf	postinc1,c
  4393  004D0C  0E00               	movlw	0
  4394  004D0E  6EE6               	movwf	postinc1,c
  4395  004D10  0E00               	movlw	0
  4396  004D12  6EE6               	movwf	postinc1,c
  4397  004D14  EC6F  F024         	call	_vfprintf	;wreg free
  4398                           
  4399                           ; _printf: autosize = 2, savesize = 0, parsavesize = 0, tempsize = 0 parsize = 3, argsiz
      +                          e = 1, vargsize = 0
  4400  004D18  52E5               	movf	postdec1,f,c
  4401  004D1A  52E5               	movf	postdec1,f,c
  4402  004D1C  52E5               	movf	postdec1,f,c
  4403  004D1E  50E7               	movf	indf1,w,c
  4404  004D20  5EE1               	subwf	fsr1l,f,c
  4405  004D22  0E00               	movlw	0
  4406  004D24  5AE2               	subwfb	fsr1h,f,c
  4407  004D26  0012               	return		;funcret
  4408  004D28                     __end_of_printf:
  4409                           	opt callstack 0
  4410                           
  4411 ;; *************** function _vfprintf *****************
  4412 ;; Defined at:
  4413 ;;		line 1368 in file "/opt/microchip/xc8/v2.05/pic/sources/c99/common/doprnt.c"
  4414 ;; Parameters:    Size  Location     Type
  4415 ;;  fp              2  [STACK] PTR struct _IO_FILE
  4416 ;;		 -> f(5), NULL(0), 
  4417 ;;  fmt             1  [STACK] PTR const unsigned char 
  4418 ;;		 -> STR_6(3), STR_5(3), STR_4(19), STR_3(6), 
  4419 ;;		 -> STR_2(10), STR_1(61), 
  4420 ;;  ap              2  [STACK] PTR PTR void 
  4421 ;;		 -> ap(2), ap(2), 
  4422 ;; Auto vars:     Size  Location     Type
  4423 ;;  cfmt            1  [STACK] PTR unsigned char 
  4424 ;;		 -> STR_6(3), STR_5(3), STR_4(19), STR_3(6), 
  4425 ;;		 -> STR_2(10), STR_1(61), 
  4426 ;; Return value:  Size  Location     Type
  4427 ;;                  2  [STACK] int 
  4428 ;; Registers used:
  4429 ;;		wreg, fsr0l, fsr0h, fsr1l, fsr1h, fsr2l, fsr2h, status,2, status,0, btemp, btemp+1, btemp+8, btemp+9, btemp+10, btem
      +p+11, btemp+16, btemp+17, btemp+18, btemp+19, btemp+20, btemp+21, btemp+22, btemp+23, tblptrl, tblptrh, tblptru, prodl, 
      +prodh
  4430 ;; Tracked objects:
  4431 ;;		On entry : 0/3D
  4432 ;;		On exit  : 0/0
  4433 ;;		Unchanged: 0/0
  4434 ;; Data sizes:     COMRAM   BANK0   BANK1   BANK2   BANK3   BANK4   BANK5   BANK6   BANK7   BANK8   BANK9  BANK10  BANK1
      +1  BANK12  BANK13  BANK14  BANK15  BANK16  BANK17  BANK18  BANK19  BANK20  BANK21  BANK22  BANK23  BANK24  BANK25  BANK2
      +6  BANK27  BANK28  BANK29  BANK30  BANK31
  4435 ;;      Params:         0       0       0       0       0       0       0       0       0       0       0       0       
      +0       0       0       0       0       0       0       0       0       0       0       0       0       0       0       
      +0       0       0       0       0       0
  4436 ;;      Locals:         0       0       0       0       0       0       0       0       0       0       0       0       
      +0       0       0       0       0       0       0       0       0       0       0       0       0       0       0       
      +0       0       0       0       0       0
  4437 ;;      Temps:          0       0       0       0       0       0       0       0       0       0       0       0       
      +0       0       0       0       0       0       0       0       0       0       0       0       0       0       0       
      +0       0       0       0       0       0
  4438 ;;      Totals:         0       0       0       0       0       0       0       0       0       0       0       0       
      +0       0       0       0       0       0       0       0       0       0       0       0       0       0       0       
      +0       0       0       0       0       0
  4439 ;;Total ram usage:        0 bytes
  4440 ;; Hardware stack levels used:    1
  4441 ;; Hardware stack levels required when called:   10
  4442 ;; This function calls:
  4443 ;;		_vfpfcnvrt
  4444 ;; This function is called by:
  4445 ;;		_sprintf
  4446 ;;		_printf
  4447 ;; This function uses a reentrant model
  4448 ;;
  4449                           
  4450                           	psect	text24
  4451  0048DE                     __ptext24:
  4452                           	opt callstack 0
  4453  0048DE                     _vfprintf:
  4454                           	opt callstack 0
  4455                           
  4456                           ; autosize = 1, savesize = 0, parsavesize = 0, tempsize = 0 parsize = 5, argsize = 5 var
      +                          gsize = 0, retsize = 0 argfudge = 0
  4457  0048DE  52E6               	movf	postinc1,f,c
  4458                           
  4459                           ;/opt/microchip/xc8/v2.05/pic/sources/c99/common/doprnt.c: 1368: int vfprintf(FILE *fp, 
      +                          const char *fmt, va_list ap);/opt/microchip/xc8/v2.05/pic/sources/c99/common/doprnt.c: 1
      +                          369: {;/opt/microchip/xc8/v2.05/pic/sources/c99/common/doprnt.c: 1371:     char *cfmt;;/
      +                          opt/microchip/xc8/v2.05/pic/sources/c99/common/doprnt.c: 1373:     cfmt = (char *)fmt;
  4460                           ;stkvar	_fmt @ sp[(-1)+-3]
  4461                           
  4462                           ;incstack = 0
  4463  0048E0  0EFC               	movlw	-4
  4464  0048E2  006F FF8C  F042    	movff	plusw1,btemp+11
  4465                           
  4466                           ;stkvar	_cfmt @ sp[(-1)+0]
  4467  0048E8  0EFF               	movlw	-1
  4468  0048EA  0060  F10B  FFE3   	movff	btemp+11,plusw1
  4469                           
  4470                           ;/opt/microchip/xc8/v2.05/pic/sources/c99/common/doprnt.c: 1374:     nout = 0;
  4471  0048F0  6A20               	clrf	_nout,c
  4472  0048F2  6A21               	clrf	_nout+1,c
  4473                           
  4474                           ;/opt/microchip/xc8/v2.05/pic/sources/c99/common/doprnt.c: 1375:     while (*cfmt) {
  4475  0048F4  D020               	goto	l6229
  4476  0048F6                     l6227:
  4477                           
  4478                           ;/opt/microchip/xc8/v2.05/pic/sources/c99/common/doprnt.c: 1376:         nout += vfpfcnv
      +                          rt(fp, &cfmt, ap);
  4479                           ;stkvar	_ap @ sp[(-1)+-5]
  4480  0048F6  0EFA               	movlw	-6
  4481  0048F8  006F FF8F FFE6     	movff	plusw1,postinc1
  4482  0048FE  006F FF8F FFE6     	movff	plusw1,postinc1
  4483                           
  4484                           ;stkvar	_cfmt @ sp[(-3)+0]
  4485  004904  0EFD               	movlw	253
  4486  004906  24E1               	addwf	fsr1l,w,c
  4487  004908  6E37               	movwf	btemp,c
  4488  00490A  0EFF               	movlw	255
  4489  00490C  20E2               	addwfc	fsr1h,w,c
  4490  00490E  6E38               	movwf	btemp+1,c
  4491  004910  0060  F0DF  FFE6   	movff	btemp,postinc1
  4492  004916  0060  F0E3  FFE6   	movff	btemp+1,postinc1
  4493                           
  4494                           ;stkvar	_fp @ sp[(-5)+-2]
  4495  00491C  0EF9               	movlw	-7
  4496  00491E  006F FF8F FFE6     	movff	plusw1,postinc1
  4497  004924  006F FF8F FFE6     	movff	plusw1,postinc1
  4498  00492A  EC33  F010         	call	_vfpfcnvrt	;wreg free
  4499  00492E  5037               	movf	btemp,w,c
  4500  004930  2620               	addwf	_nout,f,c
  4501  004932  5038               	movf	btemp+1,w,c
  4502  004934  2221               	addwfc	_nout+1,f,c
  4503  004936                     l6229:
  4504                           
  4505                           ;/opt/microchip/xc8/v2.05/pic/sources/c99/common/doprnt.c: 1375:     while (*cfmt) {
  4506                           ;stkvar	_cfmt @ sp[(-1)+0]
  4507  004936  50E1               	movf	fsr1l,w,c
  4508  004938  0FFF               	addlw	-1
  4509  00493A  6ED9               	movwf	fsr2l,c
  4510  00493C  50E2               	movf	fsr1h,w,c
  4511  00493E  6EDA               	movwf	fsr2h,c
  4512  004940  0EFF               	movlw	255
  4513  004942  22DA               	addwfc	fsr2h,f,c
  4514  004944  006F FF7F FFF6     	movff	indf2,tblptrl
  4515  00494A                     	if	1	;There is more than 1 active tblptr byte
  4516  00494A  0E20               	movlw	high __smallconst
  4517  00494C  6EF7               	movwf	tblptrh,c
  4518  00494E                     	endif
  4519  00494E                     	if	0	;tblptru may be non-zero
  4520  00494E                     	endif
  4521  00494E                     	if	1	;Program memory is > 0xFFFF, there are 3 active tblptr bytes
  4522  00494E  0E00               	movlw	low (__smallconst shr (0+16))
  4523  004950  6EF8               	movwf	tblptru,c
  4524  004952                     	endif
  4525  004952  0008               	tblrd		*
  4526  004954  50F5               	movf	tablat,w,c
  4527  004956  0900               	iorlw	0
  4528  004958  A4D8               	btfss	status,2,c
  4529  00495A  D7CD               	goto	l6227
  4530                           
  4531                           ;/opt/microchip/xc8/v2.05/pic/sources/c99/common/doprnt.c: 1378:     return nout;
  4532  00495C  0060  F080  F037   	movff	_nout,btemp
  4533  004962  0060  F084  F038   	movff	_nout+1,btemp+1
  4534                           
  4535                           ; _vfprintf: autosize = 1, savesize = 0, parsavesize = 0, tempsize = 0 parsize = 5, args
      +                          ize = 5, vargsize = 0
  4536  004968  0EFA               	movlw	250
  4537  00496A  26E1               	addwf	fsr1l,f,c
  4538  00496C  0EFF               	movlw	255
  4539  00496E  22E2               	addwfc	fsr1h,f,c
  4540  004970  0012               	return		;funcret
  4541  004972                     __end_of_vfprintf:
  4542                           	opt callstack 0
  4543                           
  4544 ;; *************** function _vfpfcnvrt *****************
  4545 ;; Defined at:
  4546 ;;		line 670 in file "/opt/microchip/xc8/v2.05/pic/sources/c99/common/doprnt.c"
  4547 ;; Parameters:    Size  Location     Type
  4548 ;;  fp              2  [STACK] PTR struct _IO_FILE
  4549 ;;		 -> f(5), NULL(0), 
  4550 ;;  fmt             2  [STACK] PTR PTR unsigned char 
  4551 ;;		 -> cfmt(1), 
  4552 ;;  ap              2  [STACK] PTR PTR void 
  4553 ;;		 -> ap(2), ap(2), 
  4554 ;; Auto vars:     Size  Location     Type
  4555 ;;  llu             8  [STACK] unsigned long long 
  4556 ;;  ll              8  [STACK] long long 
  4557 ;;  f               4    0        long long 
  4558 ;;  vp              3    0        PTR void 
  4559 ;;  ct              3    0        unsigned char [3]
  4560 ;;  done            2  [STACK] int 
  4561 ;;  cp              2  [STACK] PTR unsigned char 
  4562 ;;		 -> ?_printf(2), ?_sprintf(2), V(79), 
  4563 ;;  i               2    0        int 
  4564 ;;  c               1  [STACK] unsigned char 
  4565 ;; Return value:  Size  Location     Type
  4566 ;;                  2  [STACK] int 
  4567 ;; Registers used:
  4568 ;;		wreg, fsr0l, fsr0h, fsr1l, fsr1h, fsr2l, fsr2h, status,2, status,0, btemp, btemp+1, btemp+8, btemp+9, btemp+10, btem
      +p+11, btemp+16, btemp+17, btemp+18, btemp+19, btemp+20, btemp+21, btemp+22, btemp+23, tblptrl, tblptrh, tblptru, prodl, 
      +prodh
  4569 ;; Tracked objects:
  4570 ;;		On entry : 0/3D
  4571 ;;		On exit  : 0/0
  4572 ;;		Unchanged: 0/0
  4573 ;; Data sizes:     COMRAM   BANK0   BANK1   BANK2   BANK3   BANK4   BANK5   BANK6   BANK7   BANK8   BANK9  BANK10  BANK1
      +1  BANK12  BANK13  BANK14  BANK15  BANK16  BANK17  BANK18  BANK19  BANK20  BANK21  BANK22  BANK23  BANK24  BANK25  BANK2
      +6  BANK27  BANK28  BANK29  BANK30  BANK31
  4574 ;;      Params:         0       0       0       0       0       0       0       0       0       0       0       0       
      +0       0       0       0       0       0       0       0       0       0       0       0       0       0       0       
      +0       0       0       0       0       0
  4575 ;;      Locals:         0       0       0       0       0       0       0       0       0       0       0       0       
      +0       0       0       0       0       0       0       0       0       0       0       0       0       0       0       
      +0       0       0       0       0       0
  4576 ;;      Temps:          0       0       0       0       0       0       0       0       0       0       0       0       
      +0       0       0       0       0       0       0       0       0       0       0       0       0       0       0       
      +0       0       0       0       0       0
  4577 ;;      Totals:         0       0       0       0       0       0       0       0       0       0       0       0       
      +0       0       0       0       0       0       0       0       0       0       0       0       0       0       0       
      +0       0       0       0       0       0
  4578 ;;Total ram usage:        0 bytes
  4579 ;; Hardware stack levels used:    1
  4580 ;; Hardware stack levels required when called:    9
  4581 ;; This function calls:
  4582 ;;		_atoi
  4583 ;;		_dtoa
  4584 ;;		_fputc
  4585 ;;		_isdigit
  4586 ;;		_stoa
  4587 ;;		_xtoa
  4588 ;; This function is called by:
  4589 ;;		_vfprintf
  4590 ;; This function uses a reentrant model
  4591 ;;
  4592                           
  4593                           	psect	text25
  4594  002066                     __ptext25:
  4595                           	opt callstack 0
  4596  002066                     _vfpfcnvrt:
  4597                           	opt callstack 0
  4598                           
  4599                           ; autosize = 23, savesize = 0, parsavesize = 0, tempsize = 0 parsize = 6, argsize = 6 va
      +                          rgsize = 0, retsize = 0 argfudge = 0
  4600  002066  0E17               	movlw	23
  4601  002068  26E1               	addwf	fsr1l,f,c
  4602  00206A  0E00               	movlw	0
  4603  00206C  22E2               	addwfc	fsr1h,f,c
  4604                           
  4605                           ;/opt/microchip/xc8/v2.05/pic/sources/c99/common/doprnt.c: 670: static int vfpfcnvrt(FIL
      +                          E *fp, char *fmt[], va_list ap);/opt/microchip/xc8/v2.05/pic/sources/c99/common/doprnt.c
      +                          : 671: {;/opt/microchip/xc8/v2.05/pic/sources/c99/common/doprnt.c: 672:     char c, *cp,
      +                           ct[3];;/opt/microchip/xc8/v2.05/pic/sources/c99/common/doprnt.c: 673:     int done, i;;
      +                          /opt/microchip/xc8/v2.05/pic/sources/c99/common/doprnt.c: 674:     long long ll;;/opt/mi
      +                          crochip/xc8/v2.05/pic/sources/c99/common/doprnt.c: 675:     unsigned long long llu;
  4606                           ;stkvar	_fmt @ sp[(-23)+-4]
  4607                           
  4608                           ;incstack = 0
  4609  00206E  0EE5               	movlw	-27
  4610  002070  006F FF8F FFD9     	movff	plusw1,fsr2l
  4611  002076  0EE6               	movlw	-26
  4612  002078  006F FF8F FFDA     	movff	plusw1,fsr2h
  4613  00207E  006F FF7F FFF6     	movff	indf2,tblptrl
  4614  002084                     	if	1	;There is more than 1 active tblptr byte
  4615  002084  0E20               	movlw	high __smallconst
  4616  002086  6EF7               	movwf	tblptrh,c
  4617  002088                     	endif
  4618  002088                     	if	0	;tblptru may be non-zero
  4619  002088                     	endif
  4620  002088                     	if	1	;Program memory is > 0xFFFF, there are 3 active tblptr bytes
  4621  002088  0E00               	movlw	low (__smallconst shr (0+16))
  4622  00208A  6EF8               	movwf	tblptru,c
  4623  00208C                     	endif
  4624  00208C  0008               	tblrd		*
  4625  00208E  50F5               	movf	tablat,w,c
  4626  002090  0A25               	xorlw	37
  4627  002092  A4D8               	btfss	status,2,c
  4628  002094  D2DF               	goto	l6169
  4629                           
  4630                           ;/opt/microchip/xc8/v2.05/pic/sources/c99/common/doprnt.c: 681:         ++*fmt;
  4631                           ;stkvar	_fmt @ sp[(-23)+-4]
  4632  002096  0EE5               	movlw	-27
  4633  002098  006F FF8F FFD9     	movff	plusw1,fsr2l
  4634  00209E  0EE6               	movlw	-26
  4635  0020A0  006F FF8F FFDA     	movff	plusw1,fsr2h
  4636  0020A6  2ADF               	incf	indf2,f,c
  4637                           
  4638                           ;/opt/microchip/xc8/v2.05/pic/sources/c99/common/doprnt.c: 683:         flags = width = 
      +                          0;
  4639  0020A8  6A22               	clrf	_width,c
  4640  0020AA  6A23               	clrf	_width+1,c
  4641  0020AC  6A26               	clrf	_flags,c
  4642  0020AE  6A27               	clrf	_flags+1,c
  4643                           
  4644                           ;/opt/microchip/xc8/v2.05/pic/sources/c99/common/doprnt.c: 684:         prec = -1;
  4645  0020B0  6824               	setf	_prec,c
  4646  0020B2  6825               	setf	_prec+1,c
  4647                           
  4648                           ;/opt/microchip/xc8/v2.05/pic/sources/c99/common/doprnt.c: 688:         done = 0;
  4649                           ;stkvar	_done @ sp[(-23)+18]
  4650  0020B4  0EFB               	movlw	-5
  4651  0020B6  6AE3               	clrf	plusw1,c
  4652  0020B8  0EFC               	movlw	-4
  4653  0020BA  6AE3               	clrf	plusw1,c
  4654                           
  4655                           ;/opt/microchip/xc8/v2.05/pic/sources/c99/common/doprnt.c: 689:         while (!done) {
  4656  0020BC  D048               	goto	l6093
  4657  0020BE                     l6067:
  4658                           
  4659                           ;/opt/microchip/xc8/v2.05/pic/sources/c99/common/doprnt.c: 692:                     flag
      +                          s |= (1 << 0);
  4660  0020BE  8026               	bsf	_flags,0,c
  4661  0020C0                     l6069:
  4662                           
  4663                           ;/opt/microchip/xc8/v2.05/pic/sources/c99/common/doprnt.c: 693:                     ++*f
      +                          mt;
  4664                           ;stkvar	_fmt @ sp[(-23)+-4]
  4665  0020C0  0EE5               	movlw	-27
  4666  0020C2  006F FF8F FFD9     	movff	plusw1,fsr2l
  4667  0020C8  0EE6               	movlw	-26
  4668  0020CA  006F FF8F FFDA     	movff	plusw1,fsr2h
  4669  0020D0  2ADF               	incf	indf2,f,c
  4670                           
  4671                           ;/opt/microchip/xc8/v2.05/pic/sources/c99/common/doprnt.c: 694:                     brea
      +                          k;
  4672  0020D2  D03D               	goto	l6093
  4673  0020D4                     l6071:
  4674                           
  4675                           ;/opt/microchip/xc8/v2.05/pic/sources/c99/common/doprnt.c: 696:                     flag
      +                          s |= (1 << 1);
  4676  0020D4  8226               	bsf	_flags,1,c
  4677  0020D6  D7F4               	goto	l6069
  4678  0020D8                     l6075:
  4679                           
  4680                           ;/opt/microchip/xc8/v2.05/pic/sources/c99/common/doprnt.c: 700:                     flag
      +                          s |= (1 << 2);
  4681  0020D8  8426               	bsf	_flags,2,c
  4682  0020DA  D7F2               	goto	l6069
  4683  0020DC                     l6079:
  4684                           
  4685                           ;/opt/microchip/xc8/v2.05/pic/sources/c99/common/doprnt.c: 704:                     flag
      +                          s |= (1 << 3);
  4686  0020DC  8626               	bsf	_flags,3,c
  4687  0020DE  D7F0               	goto	l6069
  4688  0020E0                     l6083:
  4689                           
  4690                           ;/opt/microchip/xc8/v2.05/pic/sources/c99/common/doprnt.c: 708:                     flag
      +                          s |= (1 << 4);
  4691  0020E0  8826               	bsf	_flags,4,c
  4692  0020E2  D7EE               	goto	l6069
  4693  0020E4                     l6087:
  4694                           
  4695                           ;/opt/microchip/xc8/v2.05/pic/sources/c99/common/doprnt.c: 712:                     done
      +                           = 1;
  4696  0020E4  0E01               	movlw	1
  4697  0020E6  6E41               	movwf	btemp+10,c
  4698  0020E8  0E00               	movlw	0
  4699  0020EA  6E42               	movwf	btemp+11,c
  4700                           
  4701                           ;stkvar	_done @ sp[(-23)+18]
  4702  0020EC  0EFB               	movlw	-5
  4703  0020EE  0060  F107  FFE3   	movff	btemp+10,plusw1
  4704  0020F4  0EFC               	movlw	-4
  4705  0020F6  0060  F10B  FFE3   	movff	btemp+11,plusw1
  4706                           
  4707                           ;/opt/microchip/xc8/v2.05/pic/sources/c99/common/doprnt.c: 713:                     brea
      +                          k;
  4708  0020FC  D028               	goto	l6093
  4709  0020FE                     l6091:
  4710                           
  4711                           ;stkvar	_fmt @ sp[(-23)+-4]
  4712  0020FE  0EE5               	movlw	-27
  4713  002100  006F FF8F FFD9     	movff	plusw1,fsr2l
  4714  002106  0EE6               	movlw	-26
  4715  002108  006F FF8F FFDA     	movff	plusw1,fsr2h
  4716  00210E  006F FF7F FFF6     	movff	indf2,tblptrl
  4717  002114                     	if	1	;There is more than 1 active tblptr byte
  4718  002114  0E20               	movlw	high __smallconst
  4719  002116  6EF7               	movwf	tblptrh,c
  4720  002118                     	endif
  4721  002118                     	if	0	;tblptru may be non-zero
  4722  002118                     	endif
  4723  002118                     	if	1	;Program memory is > 0xFFFF, there are 3 active tblptr bytes
  4724  002118  0E00               	movlw	low (__smallconst shr (0+16))
  4725  00211A  6EF8               	movwf	tblptru,c
  4726  00211C                     	endif
  4727  00211C  0008               	tblrd		*
  4728  00211E  50F5               	movf	tablat,w,c
  4729  002120  6E41               	movwf	btemp+10,c
  4730  002122  6A42               	clrf	btemp+11,c
  4731                           
  4732                           ; Switch on 2 bytes has been partitioned into a top level switch of size 1, and 1 sub-sw
      +                          itches
  4733                           ; Switch size 1, requested type "simple"
  4734                           ; Number of cases is 1, Range of values is 0 to 0
  4735                           ; switch strategies available:
  4736                           ; Name         Instructions Cycles
  4737                           ; simple_byte            4     3 (average)
  4738                           ;	Chosen strategy is simple_byte
  4739  002124  5042               	movf	btemp+11,w,c
  4740  002126  0A00               	xorlw	0	; case 0
  4741  002128  A4D8               	btfss	status,2,c
  4742  00212A  D7DC               	goto	l6087
  4743                           
  4744                           ; Switch size 1, requested type "simple"
  4745                           ; Number of cases is 5, Range of values is 32 to 48
  4746                           ; switch strategies available:
  4747                           ; Name         Instructions Cycles
  4748                           ; simple_byte           16     9 (average)
  4749                           ;	Chosen strategy is simple_byte
  4750  00212C  5041               	movf	btemp+10,w,c
  4751  00212E  0A20               	xorlw	32	; case 32
  4752  002130  B4D8               	btfsc	status,2,c
  4753  002132  D7D4               	goto	l6079
  4754  002134  0A03               	xorlw	3	; case 35
  4755  002136  B4D8               	btfsc	status,2,c
  4756  002138  D7D3               	goto	l6083
  4757  00213A  0A08               	xorlw	8	; case 43
  4758  00213C  B4D8               	btfsc	status,2,c
  4759  00213E  D7CC               	goto	l6075
  4760  002140  0A06               	xorlw	6	; case 45
  4761  002142  B4D8               	btfsc	status,2,c
  4762  002144  D7BC               	goto	l6067
  4763  002146  0A1D               	xorlw	29	; case 48
  4764  002148  B4D8               	btfsc	status,2,c
  4765  00214A  D7C4               	goto	l6071
  4766  00214C  D7CB               	goto	l6087
  4767  00214E                     l6093:
  4768                           
  4769                           ;/opt/microchip/xc8/v2.05/pic/sources/c99/common/doprnt.c: 689:         while (!done) {
  4770                           ;stkvar	_done @ sp[(-23)+18]
  4771  00214E  0EFB               	movlw	-5
  4772  002150  006F FF8C  F037    	movff	plusw1,btemp
  4773  002156  0EFC               	movlw	-4
  4774  002158  50E3               	movf	plusw1,w,c
  4775  00215A  1037               	iorwf	btemp,w,c
  4776  00215C  B4D8               	btfsc	status,2,c
  4777  00215E  D7CF               	goto	l6091
  4778                           
  4779                           ;/opt/microchip/xc8/v2.05/pic/sources/c99/common/doprnt.c: 716:         if (flags & (1 <
      +                          < 0)) {
  4780  002160  B026               	btfsc	_flags,0,c
  4781                           
  4782                           ;/opt/microchip/xc8/v2.05/pic/sources/c99/common/doprnt.c: 717:             flags &= ~(1
      +                           << 1);
  4783  002162  9226               	bcf	_flags,1,c
  4784                           
  4785                           ;/opt/microchip/xc8/v2.05/pic/sources/c99/common/doprnt.c: 723:         if ((*fmt)[0] ==
      +                           '*') {
  4786                           ;stkvar	_fmt @ sp[(-23)+-4]
  4787  002164  0EE5               	movlw	-27
  4788  002166  006F FF8F FFD9     	movff	plusw1,fsr2l
  4789  00216C  0EE6               	movlw	-26
  4790  00216E  006F FF8F FFDA     	movff	plusw1,fsr2h
  4791  002174  006F FF7F FFF6     	movff	indf2,tblptrl
  4792  00217A                     	if	1	;There is more than 1 active tblptr byte
  4793  00217A  0E20               	movlw	high __smallconst
  4794  00217C  6EF7               	movwf	tblptrh,c
  4795  00217E                     	endif
  4796  00217E                     	if	0	;tblptru may be non-zero
  4797  00217E                     	endif
  4798  00217E                     	if	1	;Program memory is > 0xFFFF, there are 3 active tblptr bytes
  4799  00217E  0E00               	movlw	low (__smallconst shr (0+16))
  4800  002180  6EF8               	movwf	tblptru,c
  4801  002182                     	endif
  4802  002182  0008               	tblrd		*
  4803  002184  50F5               	movf	tablat,w,c
  4804  002186  0A2A               	xorlw	42
  4805  002188  A4D8               	btfss	status,2,c
  4806  00218A  D02F               	goto	l6107
  4807                           
  4808                           ;/opt/microchip/xc8/v2.05/pic/sources/c99/common/doprnt.c: 724:             ++*fmt;
  4809                           ;stkvar	_fmt @ sp[(-23)+-4]
  4810  00218C  0EE5               	movlw	-27
  4811  00218E  006F FF8F FFD9     	movff	plusw1,fsr2l
  4812  002194  0EE6               	movlw	-26
  4813  002196  006F FF8F FFDA     	movff	plusw1,fsr2h
  4814  00219C  2ADF               	incf	indf2,f,c
  4815                           
  4816                           ;/opt/microchip/xc8/v2.05/pic/sources/c99/common/doprnt.c: 725:             width = (*(i
      +                          nt *)__va_arg(*(int **)ap, (int)0));
  4817                           ;stkvar	_ap @ sp[(-23)+-6]
  4818  00219E  0EE3               	movlw	-29
  4819  0021A0  006F FF8F FFD9     	movff	plusw1,fsr2l
  4820  0021A6  0EE4               	movlw	-28
  4821  0021A8  006F FF8F FFDA     	movff	plusw1,fsr2h
  4822  0021AE  0E02               	movlw	2
  4823  0021B0  5EDE               	subwf	postinc2,f,c
  4824  0021B2  0E00               	movlw	0
  4825  0021B4  5ADD               	subwfb	postdec2,f,c
  4826  0021B6  006F FF78  F041    	movff	postinc2,btemp+10
  4827  0021BC  006F FF74  F042    	movff	postdec2,btemp+11
  4828  0021C2  0060  F107  FFD9   	movff	btemp+10,fsr2l
  4829  0021C8  0060  F10B  FFDA   	movff	btemp+11,fsr2h
  4830  0021CE  006F FF78  F022    	movff	postinc2,_width
  4831  0021D4  006F FF74  F023    	movff	postdec2,_width+1
  4832                           
  4833                           ;/opt/microchip/xc8/v2.05/pic/sources/c99/common/doprnt.c: 726:             if (width < 
      +                          0) {
  4834  0021DA  AE23               	btfss	_width+1,7,c
  4835  0021DC  D059               	goto	u4300
  4836                           
  4837                           ;/opt/microchip/xc8/v2.05/pic/sources/c99/common/doprnt.c: 727:                 flags |=
      +                           (1 << 0);
  4838  0021DE  8026               	bsf	_flags,0,c
  4839                           
  4840                           ;/opt/microchip/xc8/v2.05/pic/sources/c99/common/doprnt.c: 728:                 width = 
      +                          -width;
  4841  0021E0  6C22               	negf	_width,c
  4842  0021E2  1E23               	comf	_width+1,f,c
  4843  0021E4  B0D8               	btfsc	status,0,c
  4844  0021E6  2A23               	incf	_width+1,f,c
  4845  0021E8  D053               	goto	u4300
  4846  0021EA                     l6107:
  4847                           
  4848                           ;/opt/microchip/xc8/v2.05/pic/sources/c99/common/doprnt.c: 731:             width = atoi
      +                          (*fmt);
  4849                           ;stkvar	_fmt @ sp[(-23)+-4]
  4850  0021EA  0EE5               	movlw	-27
  4851  0021EC  006F FF8F FFD9     	movff	plusw1,fsr2l
  4852  0021F2  0EE6               	movlw	-26
  4853  0021F4  006F FF8F FFDA     	movff	plusw1,fsr2h
  4854  0021FA  50DF               	movf	indf2,w,c
  4855  0021FC  6EE6               	movwf	postinc1,c
  4856  0021FE  EC22  F01F         	call	_atoi	;wreg free
  4857  002202  0060  F0DC  F022   	movff	btemp,_width
  4858  002208  0060  F0E0  F023   	movff	btemp+1,_width+1
  4859                           
  4860                           ;/opt/microchip/xc8/v2.05/pic/sources/c99/common/doprnt.c: 732:             while ((0 ? 
      +                          isdigit((*fmt)[0]) : ((unsigned)((*fmt)[0])-'0') < 10)) {
  4861  00220E  D009               	goto	l6111
  4862  002210                     l6109:
  4863                           
  4864                           ;/opt/microchip/xc8/v2.05/pic/sources/c99/common/doprnt.c: 733:                 ++*fmt;
  4865                           ;stkvar	_fmt @ sp[(-23)+-4]
  4866  002210  0EE5               	movlw	-27
  4867  002212  006F FF8F FFD9     	movff	plusw1,fsr2l
  4868  002218  0EE6               	movlw	-26
  4869  00221A  006F FF8F FFDA     	movff	plusw1,fsr2h
  4870  002220  2ADF               	incf	indf2,f,c
  4871  002222                     l6111:
  4872  002222  0ED0               	movlw	208
  4873  002224  6E41               	movwf	btemp+10,c
  4874  002226  0EFF               	movlw	255
  4875  002228  6E42               	movwf	btemp+11,c
  4876                           
  4877                           ;stkvar	_fmt @ sp[(-23)+-4]
  4878  00222A  0EE5               	movlw	-27
  4879  00222C  006F FF8F FFD9     	movff	plusw1,fsr2l
  4880  002232  0EE6               	movlw	-26
  4881  002234  006F FF8F FFDA     	movff	plusw1,fsr2h
  4882  00223A  006F FF7F FFF6     	movff	indf2,tblptrl
  4883  002240                     	if	1	;There is more than 1 active tblptr byte
  4884  002240  0E20               	movlw	high __smallconst
  4885  002242  6EF7               	movwf	tblptrh,c
  4886  002244                     	endif
  4887  002244                     	if	0	;tblptru may be non-zero
  4888  002244                     	endif
  4889  002244                     	if	1	;Program memory is > 0xFFFF, there are 3 active tblptr bytes
  4890  002244  0E00               	movlw	low (__smallconst shr (0+16))
  4891  002246  6EF8               	movwf	tblptru,c
  4892  002248                     	endif
  4893  002248  0008               	tblrd		*
  4894  00224A  50F5               	movf	tablat,w,c
  4895  00224C  6E3F               	movwf	btemp+8,c
  4896  00224E  6A40               	clrf	btemp+9,c
  4897  002250  5041               	movf	btemp+10,w,c
  4898  002252  263F               	addwf	btemp+8,f,c
  4899  002254  5042               	movf	btemp+11,w,c
  4900  002256  2240               	addwfc	btemp+9,f,c
  4901  002258  5040               	movf	btemp+9,w,c
  4902  00225A  E106               	bnz	u4280
  4903  00225C  0E0A               	movlw	10
  4904  00225E  5C3F               	subwf	btemp+8,w,c
  4905  002260  B0D8               	btfsc	status,0,c
  4906  002262  D002               	goto	u4280
  4907  002264  0E01               	movlw	1
  4908  002266  D001               	goto	u4290
  4909  002268                     u4280:
  4910  002268  0E00               	movlw	0
  4911  00226A                     u4290:
  4912  00226A  6E41               	movwf	btemp+10,c
  4913  00226C  6A42               	clrf	btemp+11,c
  4914                           
  4915                           ;stkvar	_vfpfcnvrt$3405 @ sp[(-23)+0]
  4916  00226E  0EE9               	movlw	-23
  4917  002270  0060  F107  FFE3   	movff	btemp+10,plusw1
  4918  002276  0EEA               	movlw	-22
  4919  002278  0060  F10B  FFE3   	movff	btemp+11,plusw1
  4920                           
  4921                           ;stkvar	_vfpfcnvrt$3405 @ sp[(-23)+0]
  4922  00227E  0EE9               	movlw	-23
  4923  002280  006F FF8C  F037    	movff	plusw1,btemp
  4924  002286  0EEA               	movlw	-22
  4925  002288  50E3               	movf	plusw1,w,c
  4926  00228A  1037               	iorwf	btemp,w,c
  4927  00228C  A4D8               	btfss	status,2,c
  4928  00228E  D7C0               	goto	l6109
  4929  002290                     u4300:
  4930                           
  4931                           ;/opt/microchip/xc8/v2.05/pic/sources/c99/common/doprnt.c: 825:         if ((*fmt[0] == 
      +                          'd') || (*fmt[0] == 'i')) {
  4932                           ;stkvar	_fmt @ sp[(-23)+-4]
  4933  002290  0EE5               	movlw	-27
  4934  002292  006F FF8F FFD9     	movff	plusw1,fsr2l
  4935  002298  0EE6               	movlw	-26
  4936  00229A  006F FF8F FFDA     	movff	plusw1,fsr2h
  4937  0022A0  006F FF7F FFF6     	movff	indf2,tblptrl
  4938  0022A6                     	if	1	;There is more than 1 active tblptr byte
  4939  0022A6  0E20               	movlw	high __smallconst
  4940  0022A8  6EF7               	movwf	tblptrh,c
  4941  0022AA                     	endif
  4942  0022AA                     	if	0	;tblptru may be non-zero
  4943  0022AA                     	endif
  4944  0022AA                     	if	1	;Program memory is > 0xFFFF, there are 3 active tblptr bytes
  4945  0022AA  0E00               	movlw	low (__smallconst shr (0+16))
  4946  0022AC  6EF8               	movwf	tblptru,c
  4947  0022AE                     	endif
  4948  0022AE  0008               	tblrd		*
  4949  0022B0  50F5               	movf	tablat,w,c
  4950  0022B2  0A64               	xorlw	100
  4951  0022B4  B4D8               	btfsc	status,2,c
  4952  0022B6  D014               	goto	u4320
  4953                           
  4954                           ;stkvar	_fmt @ sp[(-23)+-4]
  4955  0022B8  0EE5               	movlw	-27
  4956  0022BA  006F FF8F FFD9     	movff	plusw1,fsr2l
  4957  0022C0  0EE6               	movlw	-26
  4958  0022C2  006F FF8F FFDA     	movff	plusw1,fsr2h
  4959  0022C8  006F FF7F FFF6     	movff	indf2,tblptrl
  4960  0022CE                     	if	1	;There is more than 1 active tblptr byte
  4961  0022CE  0E20               	movlw	high __smallconst
  4962  0022D0  6EF7               	movwf	tblptrh,c
  4963  0022D2                     	endif
  4964  0022D2                     	if	0	;tblptru may be non-zero
  4965  0022D2                     	endif
  4966  0022D2                     	if	1	;Program memory is > 0xFFFF, there are 3 active tblptr bytes
  4967  0022D2  0E00               	movlw	low (__smallconst shr (0+16))
  4968  0022D4  6EF8               	movwf	tblptru,c
  4969  0022D6                     	endif
  4970  0022D6  0008               	tblrd		*
  4971  0022D8  50F5               	movf	tablat,w,c
  4972  0022DA  0A69               	xorlw	105
  4973  0022DC  A4D8               	btfss	status,2,c
  4974  0022DE  D073               	goto	l6129
  4975  0022E0                     u4320:
  4976                           
  4977                           ;/opt/microchip/xc8/v2.05/pic/sources/c99/common/doprnt.c: 827:             ++*fmt;
  4978                           ;stkvar	_fmt @ sp[(-23)+-4]
  4979  0022E0  0EE5               	movlw	-27
  4980  0022E2  006F FF8F FFD9     	movff	plusw1,fsr2l
  4981  0022E8  0EE6               	movlw	-26
  4982  0022EA  006F FF8F FFDA     	movff	plusw1,fsr2h
  4983  0022F0  2ADF               	incf	indf2,f,c
  4984                           
  4985                           ;/opt/microchip/xc8/v2.05/pic/sources/c99/common/doprnt.c: 828:             ll = (long l
      +                          ong)(*(int *)__va_arg(*(int **)ap, (int)0));
  4986                           ;stkvar	_ap @ sp[(-23)+-6]
  4987  0022F2  0EE3               	movlw	-29
  4988  0022F4  006F FF8F FFD9     	movff	plusw1,fsr2l
  4989  0022FA  0EE4               	movlw	-28
  4990  0022FC  006F FF8F FFDA     	movff	plusw1,fsr2h
  4991  002302  0E02               	movlw	2
  4992  002304  5EDE               	subwf	postinc2,f,c
  4993  002306  0E00               	movlw	0
  4994  002308  5ADD               	subwfb	postdec2,f,c
  4995  00230A  006F FF78  F041    	movff	postinc2,btemp+10
  4996  002310  006F FF74  F042    	movff	postdec2,btemp+11
  4997  002316  0060  F107  FFD9   	movff	btemp+10,fsr2l
  4998  00231C  0060  F10B  FFDA   	movff	btemp+11,fsr2h
  4999  002322  006F FF78  F041    	movff	postinc2,btemp+10
  5000  002328  006F FF74  F042    	movff	postdec2,btemp+11
  5001                           
  5002                           ;stkvar	_ll @ sp[(-23)+10]
  5003  00232E  0EF3               	movlw	-13
  5004  002330  0060  F107  FFE3   	movff	btemp+10,plusw1
  5005  002336  0EF4               	movlw	-12
  5006  002338  0060  F10B  FFE3   	movff	btemp+11,plusw1
  5007  00233E  6A37               	clrf	btemp,c
  5008  002340  BEE3               	btfsc	plusw1,7,c
  5009  002342  6837               	setf	btemp,c
  5010  002344  0EF5               	movlw	-11
  5011  002346  0060  F0DF  FFE3   	movff	btemp,plusw1
  5012  00234C  0EF6               	movlw	-10
  5013  00234E  0060  F0DF  FFE3   	movff	btemp,plusw1
  5014  002354  0EF7               	movlw	-9
  5015  002356  0060  F0DF  FFE3   	movff	btemp,plusw1
  5016  00235C  0EF8               	movlw	-8
  5017  00235E  0060  F0DF  FFE3   	movff	btemp,plusw1
  5018  002364  0EF9               	movlw	-7
  5019  002366  0060  F0DF  FFE3   	movff	btemp,plusw1
  5020  00236C  0EFA               	movlw	-6
  5021  00236E  0060  F0DF  FFE3   	movff	btemp,plusw1
  5022                           
  5023                           ;/opt/microchip/xc8/v2.05/pic/sources/c99/common/doprnt.c: 830:             return dtoa(
      +                          fp, ll);
  5024                           ;stkvar	_ll @ sp[(-23)+10]
  5025  002374  50E1               	movf	fsr1l,w,c
  5026  002376  0FF3               	addlw	-13
  5027  002378  6ED9               	movwf	fsr2l,c
  5028  00237A  50E2               	movf	fsr1h,w,c
  5029  00237C  6EDA               	movwf	fsr2h,c
  5030  00237E  0EFF               	movlw	255
  5031  002380  22DA               	addwfc	fsr2h,f,c
  5032  002382  006F FF7B FFE6     	movff	postinc2,postinc1
  5033  002388  006F FF7B FFE6     	movff	postinc2,postinc1
  5034  00238E  006F FF7B FFE6     	movff	postinc2,postinc1
  5035  002394  006F FF7B FFE6     	movff	postinc2,postinc1
  5036  00239A  006F FF7B FFE6     	movff	postinc2,postinc1
  5037  0023A0  006F FF7B FFE6     	movff	postinc2,postinc1
  5038  0023A6  006F FF7B FFE6     	movff	postinc2,postinc1
  5039  0023AC  006F FF7B FFE6     	movff	postinc2,postinc1
  5040                           
  5041                           ;stkvar	_fp @ sp[(-31)+-2]
  5042  0023B2  0EDF               	movlw	-33
  5043  0023B4  006F FF8F FFE6     	movff	plusw1,postinc1
  5044  0023BA  006F FF8F FFE6     	movff	plusw1,postinc1
  5045  0023C0  EC56  F013         	call	_dtoa	;wreg free
  5046  0023C4  D16E               	goto	l1585
  5047  0023C6                     l6129:
  5048                           
  5049                           ;/opt/microchip/xc8/v2.05/pic/sources/c99/common/doprnt.c: 1149:         if (*fmt[0] == 
      +                          's') {
  5050                           ;stkvar	_fmt @ sp[(-23)+-4]
  5051  0023C6  0EE5               	movlw	-27
  5052  0023C8  006F FF8F FFD9     	movff	plusw1,fsr2l
  5053  0023CE  0EE6               	movlw	-26
  5054  0023D0  006F FF8F FFDA     	movff	plusw1,fsr2h
  5055  0023D6  006F FF7F FFF6     	movff	indf2,tblptrl
  5056  0023DC                     	if	1	;There is more than 1 active tblptr byte
  5057  0023DC  0E20               	movlw	high __smallconst
  5058  0023DE  6EF7               	movwf	tblptrh,c
  5059  0023E0                     	endif
  5060  0023E0                     	if	0	;tblptru may be non-zero
  5061  0023E0                     	endif
  5062  0023E0                     	if	1	;Program memory is > 0xFFFF, there are 3 active tblptr bytes
  5063  0023E0  0E00               	movlw	low (__smallconst shr (0+16))
  5064  0023E2  6EF8               	movwf	tblptru,c
  5065  0023E4                     	endif
  5066  0023E4  0008               	tblrd		*
  5067  0023E6  50F5               	movf	tablat,w,c
  5068  0023E8  0A73               	xorlw	115
  5069  0023EA  A4D8               	btfss	status,2,c
  5070  0023EC  D040               	goto	l6139
  5071                           
  5072                           ;/opt/microchip/xc8/v2.05/pic/sources/c99/common/doprnt.c: 1151:             ++*fmt;
  5073                           ;stkvar	_fmt @ sp[(-23)+-4]
  5074  0023EE  0EE5               	movlw	-27
  5075  0023F0  006F FF8F FFD9     	movff	plusw1,fsr2l
  5076  0023F6  0EE6               	movlw	-26
  5077  0023F8  006F FF8F FFDA     	movff	plusw1,fsr2h
  5078  0023FE  2ADF               	incf	indf2,f,c
  5079                           
  5080                           ;/opt/microchip/xc8/v2.05/pic/sources/c99/common/doprnt.c: 1152:             cp = (*(cha
      +                          r * *)__va_arg(*(char * **)ap, (char *)0));
  5081                           ;stkvar	_ap @ sp[(-23)+-6]
  5082  002400  0EE3               	movlw	-29
  5083  002402  006F FF8F FFD9     	movff	plusw1,fsr2l
  5084  002408  0EE4               	movlw	-28
  5085  00240A  006F FF8F FFDA     	movff	plusw1,fsr2h
  5086  002410  0E02               	movlw	2
  5087  002412  5EDE               	subwf	postinc2,f,c
  5088  002414  0E00               	movlw	0
  5089  002416  5ADD               	subwfb	postdec2,f,c
  5090  002418  006F FF78  F041    	movff	postinc2,btemp+10
  5091  00241E  006F FF74  F042    	movff	postdec2,btemp+11
  5092  002424  0060  F107  FFD9   	movff	btemp+10,fsr2l
  5093  00242A  0060  F10B  FFDA   	movff	btemp+11,fsr2h
  5094  002430  006F FF78  F041    	movff	postinc2,btemp+10
  5095  002436  006F FF74  F042    	movff	postdec2,btemp+11
  5096                           
  5097                           ;stkvar	_cp @ sp[(-23)+20]
  5098  00243C  0EFE               	movlw	-2
  5099  00243E  0060  F10B  FFE3   	movff	btemp+11,plusw1
  5100  002444  0EFD               	movlw	-3
  5101  002446  0060  F107  FFE3   	movff	btemp+10,plusw1
  5102                           
  5103                           ;/opt/microchip/xc8/v2.05/pic/sources/c99/common/doprnt.c: 1154:             return stoa
      +                          (fp, cp);
  5104                           ;stkvar	_cp @ sp[(-23)+20]
  5105  00244C  0EFD               	movlw	-3
  5106  00244E  006F FF8F FFE6     	movff	plusw1,postinc1
  5107  002454  006F FF8F FFE6     	movff	plusw1,postinc1
  5108                           
  5109                           ;stkvar	_fp @ sp[(-25)+-2]
  5110  00245A  0EE5               	movlw	-27
  5111  00245C  006F FF8F FFE6     	movff	plusw1,postinc1
  5112  002462  006F FF8F FFE6     	movff	plusw1,postinc1
  5113  002468  EC5A  F01A         	call	_stoa	;wreg free
  5114  00246C  D11A               	goto	l1585
  5115  00246E                     l6139:
  5116                           
  5117                           ;/opt/microchip/xc8/v2.05/pic/sources/c99/common/doprnt.c: 1274:         if ((*fmt[0] ==
      +                           'x') || (*fmt[0] == 'X')) {
  5118                           ;stkvar	_fmt @ sp[(-23)+-4]
  5119  00246E  0EE5               	movlw	-27
  5120  002470  006F FF8F FFD9     	movff	plusw1,fsr2l
  5121  002476  0EE6               	movlw	-26
  5122  002478  006F FF8F FFDA     	movff	plusw1,fsr2h
  5123  00247E  006F FF7F FFF6     	movff	indf2,tblptrl
  5124  002484                     	if	1	;There is more than 1 active tblptr byte
  5125  002484  0E20               	movlw	high __smallconst
  5126  002486  6EF7               	movwf	tblptrh,c
  5127  002488                     	endif
  5128  002488                     	if	0	;tblptru may be non-zero
  5129  002488                     	endif
  5130  002488                     	if	1	;Program memory is > 0xFFFF, there are 3 active tblptr bytes
  5131  002488  0E00               	movlw	low (__smallconst shr (0+16))
  5132  00248A  6EF8               	movwf	tblptru,c
  5133  00248C                     	endif
  5134  00248C  0008               	tblrd		*
  5135  00248E  50F5               	movf	tablat,w,c
  5136  002490  0A78               	xorlw	120
  5137  002492  B4D8               	btfsc	status,2,c
  5138  002494  D014               	goto	u4350
  5139                           
  5140                           ;stkvar	_fmt @ sp[(-23)+-4]
  5141  002496  0EE5               	movlw	-27
  5142  002498  006F FF8F FFD9     	movff	plusw1,fsr2l
  5143  00249E  0EE6               	movlw	-26
  5144  0024A0  006F FF8F FFDA     	movff	plusw1,fsr2h
  5145  0024A6  006F FF7F FFF6     	movff	indf2,tblptrl
  5146  0024AC                     	if	1	;There is more than 1 active tblptr byte
  5147  0024AC  0E20               	movlw	high __smallconst
  5148  0024AE  6EF7               	movwf	tblptrh,c
  5149  0024B0                     	endif
  5150  0024B0                     	if	0	;tblptru may be non-zero
  5151  0024B0                     	endif
  5152  0024B0                     	if	1	;Program memory is > 0xFFFF, there are 3 active tblptr bytes
  5153  0024B0  0E00               	movlw	low (__smallconst shr (0+16))
  5154  0024B2  6EF8               	movwf	tblptru,c
  5155  0024B4                     	endif
  5156  0024B4  0008               	tblrd		*
  5157  0024B6  50F5               	movf	tablat,w,c
  5158  0024B8  0A58               	xorlw	88
  5159  0024BA  A4D8               	btfss	status,2,c
  5160  0024BC  D091               	goto	l6153
  5161  0024BE                     u4350:
  5162                           
  5163                           ;/opt/microchip/xc8/v2.05/pic/sources/c99/common/doprnt.c: 1276:             c = (*fmt)[
      +                          0];
  5164                           ;stkvar	_fmt @ sp[(-23)+-4]
  5165  0024BE  0EE5               	movlw	-27
  5166  0024C0  006F FF8F FFD9     	movff	plusw1,fsr2l
  5167  0024C6  0EE6               	movlw	-26
  5168  0024C8  006F FF8F FFDA     	movff	plusw1,fsr2h
  5169  0024CE  006F FF7F FFF6     	movff	indf2,tblptrl
  5170  0024D4                     	if	1	;There is more than 1 active tblptr byte
  5171  0024D4  0E20               	movlw	high __smallconst
  5172  0024D6  6EF7               	movwf	tblptrh,c
  5173  0024D8                     	endif
  5174  0024D8                     	if	0	;tblptru may be non-zero
  5175  0024D8                     	endif
  5176  0024D8                     	if	1	;Program memory is > 0xFFFF, there are 3 active tblptr bytes
  5177  0024D8  0E00               	movlw	low (__smallconst shr (0+16))
  5178  0024DA  6EF8               	movwf	tblptru,c
  5179  0024DC                     	endif
  5180                           
  5181                           ;stkvar	_c @ sp[(-23)+22]
  5182  0024DC  0008               	tblrd		*
  5183  0024DE  0EFF               	movlw	-1
  5184  0024E0  006F FFD7 FFE3     	movff	tablat,plusw1
  5185                           
  5186                           ;/opt/microchip/xc8/v2.05/pic/sources/c99/common/doprnt.c: 1277:             ++*fmt;
  5187                           ;stkvar	_fmt @ sp[(-23)+-4]
  5188  0024E6  0EE5               	movlw	-27
  5189  0024E8  006F FF8F FFD9     	movff	plusw1,fsr2l
  5190  0024EE  0EE6               	movlw	-26
  5191  0024F0  006F FF8F FFDA     	movff	plusw1,fsr2h
  5192  0024F6  2ADF               	incf	indf2,f,c
  5193                           
  5194                           ;/opt/microchip/xc8/v2.05/pic/sources/c99/common/doprnt.c: 1278:             llu = (unsi
      +                          gned long long)(*(unsigned int *)__va_arg(*(unsigned int **)ap, (unsigned int)0));
  5195                           ;stkvar	_ap @ sp[(-23)+-6]
  5196  0024F8  0EE3               	movlw	-29
  5197  0024FA  006F FF8F FFD9     	movff	plusw1,fsr2l
  5198  002500  0EE4               	movlw	-28
  5199  002502  006F FF8F FFDA     	movff	plusw1,fsr2h
  5200  002508  0E02               	movlw	2
  5201  00250A  5EDE               	subwf	postinc2,f,c
  5202  00250C  0E00               	movlw	0
  5203  00250E  5ADD               	subwfb	postdec2,f,c
  5204  002510  006F FF78  F041    	movff	postinc2,btemp+10
  5205  002516  006F FF74  F042    	movff	postdec2,btemp+11
  5206  00251C  0060  F107  FFD9   	movff	btemp+10,fsr2l
  5207  002522  0060  F10B  FFDA   	movff	btemp+11,fsr2h
  5208  002528  006F FF78  F041    	movff	postinc2,btemp+10
  5209  00252E  006F FF74  F042    	movff	postdec2,btemp+11
  5210  002534  5041               	movf	btemp+10,w,c
  5211  002536  6E47               	movwf	btemp+16,c
  5212  002538  5042               	movf	btemp+11,w,c
  5213  00253A  6E48               	movwf	btemp+17,c
  5214  00253C  6A49               	clrf	btemp+18,c
  5215  00253E  6A4A               	clrf	btemp+19,c
  5216  002540  6A4B               	clrf	btemp+20,c
  5217  002542  6A4C               	clrf	btemp+21,c
  5218  002544  6A4D               	clrf	btemp+22,c
  5219  002546  6A4E               	clrf	btemp+23,c
  5220                           
  5221                           ;stkvar	_llu @ sp[(-23)+2]
  5222  002548  0EEB               	movlw	-21
  5223  00254A  0060  F11F  FFE3   	movff	btemp+16,plusw1
  5224  002550  0EEC               	movlw	-20
  5225  002552  0060  F123  FFE3   	movff	btemp+17,plusw1
  5226  002558  0EED               	movlw	-19
  5227  00255A  0060  F127  FFE3   	movff	btemp+18,plusw1
  5228  002560  0EEE               	movlw	-18
  5229  002562  0060  F12B  FFE3   	movff	btemp+19,plusw1
  5230  002568  0EEF               	movlw	-17
  5231  00256A  0060  F12F  FFE3   	movff	btemp+20,plusw1
  5232  002570  0EF0               	movlw	-16
  5233  002572  0060  F133  FFE3   	movff	btemp+21,plusw1
  5234  002578  0EF1               	movlw	-15
  5235  00257A  0060  F137  FFE3   	movff	btemp+22,plusw1
  5236  002580  0EF2               	movlw	-14
  5237  002582  0060  F13B  FFE3   	movff	btemp+23,plusw1
  5238                           
  5239                           ;/opt/microchip/xc8/v2.05/pic/sources/c99/common/doprnt.c: 1280:             return xtoa
      +                          (fp, llu, c);
  5240                           ;stkvar	_c @ sp[(-23)+22]
  5241  002588  0EFF               	movlw	-1
  5242  00258A  50E3               	movf	plusw1,w,c
  5243  00258C  6EE6               	movwf	postinc1,c
  5244                           
  5245                           ;stkvar	_llu @ sp[(-24)+2]
  5246  00258E  50E1               	movf	fsr1l,w,c
  5247  002590  0FEA               	addlw	-22
  5248  002592  6ED9               	movwf	fsr2l,c
  5249  002594  50E2               	movf	fsr1h,w,c
  5250  002596  6EDA               	movwf	fsr2h,c
  5251  002598  0EFF               	movlw	255
  5252  00259A  22DA               	addwfc	fsr2h,f,c
  5253  00259C  006F FF7B FFE6     	movff	postinc2,postinc1
  5254  0025A2  006F FF7B FFE6     	movff	postinc2,postinc1
  5255  0025A8  006F FF7B FFE6     	movff	postinc2,postinc1
  5256  0025AE  006F FF7B FFE6     	movff	postinc2,postinc1
  5257  0025B4  006F FF7B FFE6     	movff	postinc2,postinc1
  5258  0025BA  006F FF7B FFE6     	movff	postinc2,postinc1
  5259  0025C0  006F FF7B FFE6     	movff	postinc2,postinc1
  5260  0025C6  006F FF7B FFE6     	movff	postinc2,postinc1
  5261                           
  5262                           ;stkvar	_fp @ sp[(-32)+-2]
  5263  0025CC  0EDE               	movlw	-34
  5264  0025CE  006F FF8F FFE6     	movff	plusw1,postinc1
  5265  0025D4  006F FF8F FFE6     	movff	plusw1,postinc1
  5266  0025DA  EC96  F015         	call	_xtoa	;wreg free
  5267  0025DE  D061               	goto	l1585
  5268  0025E0                     l6153:
  5269                           
  5270                           ;/opt/microchip/xc8/v2.05/pic/sources/c99/common/doprnt.c: 1350:         if ((*fmt)[0] =
      +                          = '%') {
  5271                           ;stkvar	_fmt @ sp[(-23)+-4]
  5272  0025E0  0EE5               	movlw	-27
  5273  0025E2  006F FF8F FFD9     	movff	plusw1,fsr2l
  5274  0025E8  0EE6               	movlw	-26
  5275  0025EA  006F FF8F FFDA     	movff	plusw1,fsr2h
  5276  0025F0  006F FF7F FFF6     	movff	indf2,tblptrl
  5277  0025F6                     	if	1	;There is more than 1 active tblptr byte
  5278  0025F6  0E20               	movlw	high __smallconst
  5279  0025F8  6EF7               	movwf	tblptrh,c
  5280  0025FA                     	endif
  5281  0025FA                     	if	0	;tblptru may be non-zero
  5282  0025FA                     	endif
  5283  0025FA                     	if	1	;Program memory is > 0xFFFF, there are 3 active tblptr bytes
  5284  0025FA  0E00               	movlw	low (__smallconst shr (0+16))
  5285  0025FC  6EF8               	movwf	tblptru,c
  5286  0025FE                     	endif
  5287  0025FE  0008               	tblrd		*
  5288  002600  50F5               	movf	tablat,w,c
  5289  002602  0A25               	xorlw	37
  5290  002604  A4D8               	btfss	status,2,c
  5291  002606  D018               	goto	l6163
  5292                           
  5293                           ;/opt/microchip/xc8/v2.05/pic/sources/c99/common/doprnt.c: 1351:             ++*fmt;
  5294                           ;stkvar	_fmt @ sp[(-23)+-4]
  5295  002608  0EE5               	movlw	-27
  5296  00260A  006F FF8F FFD9     	movff	plusw1,fsr2l
  5297  002610  0EE6               	movlw	-26
  5298  002612  006F FF8F FFDA     	movff	plusw1,fsr2h
  5299  002618  2ADF               	incf	indf2,f,c
  5300                           
  5301                           ;/opt/microchip/xc8/v2.05/pic/sources/c99/common/doprnt.c: 1352:             fputc((int)
      +                          '%', fp);
  5302                           ;stkvar	_fp @ sp[(-23)+-2]
  5303  00261A  0EE7               	movlw	-25
  5304  00261C  006F FF8F FFE6     	movff	plusw1,postinc1
  5305  002622  006F FF8F FFE6     	movff	plusw1,postinc1
  5306  002628  0E25               	movlw	37
  5307  00262A  6EE6               	movwf	postinc1,c
  5308  00262C  0E00               	movlw	0
  5309  00262E  6EE6               	movwf	postinc1,c
  5310  002630  EC70  F021         	call	_fputc	;wreg free
  5311  002634                     l6159:
  5312                           
  5313                           ;/opt/microchip/xc8/v2.05/pic/sources/c99/common/doprnt.c: 1353:             return 1;
  5314  002634  0E01               	movlw	1
  5315  002636  D00A               	goto	L18
  5316  002638                     l6163:
  5317                           
  5318                           ;/opt/microchip/xc8/v2.05/pic/sources/c99/common/doprnt.c: 1357:         ++*fmt;
  5319                           ;stkvar	_fmt @ sp[(-23)+-4]
  5320  002638  0EE5               	movlw	-27
  5321  00263A  006F FF8F FFD9     	movff	plusw1,fsr2l
  5322  002640  0EE6               	movlw	-26
  5323  002642  006F FF8F FFDA     	movff	plusw1,fsr2h
  5324  002648  2ADF               	incf	indf2,f,c
  5325                           
  5326                           ;/opt/microchip/xc8/v2.05/pic/sources/c99/common/doprnt.c: 1358:         return 0;
  5327  00264A  0E00               	movlw	0
  5328  00264C                     L18:
  5329  00264C  6E37               	movwf	btemp,c
  5330  00264E  0E00               	movlw	0
  5331  002650  6E38               	movwf	btemp+1,c
  5332  002652  D027               	goto	l1585
  5333  002654                     l6169:
  5334                           
  5335                           ;/opt/microchip/xc8/v2.05/pic/sources/c99/common/doprnt.c: 1362:     fputc((int)(*fmt)[0
      +                          ], fp);
  5336                           ;stkvar	_fp @ sp[(-23)+-2]
  5337  002654  0EE7               	movlw	-25
  5338  002656  006F FF8F FFE6     	movff	plusw1,postinc1
  5339  00265C  006F FF8F FFE6     	movff	plusw1,postinc1
  5340                           
  5341                           ;stkvar	_fmt @ sp[(-25)+-4]
  5342  002662  0EE3               	movlw	-29
  5343  002664  006F FF8F FFD9     	movff	plusw1,fsr2l
  5344  00266A  0EE4               	movlw	-28
  5345  00266C  006F FF8F FFDA     	movff	plusw1,fsr2h
  5346  002672  006F FF7F FFF6     	movff	indf2,tblptrl
  5347  002678                     	if	1	;There is more than 1 active tblptr byte
  5348  002678  0E20               	movlw	high __smallconst
  5349  00267A  6EF7               	movwf	tblptrh,c
  5350  00267C                     	endif
  5351  00267C                     	if	0	;tblptru may be non-zero
  5352  00267C                     	endif
  5353  00267C                     	if	1	;Program memory is > 0xFFFF, there are 3 active tblptr bytes
  5354  00267C  0E00               	movlw	low (__smallconst shr (0+16))
  5355  00267E  6EF8               	movwf	tblptru,c
  5356  002680                     	endif
  5357  002680  0008               	tblrd		*
  5358  002682  50F5               	movf	tablat,w,c
  5359  002684  6EE6               	movwf	postinc1,c
  5360  002686  0E00               	movlw	0
  5361  002688  6EE6               	movwf	postinc1,c
  5362  00268A  EC70  F021         	call	_fputc	;wreg free
  5363                           
  5364                           ;/opt/microchip/xc8/v2.05/pic/sources/c99/common/doprnt.c: 1363:     ++*fmt;
  5365                           ;stkvar	_fmt @ sp[(-23)+-4]
  5366  00268E  0EE5               	movlw	-27
  5367  002690  006F FF8F FFD9     	movff	plusw1,fsr2l
  5368  002696  0EE6               	movlw	-26
  5369  002698  006F FF8F FFDA     	movff	plusw1,fsr2h
  5370  00269E  2ADF               	incf	indf2,f,c
  5371  0026A0  D7C9               	goto	l6159
  5372  0026A2                     l1585:
  5373                           
  5374                           ; _vfpfcnvrt: autosize = 23, savesize = 0, parsavesize = 0, tempsize = 0 parsize = 6, ar
      +                          gsize = 6, vargsize = 0
  5375  0026A2  0EE3               	movlw	227
  5376  0026A4  26E1               	addwf	fsr1l,f,c
  5377  0026A6  0EFF               	movlw	255
  5378  0026A8  22E2               	addwfc	fsr1h,f,c
  5379  0026AA  0012               	return		;funcret
  5380  0026AC                     __end_of_vfpfcnvrt:
  5381                           	opt callstack 0
  5382                           
  5383 ;; *************** function _xtoa *****************
  5384 ;; Defined at:
  5385 ;;		line 623 in file "/opt/microchip/xc8/v2.05/pic/sources/c99/common/doprnt.c"
  5386 ;; Parameters:    Size  Location     Type
  5387 ;;  fp              2  [STACK] PTR struct _IO_FILE
  5388 ;;		 -> f(5), NULL(0), 
  5389 ;;  d               8  [STACK] unsigned long long 
  5390 ;;  x               1  [STACK] unsigned char 
  5391 ;; Auto vars:     Size  Location     Type
  5392 ;;  n               8  [STACK] unsigned long long 
  5393 ;;  c               2  [STACK] int 
  5394 ;;  i               2  [STACK] int 
  5395 ;;  w               2  [STACK] int 
  5396 ;;  p               2  [STACK] int 
  5397 ;; Return value:  Size  Location     Type
  5398 ;;                  2  [STACK] int 
  5399 ;; Registers used:
  5400 ;;		wreg, fsr0l, fsr0h, fsr1l, fsr1h, fsr2l, fsr2h, status,2, status,0, btemp, btemp+1, btemp+8, btemp+9, btemp+10, btem
      +p+11, prodl
  5401 ;; Tracked objects:
  5402 ;;		On entry : 0/3D
  5403 ;;		On exit  : 0/0
  5404 ;;		Unchanged: 0/0
  5405 ;; Data sizes:     COMRAM   BANK0   BANK1   BANK2   BANK3   BANK4   BANK5   BANK6   BANK7   BANK8   BANK9  BANK10  BANK1
      +1  BANK12  BANK13  BANK14  BANK15  BANK16  BANK17  BANK18  BANK19  BANK20  BANK21  BANK22  BANK23  BANK24  BANK25  BANK2
      +6  BANK27  BANK28  BANK29  BANK30  BANK31
  5406 ;;      Params:         0       0       0       0       0       0       0       0       0       0       0       0       
      +0       0       0       0       0       0       0       0       0       0       0       0       0       0       0       
      +0       0       0       0       0       0
  5407 ;;      Locals:         0       0       0       0       0       0       0       0       0       0       0       0       
      +0       0       0       0       0       0       0       0       0       0       0       0       0       0       0       
      +0       0       0       0       0       0
  5408 ;;      Temps:          0       0       0       0       0       0       0       0       0       0       0       0       
      +0       0       0       0       0       0       0       0       0       0       0       0       0       0       0       
      +0       0       0       0       0       0
  5409 ;;      Totals:         0       0       0       0       0       0       0       0       0       0       0       0       
      +0       0       0       0       0       0       0       0       0       0       0       0       0       0       0       
      +0       0       0       0       0       0
  5410 ;;Total ram usage:        0 bytes
  5411 ;; Hardware stack levels used:    1
  5412 ;; Hardware stack levels required when called:    8
  5413 ;; This function calls:
  5414 ;;		_isalpha
  5415 ;;		_isupper
  5416 ;;		_pad
  5417 ;;		_toupper
  5418 ;; This function is called by:
  5419 ;;		_vfpfcnvrt
  5420 ;; This function uses a reentrant model
  5421 ;;
  5422                           
  5423                           	psect	text26
  5424  002B2C                     __ptext26:
  5425                           	opt callstack 0
  5426  002B2C                     _xtoa:
  5427                           	opt callstack 0
  5428                           
  5429                           ; autosize = 20, savesize = 0, parsavesize = 0, tempsize = 0 parsize = 11, argsize = 11 
      +                          vargsize = 0, retsize = 0 argfudge = 0
  5430  002B2C  0E14               	movlw	20
  5431  002B2E  26E1               	addwf	fsr1l,f,c
  5432  002B30  0E00               	movlw	0
  5433  002B32  22E2               	addwfc	fsr1h,f,c
  5434                           
  5435                           ;/opt/microchip/xc8/v2.05/pic/sources/c99/common/doprnt.c: 623: static int xtoa(FILE *fp
      +                          , unsigned long long d, char x);/opt/microchip/xc8/v2.05/pic/sources/c99/common/doprnt.c
      +                          : 624: {;/opt/microchip/xc8/v2.05/pic/sources/c99/common/doprnt.c: 625:     int c, i, p,
      +                           w;;/opt/microchip/xc8/v2.05/pic/sources/c99/common/doprnt.c: 626:     unsigned long lon
      +                          g n;;/opt/microchip/xc8/v2.05/pic/sources/c99/common/doprnt.c: 629:     if (!(prec < 0))
      +                           {
  5436                           
  5437                           ;incstack = 0
  5438  002B34  AE25               	btfss	_prec+1,7,c
  5439                           
  5440                           ;/opt/microchip/xc8/v2.05/pic/sources/c99/common/doprnt.c: 630:         flags &= ~(1 << 
      +                          1);
  5441  002B36  9226               	bcf	_flags,1,c
  5442                           
  5443                           ;/opt/microchip/xc8/v2.05/pic/sources/c99/common/doprnt.c: 632:     p = (0 < prec) ? pre
      +                          c : 1;
  5444  002B38  BE25               	btfsc	_prec+1,7,c
  5445  002B3A  D005               	goto	u4060
  5446  002B3C  5025               	movf	_prec+1,w,c
  5447  002B3E  E110               	bnz	l5993
  5448  002B40  0424               	decf	_prec,w,c
  5449  002B42  B0D8               	btfsc	status,0,c
  5450  002B44  D00D               	goto	l5993
  5451  002B46                     u4060:
  5452  002B46  0E01               	movlw	1
  5453  002B48  6E41               	movwf	btemp+10,c
  5454  002B4A  0E00               	movlw	0
  5455  002B4C  6E42               	movwf	btemp+11,c
  5456                           
  5457                           ;stkvar	_p @ sp[(-20)+18]
  5458  002B4E  0EFE               	movlw	-2
  5459  002B50  0060  F107  FFE3   	movff	btemp+10,plusw1
  5460  002B56  0EFF               	movlw	-1
  5461  002B58  0060  F10B  FFE3   	movff	btemp+11,plusw1
  5462  002B5E  D008               	goto	l1533
  5463  002B60                     l5993:
  5464                           
  5465                           ;stkvar	_p @ sp[(-20)+18]
  5466  002B60  0EFE               	movlw	-2
  5467  002B62  0060  F093  FFE3   	movff	_prec,plusw1
  5468  002B68  0EFF               	movlw	-1
  5469  002B6A  0060  F097  FFE3   	movff	_prec+1,plusw1
  5470  002B70                     l1533:
  5471                           
  5472                           ;/opt/microchip/xc8/v2.05/pic/sources/c99/common/doprnt.c: 633:     w = width;
  5473                           ;stkvar	_w @ sp[(-20)+16]
  5474  002B70  0EFC               	movlw	-4
  5475  002B72  0060  F08B  FFE3   	movff	_width,plusw1
  5476  002B78  0EFD               	movlw	-3
  5477  002B7A  0060  F08F  FFE3   	movff	_width+1,plusw1
  5478                           
  5479                           ;/opt/microchip/xc8/v2.05/pic/sources/c99/common/doprnt.c: 634:     if (flags & (1 << 4)
      +                          ) {
  5480  002B80  A826               	btfss	_flags,4,c
  5481  002B82  D00B               	goto	l5999
  5482                           
  5483                           ;/opt/microchip/xc8/v2.05/pic/sources/c99/common/doprnt.c: 635:         w -= 2;
  5484                           ;stkvar	_w @ sp[(-20)+16]
  5485  002B84  50E1               	movf	fsr1l,w,c
  5486  002B86  0FFC               	addlw	-4
  5487  002B88  6ED9               	movwf	fsr2l,c
  5488  002B8A  50E2               	movf	fsr1h,w,c
  5489  002B8C  6EDA               	movwf	fsr2h,c
  5490  002B8E  0EFF               	movlw	255
  5491  002B90  22DA               	addwfc	fsr2h,f,c
  5492  002B92  0EFE               	movlw	254
  5493  002B94  26DE               	addwf	postinc2,f,c
  5494  002B96  0EFF               	movlw	255
  5495  002B98  22DD               	addwfc	postdec2,f,c
  5496  002B9A                     l5999:
  5497                           
  5498                           ;/opt/microchip/xc8/v2.05/pic/sources/c99/common/doprnt.c: 639:     n = d;
  5499                           ;stkvar	_d @ sp[(-20)+-10]
  5500  002B9A  0EE2               	movlw	226
  5501  002B9C  24E1               	addwf	fsr1l,w,c
  5502  002B9E  6ED9               	movwf	fsr2l,c
  5503  002BA0  0EFF               	movlw	255
  5504  002BA2  20E2               	addwfc	fsr1h,w,c
  5505  002BA4  6EDA               	movwf	fsr2h,c
  5506                           
  5507                           ;stkvar	_n @ sp[(-20)+4]
  5508  002BA6  0E08               	movlw	8
  5509  002BA8  6E37               	movwf	btemp,c
  5510  002BAA  0EF0               	movlw	-16
  5511  002BAC                     us408999:
  5512  002BAC  006F FF7B FFE3     	movff	postinc2,plusw1
  5513  002BB2  28E8               	incf	wreg,w,c
  5514  002BB4  2E37               	decfsz	btemp,f,c
  5515  002BB6  D7FA               	bra	us408999
  5516                           
  5517                           ;/opt/microchip/xc8/v2.05/pic/sources/c99/common/doprnt.c: 640:     i = sizeof(dbuf) - 1
      +                          ;
  5518  002BB8  0E1F               	movlw	31
  5519  002BBA  6E41               	movwf	btemp+10,c
  5520  002BBC  0E00               	movlw	0
  5521  002BBE  6E42               	movwf	btemp+11,c
  5522                           
  5523                           ;stkvar	_i @ sp[(-20)+14]
  5524  002BC0  0EFA               	movlw	-6
  5525  002BC2  0060  F107  FFE3   	movff	btemp+10,plusw1
  5526  002BC8  0EFB               	movlw	-5
  5527  002BCA  0060  F10B  FFE3   	movff	btemp+11,plusw1
  5528                           
  5529                           ;/opt/microchip/xc8/v2.05/pic/sources/c99/common/doprnt.c: 641:     dbuf[i] = '\0';
  5530  002BD0  0101               	movlb	1	; () banked
  5531  002BD2  6BDF               	clrf	(_dbuf+31)& (0+255),b
  5532                           
  5533                           ;/opt/microchip/xc8/v2.05/pic/sources/c99/common/doprnt.c: 642:     while (!(i < 2) && (
      +                          n || (0 < p) || ((0 < w) && (flags & (1 << 1))))) {
  5534  002BD4  D0EE               	goto	l6037
  5535  002BD6                     l6005:
  5536                           
  5537                           ;/opt/microchip/xc8/v2.05/pic/sources/c99/common/doprnt.c: 643:         --i;
  5538                           ;stkvar	_i @ sp[(-20)+14]
  5539  002BD6  50E1               	movf	fsr1l,w,c
  5540  002BD8  0FFA               	addlw	-6
  5541  002BDA  6ED9               	movwf	fsr2l,c
  5542  002BDC  50E2               	movf	fsr1h,w,c
  5543  002BDE  6EDA               	movwf	fsr2h,c
  5544  002BE0  0EFF               	movlw	255
  5545  002BE2  22DA               	addwfc	fsr2h,f,c
  5546  002BE4  06DE               	decf	postinc2,f,c
  5547  002BE6  0E00               	movlw	0
  5548  002BE8  5ADD               	subwfb	postdec2,f,c
  5549                           
  5550                           ;/opt/microchip/xc8/v2.05/pic/sources/c99/common/doprnt.c: 644:         c = n & 0x0f;
  5551                           ;stkvar	_n @ sp[(-20)+4]
  5552  002BEA  0EF0               	movlw	-16
  5553  002BEC  006F FF8C  F041    	movff	plusw1,btemp+10
  5554  002BF2  0EF1               	movlw	-15
  5555  002BF4  006F FF8C  F042    	movff	plusw1,btemp+11
  5556  002BFA  0E0F               	movlw	15
  5557  002BFC  1641               	andwf	btemp+10,f,c
  5558  002BFE  0E00               	movlw	0
  5559  002C00  1642               	andwf	btemp+11,f,c
  5560                           
  5561                           ;stkvar	_c @ sp[(-20)+12]
  5562  002C02  0EF8               	movlw	-8
  5563  002C04  0060  F107  FFE3   	movff	btemp+10,plusw1
  5564  002C0A  0EF9               	movlw	-7
  5565  002C0C  0060  F10B  FFE3   	movff	btemp+11,plusw1
  5566                           
  5567                           ;/opt/microchip/xc8/v2.05/pic/sources/c99/common/doprnt.c: 645:         c = (c < 10) ? '
      +                          0' + c : 'a' + (c - 10);
  5568                           ;stkvar	_c @ sp[(-20)+12]
  5569  002C12  0EF9               	movlw	-7
  5570  002C14  BEE3               	btfsc	plusw1,7,c
  5571  002C16  D00F               	goto	l6013
  5572  002C18  0EF9               	movlw	-7
  5573  002C1A  50E3               	movf	plusw1,w,c
  5574  002C1C  E108               	bnz	u4090
  5575  002C1E  0EF8               	movlw	-8
  5576  002C20  006F FF8C  F037    	movff	plusw1,btemp
  5577  002C26  0E0A               	movlw	10
  5578  002C28  5E37               	subwf	btemp,f,c
  5579  002C2A  A0D8               	btfss	status,0,c
  5580  002C2C  D004               	goto	l6013
  5581  002C2E                     u4090:
  5582                           
  5583                           ;stkvar	_c @ sp[(-20)+12]
  5584  002C2E  0EF8               	movlw	-8
  5585  002C30  50E3               	movf	plusw1,w,c
  5586  002C32  0F57               	addlw	87
  5587  002C34  D003               	goto	L19
  5588  002C36                     l6013:
  5589                           
  5590                           ;stkvar	_c @ sp[(-20)+12]
  5591  002C36  0EF8               	movlw	-8
  5592  002C38  50E3               	movf	plusw1,w,c
  5593  002C3A  0F30               	addlw	48
  5594  002C3C                     L19:
  5595  002C3C  6E41               	movwf	btemp+10,c
  5596  002C3E  0EF9               	movlw	-7
  5597  002C40  006F FF8C  F042    	movff	plusw1,btemp+11
  5598  002C46  0E00               	movlw	0
  5599  002C48  2242               	addwfc	btemp+11,f,c
  5600                           
  5601                           ;stkvar	_c @ sp[(-20)+12]
  5602  002C4A  0EF8               	movlw	-8
  5603  002C4C  0060  F107  FFE3   	movff	btemp+10,plusw1
  5604  002C52  0EF9               	movlw	-7
  5605  002C54  0060  F10B  FFE3   	movff	btemp+11,plusw1
  5606  002C5A  0EBF               	movlw	191
  5607  002C5C  6E41               	movwf	btemp+10,c
  5608  002C5E  0EFF               	movlw	255
  5609  002C60  6E42               	movwf	btemp+11,c
  5610                           
  5611                           ;stkvar	_x @ sp[(-20)+-11]
  5612  002C62  0EE1               	movlw	-31
  5613  002C64  50E3               	movf	plusw1,w,c
  5614  002C66  6E3F               	movwf	btemp+8,c
  5615  002C68  6A40               	clrf	btemp+9,c
  5616  002C6A  5041               	movf	btemp+10,w,c
  5617  002C6C  263F               	addwf	btemp+8,f,c
  5618  002C6E  5042               	movf	btemp+11,w,c
  5619  002C70  2240               	addwfc	btemp+9,f,c
  5620  002C72  5040               	movf	btemp+9,w,c
  5621  002C74  E106               	bnz	u4100
  5622  002C76  0E1A               	movlw	26
  5623  002C78  5C3F               	subwf	btemp+8,w,c
  5624  002C7A  B0D8               	btfsc	status,0,c
  5625  002C7C  D002               	goto	u4100
  5626  002C7E  0E01               	movlw	1
  5627  002C80  D001               	goto	u4110
  5628  002C82                     u4100:
  5629  002C82  0E00               	movlw	0
  5630  002C84                     u4110:
  5631  002C84  6E41               	movwf	btemp+10,c
  5632  002C86  6A42               	clrf	btemp+11,c
  5633                           
  5634                           ;stkvar	_xtoa$3390 @ sp[(-20)+2]
  5635  002C88  0EEE               	movlw	-18
  5636  002C8A  0060  F107  FFE3   	movff	btemp+10,plusw1
  5637  002C90  0EEF               	movlw	-17
  5638  002C92  0060  F10B  FFE3   	movff	btemp+11,plusw1
  5639                           
  5640                           ;stkvar	_xtoa$3390 @ sp[(-20)+2]
  5641  002C98  0EEE               	movlw	-18
  5642  002C9A  006F FF8C  F037    	movff	plusw1,btemp
  5643  002CA0  0EEF               	movlw	-17
  5644  002CA2  50E3               	movf	plusw1,w,c
  5645  002CA4  1037               	iorwf	btemp,w,c
  5646  002CA6  B4D8               	btfsc	status,2,c
  5647  002CA8  D041               	goto	l6029
  5648  002CAA  0E9F               	movlw	159
  5649  002CAC  6E41               	movwf	btemp+10,c
  5650  002CAE  0EFF               	movlw	255
  5651  002CB0  6E42               	movwf	btemp+11,c
  5652                           
  5653                           ;stkvar	_c @ sp[(-20)+12]
  5654  002CB2  0EF8               	movlw	-8
  5655  002CB4  006F FF8C  F03F    	movff	plusw1,btemp+8
  5656  002CBA  0EF9               	movlw	-7
  5657  002CBC  006F FF8C  F040    	movff	plusw1,btemp+9
  5658  002CC2  0E20               	movlw	32
  5659  002CC4  123F               	iorwf	btemp+8,f,c
  5660  002CC6  0E00               	movlw	0
  5661  002CC8  1240               	iorwf	btemp+9,f,c
  5662  002CCA  5041               	movf	btemp+10,w,c
  5663  002CCC  263F               	addwf	btemp+8,f,c
  5664  002CCE  5042               	movf	btemp+11,w,c
  5665  002CD0  2240               	addwfc	btemp+9,f,c
  5666  002CD2  5040               	movf	btemp+9,w,c
  5667  002CD4  E106               	bnz	u4130
  5668  002CD6  0E1A               	movlw	26
  5669  002CD8  5C3F               	subwf	btemp+8,w,c
  5670  002CDA  B0D8               	btfsc	status,0,c
  5671  002CDC  D002               	goto	u4130
  5672  002CDE  0E01               	movlw	1
  5673  002CE0  D001               	goto	u4140
  5674  002CE2                     u4130:
  5675  002CE2  0E00               	movlw	0
  5676  002CE4                     u4140:
  5677  002CE4  6E41               	movwf	btemp+10,c
  5678  002CE6  6A42               	clrf	btemp+11,c
  5679                           
  5680                           ;stkvar	_xtoa$3391 @ sp[(-20)+0]
  5681  002CE8  0EEC               	movlw	-20
  5682  002CEA  0060  F107  FFE3   	movff	btemp+10,plusw1
  5683  002CF0  0EED               	movlw	-19
  5684  002CF2  0060  F10B  FFE3   	movff	btemp+11,plusw1
  5685                           
  5686                           ;stkvar	_xtoa$3391 @ sp[(-20)+0]
  5687  002CF8  0EEC               	movlw	-20
  5688  002CFA  006F FF8C  F037    	movff	plusw1,btemp
  5689  002D00  0EED               	movlw	-19
  5690  002D02  50E3               	movf	plusw1,w,c
  5691  002D04  1037               	iorwf	btemp,w,c
  5692  002D06  B4D8               	btfsc	status,2,c
  5693  002D08  D011               	goto	l6029
  5694                           
  5695                           ;/opt/microchip/xc8/v2.05/pic/sources/c99/common/doprnt.c: 647:             c = toupper(
      +                          c);
  5696                           ;stkvar	_c @ sp[(-20)+12]
  5697  002D0A  0EF8               	movlw	-8
  5698  002D0C  006F FF8F FFE6     	movff	plusw1,postinc1
  5699  002D12  006F FF8F FFE6     	movff	plusw1,postinc1
  5700  002D18  EC45  F025         	call	_toupper	;wreg free
  5701                           
  5702                           ;stkvar	_c @ sp[(-20)+12]
  5703  002D1C  0EF8               	movlw	-8
  5704  002D1E  0060  F0DF  FFE3   	movff	btemp,plusw1
  5705  002D24  0EF9               	movlw	-7
  5706  002D26  0060  F0E3  FFE3   	movff	btemp+1,plusw1
  5707  002D2C                     l6029:
  5708                           
  5709                           ;/opt/microchip/xc8/v2.05/pic/sources/c99/common/doprnt.c: 649:         dbuf[i] = (char)
      +                          c;
  5710                           ;stkvar	_c @ sp[(-20)+12]
  5711                           ;stkvar	_i @ sp[(-20)+14]
  5712  002D2C  0EFA               	movlw	-6
  5713  002D2E  006F FF8C  F041    	movff	plusw1,btemp+10
  5714  002D34  0EFB               	movlw	-5
  5715  002D36  006F FF8C  F042    	movff	plusw1,btemp+11
  5716  002D3C  0EC0               	movlw	low _dbuf
  5717  002D3E  2441               	addwf	btemp+10,w,c
  5718  002D40  6ED9               	movwf	fsr2l,c
  5719  002D42  0E01               	movlw	high _dbuf
  5720  002D44  2042               	addwfc	btemp+11,w,c
  5721  002D46  6EDA               	movwf	fsr2h,c
  5722  002D48  0EF8               	movlw	-8
  5723  002D4A  006F FF8F FFDF     	movff	plusw1,indf2
  5724                           
  5725                           ;/opt/microchip/xc8/v2.05/pic/sources/c99/common/doprnt.c: 650:         --p;
  5726                           ;stkvar	_p @ sp[(-20)+18]
  5727  002D50  50E1               	movf	fsr1l,w,c
  5728  002D52  0FFE               	addlw	-2
  5729  002D54  6ED9               	movwf	fsr2l,c
  5730  002D56  50E2               	movf	fsr1h,w,c
  5731  002D58  6EDA               	movwf	fsr2h,c
  5732  002D5A  0EFF               	movlw	255
  5733  002D5C  22DA               	addwfc	fsr2h,f,c
  5734  002D5E  06DE               	decf	postinc2,f,c
  5735  002D60  0E00               	movlw	0
  5736  002D62  5ADD               	subwfb	postdec2,f,c
  5737                           
  5738                           ;/opt/microchip/xc8/v2.05/pic/sources/c99/common/doprnt.c: 651:         --w;
  5739                           ;stkvar	_w @ sp[(-20)+16]
  5740  002D64  50E1               	movf	fsr1l,w,c
  5741  002D66  0FFC               	addlw	-4
  5742  002D68  6ED9               	movwf	fsr2l,c
  5743  002D6A  50E2               	movf	fsr1h,w,c
  5744  002D6C  6EDA               	movwf	fsr2h,c
  5745  002D6E  0EFF               	movlw	255
  5746  002D70  22DA               	addwfc	fsr2h,f,c
  5747  002D72  06DE               	decf	postinc2,f,c
  5748  002D74  0E00               	movlw	0
  5749  002D76  5ADD               	subwfb	postdec2,f,c
  5750                           
  5751                           ;/opt/microchip/xc8/v2.05/pic/sources/c99/common/doprnt.c: 652:         n = n >> 4;
  5752  002D78  0E04               	movlw	4
  5753  002D7A  6E42               	movwf	btemp+11,c
  5754                           
  5755                           ;stkvar	_n @ sp[(-20)+4]
  5756  002D7C  50E1               	movf	fsr1l,w,c
  5757  002D7E  0FF0               	addlw	-16
  5758  002D80  6ED9               	movwf	fsr2l,c
  5759  002D82  50E2               	movf	fsr1h,w,c
  5760  002D84  6EDA               	movwf	fsr2h,c
  5761  002D86  0EFF               	movlw	255
  5762  002D88  22DA               	addwfc	fsr2h,f,c
  5763  002D8A  2842               	incf	btemp+11,w,c
  5764  002D8C  52DE               	movf	postinc2,f,c
  5765  002D8E  D00F               	goto	u4160
  5766  002D90                     u4165:
  5767  002D90  52DE               	movf	postinc2,f,c
  5768  002D92  52DE               	movf	postinc2,f,c
  5769  002D94  52DE               	movf	postinc2,f,c
  5770  002D96  52DE               	movf	postinc2,f,c
  5771  002D98  52DE               	movf	postinc2,f,c
  5772  002D9A  52DE               	movf	postinc2,f,c
  5773  002D9C  90D8               	bcf	status,0,c
  5774  002D9E  32DD               	rrcf	postdec2,f,c
  5775  002DA0  32DD               	rrcf	postdec2,f,c
  5776  002DA2  32DD               	rrcf	postdec2,f,c
  5777  002DA4  32DD               	rrcf	postdec2,f,c
  5778  002DA6  32DD               	rrcf	postdec2,f,c
  5779  002DA8  32DD               	rrcf	postdec2,f,c
  5780  002DAA  32DD               	rrcf	postdec2,f,c
  5781  002DAC  32DE               	rrcf	postinc2,f,c
  5782  002DAE                     u4160:
  5783  002DAE  2EE8               	decfsz	wreg,f,c
  5784  002DB0  D7EF               	goto	u4165
  5785  002DB2                     l6037:
  5786                           
  5787                           ;/opt/microchip/xc8/v2.05/pic/sources/c99/common/doprnt.c: 642:     while (!(i < 2) && (
      +                          n || (0 < p) || ((0 < w) && (flags & (1 << 1))))) {
  5788                           ;stkvar	_i @ sp[(-20)+14]
  5789  002DB2  0EFB               	movlw	-5
  5790  002DB4  BEE3               	btfsc	plusw1,7,c
  5791  002DB6  D03A               	goto	u4210
  5792  002DB8  0EFB               	movlw	-5
  5793  002DBA  50E3               	movf	plusw1,w,c
  5794  002DBC  E108               	bnz	u4170
  5795  002DBE  0EFA               	movlw	-6
  5796  002DC0  006F FF8C  F037    	movff	plusw1,btemp
  5797  002DC6  0E02               	movlw	2
  5798  002DC8  5E37               	subwf	btemp,f,c
  5799  002DCA  A0D8               	btfss	status,0,c
  5800  002DCC  D02F               	goto	u4210
  5801  002DCE                     u4170:
  5802                           
  5803                           ;stkvar	_n @ sp[(-20)+4]
  5804  002DCE  0EF0               	movlw	-16
  5805  002DD0  50E3               	movf	plusw1,w,c
  5806  002DD2  E115               	bnz	u4181
  5807  002DD4  0EF1               	movlw	-15
  5808  002DD6  50E3               	movf	plusw1,w,c
  5809  002DD8  E112               	bnz	u4181
  5810  002DDA  0EF2               	movlw	-14
  5811  002DDC  50E3               	movf	plusw1,w,c
  5812  002DDE  E10F               	bnz	u4181
  5813  002DE0  0EF3               	movlw	-13
  5814  002DE2  50E3               	movf	plusw1,w,c
  5815  002DE4  E10C               	bnz	u4181
  5816  002DE6  0EF4               	movlw	-12
  5817  002DE8  50E3               	movf	plusw1,w,c
  5818  002DEA  E109               	bnz	u4181
  5819  002DEC  0EF5               	movlw	-11
  5820  002DEE  50E3               	movf	plusw1,w,c
  5821  002DF0  E106               	bnz	u4181
  5822  002DF2  0EF6               	movlw	-10
  5823  002DF4  50E3               	movf	plusw1,w,c
  5824  002DF6  E103               	bnz	u4181
  5825  002DF8  0EF7               	movlw	-9
  5826  002DFA  50E3               	movf	plusw1,w,c
  5827  002DFC  A4D8               	btfss	status,2,c
  5828  002DFE                     u4181:
  5829  002DFE  D6EB               	goto	l6005
  5830                           
  5831                           ;stkvar	_p @ sp[(-20)+18]
  5832  002E00  0EFF               	movlw	-1
  5833  002E02  BEE3               	btfsc	plusw1,7,c
  5834  002E04  D007               	goto	u4190
  5835  002E06  0EFF               	movlw	-1
  5836  002E08  50E3               	movf	plusw1,w,c
  5837  002E0A  E103               	bnz	u4191
  5838  002E0C  0EFE               	movlw	-2
  5839  002E0E  04E3               	decf	plusw1,w,c
  5840  002E10  B0D8               	btfsc	status,0,c
  5841  002E12                     u4191:
  5842  002E12  D6E1               	goto	l6005
  5843  002E14                     u4190:
  5844                           
  5845                           ;stkvar	_w @ sp[(-20)+16]
  5846  002E14  0EFD               	movlw	-3
  5847  002E16  BEE3               	btfsc	plusw1,7,c
  5848  002E18  D009               	goto	u4210
  5849  002E1A  0EFD               	movlw	-3
  5850  002E1C  50E3               	movf	plusw1,w,c
  5851  002E1E  E104               	bnz	u4200
  5852  002E20  0EFC               	movlw	-4
  5853  002E22  04E3               	decf	plusw1,w,c
  5854  002E24  A0D8               	btfss	status,0,c
  5855  002E26  D002               	goto	u4210
  5856  002E28                     u4200:
  5857  002E28  B226               	btfsc	_flags,1,c
  5858  002E2A  D6D5               	goto	l6005
  5859  002E2C                     u4210:
  5860                           
  5861                           ;/opt/microchip/xc8/v2.05/pic/sources/c99/common/doprnt.c: 656:     if (flags & (1 << 4)
      +                          ) {
  5862  002E2C  A826               	btfss	_flags,4,c
  5863  002E2E  D036               	goto	l6053
  5864                           
  5865                           ;/opt/microchip/xc8/v2.05/pic/sources/c99/common/doprnt.c: 657:         --i;
  5866                           ;stkvar	_i @ sp[(-20)+14]
  5867  002E30  50E1               	movf	fsr1l,w,c
  5868  002E32  0FFA               	addlw	-6
  5869  002E34  6ED9               	movwf	fsr2l,c
  5870  002E36  50E2               	movf	fsr1h,w,c
  5871  002E38  6EDA               	movwf	fsr2h,c
  5872  002E3A  0EFF               	movlw	255
  5873  002E3C  22DA               	addwfc	fsr2h,f,c
  5874  002E3E  06DE               	decf	postinc2,f,c
  5875  002E40  0E00               	movlw	0
  5876  002E42  5ADD               	subwfb	postdec2,f,c
  5877                           
  5878                           ;/opt/microchip/xc8/v2.05/pic/sources/c99/common/doprnt.c: 658:         dbuf[i] = x;
  5879                           ;stkvar	_x @ sp[(-20)+-11]
  5880                           ;stkvar	_i @ sp[(-20)+14]
  5881  002E44  0EFA               	movlw	-6
  5882  002E46  006F FF8C  F041    	movff	plusw1,btemp+10
  5883  002E4C  0EFB               	movlw	-5
  5884  002E4E  006F FF8C  F042    	movff	plusw1,btemp+11
  5885  002E54  0EC0               	movlw	low _dbuf
  5886  002E56  2441               	addwf	btemp+10,w,c
  5887  002E58  6ED9               	movwf	fsr2l,c
  5888  002E5A  0E01               	movlw	high _dbuf
  5889  002E5C  2042               	addwfc	btemp+11,w,c
  5890  002E5E  6EDA               	movwf	fsr2h,c
  5891  002E60  0EE1               	movlw	-31
  5892  002E62  006F FF8F FFDF     	movff	plusw1,indf2
  5893                           
  5894                           ;/opt/microchip/xc8/v2.05/pic/sources/c99/common/doprnt.c: 659:         --i;
  5895                           ;stkvar	_i @ sp[(-20)+14]
  5896  002E68  50E1               	movf	fsr1l,w,c
  5897  002E6A  0FFA               	addlw	-6
  5898  002E6C  6ED9               	movwf	fsr2l,c
  5899  002E6E  50E2               	movf	fsr1h,w,c
  5900  002E70  6EDA               	movwf	fsr2h,c
  5901  002E72  0EFF               	movlw	255
  5902  002E74  22DA               	addwfc	fsr2h,f,c
  5903  002E76  06DE               	decf	postinc2,f,c
  5904  002E78  0E00               	movlw	0
  5905  002E7A  5ADD               	subwfb	postdec2,f,c
  5906                           
  5907                           ;/opt/microchip/xc8/v2.05/pic/sources/c99/common/doprnt.c: 660:         dbuf[i] = '0';
  5908                           ;stkvar	_i @ sp[(-20)+14]
  5909  002E7C  0EFA               	movlw	-6
  5910  002E7E  006F FF8C  F041    	movff	plusw1,btemp+10
  5911  002E84  0EFB               	movlw	-5
  5912  002E86  006F FF8C  F042    	movff	plusw1,btemp+11
  5913  002E8C  0EC0               	movlw	low _dbuf
  5914  002E8E  2441               	addwf	btemp+10,w,c
  5915  002E90  6ED9               	movwf	fsr2l,c
  5916  002E92  0E01               	movlw	high _dbuf
  5917  002E94  2042               	addwfc	btemp+11,w,c
  5918  002E96  6EDA               	movwf	fsr2h,c
  5919  002E98  0E30               	movlw	48
  5920  002E9A  6EDF               	movwf	indf2,c
  5921  002E9C                     l6053:
  5922                           
  5923                           ;/opt/microchip/xc8/v2.05/pic/sources/c99/common/doprnt.c: 664:     return pad(fp, &dbuf
      +                          [i], w);
  5924                           ;stkvar	_w @ sp[(-20)+16]
  5925  002E9C  0EFC               	movlw	-4
  5926  002E9E  006F FF8F FFE6     	movff	plusw1,postinc1
  5927  002EA4  006F FF8F FFE6     	movff	plusw1,postinc1
  5928                           
  5929                           ;stkvar	_i @ sp[(-22)+14]
  5930  002EAA  0EC0               	movlw	low _dbuf
  5931  002EAC  6E41               	movwf	btemp+10,c
  5932  002EAE  0E01               	movlw	high _dbuf
  5933  002EB0  6E42               	movwf	btemp+11,c
  5934  002EB2  0EF8               	movlw	-8
  5935  002EB4  50E3               	movf	plusw1,w,c
  5936  002EB6  2641               	addwf	btemp+10,f,c
  5937  002EB8  0EF9               	movlw	-7
  5938  002EBA  50E3               	movf	plusw1,w,c
  5939  002EBC  2242               	addwfc	btemp+11,f,c
  5940  002EBE  0060  F107  FFE6   	movff	btemp+10,postinc1
  5941  002EC4  0060  F10B  FFE6   	movff	btemp+11,postinc1
  5942                           
  5943                           ;stkvar	_fp @ sp[(-24)+-2]
  5944  002ECA  0EE6               	movlw	-26
  5945  002ECC  006F FF8F FFE6     	movff	plusw1,postinc1
  5946  002ED2  006F FF8F FFE6     	movff	plusw1,postinc1
  5947  002ED8  ECE6  F020         	call	_pad	;wreg free
  5948                           
  5949                           ; _xtoa: autosize = 20, savesize = 0, parsavesize = 0, tempsize = 0 parsize = 11, argsiz
      +                          e = 11, vargsize = 0
  5950  002EDC  0EE1               	movlw	225
  5951  002EDE  26E1               	addwf	fsr1l,f,c
  5952  002EE0  0EFF               	movlw	255
  5953  002EE2  22E2               	addwfc	fsr1h,f,c
  5954  002EE4  0012               	return		;funcret
  5955  002EE6                     __end_of_xtoa:
  5956                           	opt callstack 0
  5957                           
  5958 ;; *************** function _toupper *****************
  5959 ;; Defined at:
  5960 ;;		line 4 in file "/opt/microchip/xc8/v2.05/pic/sources/c99/common/toupper.c"
  5961 ;; Parameters:    Size  Location     Type
  5962 ;;  c               2  [STACK] int 
  5963 ;; Auto vars:     Size  Location     Type
  5964 ;;		None
  5965 ;; Return value:  Size  Location     Type
  5966 ;;                  2  [STACK] int 
  5967 ;; Registers used:
  5968 ;;		wreg, fsr1l, fsr1h, status,2, status,0, btemp, btemp+1, btemp+10, btemp+11, prodl
  5969 ;; Tracked objects:
  5970 ;;		On entry : 0/1
  5971 ;;		On exit  : 0/0
  5972 ;;		Unchanged: 0/0
  5973 ;; Data sizes:     COMRAM   BANK0   BANK1   BANK2   BANK3   BANK4   BANK5   BANK6   BANK7   BANK8   BANK9  BANK10  BANK1
      +1  BANK12  BANK13  BANK14  BANK15  BANK16  BANK17  BANK18  BANK19  BANK20  BANK21  BANK22  BANK23  BANK24  BANK25  BANK2
      +6  BANK27  BANK28  BANK29  BANK30  BANK31
  5974 ;;      Params:         0       0       0       0       0       0       0       0       0       0       0       0       
      +0       0       0       0       0       0       0       0       0       0       0       0       0       0       0       
      +0       0       0       0       0       0
  5975 ;;      Locals:         0       0       0       0       0       0       0       0       0       0       0       0       
      +0       0       0       0       0       0       0       0       0       0       0       0       0       0       0       
      +0       0       0       0       0       0
  5976 ;;      Temps:          0       0       0       0       0       0       0       0       0       0       0       0       
      +0       0       0       0       0       0       0       0       0       0       0       0       0       0       0       
      +0       0       0       0       0       0
  5977 ;;      Totals:         0       0       0       0       0       0       0       0       0       0       0       0       
      +0       0       0       0       0       0       0       0       0       0       0       0       0       0       0       
      +0       0       0       0       0       0
  5978 ;;Total ram usage:        0 bytes
  5979 ;; Hardware stack levels used:    1
  5980 ;; Hardware stack levels required when called:    4
  5981 ;; This function calls:
  5982 ;;		_islower
  5983 ;; This function is called by:
  5984 ;;		_xtoa
  5985 ;; This function uses a reentrant model
  5986 ;;
  5987                           
  5988                           	psect	text27
  5989  004A8A                     __ptext27:
  5990                           	opt callstack 0
  5991  004A8A                     _toupper:
  5992                           	opt callstack 0
  5993                           
  5994                           ; autosize = 2, savesize = 0, parsavesize = 0, tempsize = 0 parsize = 2, argsize = 2 var
      +                          gsize = 0, retsize = 0 argfudge = 0
  5995  004A8A  52E6               	movf	postinc1,f,c
  5996  004A8C  52E6               	movf	postinc1,f,c
  5997                           
  5998                           ;stkvar	_c @ sp[(-2)+-2]
  5999                           
  6000                           ;incstack = 0
  6001  004A8E  0EFC               	movlw	-4
  6002  004A90  50E3               	movf	plusw1,w,c
  6003  004A92  0F9F               	addlw	159
  6004  004A94  6E41               	movwf	btemp+10,c
  6005  004A96  0EFD               	movlw	-3
  6006  004A98  006F FF8C  F042    	movff	plusw1,btemp+11
  6007  004A9E  0EFF               	movlw	255
  6008  004AA0  2242               	addwfc	btemp+11,f,c
  6009  004AA2  5042               	movf	btemp+11,w,c
  6010  004AA4  E106               	bnz	u2070
  6011  004AA6  0E1A               	movlw	26
  6012  004AA8  5C41               	subwf	btemp+10,w,c
  6013  004AAA  B0D8               	btfsc	status,0,c
  6014  004AAC  D002               	goto	u2070
  6015  004AAE  0E01               	movlw	1
  6016  004AB0  D001               	goto	u2080
  6017  004AB2                     u2070:
  6018  004AB2  0E00               	movlw	0
  6019  004AB4                     u2080:
  6020  004AB4  6E41               	movwf	btemp+10,c
  6021  004AB6  6A42               	clrf	btemp+11,c
  6022                           
  6023                           ;stkvar	_toupper$3979 @ sp[(-2)+0]
  6024  004AB8  0EFE               	movlw	-2
  6025  004ABA  0060  F107  FFE3   	movff	btemp+10,plusw1
  6026  004AC0  0EFF               	movlw	-1
  6027  004AC2  0060  F10B  FFE3   	movff	btemp+11,plusw1
  6028                           
  6029                           ;stkvar	_toupper$3979 @ sp[(-2)+0]
  6030  004AC8  0EFE               	movlw	-2
  6031  004ACA  006F FF8C  F037    	movff	plusw1,btemp
  6032  004AD0  0EFF               	movlw	-1
  6033  004AD2  50E3               	movf	plusw1,w,c
  6034  004AD4  1037               	iorwf	btemp,w,c
  6035  004AD6  B4D8               	btfsc	status,2,c
  6036  004AD8  D00D               	goto	l4225
  6037                           
  6038                           ;stkvar	_c @ sp[(-2)+-2]
  6039  004ADA  0EFC               	movlw	-4
  6040  004ADC  006F FF8C  F037    	movff	plusw1,btemp
  6041  004AE2  0EFD               	movlw	-3
  6042  004AE4  006F FF8C  F038    	movff	plusw1,btemp+1
  6043  004AEA  0E5F               	movlw	95
  6044  004AEC  1637               	andwf	btemp,f,c
  6045  004AEE  0E00               	movlw	0
  6046  004AF0  1638               	andwf	btemp+1,f,c
  6047  004AF2  D008               	goto	l2394
  6048  004AF4                     l4225:
  6049                           
  6050                           ;stkvar	_c @ sp[(-2)+-2]
  6051  004AF4  0EFC               	movlw	-4
  6052  004AF6  006F FF8C  F037    	movff	plusw1,btemp
  6053  004AFC  0EFD               	movlw	-3
  6054  004AFE  006F FF8C  F038    	movff	plusw1,btemp+1
  6055  004B04                     l2394:
  6056                           
  6057                           ; _toupper: autosize = 2, savesize = 0, parsavesize = 0, tempsize = 0 parsize = 2, argsi
      +                          ze = 2, vargsize = 0
  6058  004B04  52E5               	movf	postdec1,f,c
  6059  004B06  52E5               	movf	postdec1,f,c
  6060  004B08  52E5               	movf	postdec1,f,c
  6061  004B0A  52E5               	movf	postdec1,f,c
  6062  004B0C  0012               	return		;funcret
  6063  004B0E                     __end_of_toupper:
  6064                           	opt callstack 0
  6065                           
  6066 ;; *************** function _islower *****************
  6067 ;; Defined at:
  6068 ;;		line 5 in file "/opt/microchip/xc8/v2.05/pic/sources/c99/common/islower.c"
  6069 ;; Parameters:    Size  Location     Type
  6070 ;;  c               2  [STACK] int 
  6071 ;; Auto vars:     Size  Location     Type
  6072 ;;		None
  6073 ;; Return value:  Size  Location     Type
  6074 ;;                  2  [STACK] int 
  6075 ;; Registers used:
  6076 ;;		wreg, fsr1l, fsr1h, status,2, status,0, btemp, btemp+1, btemp+10, btemp+11
  6077 ;; Tracked objects:
  6078 ;;		On entry : 0/0
  6079 ;;		On exit  : 0/0
  6080 ;;		Unchanged: 0/0
  6081 ;; Data sizes:     COMRAM   BANK0   BANK1   BANK2   BANK3   BANK4   BANK5   BANK6   BANK7   BANK8   BANK9  BANK10  BANK1
      +1  BANK12  BANK13  BANK14  BANK15  BANK16  BANK17  BANK18  BANK19  BANK20  BANK21  BANK22  BANK23  BANK24  BANK25  BANK2
      +6  BANK27  BANK28  BANK29  BANK30  BANK31
  6082 ;;      Params:         0       0       0       0       0       0       0       0       0       0       0       0       
      +0       0       0       0       0       0       0       0       0       0       0       0       0       0       0       
      +0       0       0       0       0       0
  6083 ;;      Locals:         0       0       0       0       0       0       0       0       0       0       0       0       
      +0       0       0       0       0       0       0       0       0       0       0       0       0       0       0       
      +0       0       0       0       0       0
  6084 ;;      Temps:          0       0       0       0       0       0       0       0       0       0       0       0       
      +0       0       0       0       0       0       0       0       0       0       0       0       0       0       0       
      +0       0       0       0       0       0
  6085 ;;      Totals:         0       0       0       0       0       0       0       0       0       0       0       0       
      +0       0       0       0       0       0       0       0       0       0       0       0       0       0       0       
      +0       0       0       0       0       0
  6086 ;;Total ram usage:        0 bytes
  6087 ;; Hardware stack levels used:    1
  6088 ;; Hardware stack levels required when called:    3
  6089 ;; This function calls:
  6090 ;;		Nothing
  6091 ;; This function is called by:
  6092 ;;		_toupper
  6093 ;; This function uses a reentrant model
  6094 ;;
  6095                           
  6096                           	psect	text28
  6097  0050A4                     __ptext28:
  6098                           	opt callstack 0
  6099  0050A4                     _islower:
  6100                           	opt callstack 22
  6101                           
  6102                           ;stkvar	_c @ sp[(0)+-2]
  6103                           
  6104                           ; autosize = 0, savesize = 0, parsavesize = 0, tempsize = 0 parsize = 2, argsize = 2 var
      +                          gsize = 0, retsize = 0 argfudge = 0
  6105                           ;incstack = 0
  6106  0050A4  0EFE               	movlw	-2
  6107  0050A6  50E3               	movf	plusw1,w,c
  6108  0050A8  0F9F               	addlw	159
  6109  0050AA  6E41               	movwf	btemp+10,c
  6110  0050AC  0EFF               	movlw	-1
  6111  0050AE  006F FF8C  F042    	movff	plusw1,btemp+11
  6112  0050B4  0EFF               	movlw	255
  6113  0050B6  2242               	addwfc	btemp+11,f,c
  6114  0050B8  5042               	movf	btemp+11,w,c
  6115  0050BA  E106               	bnz	u1960
  6116  0050BC  0E1A               	movlw	26
  6117  0050BE  5C41               	subwf	btemp+10,w,c
  6118  0050C0  B0D8               	btfsc	status,0,c
  6119  0050C2  D002               	goto	u1960
  6120  0050C4  0E01               	movlw	1
  6121  0050C6  D001               	goto	u1970
  6122  0050C8                     u1960:
  6123  0050C8  0E00               	movlw	0
  6124  0050CA                     u1970:
  6125  0050CA  6E37               	movwf	btemp,c
  6126  0050CC  6A38               	clrf	btemp+1,c
  6127                           
  6128                           ; _islower: autosize = 0, savesize = 0, parsavesize = 0, tempsize = 0 parsize = 2, argsi
      +                          ze = 2, vargsize = 0
  6129  0050CE  52E5               	movf	postdec1,f,c
  6130  0050D0  52E5               	movf	postdec1,f,c
  6131  0050D2  0012               	return		;funcret
  6132  0050D4                     __end_of_islower:
  6133                           	opt callstack 0
  6134                           
  6135 ;; *************** function _isupper *****************
  6136 ;; Defined at:
  6137 ;;		line 5 in file "/opt/microchip/xc8/v2.05/pic/sources/c99/common/isupper.c"
  6138 ;; Parameters:    Size  Location     Type
  6139 ;;  c               2  [STACK] int 
  6140 ;; Auto vars:     Size  Location     Type
  6141 ;;		None
  6142 ;; Return value:  Size  Location     Type
  6143 ;;                  2  [STACK] int 
  6144 ;; Registers used:
  6145 ;;		wreg, fsr1l, fsr1h, status,2, status,0, btemp, btemp+1, btemp+10, btemp+11
  6146 ;; Tracked objects:
  6147 ;;		On entry : 0/0
  6148 ;;		On exit  : 0/0
  6149 ;;		Unchanged: 0/0
  6150 ;; Data sizes:     COMRAM   BANK0   BANK1   BANK2   BANK3   BANK4   BANK5   BANK6   BANK7   BANK8   BANK9  BANK10  BANK1
      +1  BANK12  BANK13  BANK14  BANK15  BANK16  BANK17  BANK18  BANK19  BANK20  BANK21  BANK22  BANK23  BANK24  BANK25  BANK2
      +6  BANK27  BANK28  BANK29  BANK30  BANK31
  6151 ;;      Params:         0       0       0       0       0       0       0       0       0       0       0       0       
      +0       0       0       0       0       0       0       0       0       0       0       0       0       0       0       
      +0       0       0       0       0       0
  6152 ;;      Locals:         0       0       0       0       0       0       0       0       0       0       0       0       
      +0       0       0       0       0       0       0       0       0       0       0       0       0       0       0       
      +0       0       0       0       0       0
  6153 ;;      Temps:          0       0       0       0       0       0       0       0       0       0       0       0       
      +0       0       0       0       0       0       0       0       0       0       0       0       0       0       0       
      +0       0       0       0       0       0
  6154 ;;      Totals:         0       0       0       0       0       0       0       0       0       0       0       0       
      +0       0       0       0       0       0       0       0       0       0       0       0       0       0       0       
      +0       0       0       0       0       0
  6155 ;;Total ram usage:        0 bytes
  6156 ;; Hardware stack levels used:    1
  6157 ;; Hardware stack levels required when called:    3
  6158 ;; This function calls:
  6159 ;;		Nothing
  6160 ;; This function is called by:
  6161 ;;		_xtoa
  6162 ;; This function uses a reentrant model
  6163 ;;
  6164                           
  6165                           	psect	text29
  6166  0050D4                     __ptext29:
  6167                           	opt callstack 0
  6168  0050D4                     _isupper:
  6169                           	opt callstack 23
  6170                           
  6171                           ;stkvar	_c @ sp[(0)+-2]
  6172                           
  6173                           ; autosize = 0, savesize = 0, parsavesize = 0, tempsize = 0 parsize = 2, argsize = 2 var
      +                          gsize = 0, retsize = 0 argfudge = 0
  6174                           ;incstack = 0
  6175  0050D4  0EFE               	movlw	-2
  6176  0050D6  50E3               	movf	plusw1,w,c
  6177  0050D8  0FBF               	addlw	191
  6178  0050DA  6E41               	movwf	btemp+10,c
  6179  0050DC  0EFF               	movlw	-1
  6180  0050DE  006F FF8C  F042    	movff	plusw1,btemp+11
  6181  0050E4  0EFF               	movlw	255
  6182  0050E6  2242               	addwfc	btemp+11,f,c
  6183  0050E8  5042               	movf	btemp+11,w,c
  6184  0050EA  E106               	bnz	u2030
  6185  0050EC  0E1A               	movlw	26
  6186  0050EE  5C41               	subwf	btemp+10,w,c
  6187  0050F0  B0D8               	btfsc	status,0,c
  6188  0050F2  D002               	goto	u2030
  6189  0050F4  0E01               	movlw	1
  6190  0050F6  D001               	goto	u2040
  6191  0050F8                     u2030:
  6192  0050F8  0E00               	movlw	0
  6193  0050FA                     u2040:
  6194  0050FA  6E37               	movwf	btemp,c
  6195  0050FC  6A38               	clrf	btemp+1,c
  6196                           
  6197                           ; _isupper: autosize = 0, savesize = 0, parsavesize = 0, tempsize = 0 parsize = 2, argsi
      +                          ze = 2, vargsize = 0
  6198  0050FE  52E5               	movf	postdec1,f,c
  6199  005100  52E5               	movf	postdec1,f,c
  6200  005102  0012               	return		;funcret
  6201  005104                     __end_of_isupper:
  6202                           	opt callstack 0
  6203                           
  6204 ;; *************** function _isalpha *****************
  6205 ;; Defined at:
  6206 ;;		line 5 in file "/opt/microchip/xc8/v2.05/pic/sources/c99/common/isalpha.c"
  6207 ;; Parameters:    Size  Location     Type
  6208 ;;  c               2  [STACK] int 
  6209 ;; Auto vars:     Size  Location     Type
  6210 ;;		None
  6211 ;; Return value:  Size  Location     Type
  6212 ;;                  2  [STACK] int 
  6213 ;; Registers used:
  6214 ;;		wreg, fsr1l, fsr1h, status,2, status,0, btemp, btemp+1, btemp+8, btemp+9, btemp+10, btemp+11
  6215 ;; Tracked objects:
  6216 ;;		On entry : 0/0
  6217 ;;		On exit  : 0/0
  6218 ;;		Unchanged: 0/0
  6219 ;; Data sizes:     COMRAM   BANK0   BANK1   BANK2   BANK3   BANK4   BANK5   BANK6   BANK7   BANK8   BANK9  BANK10  BANK1
      +1  BANK12  BANK13  BANK14  BANK15  BANK16  BANK17  BANK18  BANK19  BANK20  BANK21  BANK22  BANK23  BANK24  BANK25  BANK2
      +6  BANK27  BANK28  BANK29  BANK30  BANK31
  6220 ;;      Params:         0       0       0       0       0       0       0       0       0       0       0       0       
      +0       0       0       0       0       0       0       0       0       0       0       0       0       0       0       
      +0       0       0       0       0       0
  6221 ;;      Locals:         0       0       0       0       0       0       0       0       0       0       0       0       
      +0       0       0       0       0       0       0       0       0       0       0       0       0       0       0       
      +0       0       0       0       0       0
  6222 ;;      Temps:          0       0       0       0       0       0       0       0       0       0       0       0       
      +0       0       0       0       0       0       0       0       0       0       0       0       0       0       0       
      +0       0       0       0       0       0
  6223 ;;      Totals:         0       0       0       0       0       0       0       0       0       0       0       0       
      +0       0       0       0       0       0       0       0       0       0       0       0       0       0       0       
      +0       0       0       0       0       0
  6224 ;;Total ram usage:        0 bytes
  6225 ;; Hardware stack levels used:    1
  6226 ;; Hardware stack levels required when called:    3
  6227 ;; This function calls:
  6228 ;;		Nothing
  6229 ;; This function is called by:
  6230 ;;		_xtoa
  6231 ;; This function uses a reentrant model
  6232 ;;
  6233                           
  6234                           	psect	text30
  6235  004F6A                     __ptext30:
  6236                           	opt callstack 0
  6237  004F6A                     _isalpha:
  6238                           	opt callstack 23
  6239                           
  6240                           ; autosize = 0, savesize = 0, parsavesize = 0, tempsize = 0 parsize = 2, argsize = 2 var
      +                          gsize = 0, retsize = 0 argfudge = 0
  6241                           ;incstack = 0
  6242  004F6A  0E9F               	movlw	159
  6243  004F6C  6E41               	movwf	btemp+10,c
  6244  004F6E  0EFF               	movlw	255
  6245  004F70  6E42               	movwf	btemp+11,c
  6246                           
  6247                           ;stkvar	_c @ sp[(0)+-2]
  6248  004F72  0EFE               	movlw	-2
  6249  004F74  006F FF8C  F03F    	movff	plusw1,btemp+8
  6250  004F7A  0EFF               	movlw	-1
  6251  004F7C  006F FF8C  F040    	movff	plusw1,btemp+9
  6252  004F82  0E20               	movlw	32
  6253  004F84  123F               	iorwf	btemp+8,f,c
  6254  004F86  0E00               	movlw	0
  6255  004F88  1240               	iorwf	btemp+9,f,c
  6256  004F8A  5041               	movf	btemp+10,w,c
  6257  004F8C  263F               	addwf	btemp+8,f,c
  6258  004F8E  5042               	movf	btemp+11,w,c
  6259  004F90  2240               	addwfc	btemp+9,f,c
  6260  004F92  5040               	movf	btemp+9,w,c
  6261  004F94  E106               	bnz	u2050
  6262  004F96  0E1A               	movlw	26
  6263  004F98  5C3F               	subwf	btemp+8,w,c
  6264  004F9A  B0D8               	btfsc	status,0,c
  6265  004F9C  D002               	goto	u2050
  6266  004F9E  0E01               	movlw	1
  6267  004FA0  D001               	goto	u2060
  6268  004FA2                     u2050:
  6269  004FA2  0E00               	movlw	0
  6270  004FA4                     u2060:
  6271  004FA4  6E37               	movwf	btemp,c
  6272  004FA6  6A38               	clrf	btemp+1,c
  6273                           
  6274                           ; _isalpha: autosize = 0, savesize = 0, parsavesize = 0, tempsize = 0 parsize = 2, argsi
      +                          ze = 2, vargsize = 0
  6275  004FA8  52E5               	movf	postdec1,f,c
  6276  004FAA  52E5               	movf	postdec1,f,c
  6277  004FAC  0012               	return		;funcret
  6278  004FAE                     __end_of_isalpha:
  6279                           	opt callstack 0
  6280                           
  6281 ;; *************** function _stoa *****************
  6282 ;; Defined at:
  6283 ;;		line 546 in file "/opt/microchip/xc8/v2.05/pic/sources/c99/common/doprnt.c"
  6284 ;; Parameters:    Size  Location     Type
  6285 ;;  fp              2  [STACK] PTR struct _IO_FILE
  6286 ;;		 -> f(5), NULL(0), 
  6287 ;;  s               2  [STACK] PTR unsigned char 
  6288 ;;		 -> ?_printf(2), ?_sprintf(2), V(79), 
  6289 ;; Auto vars:     Size  Location     Type
  6290 ;;  nuls            7  [STACK] unsigned char [7]
  6291 ;;  l               2  [STACK] int 
  6292 ;;  p               2  [STACK] int 
  6293 ;;  cp              2  [STACK] PTR unsigned char 
  6294 ;;		 -> ?_printf(2), ?_sprintf(2), nuls(7), V(79), 
  6295 ;;  w               2  [STACK] int 
  6296 ;;  i               2  [STACK] int 
  6297 ;; Return value:  Size  Location     Type
  6298 ;;                  2  [STACK] int 
  6299 ;; Registers used:
  6300 ;;		wreg, fsr0l, fsr0h, fsr1l, fsr1h, fsr2l, fsr2h, status,2, status,0, btemp, btemp+1, btemp+8, btemp+9, btemp+10, btem
      +p+11, prodl
  6301 ;; Tracked objects:
  6302 ;;		On entry : 0/3D
  6303 ;;		On exit  : 0/0
  6304 ;;		Unchanged: 0/0
  6305 ;; Data sizes:     COMRAM   BANK0   BANK1   BANK2   BANK3   BANK4   BANK5   BANK6   BANK7   BANK8   BANK9  BANK10  BANK1
      +1  BANK12  BANK13  BANK14  BANK15  BANK16  BANK17  BANK18  BANK19  BANK20  BANK21  BANK22  BANK23  BANK24  BANK25  BANK2
      +6  BANK27  BANK28  BANK29  BANK30  BANK31
  6306 ;;      Params:         0       0       0       0       0       0       0       0       0       0       0       0       
      +0       0       0       0       0       0       0       0       0       0       0       0       0       0       0       
      +0       0       0       0       0       0
  6307 ;;      Locals:         0       0       0       0       0       0       0       0       0       0       0       0       
      +0       0       0       0       0       0       0       0       0       0       0       0       0       0       0       
      +0       0       0       0       0       0
  6308 ;;      Temps:          0       0       0       0       0       0       0       0       0       0       0       0       
      +0       0       0       0       0       0       0       0       0       0       0       0       0       0       0       
      +0       0       0       0       0       0
  6309 ;;      Totals:         0       0       0       0       0       0       0       0       0       0       0       0       
      +0       0       0       0       0       0       0       0       0       0       0       0       0       0       0       
      +0       0       0       0       0       0
  6310 ;;Total ram usage:        0 bytes
  6311 ;; Hardware stack levels used:    1
  6312 ;; Hardware stack levels required when called:    6
  6313 ;; This function calls:
  6314 ;;		_fputc
  6315 ;;		_strlen
  6316 ;; This function is called by:
  6317 ;;		_vfpfcnvrt
  6318 ;; This function uses a reentrant model
  6319 ;;
  6320                           
  6321                           	psect	text31
  6322  0034B4                     __ptext31:
  6323                           	opt callstack 0
  6324  0034B4                     _stoa:
  6325                           	opt callstack 0
  6326                           
  6327                           ; autosize = 17, savesize = 0, parsavesize = 0, tempsize = 0 parsize = 4, argsize = 4 va
      +                          rgsize = 0, retsize = 0 argfudge = 0
  6328  0034B4  0E11               	movlw	17
  6329  0034B6  26E1               	addwf	fsr1l,f,c
  6330  0034B8  0E00               	movlw	0
  6331  0034BA  22E2               	addwfc	fsr1h,f,c
  6332                           
  6333                           ;/opt/microchip/xc8/v2.05/pic/sources/c99/common/doprnt.c: 546: static int stoa(FILE *fp
      +                          , char *s);/opt/microchip/xc8/v2.05/pic/sources/c99/common/doprnt.c: 547: {;/opt/microch
      +                          ip/xc8/v2.05/pic/sources/c99/common/doprnt.c: 548:     char *cp, nuls[] = "(null)";
  6334                           
  6335                           ;incstack = 0
  6336  0034BC  EE20  F057         	lfsr	2,stoa@F1139
  6337                           
  6338                           ;stkvar	_nuls @ sp[(-17)+0]
  6339  0034C0  0E07               	movlw	7
  6340  0034C2  6E37               	movwf	btemp,c
  6341  0034C4  0EEF               	movlw	-17
  6342  0034C6                     us396999:
  6343  0034C6  006F FF7B FFE3     	movff	postinc2,plusw1
  6344  0034CC  28E8               	incf	wreg,w,c
  6345  0034CE  2E37               	decfsz	btemp,f,c
  6346  0034D0  D7FA               	bra	us396999
  6347                           
  6348                           ;/opt/microchip/xc8/v2.05/pic/sources/c99/common/doprnt.c: 549:     int i, l, p, w;;/opt
      +                          /microchip/xc8/v2.05/pic/sources/c99/common/doprnt.c: 552:     cp = s;
  6349                           ;stkvar	_s @ sp[(-17)+-4]
  6350  0034D2  0EEB               	movlw	-21
  6351  0034D4  006F FF8C  F041    	movff	plusw1,btemp+10
  6352  0034DA  0EEC               	movlw	-20
  6353  0034DC  006F FF8C  F042    	movff	plusw1,btemp+11
  6354                           
  6355                           ;stkvar	_cp @ sp[(-17)+11]
  6356  0034E2  0EFB               	movlw	-5
  6357  0034E4  0060  F10B  FFE3   	movff	btemp+11,plusw1
  6358  0034EA  0EFA               	movlw	-6
  6359  0034EC  0060  F107  FFE3   	movff	btemp+10,plusw1
  6360                           
  6361                           ;/opt/microchip/xc8/v2.05/pic/sources/c99/common/doprnt.c: 553:     if (!cp) {
  6362                           ;stkvar	_cp @ sp[(-17)+11]
  6363  0034F2  0EFA               	movlw	-6
  6364  0034F4  006F FF8C  F037    	movff	plusw1,btemp
  6365  0034FA  0EFB               	movlw	-5
  6366  0034FC  50E3               	movf	plusw1,w,c
  6367  0034FE  1037               	iorwf	btemp,w,c
  6368  003500  A4D8               	btfss	status,2,c
  6369  003502  D00E               	goto	l5941
  6370                           
  6371                           ;/opt/microchip/xc8/v2.05/pic/sources/c99/common/doprnt.c: 554:         cp = nuls;
  6372                           ;stkvar	_nuls @ sp[(-17)+0]
  6373  003504  0EEF               	movlw	239
  6374  003506  24E1               	addwf	fsr1l,w,c
  6375  003508  6E41               	movwf	btemp+10,c
  6376  00350A  0EFF               	movlw	255
  6377  00350C  20E2               	addwfc	fsr1h,w,c
  6378  00350E  6E42               	movwf	btemp+11,c
  6379                           
  6380                           ;stkvar	_cp @ sp[(-17)+11]
  6381  003510  0EFB               	movlw	-5
  6382  003512  0060  F10B  FFE3   	movff	btemp+11,plusw1
  6383  003518  0EFA               	movlw	-6
  6384  00351A  0060  F107  FFE3   	movff	btemp+10,plusw1
  6385  003520                     l5941:
  6386                           
  6387                           ;/opt/microchip/xc8/v2.05/pic/sources/c99/common/doprnt.c: 558:     l = strlen(cp);
  6388                           ;stkvar	_cp @ sp[(-17)+11]
  6389  003520  0EFA               	movlw	-6
  6390  003522  006F FF8F FFE6     	movff	plusw1,postinc1
  6391  003528  006F FF8F FFE6     	movff	plusw1,postinc1
  6392  00352E  EC87  F025         	call	_strlen	;wreg free
  6393                           
  6394                           ;stkvar	_l @ sp[(-17)+7]
  6395  003532  0EF6               	movlw	-10
  6396  003534  0060  F0DF  FFE3   	movff	btemp,plusw1
  6397  00353A  0EF7               	movlw	-9
  6398  00353C  0060  F0E3  FFE3   	movff	btemp+1,plusw1
  6399                           
  6400                           ;/opt/microchip/xc8/v2.05/pic/sources/c99/common/doprnt.c: 559:     p = prec;
  6401                           ;stkvar	_p @ sp[(-17)+9]
  6402  003542  0EF8               	movlw	-8
  6403  003544  0060  F093  FFE3   	movff	_prec,plusw1
  6404  00354A  0EF9               	movlw	-7
  6405  00354C  0060  F097  FFE3   	movff	_prec+1,plusw1
  6406                           
  6407                           ;/opt/microchip/xc8/v2.05/pic/sources/c99/common/doprnt.c: 560:     l = (!(p < 0) && (p 
      +                          < l)) ? p : l;
  6408                           ;stkvar	_p @ sp[(-17)+9]
  6409  003552  0EF9               	movlw	-7
  6410  003554  BEE3               	btfsc	plusw1,7,c
  6411  003556  D023               	goto	l1512
  6412                           
  6413                           ;stkvar	_l @ sp[(-17)+7]
  6414                           ;stkvar	_p @ sp[(-17)+9]
  6415  003558  50E1               	movf	fsr1l,w,c
  6416  00355A  0FF8               	addlw	-8
  6417  00355C  6ED9               	movwf	fsr2l,c
  6418  00355E  50E2               	movf	fsr1h,w,c
  6419  003560  6EDA               	movwf	fsr2h,c
  6420  003562  0EFF               	movlw	255
  6421  003564  22DA               	addwfc	fsr2h,f,c
  6422  003566  0EF6               	movlw	-10
  6423  003568  50E3               	movf	plusw1,w,c
  6424  00356A  5CDE               	subwf	postinc2,w,c
  6425  00356C  50DE               	movf	postinc2,w,c
  6426  00356E  0A80               	xorlw	128
  6427  003570  6E37               	movwf	btemp,c
  6428  003572  0EF7               	movlw	-9
  6429  003574  50E3               	movf	plusw1,w,c
  6430  003576  0A80               	xorlw	128
  6431  003578  5837               	subwfb	btemp,w,c
  6432  00357A  B0D8               	btfsc	status,0,c
  6433  00357C  D010               	goto	l1512
  6434                           
  6435                           ;stkvar	_p @ sp[(-17)+9]
  6436                           ;stkvar	_l @ sp[(-17)+7]
  6437  00357E  0EF8               	movlw	-8
  6438  003580  006F FF8C  F037    	movff	plusw1,btemp
  6439  003586  0EF6               	movlw	-10
  6440  003588  0060  F0DF  FFE3   	movff	btemp,plusw1
  6441  00358E  0EF9               	movlw	-7
  6442  003590  006F FF8C  F037    	movff	plusw1,btemp
  6443  003596  0EF7               	movlw	-9
  6444  003598  0060  F0DF  FFE3   	movff	btemp,plusw1
  6445  00359E                     l1512:
  6446                           
  6447                           ;/opt/microchip/xc8/v2.05/pic/sources/c99/common/doprnt.c: 561:     p = l;
  6448                           ;stkvar	_l @ sp[(-17)+7]
  6449                           ;stkvar	_p @ sp[(-17)+9]
  6450  00359E  0EF6               	movlw	-10
  6451  0035A0  006F FF8C  F037    	movff	plusw1,btemp
  6452  0035A6  0EF8               	movlw	-8
  6453  0035A8  0060  F0DF  FFE3   	movff	btemp,plusw1
  6454  0035AE  0EF7               	movlw	-9
  6455  0035B0  006F FF8C  F037    	movff	plusw1,btemp
  6456  0035B6  0EF9               	movlw	-7
  6457  0035B8  0060  F0DF  FFE3   	movff	btemp,plusw1
  6458                           
  6459                           ;/opt/microchip/xc8/v2.05/pic/sources/c99/common/doprnt.c: 562:     w = width;
  6460                           ;stkvar	_w @ sp[(-17)+13]
  6461  0035BE  0EFC               	movlw	-4
  6462  0035C0  0060  F08B  FFE3   	movff	_width,plusw1
  6463  0035C6  0EFD               	movlw	-3
  6464  0035C8  0060  F08F  FFE3   	movff	_width+1,plusw1
  6465                           
  6466                           ;/opt/microchip/xc8/v2.05/pic/sources/c99/common/doprnt.c: 565:     if (!(flags & (1 << 
      +                          0))) {
  6467  0035CE  A026               	btfss	_flags,0,c
  6468  0035D0  D01F               	goto	l5961
  6469  0035D2  D031               	goto	u4010
  6470  0035D4                     l5957:
  6471                           
  6472                           ;/opt/microchip/xc8/v2.05/pic/sources/c99/common/doprnt.c: 567:             fputc(' ', f
      +                          p);
  6473                           ;stkvar	_fp @ sp[(-17)+-2]
  6474  0035D4  0EED               	movlw	-19
  6475  0035D6  006F FF8F FFE6     	movff	plusw1,postinc1
  6476  0035DC  006F FF8F FFE6     	movff	plusw1,postinc1
  6477  0035E2  0E20               	movlw	32
  6478  0035E4  6EE6               	movwf	postinc1,c
  6479  0035E6  0E00               	movlw	0
  6480  0035E8  6EE6               	movwf	postinc1,c
  6481  0035EA  EC70  F021         	call	_fputc	;wreg free
  6482                           
  6483                           ;/opt/microchip/xc8/v2.05/pic/sources/c99/common/doprnt.c: 568:             ++l;
  6484                           ;stkvar	_l @ sp[(-17)+7]
  6485  0035EE  0EF6               	movlw	-10
  6486  0035F0  50E3               	movf	plusw1,w,c
  6487  0035F2  0F01               	addlw	1
  6488  0035F4  6E37               	movwf	btemp,c
  6489  0035F6  0EF6               	movlw	-10
  6490  0035F8  0060  F0DF  FFE3   	movff	btemp,plusw1
  6491  0035FE  6A37               	clrf	btemp,c
  6492  003600  0EF7               	movlw	-9
  6493  003602  50E3               	movf	plusw1,w,c
  6494  003604  2037               	addwfc	btemp,w,c
  6495  003606  6E37               	movwf	btemp,c
  6496  003608  0EF7               	movlw	-9
  6497  00360A  0060  F0DF  FFE3   	movff	btemp,plusw1
  6498  003610                     l5961:
  6499                           
  6500                           ;/opt/microchip/xc8/v2.05/pic/sources/c99/common/doprnt.c: 566:         while (l < w) {
  6501                           ;stkvar	_w @ sp[(-17)+13]
  6502                           ;stkvar	_l @ sp[(-17)+7]
  6503  003610  50E1               	movf	fsr1l,w,c
  6504  003612  0FF6               	addlw	-10
  6505  003614  6ED9               	movwf	fsr2l,c
  6506  003616  50E2               	movf	fsr1h,w,c
  6507  003618  6EDA               	movwf	fsr2h,c
  6508  00361A  0EFF               	movlw	255
  6509  00361C  22DA               	addwfc	fsr2h,f,c
  6510  00361E  0EFC               	movlw	-4
  6511  003620  50E3               	movf	plusw1,w,c
  6512  003622  5CDE               	subwf	postinc2,w,c
  6513  003624  50DE               	movf	postinc2,w,c
  6514  003626  0A80               	xorlw	128
  6515  003628  6E37               	movwf	btemp,c
  6516  00362A  0EFD               	movlw	-3
  6517  00362C  50E3               	movf	plusw1,w,c
  6518  00362E  0A80               	xorlw	128
  6519  003630  5837               	subwfb	btemp,w,c
  6520  003632  A0D8               	btfss	status,0,c
  6521  003634  D7CF               	goto	l5957
  6522  003636                     u4010:
  6523                           
  6524                           ;/opt/microchip/xc8/v2.05/pic/sources/c99/common/doprnt.c: 573:     i = 0;
  6525                           ;stkvar	_i @ sp[(-17)+15]
  6526  003636  0EFE               	movlw	-2
  6527  003638  6AE3               	clrf	plusw1,c
  6528  00363A  0EFF               	movlw	-1
  6529  00363C  6AE3               	clrf	plusw1,c
  6530                           
  6531                           ;/opt/microchip/xc8/v2.05/pic/sources/c99/common/doprnt.c: 574:     while (i < p) {
  6532  00363E  D037               	goto	l5971
  6533  003640                     l5965:
  6534                           
  6535                           ;/opt/microchip/xc8/v2.05/pic/sources/c99/common/doprnt.c: 575:         fputc(*cp, fp);
  6536                           ;stkvar	_fp @ sp[(-17)+-2]
  6537  003640  0EED               	movlw	-19
  6538  003642  006F FF8F FFE6     	movff	plusw1,postinc1
  6539  003648  006F FF8F FFE6     	movff	plusw1,postinc1
  6540                           
  6541                           ;stkvar	_cp @ sp[(-19)+11]
  6542  00364E  0EF8               	movlw	-8
  6543  003650  006F FF8F FFD9     	movff	plusw1,fsr2l
  6544  003656  0EF9               	movlw	-7
  6545  003658  006F FF8F FFDA     	movff	plusw1,fsr2h
  6546  00365E  50DF               	movf	indf2,w,c
  6547  003660  6EE6               	movwf	postinc1,c
  6548  003662  0E00               	movlw	0
  6549  003664  6EE6               	movwf	postinc1,c
  6550  003666  EC70  F021         	call	_fputc	;wreg free
  6551                           
  6552                           ;/opt/microchip/xc8/v2.05/pic/sources/c99/common/doprnt.c: 576:         ++cp;
  6553                           ;stkvar	_cp @ sp[(-17)+11]
  6554  00366A  0EFA               	movlw	-6
  6555  00366C  50E3               	movf	plusw1,w,c
  6556  00366E  0F01               	addlw	1
  6557  003670  6E37               	movwf	btemp,c
  6558  003672  0EFA               	movlw	-6
  6559  003674  0060  F0DF  FFE3   	movff	btemp,plusw1
  6560  00367A  6A37               	clrf	btemp,c
  6561  00367C  0EFB               	movlw	-5
  6562  00367E  50E3               	movf	plusw1,w,c
  6563  003680  2037               	addwfc	btemp,w,c
  6564  003682  6E37               	movwf	btemp,c
  6565  003684  0EFB               	movlw	-5
  6566  003686  0060  F0DF  FFE3   	movff	btemp,plusw1
  6567                           
  6568                           ;/opt/microchip/xc8/v2.05/pic/sources/c99/common/doprnt.c: 577:         ++i;
  6569                           ;stkvar	_i @ sp[(-17)+15]
  6570  00368C  0EFE               	movlw	-2
  6571  00368E  50E3               	movf	plusw1,w,c
  6572  003690  0F01               	addlw	1
  6573  003692  6E37               	movwf	btemp,c
  6574  003694  0EFE               	movlw	-2
  6575  003696  0060  F0DF  FFE3   	movff	btemp,plusw1
  6576  00369C  6A37               	clrf	btemp,c
  6577  00369E  0EFF               	movlw	-1
  6578  0036A0  50E3               	movf	plusw1,w,c
  6579  0036A2  2037               	addwfc	btemp,w,c
  6580  0036A4  6E37               	movwf	btemp,c
  6581  0036A6  0EFF               	movlw	-1
  6582  0036A8  0060  F0DF  FFE3   	movff	btemp,plusw1
  6583  0036AE                     l5971:
  6584                           
  6585                           ;/opt/microchip/xc8/v2.05/pic/sources/c99/common/doprnt.c: 574:     while (i < p) {
  6586                           ;stkvar	_p @ sp[(-17)+9]
  6587                           ;stkvar	_i @ sp[(-17)+15]
  6588  0036AE  50E1               	movf	fsr1l,w,c
  6589  0036B0  0FFE               	addlw	-2
  6590  0036B2  6ED9               	movwf	fsr2l,c
  6591  0036B4  50E2               	movf	fsr1h,w,c
  6592  0036B6  6EDA               	movwf	fsr2h,c
  6593  0036B8  0EFF               	movlw	255
  6594  0036BA  22DA               	addwfc	fsr2h,f,c
  6595  0036BC  0EF8               	movlw	-8
  6596  0036BE  50E3               	movf	plusw1,w,c
  6597  0036C0  5CDE               	subwf	postinc2,w,c
  6598  0036C2  50DE               	movf	postinc2,w,c
  6599  0036C4  0A80               	xorlw	128
  6600  0036C6  6E37               	movwf	btemp,c
  6601  0036C8  0EF9               	movlw	-7
  6602  0036CA  50E3               	movf	plusw1,w,c
  6603  0036CC  0A80               	xorlw	128
  6604  0036CE  5837               	subwfb	btemp,w,c
  6605  0036D0  A0D8               	btfss	status,0,c
  6606  0036D2  D7B6               	goto	l5965
  6607                           
  6608                           ;/opt/microchip/xc8/v2.05/pic/sources/c99/common/doprnt.c: 581:     if (flags & (1 << 0)
      +                          ) {
  6609  0036D4  B026               	btfsc	_flags,0,c
  6610  0036D6  D01F               	goto	l5979
  6611  0036D8  D031               	goto	u4040
  6612  0036DA                     l5975:
  6613                           
  6614                           ;/opt/microchip/xc8/v2.05/pic/sources/c99/common/doprnt.c: 583:             fputc(' ', f
      +                          p);
  6615                           ;stkvar	_fp @ sp[(-17)+-2]
  6616  0036DA  0EED               	movlw	-19
  6617  0036DC  006F FF8F FFE6     	movff	plusw1,postinc1
  6618  0036E2  006F FF8F FFE6     	movff	plusw1,postinc1
  6619  0036E8  0E20               	movlw	32
  6620  0036EA  6EE6               	movwf	postinc1,c
  6621  0036EC  0E00               	movlw	0
  6622  0036EE  6EE6               	movwf	postinc1,c
  6623  0036F0  EC70  F021         	call	_fputc	;wreg free
  6624                           
  6625                           ;/opt/microchip/xc8/v2.05/pic/sources/c99/common/doprnt.c: 584:             ++l;
  6626                           ;stkvar	_l @ sp[(-17)+7]
  6627  0036F4  0EF6               	movlw	-10
  6628  0036F6  50E3               	movf	plusw1,w,c
  6629  0036F8  0F01               	addlw	1
  6630  0036FA  6E37               	movwf	btemp,c
  6631  0036FC  0EF6               	movlw	-10
  6632  0036FE  0060  F0DF  FFE3   	movff	btemp,plusw1
  6633  003704  6A37               	clrf	btemp,c
  6634  003706  0EF7               	movlw	-9
  6635  003708  50E3               	movf	plusw1,w,c
  6636  00370A  2037               	addwfc	btemp,w,c
  6637  00370C  6E37               	movwf	btemp,c
  6638  00370E  0EF7               	movlw	-9
  6639  003710  0060  F0DF  FFE3   	movff	btemp,plusw1
  6640  003716                     l5979:
  6641                           
  6642                           ;/opt/microchip/xc8/v2.05/pic/sources/c99/common/doprnt.c: 582:         while (l < w) {
  6643                           ;stkvar	_w @ sp[(-17)+13]
  6644                           ;stkvar	_l @ sp[(-17)+7]
  6645  003716  50E1               	movf	fsr1l,w,c
  6646  003718  0FF6               	addlw	-10
  6647  00371A  6ED9               	movwf	fsr2l,c
  6648  00371C  50E2               	movf	fsr1h,w,c
  6649  00371E  6EDA               	movwf	fsr2h,c
  6650  003720  0EFF               	movlw	255
  6651  003722  22DA               	addwfc	fsr2h,f,c
  6652  003724  0EFC               	movlw	-4
  6653  003726  50E3               	movf	plusw1,w,c
  6654  003728  5CDE               	subwf	postinc2,w,c
  6655  00372A  50DE               	movf	postinc2,w,c
  6656  00372C  0A80               	xorlw	128
  6657  00372E  6E37               	movwf	btemp,c
  6658  003730  0EFD               	movlw	-3
  6659  003732  50E3               	movf	plusw1,w,c
  6660  003734  0A80               	xorlw	128
  6661  003736  5837               	subwfb	btemp,w,c
  6662  003738  A0D8               	btfss	status,0,c
  6663  00373A  D7CF               	goto	l5975
  6664  00373C                     u4040:
  6665                           
  6666                           ;/opt/microchip/xc8/v2.05/pic/sources/c99/common/doprnt.c: 588:     return l;
  6667                           ;stkvar	_l @ sp[(-17)+7]
  6668  00373C  0EF6               	movlw	-10
  6669  00373E  006F FF8C  F037    	movff	plusw1,btemp
  6670  003744  0EF7               	movlw	-9
  6671  003746  006F FF8C  F038    	movff	plusw1,btemp+1
  6672                           
  6673                           ; _stoa: autosize = 17, savesize = 0, parsavesize = 0, tempsize = 0 parsize = 4, argsize
      +                           = 4, vargsize = 0
  6674  00374C  0EEB               	movlw	235
  6675  00374E  26E1               	addwf	fsr1l,f,c
  6676  003750  0EFF               	movlw	255
  6677  003752  22E2               	addwfc	fsr1h,f,c
  6678  003754  0012               	return		;funcret
  6679  003756                     __end_of_stoa:
  6680                           	opt callstack 0
  6681                           
  6682 ;; *************** function _dtoa *****************
  6683 ;; Defined at:
  6684 ;;		line 274 in file "/opt/microchip/xc8/v2.05/pic/sources/c99/common/doprnt.c"
  6685 ;; Parameters:    Size  Location     Type
  6686 ;;  fp              2  [STACK] PTR struct _IO_FILE
  6687 ;;		 -> f(5), NULL(0), 
  6688 ;;  d               8  [STACK] long long 
  6689 ;; Auto vars:     Size  Location     Type
  6690 ;;  n               8  [STACK] long long 
  6691 ;;  i               2  [STACK] int 
  6692 ;;  s               2  [STACK] int 
  6693 ;;  w               2  [STACK] int 
  6694 ;;  p               2  [STACK] int 
  6695 ;; Return value:  Size  Location     Type
  6696 ;;                  2  [STACK] int 
  6697 ;; Registers used:
  6698 ;;		wreg, fsr0l, fsr0h, fsr1l, fsr1h, fsr2l, fsr2h, status,2, status,0, btemp, btemp+1, btemp+8, btemp+9, btemp+10, btem
      +p+11, btemp+16, btemp+17, btemp+18, btemp+19, btemp+20, btemp+21, btemp+22, btemp+23, prodl
  6699 ;; Tracked objects:
  6700 ;;		On entry : 0/3D
  6701 ;;		On exit  : 0/0
  6702 ;;		Unchanged: 0/0
  6703 ;; Data sizes:     COMRAM   BANK0   BANK1   BANK2   BANK3   BANK4   BANK5   BANK6   BANK7   BANK8   BANK9  BANK10  BANK1
      +1  BANK12  BANK13  BANK14  BANK15  BANK16  BANK17  BANK18  BANK19  BANK20  BANK21  BANK22  BANK23  BANK24  BANK25  BANK2
      +6  BANK27  BANK28  BANK29  BANK30  BANK31
  6704 ;;      Params:         0       0       0       0       0       0       0       0       0       0       0       0       
      +0       0       0       0       0       0       0       0       0       0       0       0       0       0       0       
      +0       0       0       0       0       0
  6705 ;;      Locals:         0       0       0       0       0       0       0       0       0       0       0       0       
      +0       0       0       0       0       0       0       0       0       0       0       0       0       0       0       
      +0       0       0       0       0       0
  6706 ;;      Temps:          0       0       0       0       0       0       0       0       0       0       0       0       
      +0       0       0       0       0       0       0       0       0       0       0       0       0       0       0       
      +0       0       0       0       0       0
  6707 ;;      Totals:         0       0       0       0       0       0       0       0       0       0       0       0       
      +0       0       0       0       0       0       0       0       0       0       0       0       0       0       0       
      +0       0       0       0       0       0
  6708 ;;Total ram usage:        0 bytes
  6709 ;; Hardware stack levels used:    1
  6710 ;; Hardware stack levels required when called:    8
  6711 ;; This function calls:
  6712 ;;		___aodiv
  6713 ;;		___aomod
  6714 ;;		_abs
  6715 ;;		_pad
  6716 ;; This function is called by:
  6717 ;;		_vfpfcnvrt
  6718 ;; This function uses a reentrant model
  6719 ;;
  6720                           
  6721                           	psect	text32
  6722  0026AC                     __ptext32:
  6723                           	opt callstack 0
  6724  0026AC                     _dtoa:
  6725                           	opt callstack 0
  6726                           
  6727                           ; autosize = 18, savesize = 0, parsavesize = 0, tempsize = 0 parsize = 10, argsize = 10 
      +                          vargsize = 0, retsize = 0 argfudge = 0
  6728  0026AC  0E12               	movlw	18
  6729  0026AE  26E1               	addwf	fsr1l,f,c
  6730  0026B0  0E00               	movlw	0
  6731  0026B2  22E2               	addwfc	fsr1h,f,c
  6732                           
  6733                           ;/opt/microchip/xc8/v2.05/pic/sources/c99/common/doprnt.c: 274: static int dtoa(FILE *fp
      +                          , long long d);/opt/microchip/xc8/v2.05/pic/sources/c99/common/doprnt.c: 275: {;/opt/mic
      +                          rochip/xc8/v2.05/pic/sources/c99/common/doprnt.c: 276:     int i, p, s, w;;/opt/microchi
      +                          p/xc8/v2.05/pic/sources/c99/common/doprnt.c: 277:     long long n;;/opt/microchip/xc8/v2
      +                          .05/pic/sources/c99/common/doprnt.c: 280:     n = d;
  6734                           ;stkvar	_d @ sp[(-18)+-10]
  6735                           
  6736                           ;incstack = 0
  6737  0026B4  0EE4               	movlw	228
  6738  0026B6  24E1               	addwf	fsr1l,w,c
  6739  0026B8  6ED9               	movwf	fsr2l,c
  6740  0026BA  0EFF               	movlw	255
  6741  0026BC  20E2               	addwfc	fsr1h,w,c
  6742  0026BE  6EDA               	movwf	fsr2h,c
  6743                           
  6744                           ;stkvar	_n @ sp[(-18)+2]
  6745  0026C0  0E08               	movlw	8
  6746  0026C2  6E37               	movwf	btemp,c
  6747  0026C4  0EF0               	movlw	-16
  6748  0026C6                     us379999:
  6749  0026C6  006F FF7B FFE3     	movff	postinc2,plusw1
  6750  0026CC  28E8               	incf	wreg,w,c
  6751  0026CE  2E37               	decfsz	btemp,f,c
  6752  0026D0  D7FA               	bra	us379999
  6753                           
  6754                           ;/opt/microchip/xc8/v2.05/pic/sources/c99/common/doprnt.c: 281:     s = n < 0 ? 1 : 0;
  6755                           ;stkvar	_n @ sp[(-18)+2]
  6756  0026D2  0EF7               	movlw	-9
  6757  0026D4  AEE3               	btfss	plusw1,7,c
  6758  0026D6  D002               	goto	u3800
  6759  0026D8  0E01               	movlw	1
  6760  0026DA  D001               	goto	u3810
  6761  0026DC                     u3800:
  6762  0026DC  0E00               	movlw	0
  6763  0026DE                     u3810:
  6764  0026DE  6E41               	movwf	btemp+10,c
  6765  0026E0  6A42               	clrf	btemp+11,c
  6766                           
  6767                           ;stkvar	_s @ sp[(-18)+12]
  6768  0026E2  0EFA               	movlw	-6
  6769  0026E4  0060  F107  FFE3   	movff	btemp+10,plusw1
  6770  0026EA  0EFB               	movlw	-5
  6771  0026EC  0060  F10B  FFE3   	movff	btemp+11,plusw1
  6772                           
  6773                           ;/opt/microchip/xc8/v2.05/pic/sources/c99/common/doprnt.c: 282:     if (s) {
  6774                           ;stkvar	_s @ sp[(-18)+12]
  6775  0026F2  0EFA               	movlw	-6
  6776  0026F4  006F FF8C  F037    	movff	plusw1,btemp
  6777  0026FA  0EFB               	movlw	-5
  6778  0026FC  50E3               	movf	plusw1,w,c
  6779  0026FE  1037               	iorwf	btemp,w,c
  6780  002700  B4D8               	btfsc	status,2,c
  6781  002702  D025               	goto	u3830
  6782                           
  6783                           ;/opt/microchip/xc8/v2.05/pic/sources/c99/common/doprnt.c: 283:         n = -n;
  6784                           ;stkvar	_n @ sp[(-18)+2]
  6785                           ;stkvar	_n @ sp[(-18)+2]
  6786  002704  0EF0               	movlw	-16
  6787  002706  6CE3               	negf	plusw1,c
  6788  002708  0EF1               	movlw	-15
  6789  00270A  1EE3               	comf	plusw1,f,c
  6790  00270C  0EF2               	movlw	-14
  6791  00270E  1EE3               	comf	plusw1,f,c
  6792  002710  0EF3               	movlw	-13
  6793  002712  1EE3               	comf	plusw1,f,c
  6794  002714  0EF4               	movlw	-12
  6795  002716  1EE3               	comf	plusw1,f,c
  6796  002718  0EF5               	movlw	-11
  6797  00271A  1EE3               	comf	plusw1,f,c
  6798  00271C  0EF6               	movlw	-10
  6799  00271E  1EE3               	comf	plusw1,f,c
  6800  002720  0EF7               	movlw	-9
  6801  002722  1EE3               	comf	plusw1,f,c
  6802  002724  E314               	bnc	u3830
  6803  002726  0EF1               	movlw	-15
  6804  002728  2AE3               	incf	plusw1,f,c
  6805  00272A  E311               	bnc	u3830
  6806  00272C  0EF2               	movlw	-14
  6807  00272E  2AE3               	incf	plusw1,f,c
  6808  002730  E30E               	bnc	u3830
  6809  002732  0EF3               	movlw	-13
  6810  002734  2AE3               	incf	plusw1,f,c
  6811  002736  E30B               	bnc	u3830
  6812  002738  0EF4               	movlw	-12
  6813  00273A  2AE3               	incf	plusw1,f,c
  6814  00273C  E308               	bnc	u3830
  6815  00273E  0EF5               	movlw	-11
  6816  002740  2AE3               	incf	plusw1,f,c
  6817  002742  E305               	bnc	u3830
  6818  002744  0EF6               	movlw	-10
  6819  002746  2AE3               	incf	plusw1,f,c
  6820  002748  E302               	bnc	u3830
  6821  00274A  0EF7               	movlw	-9
  6822  00274C  2AE3               	incf	plusw1,f,c
  6823  00274E                     u3830:
  6824                           
  6825                           ;/opt/microchip/xc8/v2.05/pic/sources/c99/common/doprnt.c: 287:     if (!(prec < 0)) {
  6826  00274E  AE25               	btfss	_prec+1,7,c
  6827                           
  6828                           ;/opt/microchip/xc8/v2.05/pic/sources/c99/common/doprnt.c: 288:         flags &= ~(1 << 
      +                          1);
  6829  002750  9226               	bcf	_flags,1,c
  6830                           
  6831                           ;/opt/microchip/xc8/v2.05/pic/sources/c99/common/doprnt.c: 290:     p = (0 < prec) ? pre
      +                          c : 1;
  6832  002752  BE25               	btfsc	_prec+1,7,c
  6833  002754  D005               	goto	u3850
  6834  002756  5025               	movf	_prec+1,w,c
  6835  002758  E110               	bnz	l5883
  6836  00275A  0424               	decf	_prec,w,c
  6837  00275C  B0D8               	btfsc	status,0,c
  6838  00275E  D00D               	goto	l5883
  6839  002760                     u3850:
  6840  002760  0E01               	movlw	1
  6841  002762  6E41               	movwf	btemp+10,c
  6842  002764  0E00               	movlw	0
  6843  002766  6E42               	movwf	btemp+11,c
  6844                           
  6845                           ;stkvar	_p @ sp[(-18)+16]
  6846  002768  0EFE               	movlw	-2
  6847  00276A  0060  F107  FFE3   	movff	btemp+10,plusw1
  6848  002770  0EFF               	movlw	-1
  6849  002772  0060  F10B  FFE3   	movff	btemp+11,plusw1
  6850  002778  D008               	goto	l1485
  6851  00277A                     l5883:
  6852                           
  6853                           ;stkvar	_p @ sp[(-18)+16]
  6854  00277A  0EFE               	movlw	-2
  6855  00277C  0060  F093  FFE3   	movff	_prec,plusw1
  6856  002782  0EFF               	movlw	-1
  6857  002784  0060  F097  FFE3   	movff	_prec+1,plusw1
  6858  00278A                     l1485:
  6859                           
  6860                           ;/opt/microchip/xc8/v2.05/pic/sources/c99/common/doprnt.c: 291:     w = width;
  6861                           ;stkvar	_w @ sp[(-18)+14]
  6862  00278A  0EFC               	movlw	-4
  6863  00278C  0060  F08B  FFE3   	movff	_width,plusw1
  6864  002792  0EFD               	movlw	-3
  6865  002794  0060  F08F  FFE3   	movff	_width+1,plusw1
  6866                           
  6867                           ;/opt/microchip/xc8/v2.05/pic/sources/c99/common/doprnt.c: 292:     if (s || (flags & (1
      +                           << 2))) {
  6868                           ;stkvar	_s @ sp[(-18)+12]
  6869  00279A  0EFA               	movlw	-6
  6870  00279C  006F FF8C  F037    	movff	plusw1,btemp
  6871  0027A2  0EFB               	movlw	-5
  6872  0027A4  50E3               	movf	plusw1,w,c
  6873  0027A6  1037               	iorwf	btemp,w,c
  6874  0027A8  A4D8               	btfss	status,2,c
  6875  0027AA  D002               	goto	u3870
  6876  0027AC  A426               	btfss	_flags,2,c
  6877  0027AE  D00A               	goto	l5891
  6878  0027B0                     u3870:
  6879                           
  6880                           ;/opt/microchip/xc8/v2.05/pic/sources/c99/common/doprnt.c: 293:         --w;
  6881                           ;stkvar	_w @ sp[(-18)+14]
  6882  0027B0  50E1               	movf	fsr1l,w,c
  6883  0027B2  0FFC               	addlw	-4
  6884  0027B4  6ED9               	movwf	fsr2l,c
  6885  0027B6  50E2               	movf	fsr1h,w,c
  6886  0027B8  6EDA               	movwf	fsr2h,c
  6887  0027BA  0EFF               	movlw	255
  6888  0027BC  22DA               	addwfc	fsr2h,f,c
  6889  0027BE  06DE               	decf	postinc2,f,c
  6890  0027C0  0E00               	movlw	0
  6891  0027C2  5ADD               	subwfb	postdec2,f,c
  6892  0027C4                     l5891:
  6893                           
  6894                           ;/opt/microchip/xc8/v2.05/pic/sources/c99/common/doprnt.c: 297:     i = sizeof(dbuf) - 1
      +                          ;
  6895  0027C4  0E1F               	movlw	31
  6896  0027C6  6E41               	movwf	btemp+10,c
  6897  0027C8  0E00               	movlw	0
  6898  0027CA  6E42               	movwf	btemp+11,c
  6899                           
  6900                           ;stkvar	_i @ sp[(-18)+10]
  6901  0027CC  0EF8               	movlw	-8
  6902  0027CE  0060  F107  FFE3   	movff	btemp+10,plusw1
  6903  0027D4  0EF9               	movlw	-7
  6904  0027D6  0060  F10B  FFE3   	movff	btemp+11,plusw1
  6905                           
  6906                           ;/opt/microchip/xc8/v2.05/pic/sources/c99/common/doprnt.c: 298:     dbuf[i] = '\0';
  6907  0027DC  0101               	movlb	1	; () banked
  6908  0027DE  6BDF               	clrf	(_dbuf+31)& (0+255),b
  6909                           
  6910                           ;/opt/microchip/xc8/v2.05/pic/sources/c99/common/doprnt.c: 299:     while (!(i < 1) && (
      +                          n || (0 < p) || ((0 < w) && (flags & (1 << 1))))) {
  6911  0027E0  D109               	goto	l5905
  6912  0027E2                     l5895:
  6913                           
  6914                           ;/opt/microchip/xc8/v2.05/pic/sources/c99/common/doprnt.c: 300:         --i;
  6915                           ;stkvar	_i @ sp[(-18)+10]
  6916  0027E2  50E1               	movf	fsr1l,w,c
  6917  0027E4  0FF8               	addlw	-8
  6918  0027E6  6ED9               	movwf	fsr2l,c
  6919  0027E8  50E2               	movf	fsr1h,w,c
  6920  0027EA  6EDA               	movwf	fsr2h,c
  6921  0027EC  0EFF               	movlw	255
  6922  0027EE  22DA               	addwfc	fsr2h,f,c
  6923  0027F0  06DE               	decf	postinc2,f,c
  6924  0027F2  0E00               	movlw	0
  6925  0027F4  5ADD               	subwfb	postdec2,f,c
  6926                           
  6927                           ;/opt/microchip/xc8/v2.05/pic/sources/c99/common/doprnt.c: 301:         dbuf[i] = '0' + 
      +                          abs(n % 10);
  6928  0027F6  0E0A               	movlw	10
  6929  0027F8  6EE6               	movwf	postinc1,c
  6930  0027FA  0E00               	movlw	0
  6931  0027FC  6EE6               	movwf	postinc1,c
  6932  0027FE  0E00               	movlw	0
  6933  002800  6EE6               	movwf	postinc1,c
  6934  002802  0E00               	movlw	0
  6935  002804  6EE6               	movwf	postinc1,c
  6936  002806  0E00               	movlw	0
  6937  002808  6EE6               	movwf	postinc1,c
  6938  00280A  0E00               	movlw	0
  6939  00280C  6EE6               	movwf	postinc1,c
  6940  00280E  0E00               	movlw	0
  6941  002810  6EE6               	movwf	postinc1,c
  6942  002812  0E00               	movlw	0
  6943  002814  6EE6               	movwf	postinc1,c
  6944                           
  6945                           ;stkvar	_n @ sp[(-26)+2]
  6946  002816  50E1               	movf	fsr1l,w,c
  6947  002818  0FE8               	addlw	-24
  6948  00281A  6ED9               	movwf	fsr2l,c
  6949  00281C  50E2               	movf	fsr1h,w,c
  6950  00281E  6EDA               	movwf	fsr2h,c
  6951  002820  0EFF               	movlw	255
  6952  002822  22DA               	addwfc	fsr2h,f,c
  6953  002824  006F FF7B FFE6     	movff	postinc2,postinc1
  6954  00282A  006F FF7B FFE6     	movff	postinc2,postinc1
  6955  002830  006F FF7B FFE6     	movff	postinc2,postinc1
  6956  002836  006F FF7B FFE6     	movff	postinc2,postinc1
  6957  00283C  006F FF7B FFE6     	movff	postinc2,postinc1
  6958  002842  006F FF7B FFE6     	movff	postinc2,postinc1
  6959  002848  006F FF7B FFE6     	movff	postinc2,postinc1
  6960  00284E  006F FF7B FFE6     	movff	postinc2,postinc1
  6961  002854  ECEB  F01C         	call	___aomod	;wreg free
  6962  002858  52E5               	movf	postdec1,f,c
  6963  00285A  006F FF9C  F04E    	movff	indf1,btemp+23
  6964  002860  52E5               	movf	postdec1,f,c
  6965  002862  006F FF9C  F04D    	movff	indf1,btemp+22
  6966  002868  52E5               	movf	postdec1,f,c
  6967  00286A  006F FF9C  F04C    	movff	indf1,btemp+21
  6968  002870  52E5               	movf	postdec1,f,c
  6969  002872  006F FF9C  F04B    	movff	indf1,btemp+20
  6970  002878  52E5               	movf	postdec1,f,c
  6971  00287A  006F FF9C  F04A    	movff	indf1,btemp+19
  6972  002880  52E5               	movf	postdec1,f,c
  6973  002882  006F FF9C  F049    	movff	indf1,btemp+18
  6974  002888  52E5               	movf	postdec1,f,c
  6975  00288A  006F FF9C  F048    	movff	indf1,btemp+17
  6976  002890  52E5               	movf	postdec1,f,c
  6977  002892  006F FF9C  F047    	movff	indf1,btemp+16
  6978  002898  0EF8               	movlw	248
  6979  00289A  26E1               	addwf	fsr1l,f,c
  6980  00289C  0EFF               	movlw	255
  6981  00289E  22E2               	addwfc	fsr1h,f,c
  6982  0028A0  0060  F11C  F041   	movff	btemp+16,btemp+10
  6983  0028A6  0060  F120  F042   	movff	btemp+17,btemp+11
  6984  0028AC  0060  F107  FFE6   	movff	btemp+10,postinc1
  6985  0028B2  0060  F10B  FFE6   	movff	btemp+11,postinc1
  6986  0028B8  EC92  F027         	call	_abs	;wreg free
  6987  0028BC  0E30               	movlw	48
  6988  0028BE  2637               	addwf	btemp,f,c
  6989                           
  6990                           ;stkvar	_i @ sp[(-18)+10]
  6991  0028C0  0EF8               	movlw	-8
  6992  0028C2  006F FF8C  F041    	movff	plusw1,btemp+10
  6993  0028C8  0EF9               	movlw	-7
  6994  0028CA  006F FF8C  F042    	movff	plusw1,btemp+11
  6995  0028D0  0EC0               	movlw	low _dbuf
  6996  0028D2  2441               	addwf	btemp+10,w,c
  6997  0028D4  6ED9               	movwf	fsr2l,c
  6998  0028D6  0E01               	movlw	high _dbuf
  6999  0028D8  2042               	addwfc	btemp+11,w,c
  7000  0028DA  6EDA               	movwf	fsr2h,c
  7001  0028DC  0060  F0DF  FFDF   	movff	btemp,indf2
  7002                           
  7003                           ;/opt/microchip/xc8/v2.05/pic/sources/c99/common/doprnt.c: 302:         --p;
  7004                           ;stkvar	_p @ sp[(-18)+16]
  7005  0028E2  50E1               	movf	fsr1l,w,c
  7006  0028E4  0FFE               	addlw	-2
  7007  0028E6  6ED9               	movwf	fsr2l,c
  7008  0028E8  50E2               	movf	fsr1h,w,c
  7009  0028EA  6EDA               	movwf	fsr2h,c
  7010  0028EC  0EFF               	movlw	255
  7011  0028EE  22DA               	addwfc	fsr2h,f,c
  7012  0028F0  06DE               	decf	postinc2,f,c
  7013  0028F2  0E00               	movlw	0
  7014  0028F4  5ADD               	subwfb	postdec2,f,c
  7015                           
  7016                           ;/opt/microchip/xc8/v2.05/pic/sources/c99/common/doprnt.c: 303:         --w;
  7017                           ;stkvar	_w @ sp[(-18)+14]
  7018  0028F6  50E1               	movf	fsr1l,w,c
  7019  0028F8  0FFC               	addlw	-4
  7020  0028FA  6ED9               	movwf	fsr2l,c
  7021  0028FC  50E2               	movf	fsr1h,w,c
  7022  0028FE  6EDA               	movwf	fsr2h,c
  7023  002900  0EFF               	movlw	255
  7024  002902  22DA               	addwfc	fsr2h,f,c
  7025  002904  06DE               	decf	postinc2,f,c
  7026  002906  0E00               	movlw	0
  7027  002908  5ADD               	subwfb	postdec2,f,c
  7028                           
  7029                           ;/opt/microchip/xc8/v2.05/pic/sources/c99/common/doprnt.c: 304:         n = n / 10;
  7030  00290A  0E0A               	movlw	10
  7031  00290C  6EE6               	movwf	postinc1,c
  7032  00290E  0E00               	movlw	0
  7033  002910  6EE6               	movwf	postinc1,c
  7034  002912  0E00               	movlw	0
  7035  002914  6EE6               	movwf	postinc1,c
  7036  002916  0E00               	movlw	0
  7037  002918  6EE6               	movwf	postinc1,c
  7038  00291A  0E00               	movlw	0
  7039  00291C  6EE6               	movwf	postinc1,c
  7040  00291E  0E00               	movlw	0
  7041  002920  6EE6               	movwf	postinc1,c
  7042  002922  0E00               	movlw	0
  7043  002924  6EE6               	movwf	postinc1,c
  7044  002926  0E00               	movlw	0
  7045  002928  6EE6               	movwf	postinc1,c
  7046                           
  7047                           ;stkvar	_n @ sp[(-26)+2]
  7048  00292A  50E1               	movf	fsr1l,w,c
  7049  00292C  0FE8               	addlw	-24
  7050  00292E  6ED9               	movwf	fsr2l,c
  7051  002930  50E2               	movf	fsr1h,w,c
  7052  002932  6EDA               	movwf	fsr2h,c
  7053  002934  0EFF               	movlw	255
  7054  002936  22DA               	addwfc	fsr2h,f,c
  7055  002938  006F FF7B FFE6     	movff	postinc2,postinc1
  7056  00293E  006F FF7B FFE6     	movff	postinc2,postinc1
  7057  002944  006F FF7B FFE6     	movff	postinc2,postinc1
  7058  00294A  006F FF7B FFE6     	movff	postinc2,postinc1
  7059  002950  006F FF7B FFE6     	movff	postinc2,postinc1
  7060  002956  006F FF7B FFE6     	movff	postinc2,postinc1
  7061  00295C  006F FF7B FFE6     	movff	postinc2,postinc1
  7062  002962  006F FF7B FFE6     	movff	postinc2,postinc1
  7063  002968  ECAB  F01B         	call	___aodiv	;wreg free
  7064  00296C  52E5               	movf	postdec1,f,c
  7065  00296E  006F FF9C  F04E    	movff	indf1,btemp+23
  7066  002974  52E5               	movf	postdec1,f,c
  7067  002976  006F FF9C  F04D    	movff	indf1,btemp+22
  7068  00297C  52E5               	movf	postdec1,f,c
  7069  00297E  006F FF9C  F04C    	movff	indf1,btemp+21
  7070  002984  52E5               	movf	postdec1,f,c
  7071  002986  006F FF9C  F04B    	movff	indf1,btemp+20
  7072  00298C  52E5               	movf	postdec1,f,c
  7073  00298E  006F FF9C  F04A    	movff	indf1,btemp+19
  7074  002994  52E5               	movf	postdec1,f,c
  7075  002996  006F FF9C  F049    	movff	indf1,btemp+18
  7076  00299C  52E5               	movf	postdec1,f,c
  7077  00299E  006F FF9C  F048    	movff	indf1,btemp+17
  7078  0029A4  52E5               	movf	postdec1,f,c
  7079  0029A6  006F FF9C  F047    	movff	indf1,btemp+16
  7080  0029AC  0EF8               	movlw	248
  7081  0029AE  26E1               	addwf	fsr1l,f,c
  7082  0029B0  0EFF               	movlw	255
  7083  0029B2  22E2               	addwfc	fsr1h,f,c
  7084                           
  7085                           ;stkvar	_n @ sp[(-18)+2]
  7086  0029B4  0EF0               	movlw	-16
  7087  0029B6  0060  F11F  FFE3   	movff	btemp+16,plusw1
  7088  0029BC  0EF1               	movlw	-15
  7089  0029BE  0060  F123  FFE3   	movff	btemp+17,plusw1
  7090  0029C4  0EF2               	movlw	-14
  7091  0029C6  0060  F127  FFE3   	movff	btemp+18,plusw1
  7092  0029CC  0EF3               	movlw	-13
  7093  0029CE  0060  F12B  FFE3   	movff	btemp+19,plusw1
  7094  0029D4  0EF4               	movlw	-12
  7095  0029D6  0060  F12F  FFE3   	movff	btemp+20,plusw1
  7096  0029DC  0EF5               	movlw	-11
  7097  0029DE  0060  F133  FFE3   	movff	btemp+21,plusw1
  7098  0029E4  0EF6               	movlw	-10
  7099  0029E6  0060  F137  FFE3   	movff	btemp+22,plusw1
  7100  0029EC  0EF7               	movlw	-9
  7101  0029EE  0060  F13B  FFE3   	movff	btemp+23,plusw1
  7102  0029F4                     l5905:
  7103                           
  7104                           ;/opt/microchip/xc8/v2.05/pic/sources/c99/common/doprnt.c: 299:     while (!(i < 1) && (
      +                          n || (0 < p) || ((0 < w) && (flags & (1 << 1))))) {
  7105                           ;stkvar	_i @ sp[(-18)+10]
  7106  0029F4  0EF9               	movlw	-7
  7107  0029F6  BEE3               	btfsc	plusw1,7,c
  7108  0029F8  D036               	goto	u3920
  7109  0029FA  0EF9               	movlw	-7
  7110  0029FC  50E3               	movf	plusw1,w,c
  7111  0029FE  E104               	bnz	u3880
  7112  002A00  0EF8               	movlw	-8
  7113  002A02  04E3               	decf	plusw1,w,c
  7114  002A04  A0D8               	btfss	status,0,c
  7115  002A06  D02F               	goto	u3920
  7116  002A08                     u3880:
  7117                           
  7118                           ;stkvar	_n @ sp[(-18)+2]
  7119  002A08  0EF0               	movlw	-16
  7120  002A0A  50E3               	movf	plusw1,w,c
  7121  002A0C  E115               	bnz	u3891
  7122  002A0E  0EF1               	movlw	-15
  7123  002A10  50E3               	movf	plusw1,w,c
  7124  002A12  E112               	bnz	u3891
  7125  002A14  0EF2               	movlw	-14
  7126  002A16  50E3               	movf	plusw1,w,c
  7127  002A18  E10F               	bnz	u3891
  7128  002A1A  0EF3               	movlw	-13
  7129  002A1C  50E3               	movf	plusw1,w,c
  7130  002A1E  E10C               	bnz	u3891
  7131  002A20  0EF4               	movlw	-12
  7132  002A22  50E3               	movf	plusw1,w,c
  7133  002A24  E109               	bnz	u3891
  7134  002A26  0EF5               	movlw	-11
  7135  002A28  50E3               	movf	plusw1,w,c
  7136  002A2A  E106               	bnz	u3891
  7137  002A2C  0EF6               	movlw	-10
  7138  002A2E  50E3               	movf	plusw1,w,c
  7139  002A30  E103               	bnz	u3891
  7140  002A32  0EF7               	movlw	-9
  7141  002A34  50E3               	movf	plusw1,w,c
  7142  002A36  A4D8               	btfss	status,2,c
  7143  002A38                     u3891:
  7144  002A38  D6D4               	goto	l5895
  7145                           
  7146                           ;stkvar	_p @ sp[(-18)+16]
  7147  002A3A  0EFF               	movlw	-1
  7148  002A3C  BEE3               	btfsc	plusw1,7,c
  7149  002A3E  D007               	goto	u3900
  7150  002A40  0EFF               	movlw	-1
  7151  002A42  50E3               	movf	plusw1,w,c
  7152  002A44  E103               	bnz	u3901
  7153  002A46  0EFE               	movlw	-2
  7154  002A48  04E3               	decf	plusw1,w,c
  7155  002A4A  B0D8               	btfsc	status,0,c
  7156  002A4C                     u3901:
  7157  002A4C  D6CA               	goto	l5895
  7158  002A4E                     u3900:
  7159                           
  7160                           ;stkvar	_w @ sp[(-18)+14]
  7161  002A4E  0EFD               	movlw	-3
  7162  002A50  BEE3               	btfsc	plusw1,7,c
  7163  002A52  D009               	goto	u3920
  7164  002A54  0EFD               	movlw	-3
  7165  002A56  50E3               	movf	plusw1,w,c
  7166  002A58  E104               	bnz	u3910
  7167  002A5A  0EFC               	movlw	-4
  7168  002A5C  04E3               	decf	plusw1,w,c
  7169  002A5E  A0D8               	btfss	status,0,c
  7170  002A60  D002               	goto	u3920
  7171  002A62                     u3910:
  7172  002A62  B226               	btfsc	_flags,1,c
  7173  002A64  D6BE               	goto	l5895
  7174  002A66                     u3920:
  7175                           
  7176                           ;/opt/microchip/xc8/v2.05/pic/sources/c99/common/doprnt.c: 308:     if (s || (flags & (1
      +                           << 2))) {
  7177                           ;stkvar	_s @ sp[(-18)+12]
  7178  002A66  0EFA               	movlw	-6
  7179  002A68  006F FF8C  F037    	movff	plusw1,btemp
  7180  002A6E  0EFB               	movlw	-5
  7181  002A70  50E3               	movf	plusw1,w,c
  7182  002A72  1037               	iorwf	btemp,w,c
  7183  002A74  A4D8               	btfss	status,2,c
  7184  002A76  D002               	goto	u3940
  7185  002A78  A426               	btfss	_flags,2,c
  7186  002A7A  D033               	goto	l5929
  7187  002A7C                     u3940:
  7188                           
  7189                           ;/opt/microchip/xc8/v2.05/pic/sources/c99/common/doprnt.c: 309:         --i;
  7190                           ;stkvar	_i @ sp[(-18)+10]
  7191  002A7C  50E1               	movf	fsr1l,w,c
  7192  002A7E  0FF8               	addlw	-8
  7193  002A80  6ED9               	movwf	fsr2l,c
  7194  002A82  50E2               	movf	fsr1h,w,c
  7195  002A84  6EDA               	movwf	fsr2h,c
  7196  002A86  0EFF               	movlw	255
  7197  002A88  22DA               	addwfc	fsr2h,f,c
  7198  002A8A  06DE               	decf	postinc2,f,c
  7199  002A8C  0E00               	movlw	0
  7200  002A8E  5ADD               	subwfb	postdec2,f,c
  7201                           
  7202                           ;/opt/microchip/xc8/v2.05/pic/sources/c99/common/doprnt.c: 310:         dbuf[i] = s ? '-
      +                          ' : '+';
  7203                           ;stkvar	_s @ sp[(-18)+12]
  7204  002A90  0EFA               	movlw	-6
  7205  002A92  006F FF8C  F037    	movff	plusw1,btemp
  7206  002A98  0EFB               	movlw	-5
  7207  002A9A  50E3               	movf	plusw1,w,c
  7208  002A9C  1037               	iorwf	btemp,w,c
  7209  002A9E  A4D8               	btfss	status,2,c
  7210  002AA0  D002               	goto	l5925
  7211  002AA2  0E2B               	movlw	43
  7212  002AA4  D001               	goto	L20
  7213  002AA6                     l5925:
  7214  002AA6  0E2D               	movlw	45
  7215  002AA8                     L20:
  7216  002AA8  6E41               	movwf	btemp+10,c
  7217  002AAA  0E00               	movlw	0
  7218  002AAC  6E42               	movwf	btemp+11,c
  7219                           
  7220                           ;stkvar	_dtoa$3369 @ sp[(-18)+0]
  7221  002AAE  0EEE               	movlw	-18
  7222  002AB0  0060  F107  FFE3   	movff	btemp+10,plusw1
  7223  002AB6  0EEF               	movlw	-17
  7224  002AB8  0060  F10B  FFE3   	movff	btemp+11,plusw1
  7225                           
  7226                           ;stkvar	_dtoa$3369 @ sp[(-18)+0]
  7227                           ;stkvar	_i @ sp[(-18)+10]
  7228  002ABE  0EF8               	movlw	-8
  7229  002AC0  006F FF8C  F041    	movff	plusw1,btemp+10
  7230  002AC6  0EF9               	movlw	-7
  7231  002AC8  006F FF8C  F042    	movff	plusw1,btemp+11
  7232  002ACE  0EC0               	movlw	low _dbuf
  7233  002AD0  2441               	addwf	btemp+10,w,c
  7234  002AD2  6ED9               	movwf	fsr2l,c
  7235  002AD4  0E01               	movlw	high _dbuf
  7236  002AD6  2042               	addwfc	btemp+11,w,c
  7237  002AD8  6EDA               	movwf	fsr2h,c
  7238  002ADA  0EEE               	movlw	-18
  7239  002ADC  006F FF8F FFDF     	movff	plusw1,indf2
  7240  002AE2                     l5929:
  7241                           
  7242                           ;/opt/microchip/xc8/v2.05/pic/sources/c99/common/doprnt.c: 314:     return pad(fp, &dbuf
      +                          [i], w);
  7243                           ;stkvar	_w @ sp[(-18)+14]
  7244  002AE2  0EFC               	movlw	-4
  7245  002AE4  006F FF8F FFE6     	movff	plusw1,postinc1
  7246  002AEA  006F FF8F FFE6     	movff	plusw1,postinc1
  7247                           
  7248                           ;stkvar	_i @ sp[(-20)+10]
  7249  002AF0  0EC0               	movlw	low _dbuf
  7250  002AF2  6E41               	movwf	btemp+10,c
  7251  002AF4  0E01               	movlw	high _dbuf
  7252  002AF6  6E42               	movwf	btemp+11,c
  7253  002AF8  0EF6               	movlw	-10
  7254  002AFA  50E3               	movf	plusw1,w,c
  7255  002AFC  2641               	addwf	btemp+10,f,c
  7256  002AFE  0EF7               	movlw	-9
  7257  002B00  50E3               	movf	plusw1,w,c
  7258  002B02  2242               	addwfc	btemp+11,f,c
  7259  002B04  0060  F107  FFE6   	movff	btemp+10,postinc1
  7260  002B0A  0060  F10B  FFE6   	movff	btemp+11,postinc1
  7261                           
  7262                           ;stkvar	_fp @ sp[(-22)+-2]
  7263  002B10  0EE8               	movlw	-24
  7264  002B12  006F FF8F FFE6     	movff	plusw1,postinc1
  7265  002B18  006F FF8F FFE6     	movff	plusw1,postinc1
  7266  002B1E  ECE6  F020         	call	_pad	;wreg free
  7267                           
  7268                           ; _dtoa: autosize = 18, savesize = 0, parsavesize = 0, tempsize = 0 parsize = 10, argsiz
      +                          e = 10, vargsize = 0
  7269  002B22  0EE4               	movlw	228
  7270  002B24  26E1               	addwf	fsr1l,f,c
  7271  002B26  0EFF               	movlw	255
  7272  002B28  22E2               	addwfc	fsr1h,f,c
  7273  002B2A  0012               	return		;funcret
  7274  002B2C                     __end_of_dtoa:
  7275                           	opt callstack 0
  7276                           
  7277 ;; *************** function _pad *****************
  7278 ;; Defined at:
  7279 ;;		line 72 in file "/opt/microchip/xc8/v2.05/pic/sources/c99/common/doprnt.c"
  7280 ;; Parameters:    Size  Location     Type
  7281 ;;  fp              2  [STACK] PTR struct _IO_FILE
  7282 ;;		 -> f(5), NULL(0), 
  7283 ;;  buf             2  [STACK] PTR unsigned char 
  7284 ;;		 -> dbuf(32), 
  7285 ;;  p               2  [STACK] int 
  7286 ;; Auto vars:     Size  Location     Type
  7287 ;;  w               2  [STACK] int 
  7288 ;;  i               2  [STACK] int 
  7289 ;; Return value:  Size  Location     Type
  7290 ;;                  2  [STACK] int 
  7291 ;; Registers used:
  7292 ;;		wreg, fsr0l, fsr0h, fsr1l, fsr1h, fsr2l, fsr2h, status,2, status,0, btemp, btemp+1, btemp+8, btemp+9, btemp+10, btem
      +p+11, prodl
  7293 ;; Tracked objects:
  7294 ;;		On entry : 0/1
  7295 ;;		On exit  : 0/0
  7296 ;;		Unchanged: 0/0
  7297 ;; Data sizes:     COMRAM   BANK0   BANK1   BANK2   BANK3   BANK4   BANK5   BANK6   BANK7   BANK8   BANK9  BANK10  BANK1
      +1  BANK12  BANK13  BANK14  BANK15  BANK16  BANK17  BANK18  BANK19  BANK20  BANK21  BANK22  BANK23  BANK24  BANK25  BANK2
      +6  BANK27  BANK28  BANK29  BANK30  BANK31
  7298 ;;      Params:         0       0       0       0       0       0       0       0       0       0       0       0       
      +0       0       0       0       0       0       0       0       0       0       0       0       0       0       0       
      +0       0       0       0       0       0
  7299 ;;      Locals:         0       0       0       0       0       0       0       0       0       0       0       0       
      +0       0       0       0       0       0       0       0       0       0       0       0       0       0       0       
      +0       0       0       0       0       0
  7300 ;;      Temps:          0       0       0       0       0       0       0       0       0       0       0       0       
      +0       0       0       0       0       0       0       0       0       0       0       0       0       0       0       
      +0       0       0       0       0       0
  7301 ;;      Totals:         0       0       0       0       0       0       0       0       0       0       0       0       
      +0       0       0       0       0       0       0       0       0       0       0       0       0       0       0       
      +0       0       0       0       0       0
  7302 ;;Total ram usage:        0 bytes
  7303 ;; Hardware stack levels used:    1
  7304 ;; Hardware stack levels required when called:    7
  7305 ;; This function calls:
  7306 ;;		_fputc
  7307 ;;		_fputs
  7308 ;;		_strlen
  7309 ;; This function is called by:
  7310 ;;		_dtoa
  7311 ;;		_xtoa
  7312 ;; This function uses a reentrant model
  7313 ;;
  7314                           
  7315                           	psect	text33
  7316  0041CC                     __ptext33:
  7317                           	opt callstack 0
  7318  0041CC                     _pad:
  7319                           	opt callstack 0
  7320                           
  7321                           ; autosize = 4, savesize = 0, parsavesize = 0, tempsize = 0 parsize = 6, argsize = 6 var
      +                          gsize = 0, retsize = 0 argfudge = 0
  7322  0041CC  52E6               	movf	postinc1,f,c
  7323  0041CE  52E6               	movf	postinc1,f,c
  7324  0041D0  52E6               	movf	postinc1,f,c
  7325  0041D2  52E6               	movf	postinc1,f,c
  7326                           
  7327                           ;/opt/microchip/xc8/v2.05/pic/sources/c99/common/doprnt.c: 72: static int pad(FILE *fp, 
      +                          char *buf, int p);/opt/microchip/xc8/v2.05/pic/sources/c99/common/doprnt.c: 73: {;/opt/m
      +                          icrochip/xc8/v2.05/pic/sources/c99/common/doprnt.c: 74:     int i, w;;/opt/microchip/xc8
      +                          /v2.05/pic/sources/c99/common/doprnt.c: 77:     if (flags & (1 << 0)) {
  7328                           
  7329                           ;incstack = 0
  7330  0041D4  A026               	btfss	_flags,0,c
  7331  0041D6  D010               	goto	l5849
  7332                           
  7333                           ;/opt/microchip/xc8/v2.05/pic/sources/c99/common/doprnt.c: 78:         fputs((const char
      +                           *)buf, fp);
  7334                           ;stkvar	_fp @ sp[(-4)+-2]
  7335  0041D8  0EFA               	movlw	-6
  7336  0041DA  006F FF8F FFE6     	movff	plusw1,postinc1
  7337  0041E0  006F FF8F FFE6     	movff	plusw1,postinc1
  7338                           
  7339                           ;stkvar	_buf @ sp[(-6)+-4]
  7340  0041E6  0EF6               	movlw	-10
  7341  0041E8  006F FF8F FFE6     	movff	plusw1,postinc1
  7342  0041EE  006F FF8F FFE6     	movff	plusw1,postinc1
  7343  0041F4  EC23  F024         	call	_fputs	;wreg free
  7344  0041F8                     l5849:
  7345                           
  7346                           ;/opt/microchip/xc8/v2.05/pic/sources/c99/common/doprnt.c: 82:     w = (p < 0) ? 0 : p;
  7347                           ;stkvar	_p @ sp[(-4)+-6]
  7348  0041F8  0EF7               	movlw	-9
  7349  0041FA  BEE3               	btfsc	plusw1,7,c
  7350  0041FC  D011               	goto	l5853
  7351                           
  7352                           ;stkvar	_p @ sp[(-4)+-6]
  7353                           ;stkvar	_w @ sp[(-4)+0]
  7354  0041FE  0EF6               	movlw	-10
  7355  004200  006F FF8C  F037    	movff	plusw1,btemp
  7356  004206  0EFC               	movlw	-4
  7357  004208  0060  F0DF  FFE3   	movff	btemp,plusw1
  7358  00420E  0EF7               	movlw	-9
  7359  004210  006F FF8C  F037    	movff	plusw1,btemp
  7360  004216  0EFD               	movlw	-3
  7361  004218  0060  F0DF  FFE3   	movff	btemp,plusw1
  7362  00421E  D004               	goto	l1472
  7363  004220                     l5853:
  7364                           
  7365                           ;stkvar	_w @ sp[(-4)+0]
  7366  004220  0EFC               	movlw	-4
  7367  004222  6AE3               	clrf	plusw1,c
  7368  004224  0EFD               	movlw	-3
  7369  004226  6AE3               	clrf	plusw1,c
  7370  004228                     l1472:
  7371                           
  7372                           ;/opt/microchip/xc8/v2.05/pic/sources/c99/common/doprnt.c: 83:     i = 0;
  7373                           ;stkvar	_i @ sp[(-4)+2]
  7374  004228  0EFE               	movlw	-2
  7375  00422A  6AE3               	clrf	plusw1,c
  7376  00422C  0EFF               	movlw	-1
  7377  00422E  6AE3               	clrf	plusw1,c
  7378                           
  7379                           ;/opt/microchip/xc8/v2.05/pic/sources/c99/common/doprnt.c: 84:     while (i < w) {
  7380  004230  D01E               	goto	l5859
  7381  004232                     l5855:
  7382                           
  7383                           ;/opt/microchip/xc8/v2.05/pic/sources/c99/common/doprnt.c: 85:         fputc(' ', fp);
  7384                           ;stkvar	_fp @ sp[(-4)+-2]
  7385  004232  0EFA               	movlw	-6
  7386  004234  006F FF8F FFE6     	movff	plusw1,postinc1
  7387  00423A  006F FF8F FFE6     	movff	plusw1,postinc1
  7388  004240  0E20               	movlw	32
  7389  004242  6EE6               	movwf	postinc1,c
  7390  004244  0E00               	movlw	0
  7391  004246  6EE6               	movwf	postinc1,c
  7392  004248  EC70  F021         	call	_fputc	;wreg free
  7393                           
  7394                           ;/opt/microchip/xc8/v2.05/pic/sources/c99/common/doprnt.c: 86:         ++i;
  7395                           ;stkvar	_i @ sp[(-4)+2]
  7396  00424C  0EFE               	movlw	-2
  7397  00424E  50E3               	movf	plusw1,w,c
  7398  004250  0F01               	addlw	1
  7399  004252  6E37               	movwf	btemp,c
  7400  004254  0EFE               	movlw	-2
  7401  004256  0060  F0DF  FFE3   	movff	btemp,plusw1
  7402  00425C  6A37               	clrf	btemp,c
  7403  00425E  0EFF               	movlw	-1
  7404  004260  50E3               	movf	plusw1,w,c
  7405  004262  2037               	addwfc	btemp,w,c
  7406  004264  6E37               	movwf	btemp,c
  7407  004266  0EFF               	movlw	-1
  7408  004268  0060  F0DF  FFE3   	movff	btemp,plusw1
  7409  00426E                     l5859:
  7410                           
  7411                           ;/opt/microchip/xc8/v2.05/pic/sources/c99/common/doprnt.c: 84:     while (i < w) {
  7412                           ;stkvar	_w @ sp[(-4)+0]
  7413                           ;stkvar	_i @ sp[(-4)+2]
  7414  00426E  50E1               	movf	fsr1l,w,c
  7415  004270  0FFE               	addlw	-2
  7416  004272  6ED9               	movwf	fsr2l,c
  7417  004274  50E2               	movf	fsr1h,w,c
  7418  004276  6EDA               	movwf	fsr2h,c
  7419  004278  0EFF               	movlw	255
  7420  00427A  22DA               	addwfc	fsr2h,f,c
  7421  00427C  0EFC               	movlw	-4
  7422  00427E  50E3               	movf	plusw1,w,c
  7423  004280  5CDE               	subwf	postinc2,w,c
  7424  004282  50DE               	movf	postinc2,w,c
  7425  004284  0A80               	xorlw	128
  7426  004286  6E37               	movwf	btemp,c
  7427  004288  0EFD               	movlw	-3
  7428  00428A  50E3               	movf	plusw1,w,c
  7429  00428C  0A80               	xorlw	128
  7430  00428E  5837               	subwfb	btemp,w,c
  7431  004290  A0D8               	btfss	status,0,c
  7432  004292  D7CF               	goto	l5855
  7433                           
  7434                           ;/opt/microchip/xc8/v2.05/pic/sources/c99/common/doprnt.c: 90:     if (!(flags & (1 << 0
      +                          ))) {
  7435  004294  B026               	btfsc	_flags,0,c
  7436  004296  D010               	goto	l5863
  7437                           
  7438                           ;/opt/microchip/xc8/v2.05/pic/sources/c99/common/doprnt.c: 91:         fputs((const char
      +                           *)buf, fp);
  7439                           ;stkvar	_fp @ sp[(-4)+-2]
  7440  004298  0EFA               	movlw	-6
  7441  00429A  006F FF8F FFE6     	movff	plusw1,postinc1
  7442  0042A0  006F FF8F FFE6     	movff	plusw1,postinc1
  7443                           
  7444                           ;stkvar	_buf @ sp[(-6)+-4]
  7445  0042A6  0EF6               	movlw	-10
  7446  0042A8  006F FF8F FFE6     	movff	plusw1,postinc1
  7447  0042AE  006F FF8F FFE6     	movff	plusw1,postinc1
  7448  0042B4  EC23  F024         	call	_fputs	;wreg free
  7449  0042B8                     l5863:
  7450                           
  7451                           ;/opt/microchip/xc8/v2.05/pic/sources/c99/common/doprnt.c: 94:     return strlen(buf) + 
      +                          w;
  7452                           ;stkvar	_w @ sp[(-4)+0]
  7453                           ;stkvar	_buf @ sp[(-4)+-4]
  7454  0042B8  0EF8               	movlw	-8
  7455  0042BA  006F FF8F FFE6     	movff	plusw1,postinc1
  7456  0042C0  006F FF8F FFE6     	movff	plusw1,postinc1
  7457  0042C6  EC87  F025         	call	_strlen	;wreg free
  7458  0042CA  0EFC               	movlw	-4
  7459  0042CC  50E3               	movf	plusw1,w,c
  7460  0042CE  2637               	addwf	btemp,f,c
  7461  0042D0  0EFD               	movlw	-3
  7462  0042D2  50E3               	movf	plusw1,w,c
  7463  0042D4  2238               	addwfc	btemp+1,f,c
  7464                           
  7465                           ; _pad: autosize = 4, savesize = 0, parsavesize = 0, tempsize = 0 parsize = 6, argsize =
      +                           6, vargsize = 0
  7466  0042D6  0EF6               	movlw	246
  7467  0042D8  26E1               	addwf	fsr1l,f,c
  7468  0042DA  0EFF               	movlw	255
  7469  0042DC  22E2               	addwfc	fsr1h,f,c
  7470  0042DE  0012               	return		;funcret
  7471  0042E0                     __end_of_pad:
  7472                           	opt callstack 0
  7473                           
  7474 ;; *************** function _strlen *****************
  7475 ;; Defined at:
  7476 ;;		line 12 in file "/opt/microchip/xc8/v2.05/pic/sources/c99/common/strlen.c"
  7477 ;; Parameters:    Size  Location     Type
  7478 ;;  s               2  [STACK] PTR const unsigned char 
  7479 ;;		 -> ?_printf(2), ?_sprintf(2), nuls(7), dbuf(32), 
  7480 ;;		 -> V(79), 
  7481 ;; Auto vars:     Size  Location     Type
  7482 ;;  a               2  [STACK] PTR const unsigned char 
  7483 ;;		 -> ?_printf(2), ?_sprintf(2), nuls(7), dbuf(32), 
  7484 ;;		 -> V(79), 
  7485 ;; Return value:  Size  Location     Type
  7486 ;;                  2  [STACK] unsigned int 
  7487 ;; Registers used:
  7488 ;;		wreg, fsr1l, fsr1h, fsr2l, fsr2h, status,2, status,0, btemp, btemp+1, btemp+10, btemp+11
  7489 ;; Tracked objects:
  7490 ;;		On entry : 0/0
  7491 ;;		On exit  : 0/0
  7492 ;;		Unchanged: 0/0
  7493 ;; Data sizes:     COMRAM   BANK0   BANK1   BANK2   BANK3   BANK4   BANK5   BANK6   BANK7   BANK8   BANK9  BANK10  BANK1
      +1  BANK12  BANK13  BANK14  BANK15  BANK16  BANK17  BANK18  BANK19  BANK20  BANK21  BANK22  BANK23  BANK24  BANK25  BANK2
      +6  BANK27  BANK28  BANK29  BANK30  BANK31
  7494 ;;      Params:         0       0       0       0       0       0       0       0       0       0       0       0       
      +0       0       0       0       0       0       0       0       0       0       0       0       0       0       0       
      +0       0       0       0       0       0
  7495 ;;      Locals:         0       0       0       0       0       0       0       0       0       0       0       0       
      +0       0       0       0       0       0       0       0       0       0       0       0       0       0       0       
      +0       0       0       0       0       0
  7496 ;;      Temps:          0       0       0       0       0       0       0       0       0       0       0       0       
      +0       0       0       0       0       0       0       0       0       0       0       0       0       0       0       
      +0       0       0       0       0       0
  7497 ;;      Totals:         0       0       0       0       0       0       0       0       0       0       0       0       
      +0       0       0       0       0       0       0       0       0       0       0       0       0       0       0       
      +0       0       0       0       0       0
  7498 ;;Total ram usage:        0 bytes
  7499 ;; Hardware stack levels used:    1
  7500 ;; Hardware stack levels required when called:    3
  7501 ;; This function calls:
  7502 ;;		Nothing
  7503 ;; This function is called by:
  7504 ;;		_eaDogM_WriteString
  7505 ;;		_pad
  7506 ;;		_stoa
  7507 ;; This function uses a reentrant model
  7508 ;;
  7509                           
  7510                           	psect	text34
  7511  004B0E                     __ptext34:
  7512                           	opt callstack 0
  7513  004B0E                     _strlen:
  7514                           	opt callstack 0
  7515                           
  7516                           ; autosize = 2, savesize = 0, parsavesize = 0, tempsize = 0 parsize = 2, argsize = 2 var
      +                          gsize = 0, retsize = 0 argfudge = 0
  7517  004B0E  52E6               	movf	postinc1,f,c
  7518  004B10  52E6               	movf	postinc1,f,c
  7519                           
  7520                           ;stkvar	_s @ sp[(-2)+-2]
  7521                           
  7522                           ;incstack = 0
  7523  004B12  0EFC               	movlw	-4
  7524  004B14  006F FF8C  F041    	movff	plusw1,btemp+10
  7525  004B1A  0EFD               	movlw	-3
  7526  004B1C  006F FF8C  F042    	movff	plusw1,btemp+11
  7527                           
  7528                           ;stkvar	_a @ sp[(-2)+0]
  7529  004B22  0EFF               	movlw	-1
  7530  004B24  0060  F10B  FFE3   	movff	btemp+11,plusw1
  7531  004B2A  0EFE               	movlw	-2
  7532  004B2C  0060  F107  FFE3   	movff	btemp+10,plusw1
  7533  004B32  D011               	goto	l4159
  7534  004B34                     l4157:
  7535                           
  7536                           ;stkvar	_s @ sp[(-2)+-2]
  7537  004B34  0EFC               	movlw	-4
  7538  004B36  50E3               	movf	plusw1,w,c
  7539  004B38  0F01               	addlw	1
  7540  004B3A  6E37               	movwf	btemp,c
  7541  004B3C  0EFC               	movlw	-4
  7542  004B3E  0060  F0DF  FFE3   	movff	btemp,plusw1
  7543  004B44  6A37               	clrf	btemp,c
  7544  004B46  0EFD               	movlw	-3
  7545  004B48  50E3               	movf	plusw1,w,c
  7546  004B4A  2037               	addwfc	btemp,w,c
  7547  004B4C  6E37               	movwf	btemp,c
  7548  004B4E  0EFD               	movlw	-3
  7549  004B50  0060  F0DF  FFE3   	movff	btemp,plusw1
  7550  004B56                     l4159:
  7551                           
  7552                           ;stkvar	_s @ sp[(-2)+-2]
  7553  004B56  0EFC               	movlw	-4
  7554  004B58  006F FF8F FFD9     	movff	plusw1,fsr2l
  7555  004B5E  0EFD               	movlw	-3
  7556  004B60  006F FF8F FFDA     	movff	plusw1,fsr2h
  7557  004B66  50DF               	movf	indf2,w,c
  7558  004B68  A4D8               	btfss	status,2,c
  7559  004B6A  D7E4               	goto	l4157
  7560                           
  7561                           ;stkvar	_a @ sp[(-2)+0]
  7562                           ;stkvar	_s @ sp[(-2)+-2]
  7563  004B6C  0EFC               	movlw	-4
  7564  004B6E  006F FF8C  F037    	movff	plusw1,btemp
  7565  004B74  0EFD               	movlw	-3
  7566  004B76  006F FF8C  F038    	movff	plusw1,btemp+1
  7567  004B7C  0EFE               	movlw	-2
  7568  004B7E  50E3               	movf	plusw1,w,c
  7569  004B80  5E37               	subwf	btemp,f,c
  7570  004B82  0EFF               	movlw	-1
  7571  004B84  50E3               	movf	plusw1,w,c
  7572  004B86  5A38               	subwfb	btemp+1,f,c
  7573                           
  7574                           ; _strlen: autosize = 2, savesize = 0, parsavesize = 0, tempsize = 0 parsize = 2, argsiz
      +                          e = 2, vargsize = 0
  7575  004B88  52E5               	movf	postdec1,f,c
  7576  004B8A  52E5               	movf	postdec1,f,c
  7577  004B8C  52E5               	movf	postdec1,f,c
  7578  004B8E  52E5               	movf	postdec1,f,c
  7579  004B90  0012               	return		;funcret
  7580  004B92                     __end_of_strlen:
  7581                           	opt callstack 0
  7582                           
  7583 ;; *************** function _fputs *****************
  7584 ;; Defined at:
  7585 ;;		line 8 in file "/opt/microchip/xc8/v2.05/pic/sources/c99/common/nf_fputs.c"
  7586 ;; Parameters:    Size  Location     Type
  7587 ;;  s               2  [STACK] PTR const unsigned char 
  7588 ;;		 -> dbuf(32), 
  7589 ;;  fp              2  [STACK] PTR struct _IO_FILE
  7590 ;;		 -> f(5), NULL(0), 
  7591 ;; Auto vars:     Size  Location     Type
  7592 ;;  i               2  [STACK] int 
  7593 ;;  c               1  [STACK] unsigned char 
  7594 ;; Return value:  Size  Location     Type
  7595 ;;                  2  [STACK] int 
  7596 ;; Registers used:
  7597 ;;		wreg, fsr0l, fsr0h, fsr1l, fsr1h, fsr2l, fsr2h, status,2, status,0, btemp, btemp+8, btemp+9, btemp+10, btemp+11, pro
      +dl
  7598 ;; Tracked objects:
  7599 ;;		On entry : 0/1
  7600 ;;		On exit  : 0/0
  7601 ;;		Unchanged: 0/0
  7602 ;; Data sizes:     COMRAM   BANK0   BANK1   BANK2   BANK3   BANK4   BANK5   BANK6   BANK7   BANK8   BANK9  BANK10  BANK1
      +1  BANK12  BANK13  BANK14  BANK15  BANK16  BANK17  BANK18  BANK19  BANK20  BANK21  BANK22  BANK23  BANK24  BANK25  BANK2
      +6  BANK27  BANK28  BANK29  BANK30  BANK31
  7603 ;;      Params:         0       0       0       0       0       0       0       0       0       0       0       0       
      +0       0       0       0       0       0       0       0       0       0       0       0       0       0       0       
      +0       0       0       0       0       0
  7604 ;;      Locals:         0       0       0       0       0       0       0       0       0       0       0       0       
      +0       0       0       0       0       0       0       0       0       0       0       0       0       0       0       
      +0       0       0       0       0       0
  7605 ;;      Temps:          0       0       0       0       0       0       0       0       0       0       0       0       
      +0       0       0       0       0       0       0       0       0       0       0       0       0       0       0       
      +0       0       0       0       0       0
  7606 ;;      Totals:         0       0       0       0       0       0       0       0       0       0       0       0       
      +0       0       0       0       0       0       0       0       0       0       0       0       0       0       0       
      +0       0       0       0       0       0
  7607 ;;Total ram usage:        0 bytes
  7608 ;; Hardware stack levels used:    1
  7609 ;; Hardware stack levels required when called:    6
  7610 ;; This function calls:
  7611 ;;		_fputc
  7612 ;; This function is called by:
  7613 ;;		_pad
  7614 ;; This function uses a reentrant model
  7615 ;;
  7616                           
  7617                           	psect	text35
  7618  004846                     __ptext35:
  7619                           	opt callstack 0
  7620  004846                     _fputs:
  7621                           	opt callstack 0
  7622                           
  7623                           ; autosize = 3, savesize = 0, parsavesize = 0, tempsize = 0 parsize = 4, argsize = 4 var
      +                          gsize = 0, retsize = 0 argfudge = 0
  7624  004846  52E6               	movf	postinc1,f,c
  7625  004848  52E6               	movf	postinc1,f,c
  7626  00484A  52E6               	movf	postinc1,f,c
  7627                           
  7628                           ;stkvar	_i @ sp[(-3)+0]
  7629                           
  7630                           ;incstack = 0
  7631  00484C  0EFD               	movlw	-3
  7632  00484E  6AE3               	clrf	plusw1,c
  7633  004850  0EFE               	movlw	-2
  7634  004852  6AE3               	clrf	plusw1,c
  7635  004854  D01F               	goto	l5843
  7636  004856                     l5839:
  7637                           
  7638                           ;stkvar	_fp @ sp[(-3)+-4]
  7639  004856  0EF9               	movlw	-7
  7640  004858  006F FF8F FFE6     	movff	plusw1,postinc1
  7641  00485E  006F FF8F FFE6     	movff	plusw1,postinc1
  7642                           
  7643                           ;stkvar	_c @ sp[(-5)+2]
  7644  004864  0EFD               	movlw	-3
  7645  004866  50E3               	movf	plusw1,w,c
  7646  004868  6EE6               	movwf	postinc1,c
  7647  00486A  0E00               	movlw	0
  7648  00486C  6EE6               	movwf	postinc1,c
  7649  00486E  EC70  F021         	call	_fputc	;wreg free
  7650                           
  7651                           ;stkvar	_i @ sp[(-3)+0]
  7652  004872  0EFD               	movlw	-3
  7653  004874  50E3               	movf	plusw1,w,c
  7654  004876  0F01               	addlw	1
  7655  004878  6E37               	movwf	btemp,c
  7656  00487A  0EFD               	movlw	-3
  7657  00487C  0060  F0DF  FFE3   	movff	btemp,plusw1
  7658  004882  6A37               	clrf	btemp,c
  7659  004884  0EFE               	movlw	-2
  7660  004886  50E3               	movf	plusw1,w,c
  7661  004888  2037               	addwfc	btemp,w,c
  7662  00488A  6E37               	movwf	btemp,c
  7663  00488C  0EFE               	movlw	-2
  7664  00488E  0060  F0DF  FFE3   	movff	btemp,plusw1
  7665  004894                     l5843:
  7666                           
  7667                           ;stkvar	_i @ sp[(-3)+0]
  7668  004894  0EFD               	movlw	-3
  7669  004896  006F FF8C  F041    	movff	plusw1,btemp+10
  7670  00489C  0EFE               	movlw	-2
  7671  00489E  006F FF8C  F042    	movff	plusw1,btemp+11
  7672                           
  7673                           ;stkvar	_s @ sp[(-3)+-2]
  7674  0048A4  0EFB               	movlw	-5
  7675  0048A6  006F FF8C  F03F    	movff	plusw1,btemp+8
  7676  0048AC  0EFC               	movlw	-4
  7677  0048AE  006F FF8C  F040    	movff	plusw1,btemp+9
  7678  0048B4  5041               	movf	btemp+10,w,c
  7679  0048B6  243F               	addwf	btemp+8,w,c
  7680  0048B8  6ED9               	movwf	fsr2l,c
  7681  0048BA  5042               	movf	btemp+11,w,c
  7682  0048BC  2040               	addwfc	btemp+9,w,c
  7683  0048BE  6EDA               	movwf	fsr2h,c
  7684  0048C0  50DF               	movf	indf2,w,c
  7685  0048C2  6E42               	movwf	btemp+11,c
  7686                           
  7687                           ;stkvar	_c @ sp[(-3)+2]
  7688  0048C4  0EFF               	movlw	-1
  7689  0048C6  0060  F10B  FFE3   	movff	btemp+11,plusw1
  7690  0048CC  0EFF               	movlw	-1
  7691  0048CE  50E3               	movf	plusw1,w,c
  7692  0048D0  A4D8               	btfss	status,2,c
  7693  0048D2  D7C1               	goto	l5839
  7694                           
  7695                           ; _fputs: autosize = 3, savesize = 0, parsavesize = 0, tempsize = 0 parsize = 4, argsize
      +                           = 4, vargsize = 0
  7696  0048D4  0EF9               	movlw	249
  7697  0048D6  26E1               	addwf	fsr1l,f,c
  7698  0048D8  0EFF               	movlw	255
  7699  0048DA  22E2               	addwfc	fsr1h,f,c
  7700  0048DC  0012               	return		;funcret
  7701  0048DE                     __end_of_fputs:
  7702                           	opt callstack 0
  7703                           
  7704 ;; *************** function _fputc *****************
  7705 ;; Defined at:
  7706 ;;		line 8 in file "/opt/microchip/xc8/v2.05/pic/sources/c99/common/nf_fputc.c"
  7707 ;; Parameters:    Size  Location     Type
  7708 ;;  c               2  [STACK] int 
  7709 ;;  fp              2  [STACK] PTR struct _IO_FILE
  7710 ;;		 -> f(5), NULL(0), 
  7711 ;; Auto vars:     Size  Location     Type
  7712 ;;		None
  7713 ;; Return value:  Size  Location     Type
  7714 ;;                  2  [STACK] int 
  7715 ;; Registers used:
  7716 ;;		wreg, fsr0l, fsr0h, fsr1l, fsr1h, fsr2l, fsr2h, status,2, status,0, btemp, btemp+8, btemp+9, btemp+10, btemp+11, pro
      +dl
  7717 ;; Tracked objects:
  7718 ;;		On entry : 0/3D
  7719 ;;		On exit  : 0/0
  7720 ;;		Unchanged: 0/0
  7721 ;; Data sizes:     COMRAM   BANK0   BANK1   BANK2   BANK3   BANK4   BANK5   BANK6   BANK7   BANK8   BANK9  BANK10  BANK1
      +1  BANK12  BANK13  BANK14  BANK15  BANK16  BANK17  BANK18  BANK19  BANK20  BANK21  BANK22  BANK23  BANK24  BANK25  BANK2
      +6  BANK27  BANK28  BANK29  BANK30  BANK31
  7722 ;;      Params:         0       0       0       0       0       0       0       0       0       0       0       0       
      +0       0       0       0       0       0       0       0       0       0       0       0       0       0       0       
      +0       0       0       0       0       0
  7723 ;;      Locals:         0       0       0       0       0       0       0       0       0       0       0       0       
      +0       0       0       0       0       0       0       0       0       0       0       0       0       0       0       
      +0       0       0       0       0       0
  7724 ;;      Temps:          0       0       0       0       0       0       0       0       0       0       0       0       
      +0       0       0       0       0       0       0       0       0       0       0       0       0       0       0       
      +0       0       0       0       0       0
  7725 ;;      Totals:         0       0       0       0       0       0       0       0       0       0       0       0       
      +0       0       0       0       0       0       0       0       0       0       0       0       0       0       0       
      +0       0       0       0       0       0
  7726 ;;Total ram usage:        0 bytes
  7727 ;; Hardware stack levels used:    1
  7728 ;; Hardware stack levels required when called:    5
  7729 ;; This function calls:
  7730 ;;		_putch
  7731 ;; This function is called by:
  7732 ;;		_pad
  7733 ;;		_stoa
  7734 ;;		_vfpfcnvrt
  7735 ;;		_fputs
  7736 ;; This function uses a reentrant model
  7737 ;;
  7738                           
  7739                           	psect	text36
  7740  0042E0                     __ptext36:
  7741                           	opt callstack 0
  7742  0042E0                     _fputc:
  7743                           	opt callstack 19
  7744                           
  7745                           ;stkvar	_fp @ sp[(0)+-4]
  7746                           
  7747                           ; autosize = 0, savesize = 0, parsavesize = 0, tempsize = 0 parsize = 4, argsize = 4 var
      +                          gsize = 0, retsize = 0 argfudge = 0
  7748                           ;incstack = 0
  7749  0042E0  0EFC               	movlw	-4
  7750  0042E2  006F FF8C  F037    	movff	plusw1,btemp
  7751  0042E8  0EFD               	movlw	-3
  7752  0042EA  50E3               	movf	plusw1,w,c
  7753  0042EC  1037               	iorwf	btemp,w,c
  7754  0042EE  B4D8               	btfsc	status,2,c
  7755  0042F0  D009               	goto	u3710
  7756                           
  7757                           ;stkvar	_fp @ sp[(0)+-4]
  7758  0042F2  0EFC               	movlw	-4
  7759  0042F4  006F FF8C  F037    	movff	plusw1,btemp
  7760  0042FA  0EFD               	movlw	-3
  7761  0042FC  50E3               	movf	plusw1,w,c
  7762  0042FE  1037               	iorwf	btemp,w,c
  7763  004300  A4D8               	btfss	status,2,c
  7764  004302  D006               	goto	l5829
  7765  004304                     u3710:
  7766                           
  7767                           ;stkvar	_c @ sp[(0)+-2]
  7768  004304  0EFE               	movlw	-2
  7769  004306  50E3               	movf	plusw1,w,c
  7770  004308  6EE6               	movwf	postinc1,c
  7771  00430A  EC2A  F02B         	call	_putch	;wreg free
  7772  00430E  D069               	goto	l2356
  7773  004310                     l5829:
  7774                           
  7775                           ;stkvar	_fp @ sp[(0)+-4]
  7776  004310  0EFC               	movlw	-4
  7777  004312  006F FF8C  F041    	movff	plusw1,btemp+10
  7778  004318  0EFD               	movlw	-3
  7779  00431A  006F FF8C  F042    	movff	plusw1,btemp+11
  7780  004320  0E03               	movlw	3
  7781  004322  2441               	addwf	btemp+10,w,c
  7782  004324  6ED9               	movwf	fsr2l,c
  7783  004326  0E00               	movlw	0
  7784  004328  2042               	addwfc	btemp+11,w,c
  7785  00432A  6EDA               	movwf	fsr2h,c
  7786  00432C  50DE               	movf	postinc2,w,c
  7787  00432E  10DE               	iorwf	postinc2,w,c
  7788  004330  B4D8               	btfsc	status,2,c
  7789  004332  D026               	goto	u3730
  7790                           
  7791                           ;stkvar	_fp @ sp[(0)+-4]
  7792  004334  0EFC               	movlw	-4
  7793  004336  006F FF8C  F041    	movff	plusw1,btemp+10
  7794  00433C  0EFD               	movlw	-3
  7795  00433E  006F FF8C  F042    	movff	plusw1,btemp+11
  7796  004344  0E03               	movlw	3
  7797  004346  2441               	addwf	btemp+10,w,c
  7798  004348  6ED9               	movwf	fsr2l,c
  7799  00434A  0E00               	movlw	0
  7800  00434C  2042               	addwfc	btemp+11,w,c
  7801  00434E  6EDA               	movwf	fsr2h,c
  7802                           
  7803                           ;stkvar	_fp @ sp[(0)+-4]
  7804  004350  0EFC               	movlw	-4
  7805  004352  006F FF8C  F041    	movff	plusw1,btemp+10
  7806  004358  0EFD               	movlw	-3
  7807  00435A  006F FF8C  F042    	movff	plusw1,btemp+11
  7808  004360  0E01               	movlw	1
  7809  004362  2441               	addwf	btemp+10,w,c
  7810  004364  6EE9               	movwf	fsr0l,c
  7811  004366  0E00               	movlw	0
  7812  004368  2042               	addwfc	btemp+11,w,c
  7813  00436A  6EEA               	movwf	fsr0h,c
  7814  00436C  50DE               	movf	postinc2,w,c
  7815  00436E  5CEE               	subwf	postinc0,w,c
  7816  004370  50EE               	movf	postinc0,w,c
  7817  004372  0A80               	xorlw	128
  7818  004374  6E37               	movwf	btemp,c
  7819  004376  50DE               	movf	postinc2,w,c
  7820  004378  0A80               	xorlw	128
  7821  00437A  5837               	subwfb	btemp,w,c
  7822  00437C  B0D8               	btfsc	status,0,c
  7823  00437E  D031               	goto	l2356
  7824  004380                     u3730:
  7825                           
  7826                           ;stkvar	_c @ sp[(0)+-2]
  7827                           ;stkvar	_fp @ sp[(0)+-4]
  7828  004380  0EFC               	movlw	-4
  7829  004382  006F FF8C  F041    	movff	plusw1,btemp+10
  7830  004388  0EFD               	movlw	-3
  7831  00438A  006F FF8C  F042    	movff	plusw1,btemp+11
  7832  004390  0E01               	movlw	1
  7833  004392  2441               	addwf	btemp+10,w,c
  7834  004394  6ED9               	movwf	fsr2l,c
  7835  004396  0E00               	movlw	0
  7836  004398  2042               	addwfc	btemp+11,w,c
  7837  00439A  6EDA               	movwf	fsr2h,c
  7838  00439C  50DF               	movf	indf2,w,c
  7839  00439E  6E42               	movwf	btemp+11,c
  7840                           
  7841                           ;stkvar	_fp @ sp[(0)+-4]
  7842  0043A0  0EFC               	movlw	-4
  7843  0043A2  006F FF8F FFD9     	movff	plusw1,fsr2l
  7844  0043A8  0EFD               	movlw	-3
  7845  0043AA  006F FF8F FFDA     	movff	plusw1,fsr2h
  7846  0043B0  50DF               	movf	indf2,w,c
  7847  0043B2  2442               	addwf	btemp+11,w,c
  7848  0043B4  6ED9               	movwf	fsr2l,c
  7849  0043B6  6ADA               	clrf	fsr2h,c
  7850  0043B8  0EFE               	movlw	-2
  7851  0043BA  006F FF8F FFDF     	movff	plusw1,indf2
  7852                           
  7853                           ;stkvar	_fp @ sp[(0)+-4]
  7854  0043C0  0EFC               	movlw	-4
  7855  0043C2  006F FF8C  F041    	movff	plusw1,btemp+10
  7856  0043C8  0EFD               	movlw	-3
  7857  0043CA  006F FF8C  F042    	movff	plusw1,btemp+11
  7858  0043D0  0E01               	movlw	1
  7859  0043D2  2441               	addwf	btemp+10,w,c
  7860  0043D4  6ED9               	movwf	fsr2l,c
  7861  0043D6  0E00               	movlw	0
  7862  0043D8  2042               	addwfc	btemp+11,w,c
  7863  0043DA  6EDA               	movwf	fsr2h,c
  7864  0043DC  2ADE               	incf	postinc2,f,c
  7865  0043DE  0E00               	movlw	0
  7866  0043E0  22DD               	addwfc	postdec2,f,c
  7867  0043E2                     l2356:
  7868                           
  7869                           ; _fputc: autosize = 0, savesize = 0, parsavesize = 0, tempsize = 0 parsize = 4, argsize
      +                           = 4, vargsize = 0
  7870  0043E2  52E5               	movf	postdec1,f,c
  7871  0043E4  52E5               	movf	postdec1,f,c
  7872  0043E6  52E5               	movf	postdec1,f,c
  7873  0043E8  52E5               	movf	postdec1,f,c
  7874  0043EA  0012               	return		;funcret
  7875  0043EC                     __end_of_fputc:
  7876                           	opt callstack 0
  7877                           
  7878 ;; *************** function _putch *****************
  7879 ;; Defined at:
  7880 ;;		line 138 in file "eadog.c"
  7881 ;; Parameters:    Size  Location     Type
  7882 ;;  c               1  [STACK] unsigned char 
  7883 ;; Auto vars:     Size  Location     Type
  7884 ;;		None
  7885 ;; Return value:  Size  Location     Type
  7886 ;;                  1  [STACK] void 
  7887 ;; Registers used:
  7888 ;;		wreg, fsr1l, fsr1h, fsr2l, fsr2h, status,2, status,0, btemp, btemp+8, btemp+9, btemp+10, btemp+11
  7889 ;; Tracked objects:
  7890 ;;		On entry : 0/3D
  7891 ;;		On exit  : 0/0
  7892 ;;		Unchanged: 0/0
  7893 ;; Data sizes:     COMRAM   BANK0   BANK1   BANK2   BANK3   BANK4   BANK5   BANK6   BANK7   BANK8   BANK9  BANK10  BANK1
      +1  BANK12  BANK13  BANK14  BANK15  BANK16  BANK17  BANK18  BANK19  BANK20  BANK21  BANK22  BANK23  BANK24  BANK25  BANK2
      +6  BANK27  BANK28  BANK29  BANK30  BANK31
  7894 ;;      Params:         0       0       0       0       0       0       0       0       0       0       0       0       
      +0       0       0       0       0       0       0       0       0       0       0       0       0       0       0       
      +0       0       0       0       0       0
  7895 ;;      Locals:         0       0       0       0       0       0       0       0       0       0       0       0       
      +0       0       0       0       0       0       0       0       0       0       0       0       0       0       0       
      +0       0       0       0       0       0
  7896 ;;      Temps:          0       0       0       0       0       0       0       0       0       0       0       0       
      +0       0       0       0       0       0       0       0       0       0       0       0       0       0       0       
      +0       0       0       0       0       0
  7897 ;;      Totals:         0       0       0       0       0       0       0       0       0       0       0       0       
      +0       0       0       0       0       0       0       0       0       0       0       0       0       0       0       
      +0       0       0       0       0       0
  7898 ;;Total ram usage:        0 bytes
  7899 ;; Hardware stack levels used:    1
  7900 ;; Hardware stack levels required when called:    4
  7901 ;; This function calls:
  7902 ;;		_ringBufS_put_dma
  7903 ;; This function is called by:
  7904 ;;		_fputc
  7905 ;; This function uses a reentrant model
  7906 ;;
  7907                           
  7908                           	psect	text37
  7909  005654                     __ptext37:
  7910                           	opt callstack 0
  7911  005654                     _putch:
  7912                           	opt callstack 19
  7913                           
  7914                           ;eadog.c: 138: void putch(char c);eadog.c: 139: {;eadog.c: 140:  ringBufS_put_dma(spi_li
      +                          nk.tx1a, c);
  7915                           ;stkvar	_c @ sp[(0)+-1]
  7916                           
  7917                           ; autosize = 0, savesize = 0, parsavesize = 0, tempsize = 0 parsize = 1, argsize = 1 var
      +                          gsize = 0, retsize = 0 argfudge = 0
  7918                           ;incstack = 0
  7919  005654  0EFF               	movlw	-1
  7920  005656  50E3               	movf	plusw1,w,c
  7921  005658  6EE6               	movwf	postinc1,c
  7922  00565A  0060  F1CF  FFE6   	movff	_spi_link+6,postinc1
  7923  005660  0060  F1D3  FFE6   	movff	_spi_link+7,postinc1
  7924  005666  EC81  F023         	call	_ringBufS_put_dma	;wreg free
  7925                           
  7926                           ; _putch: autosize = 0, savesize = 0, parsavesize = 0, tempsize = 0 parsize = 1, argsize
      +                           = 1, vargsize = 0
  7927  00566A  52E5               	movf	postdec1,f,c
  7928  00566C  0012               	return		;funcret
  7929  00566E                     __end_of_putch:
  7930                           	opt callstack 0
  7931                           
  7932 ;; *************** function _ringBufS_put_dma *****************
  7933 ;; Defined at:
  7934 ;;		line 67 in file "ringbufs.c"
  7935 ;; Parameters:    Size  Location     Type
  7936 ;;  _this           2  [STACK] PTR struct ringBufS_t
  7937 ;;		 -> ring_buf1(67), 
  7938 ;;  c               1  [STACK] const unsigned char 
  7939 ;; Auto vars:     Size  Location     Type
  7940 ;;		None
  7941 ;; Return value:  Size  Location     Type
  7942 ;;                  1  [STACK] void 
  7943 ;; Registers used:
  7944 ;;		wreg, fsr1l, fsr1h, fsr2l, fsr2h, status,2, status,0, btemp, btemp+8, btemp+9, btemp+10, btemp+11
  7945 ;; Tracked objects:
  7946 ;;		On entry : 0/3D
  7947 ;;		On exit  : 0/0
  7948 ;;		Unchanged: 0/0
  7949 ;; Data sizes:     COMRAM   BANK0   BANK1   BANK2   BANK3   BANK4   BANK5   BANK6   BANK7   BANK8   BANK9  BANK10  BANK1
      +1  BANK12  BANK13  BANK14  BANK15  BANK16  BANK17  BANK18  BANK19  BANK20  BANK21  BANK22  BANK23  BANK24  BANK25  BANK2
      +6  BANK27  BANK28  BANK29  BANK30  BANK31
  7950 ;;      Params:         0       0       0       0       0       0       0       0       0       0       0       0       
      +0       0       0       0       0       0       0       0       0       0       0       0       0       0       0       
      +0       0       0       0       0       0
  7951 ;;      Locals:         0       0       0       0       0       0       0       0       0       0       0       0       
      +0       0       0       0       0       0       0       0       0       0       0       0       0       0       0       
      +0       0       0       0       0       0
  7952 ;;      Temps:          0       0       0       0       0       0       0       0       0       0       0       0       
      +0       0       0       0       0       0       0       0       0       0       0       0       0       0       0       
      +0       0       0       0       0       0
  7953 ;;      Totals:         0       0       0       0       0       0       0       0       0       0       0       0       
      +0       0       0       0       0       0       0       0       0       0       0       0       0       0       0       
      +0       0       0       0       0       0
  7954 ;;Total ram usage:        0 bytes
  7955 ;; Hardware stack levels used:    1
  7956 ;; Hardware stack levels required when called:    3
  7957 ;; This function calls:
  7958 ;;		Nothing
  7959 ;; This function is called by:
  7960 ;;		_putch
  7961 ;; This function uses a reentrant model
  7962 ;;
  7963                           
  7964                           	psect	text38
  7965  004702                     __ptext38:
  7966                           	opt callstack 0
  7967  004702                     _ringBufS_put_dma:
  7968                           	opt callstack 19
  7969                           
  7970                           ;ringbufs.c: 67: void ringBufS_put_dma(ringBufS_t *_this, const uint8_t c);ringbufs.c: 6
      +                          8: {;ringbufs.c: 69:  if (_this->count < 64) {
  7971                           ;stkvar	__this @ sp[(0)+-2]
  7972                           
  7973                           ; autosize = 0, savesize = 0, parsavesize = 0, tempsize = 0 parsize = 3, argsize = 3 var
      +                          gsize = 0, retsize = 0 argfudge = 0
  7974                           ;incstack = 0
  7975  004702  0EFE               	movlw	-2
  7976  004704  006F FF8C  F041    	movff	plusw1,btemp+10
  7977  00470A  0EFF               	movlw	-1
  7978  00470C  006F FF8C  F042    	movff	plusw1,btemp+11
  7979  004712  0E42               	movlw	66
  7980  004714  2441               	addwf	btemp+10,w,c
  7981  004716  6ED9               	movwf	fsr2l,c
  7982  004718  0E00               	movlw	0
  7983  00471A  2042               	addwfc	btemp+11,w,c
  7984  00471C  6EDA               	movwf	fsr2h,c
  7985  00471E  0E40               	movlw	64
  7986  004720  60DF               	cpfslt	indf2,c
  7987  004722  D040               	goto	l1320
  7988                           
  7989                           ;ringbufs.c: 70:   _this->buf[_this->head] = c;
  7990                           ;stkvar	_c @ sp[(0)+-3]
  7991                           ;stkvar	__this @ sp[(0)+-2]
  7992  004724  0EFE               	movlw	-2
  7993  004726  006F FF8C  F041    	movff	plusw1,btemp+10
  7994  00472C  0EFF               	movlw	-1
  7995  00472E  006F FF8C  F042    	movff	plusw1,btemp+11
  7996  004734  0E40               	movlw	64
  7997  004736  2441               	addwf	btemp+10,w,c
  7998  004738  6ED9               	movwf	fsr2l,c
  7999  00473A  0E00               	movlw	0
  8000  00473C  2042               	addwfc	btemp+11,w,c
  8001  00473E  6EDA               	movwf	fsr2h,c
  8002  004740  50DF               	movf	indf2,w,c
  8003  004742  6E42               	movwf	btemp+11,c
  8004                           
  8005                           ;stkvar	__this @ sp[(0)+-2]
  8006  004744  0EFE               	movlw	-2
  8007  004746  006F FF8C  F03F    	movff	plusw1,btemp+8
  8008  00474C  0EFF               	movlw	-1
  8009  00474E  006F FF8C  F040    	movff	plusw1,btemp+9
  8010  004754  5042               	movf	btemp+11,w,c
  8011  004756  243F               	addwf	btemp+8,w,c
  8012  004758  6ED9               	movwf	fsr2l,c
  8013  00475A  0E00               	movlw	0
  8014  00475C  2040               	addwfc	btemp+9,w,c
  8015  00475E  6EDA               	movwf	fsr2h,c
  8016  004760  0EFD               	movlw	-3
  8017  004762  006F FF8F FFDF     	movff	plusw1,indf2
  8018                           
  8019                           ;ringbufs.c: 71:   ++_this->head;
  8020                           ;stkvar	__this @ sp[(0)+-2]
  8021  004768  0EFE               	movlw	-2
  8022  00476A  006F FF8C  F041    	movff	plusw1,btemp+10
  8023  004770  0EFF               	movlw	-1
  8024  004772  006F FF8C  F042    	movff	plusw1,btemp+11
  8025  004778  0E40               	movlw	64
  8026  00477A  2441               	addwf	btemp+10,w,c
  8027  00477C  6ED9               	movwf	fsr2l,c
  8028  00477E  0E00               	movlw	0
  8029  004780  2042               	addwfc	btemp+11,w,c
  8030  004782  6EDA               	movwf	fsr2h,c
  8031  004784  2ADF               	incf	indf2,f,c
  8032                           
  8033                           ;ringbufs.c: 72:   ++_this->count;
  8034                           ;stkvar	__this @ sp[(0)+-2]
  8035  004786  0EFE               	movlw	-2
  8036  004788  006F FF8C  F041    	movff	plusw1,btemp+10
  8037  00478E  0EFF               	movlw	-1
  8038  004790  006F FF8C  F042    	movff	plusw1,btemp+11
  8039  004796  0E42               	movlw	66
  8040  004798  2441               	addwf	btemp+10,w,c
  8041  00479A  6ED9               	movwf	fsr2l,c
  8042  00479C  0E00               	movlw	0
  8043  00479E  2042               	addwfc	btemp+11,w,c
  8044  0047A0  6EDA               	movwf	fsr2h,c
  8045  0047A2  2ADF               	incf	indf2,f,c
  8046  0047A4                     l1320:
  8047                           
  8048                           ; _ringBufS_put_dma: autosize = 0, savesize = 0, parsavesize = 0, tempsize = 0 parsize =
      +                           3, argsize = 3, vargsize = 0
  8049  0047A4  52E5               	movf	postdec1,f,c
  8050  0047A6  52E5               	movf	postdec1,f,c
  8051  0047A8  52E5               	movf	postdec1,f,c
  8052  0047AA  0012               	return		;funcret
  8053  0047AC                     __end_of_ringBufS_put_dma:
  8054                           	opt callstack 0
  8055                           
  8056 ;; *************** function _abs *****************
  8057 ;; Defined at:
  8058 ;;		line 1 in file "/opt/microchip/xc8/v2.05/pic/sources/c99/common/abs.c"
  8059 ;; Parameters:    Size  Location     Type
  8060 ;;  a               2  [STACK] int 
  8061 ;; Auto vars:     Size  Location     Type
  8062 ;;		None
  8063 ;; Return value:  Size  Location     Type
  8064 ;;                  2  [STACK] int 
  8065 ;; Registers used:
  8066 ;;		wreg, fsr1l, fsr1h, status,2, status,0, btemp, btemp+1
  8067 ;; Tracked objects:
  8068 ;;		On entry : 0/1
  8069 ;;		On exit  : 0/0
  8070 ;;		Unchanged: 0/0
  8071 ;; Data sizes:     COMRAM   BANK0   BANK1   BANK2   BANK3   BANK4   BANK5   BANK6   BANK7   BANK8   BANK9  BANK10  BANK1
      +1  BANK12  BANK13  BANK14  BANK15  BANK16  BANK17  BANK18  BANK19  BANK20  BANK21  BANK22  BANK23  BANK24  BANK25  BANK2
      +6  BANK27  BANK28  BANK29  BANK30  BANK31
  8072 ;;      Params:         0       0       0       0       0       0       0       0       0       0       0       0       
      +0       0       0       0       0       0       0       0       0       0       0       0       0       0       0       
      +0       0       0       0       0       0
  8073 ;;      Locals:         0       0       0       0       0       0       0       0       0       0       0       0       
      +0       0       0       0       0       0       0       0       0       0       0       0       0       0       0       
      +0       0       0       0       0       0
  8074 ;;      Temps:          0       0       0       0       0       0       0       0       0       0       0       0       
      +0       0       0       0       0       0       0       0       0       0       0       0       0       0       0       
      +0       0       0       0       0       0
  8075 ;;      Totals:         0       0       0       0       0       0       0       0       0       0       0       0       
      +0       0       0       0       0       0       0       0       0       0       0       0       0       0       0       
      +0       0       0       0       0       0
  8076 ;;Total ram usage:        0 bytes
  8077 ;; Hardware stack levels used:    1
  8078 ;; Hardware stack levels required when called:    3
  8079 ;; This function calls:
  8080 ;;		Nothing
  8081 ;; This function is called by:
  8082 ;;		_dtoa
  8083 ;; This function uses a reentrant model
  8084 ;;
  8085                           
  8086                           	psect	text39
  8087  004F24                     __ptext39:
  8088                           	opt callstack 0
  8089  004F24                     _abs:
  8090                           	opt callstack 23
  8091                           
  8092                           ;stkvar	_a @ sp[(0)+-2]
  8093                           
  8094                           ; autosize = 0, savesize = 0, parsavesize = 0, tempsize = 0 parsize = 2, argsize = 2 var
      +                          gsize = 0, retsize = 0 argfudge = 0
  8095                           ;incstack = 0
  8096  004F24  0EFF               	movlw	-1
  8097  004F26  BEE3               	btfsc	plusw1,7,c
  8098  004F28  D007               	goto	u2020
  8099  004F2A  0EFF               	movlw	-1
  8100  004F2C  50E3               	movf	plusw1,w,c
  8101  004F2E  E112               	bnz	l4203
  8102  004F30  0EFE               	movlw	-2
  8103  004F32  04E3               	decf	plusw1,w,c
  8104  004F34  B0D8               	btfsc	status,0,c
  8105  004F36  D00E               	goto	l4203
  8106  004F38                     u2020:
  8107                           
  8108                           ;stkvar	_a @ sp[(0)+-2]
  8109  004F38  0EFE               	movlw	-2
  8110  004F3A  006F FF8C  F037    	movff	plusw1,btemp
  8111  004F40  1E37               	comf	btemp,f,c
  8112  004F42  0EFF               	movlw	-1
  8113  004F44  006F FF8C  F038    	movff	plusw1,btemp+1
  8114  004F4A  1E38               	comf	btemp+1,f,c
  8115  004F4C  2A37               	incf	btemp,f,c
  8116  004F4E  B4D8               	btfsc	status,2,c
  8117  004F50  2A38               	incf	btemp+1,f,c
  8118  004F52  D008               	goto	l2277
  8119  004F54                     l4203:
  8120                           
  8121                           ;stkvar	_a @ sp[(0)+-2]
  8122  004F54  0EFE               	movlw	-2
  8123  004F56  006F FF8C  F037    	movff	plusw1,btemp
  8124  004F5C  0EFF               	movlw	-1
  8125  004F5E  006F FF8C  F038    	movff	plusw1,btemp+1
  8126  004F64                     l2277:
  8127                           
  8128                           ; _abs: autosize = 0, savesize = 0, parsavesize = 0, tempsize = 0 parsize = 2, argsize =
      +                           2, vargsize = 0
  8129  004F64  52E5               	movf	postdec1,f,c
  8130  004F66  52E5               	movf	postdec1,f,c
  8131  004F68  0012               	return		;funcret
  8132  004F6A                     __end_of_abs:
  8133                           	opt callstack 0
  8134                           
  8135 ;; *************** function ___aomod *****************
  8136 ;; Defined at:
  8137 ;;		line 9 in file "/opt/microchip/xc8/v2.05/pic/sources/c99/common/aomod.c"
  8138 ;; Parameters:    Size  Location     Type
  8139 ;;  dividend        8  [STACK] long long 
  8140 ;;  divisor         8  [STACK] long long 
  8141 ;; Auto vars:     Size  Location     Type
  8142 ;;  sign            1  [STACK] unsigned char 
  8143 ;;  counter         1  [STACK] unsigned char 
  8144 ;; Return value:  Size  Location     Type
  8145 ;;                  8  [STACK] long long 
  8146 ;; Registers used:
  8147 ;;		wreg, fsr1l, fsr1h, fsr2l, fsr2h, status,2, status,0, btemp
  8148 ;; Tracked objects:
  8149 ;;		On entry : 0/1
  8150 ;;		On exit  : 0/0
  8151 ;;		Unchanged: 0/0
  8152 ;; Data sizes:     COMRAM   BANK0   BANK1   BANK2   BANK3   BANK4   BANK5   BANK6   BANK7   BANK8   BANK9  BANK10  BANK1
      +1  BANK12  BANK13  BANK14  BANK15  BANK16  BANK17  BANK18  BANK19  BANK20  BANK21  BANK22  BANK23  BANK24  BANK25  BANK2
      +6  BANK27  BANK28  BANK29  BANK30  BANK31
  8153 ;;      Params:         0       0       0       0       0       0       0       0       0       0       0       0       
      +0       0       0       0       0       0       0       0       0       0       0       0       0       0       0       
      +0       0       0       0       0       0
  8154 ;;      Locals:         0       0       0       0       0       0       0       0       0       0       0       0       
      +0       0       0       0       0       0       0       0       0       0       0       0       0       0       0       
      +0       0       0       0       0       0
  8155 ;;      Temps:          0       0       0       0       0       0       0       0       0       0       0       0       
      +0       0       0       0       0       0       0       0       0       0       0       0       0       0       0       
      +0       0       0       0       0       0
  8156 ;;      Totals:         0       0       0       0       0       0       0       0       0       0       0       0       
      +0       0       0       0       0       0       0       0       0       0       0       0       0       0       0       
      +0       0       0       0       0       0
  8157 ;;Total ram usage:        0 bytes
  8158 ;; Hardware stack levels used:    1
  8159 ;; Hardware stack levels required when called:    3
  8160 ;; This function calls:
  8161 ;;		Nothing
  8162 ;; This function is called by:
  8163 ;;		_dtoa
  8164 ;; This function uses a reentrant model
  8165 ;;
  8166                           
  8167                           	psect	text40
  8168  0039D6                     __ptext40:
  8169                           	opt callstack 0
  8170  0039D6                     ___aomod:
  8171                           	opt callstack 0
  8172                           
  8173                           ; autosize = 2, savesize = 0, parsavesize = 0, tempsize = 0 parsize = 16, argsize = 16 v
      +                          argsize = 0, retsize = 8 argfudge = 0
  8174  0039D6  52E6               	movf	postinc1,f,c
  8175  0039D8  52E6               	movf	postinc1,f,c
  8176                           
  8177                           ;stkvar	_sign @ sp[(-2)+0]
  8178                           
  8179                           ;incstack = 0
  8180  0039DA  0EFE               	movlw	-2
  8181  0039DC  6AE3               	clrf	plusw1,c
  8182                           
  8183                           ;stkvar	_dividend @ sp[(-2)+-8]
  8184  0039DE  0EFD               	movlw	-3
  8185  0039E0  AEE3               	btfss	plusw1,7,c
  8186  0039E2  D028               	goto	l4285
  8187                           
  8188                           ;stkvar	_dividend @ sp[(-2)+-8]
  8189                           ;stkvar	_dividend @ sp[(-2)+-8]
  8190  0039E4  0EF6               	movlw	-10
  8191  0039E6  6CE3               	negf	plusw1,c
  8192  0039E8  0EF7               	movlw	-9
  8193  0039EA  1EE3               	comf	plusw1,f,c
  8194  0039EC  0EF8               	movlw	-8
  8195  0039EE  1EE3               	comf	plusw1,f,c
  8196  0039F0  0EF9               	movlw	-7
  8197  0039F2  1EE3               	comf	plusw1,f,c
  8198  0039F4  0EFA               	movlw	-6
  8199  0039F6  1EE3               	comf	plusw1,f,c
  8200  0039F8  0EFB               	movlw	-5
  8201  0039FA  1EE3               	comf	plusw1,f,c
  8202  0039FC  0EFC               	movlw	-4
  8203  0039FE  1EE3               	comf	plusw1,f,c
  8204  003A00  0EFD               	movlw	-3
  8205  003A02  1EE3               	comf	plusw1,f,c
  8206  003A04  E314               	bnc	u2250
  8207  003A06  0EF7               	movlw	-9
  8208  003A08  2AE3               	incf	plusw1,f,c
  8209  003A0A  E311               	bnc	u2250
  8210  003A0C  0EF8               	movlw	-8
  8211  003A0E  2AE3               	incf	plusw1,f,c
  8212  003A10  E30E               	bnc	u2250
  8213  003A12  0EF9               	movlw	-7
  8214  003A14  2AE3               	incf	plusw1,f,c
  8215  003A16  E30B               	bnc	u2250
  8216  003A18  0EFA               	movlw	-6
  8217  003A1A  2AE3               	incf	plusw1,f,c
  8218  003A1C  E308               	bnc	u2250
  8219  003A1E  0EFB               	movlw	-5
  8220  003A20  2AE3               	incf	plusw1,f,c
  8221  003A22  E305               	bnc	u2250
  8222  003A24  0EFC               	movlw	-4
  8223  003A26  2AE3               	incf	plusw1,f,c
  8224  003A28  E302               	bnc	u2250
  8225  003A2A  0EFD               	movlw	-3
  8226  003A2C  2AE3               	incf	plusw1,f,c
  8227  003A2E                     u2250:
  8228                           
  8229                           ;stkvar	_sign @ sp[(-2)+0]
  8230  003A2E  0EFE               	movlw	-2
  8231  003A30  6AE3               	clrf	plusw1,c
  8232  003A32  2AE3               	incf	plusw1,f,c
  8233  003A34                     l4285:
  8234                           
  8235                           ;stkvar	_divisor @ sp[(-2)+-16]
  8236  003A34  0EF5               	movlw	-11
  8237  003A36  AEE3               	btfss	plusw1,7,c
  8238  003A38  D025               	goto	u2270
  8239                           
  8240                           ;stkvar	_divisor @ sp[(-2)+-16]
  8241                           ;stkvar	_divisor @ sp[(-2)+-16]
  8242  003A3A  0EEE               	movlw	-18
  8243  003A3C  6CE3               	negf	plusw1,c
  8244  003A3E  0EEF               	movlw	-17
  8245  003A40  1EE3               	comf	plusw1,f,c
  8246  003A42  0EF0               	movlw	-16
  8247  003A44  1EE3               	comf	plusw1,f,c
  8248  003A46  0EF1               	movlw	-15
  8249  003A48  1EE3               	comf	plusw1,f,c
  8250  003A4A  0EF2               	movlw	-14
  8251  003A4C  1EE3               	comf	plusw1,f,c
  8252  003A4E  0EF3               	movlw	-13
  8253  003A50  1EE3               	comf	plusw1,f,c
  8254  003A52  0EF4               	movlw	-12
  8255  003A54  1EE3               	comf	plusw1,f,c
  8256  003A56  0EF5               	movlw	-11
  8257  003A58  1EE3               	comf	plusw1,f,c
  8258  003A5A  E314               	bnc	u2270
  8259  003A5C  0EEF               	movlw	-17
  8260  003A5E  2AE3               	incf	plusw1,f,c
  8261  003A60  E311               	bnc	u2270
  8262  003A62  0EF0               	movlw	-16
  8263  003A64  2AE3               	incf	plusw1,f,c
  8264  003A66  E30E               	bnc	u2270
  8265  003A68  0EF1               	movlw	-15
  8266  003A6A  2AE3               	incf	plusw1,f,c
  8267  003A6C  E30B               	bnc	u2270
  8268  003A6E  0EF2               	movlw	-14
  8269  003A70  2AE3               	incf	plusw1,f,c
  8270  003A72  E308               	bnc	u2270
  8271  003A74  0EF3               	movlw	-13
  8272  003A76  2AE3               	incf	plusw1,f,c
  8273  003A78  E305               	bnc	u2270
  8274  003A7A  0EF4               	movlw	-12
  8275  003A7C  2AE3               	incf	plusw1,f,c
  8276  003A7E  E302               	bnc	u2270
  8277  003A80  0EF5               	movlw	-11
  8278  003A82  2AE3               	incf	plusw1,f,c
  8279  003A84                     u2270:
  8280                           
  8281                           ;stkvar	_divisor @ sp[(-2)+-16]
  8282  003A84  0EEE               	movlw	-18
  8283  003A86  50E3               	movf	plusw1,w,c
  8284  003A88  E116               	bnz	u2280
  8285  003A8A  0EEF               	movlw	-17
  8286  003A8C  50E3               	movf	plusw1,w,c
  8287  003A8E  E113               	bnz	u2280
  8288  003A90  0EF0               	movlw	-16
  8289  003A92  50E3               	movf	plusw1,w,c
  8290  003A94  E110               	bnz	u2280
  8291  003A96  0EF1               	movlw	-15
  8292  003A98  50E3               	movf	plusw1,w,c
  8293  003A9A  E10D               	bnz	u2280
  8294  003A9C  0EF2               	movlw	-14
  8295  003A9E  50E3               	movf	plusw1,w,c
  8296  003AA0  E10A               	bnz	u2280
  8297  003AA2  0EF3               	movlw	-13
  8298  003AA4  50E3               	movf	plusw1,w,c
  8299  003AA6  E107               	bnz	u2280
  8300  003AA8  0EF4               	movlw	-12
  8301  003AAA  50E3               	movf	plusw1,w,c
  8302  003AAC  E104               	bnz	u2280
  8303  003AAE  0EF5               	movlw	-11
  8304  003AB0  50E3               	movf	plusw1,w,c
  8305  003AB2  B4D8               	btfsc	status,2,c
  8306  003AB4  D075               	goto	u2310
  8307  003AB6                     u2280:
  8308                           
  8309                           ;stkvar	_counter @ sp[(-2)+1]
  8310  003AB6  0EFF               	movlw	-1
  8311  003AB8  6AE3               	clrf	plusw1,c
  8312  003ABA  D012               	goto	L21
  8313  003ABC                     l4293:
  8314                           
  8315                           ;stkvar	_divisor @ sp[(-2)+-16]
  8316  003ABC  90D8               	bcf	status,0,c
  8317  003ABE  0EEE               	movlw	-18
  8318  003AC0  36E3               	rlcf	plusw1,f,c
  8319  003AC2  0EEF               	movlw	-17
  8320  003AC4  36E3               	rlcf	plusw1,f,c
  8321  003AC6  0EF0               	movlw	-16
  8322  003AC8  36E3               	rlcf	plusw1,f,c
  8323  003ACA  0EF1               	movlw	-15
  8324  003ACC  36E3               	rlcf	plusw1,f,c
  8325  003ACE  0EF2               	movlw	-14
  8326  003AD0  36E3               	rlcf	plusw1,f,c
  8327  003AD2  0EF3               	movlw	-13
  8328  003AD4  36E3               	rlcf	plusw1,f,c
  8329  003AD6  0EF4               	movlw	-12
  8330  003AD8  36E3               	rlcf	plusw1,f,c
  8331  003ADA  0EF5               	movlw	-11
  8332  003ADC  36E3               	rlcf	plusw1,f,c
  8333                           
  8334                           ;stkvar	_counter @ sp[(-2)+1]
  8335  003ADE  0EFF               	movlw	-1
  8336  003AE0                     L21:
  8337  003AE0  2AE3               	incf	plusw1,f,c
  8338                           
  8339                           ;stkvar	_divisor @ sp[(-2)+-16]
  8340  003AE2  0EF5               	movlw	-11
  8341  003AE4  AEE3               	btfss	plusw1,7,c
  8342  003AE6  D7EA               	goto	l4293
  8343  003AE8                     u2290:
  8344                           
  8345                           ;stkvar	_divisor @ sp[(-2)+-16]
  8346                           ;stkvar	_dividend @ sp[(-2)+-8]
  8347  003AE8  50E1               	movf	fsr1l,w,c
  8348  003AEA  0FF6               	addlw	-10
  8349  003AEC  6ED9               	movwf	fsr2l,c
  8350  003AEE  50E2               	movf	fsr1h,w,c
  8351  003AF0  6EDA               	movwf	fsr2h,c
  8352  003AF2  0EFF               	movlw	255
  8353  003AF4  22DA               	addwfc	fsr2h,f,c
  8354  003AF6  0EEE               	movlw	-18
  8355  003AF8  50E3               	movf	plusw1,w,c
  8356  003AFA  5CDE               	subwf	postinc2,w,c
  8357  003AFC  0EEF               	movlw	-17
  8358  003AFE  50E3               	movf	plusw1,w,c
  8359  003B00  58DE               	subwfb	postinc2,w,c
  8360  003B02  0EF0               	movlw	-16
  8361  003B04  50E3               	movf	plusw1,w,c
  8362  003B06  58DE               	subwfb	postinc2,w,c
  8363  003B08  0EF1               	movlw	-15
  8364  003B0A  50E3               	movf	plusw1,w,c
  8365  003B0C  58DE               	subwfb	postinc2,w,c
  8366  003B0E  0EF2               	movlw	-14
  8367  003B10  50E3               	movf	plusw1,w,c
  8368  003B12  58DE               	subwfb	postinc2,w,c
  8369  003B14  0EF3               	movlw	-13
  8370  003B16  50E3               	movf	plusw1,w,c
  8371  003B18  58DE               	subwfb	postinc2,w,c
  8372  003B1A  0EF4               	movlw	-12
  8373  003B1C  50E3               	movf	plusw1,w,c
  8374  003B1E  58DE               	subwfb	postinc2,w,c
  8375  003B20  0EF5               	movlw	-11
  8376  003B22  50E3               	movf	plusw1,w,c
  8377  003B24  58DE               	subwfb	postinc2,w,c
  8378  003B26  A0D8               	btfss	status,0,c
  8379  003B28  D01F               	goto	l4301
  8380                           
  8381                           ;stkvar	_divisor @ sp[(-2)+-16]
  8382                           ;stkvar	_dividend @ sp[(-2)+-8]
  8383  003B2A  50E1               	movf	fsr1l,w,c
  8384  003B2C  0FF6               	addlw	-10
  8385  003B2E  6ED9               	movwf	fsr2l,c
  8386  003B30  50E2               	movf	fsr1h,w,c
  8387  003B32  6EDA               	movwf	fsr2h,c
  8388  003B34  0EFF               	movlw	255
  8389  003B36  22DA               	addwfc	fsr2h,f,c
  8390  003B38  0EEE               	movlw	-18
  8391  003B3A  50E3               	movf	plusw1,w,c
  8392  003B3C  5EDE               	subwf	postinc2,f,c
  8393  003B3E  0EEF               	movlw	-17
  8394  003B40  50E3               	movf	plusw1,w,c
  8395  003B42  5ADE               	subwfb	postinc2,f,c
  8396  003B44  0EF0               	movlw	-16
  8397  003B46  50E3               	movf	plusw1,w,c
  8398  003B48  5ADE               	subwfb	postinc2,f,c
  8399  003B4A  0EF1               	movlw	-15
  8400  003B4C  50E3               	movf	plusw1,w,c
  8401  003B4E  5ADE               	subwfb	postinc2,f,c
  8402  003B50  0EF2               	movlw	-14
  8403  003B52  50E3               	movf	plusw1,w,c
  8404  003B54  5ADE               	subwfb	postinc2,f,c
  8405  003B56  0EF3               	movlw	-13
  8406  003B58  50E3               	movf	plusw1,w,c
  8407  003B5A  5ADE               	subwfb	postinc2,f,c
  8408  003B5C  0EF4               	movlw	-12
  8409  003B5E  50E3               	movf	plusw1,w,c
  8410  003B60  5ADE               	subwfb	postinc2,f,c
  8411  003B62  0EF5               	movlw	-11
  8412  003B64  50E3               	movf	plusw1,w,c
  8413  003B66  5ADE               	subwfb	postinc2,f,c
  8414  003B68                     l4301:
  8415                           
  8416                           ;stkvar	_divisor @ sp[(-2)+-16]
  8417  003B68  90D8               	bcf	status,0,c
  8418  003B6A  0EF5               	movlw	-11
  8419  003B6C  32E3               	rrcf	plusw1,f,c
  8420  003B6E  0EF4               	movlw	-12
  8421  003B70  32E3               	rrcf	plusw1,f,c
  8422  003B72  0EF3               	movlw	-13
  8423  003B74  32E3               	rrcf	plusw1,f,c
  8424  003B76  0EF2               	movlw	-14
  8425  003B78  32E3               	rrcf	plusw1,f,c
  8426  003B7A  0EF1               	movlw	-15
  8427  003B7C  32E3               	rrcf	plusw1,f,c
  8428  003B7E  0EF0               	movlw	-16
  8429  003B80  32E3               	rrcf	plusw1,f,c
  8430  003B82  0EEF               	movlw	-17
  8431  003B84  32E3               	rrcf	plusw1,f,c
  8432  003B86  0EEE               	movlw	-18
  8433  003B88  32E3               	rrcf	plusw1,f,c
  8434                           
  8435                           ;stkvar	_counter @ sp[(-2)+1]
  8436  003B8A  0EFF               	movlw	-1
  8437  003B8C  50E3               	movf	plusw1,w,c
  8438  003B8E  6E37               	movwf	btemp,c
  8439  003B90  0E01               	movlw	1
  8440  003B92  5E37               	subwf	btemp,f,c
  8441  003B94  0EFF               	movlw	-1
  8442  003B96  0060  F0DF  FFE3   	movff	btemp,plusw1
  8443  003B9C  A4D8               	btfss	status,2,c
  8444  003B9E  D7A4               	goto	u2290
  8445  003BA0                     u2310:
  8446                           
  8447                           ;stkvar	_sign @ sp[(-2)+0]
  8448  003BA0  0EFE               	movlw	-2
  8449  003BA2  50E3               	movf	plusw1,w,c
  8450  003BA4  B4D8               	btfsc	status,2,c
  8451  003BA6  D025               	goto	u2330
  8452                           
  8453                           ;stkvar	_dividend @ sp[(-2)+-8]
  8454                           ;stkvar	_dividend @ sp[(-2)+-8]
  8455  003BA8  0EF6               	movlw	-10
  8456  003BAA  6CE3               	negf	plusw1,c
  8457  003BAC  0EF7               	movlw	-9
  8458  003BAE  1EE3               	comf	plusw1,f,c
  8459  003BB0  0EF8               	movlw	-8
  8460  003BB2  1EE3               	comf	plusw1,f,c
  8461  003BB4  0EF9               	movlw	-7
  8462  003BB6  1EE3               	comf	plusw1,f,c
  8463  003BB8  0EFA               	movlw	-6
  8464  003BBA  1EE3               	comf	plusw1,f,c
  8465  003BBC  0EFB               	movlw	-5
  8466  003BBE  1EE3               	comf	plusw1,f,c
  8467  003BC0  0EFC               	movlw	-4
  8468  003BC2  1EE3               	comf	plusw1,f,c
  8469  003BC4  0EFD               	movlw	-3
  8470  003BC6  1EE3               	comf	plusw1,f,c
  8471  003BC8  E314               	bnc	u2330
  8472  003BCA  0EF7               	movlw	-9
  8473  003BCC  2AE3               	incf	plusw1,f,c
  8474  003BCE  E311               	bnc	u2330
  8475  003BD0  0EF8               	movlw	-8
  8476  003BD2  2AE3               	incf	plusw1,f,c
  8477  003BD4  E30E               	bnc	u2330
  8478  003BD6  0EF9               	movlw	-7
  8479  003BD8  2AE3               	incf	plusw1,f,c
  8480  003BDA  E30B               	bnc	u2330
  8481  003BDC  0EFA               	movlw	-6
  8482  003BDE  2AE3               	incf	plusw1,f,c
  8483  003BE0  E308               	bnc	u2330
  8484  003BE2  0EFB               	movlw	-5
  8485  003BE4  2AE3               	incf	plusw1,f,c
  8486  003BE6  E305               	bnc	u2330
  8487  003BE8  0EFC               	movlw	-4
  8488  003BEA  2AE3               	incf	plusw1,f,c
  8489  003BEC  E302               	bnc	u2330
  8490  003BEE  0EFD               	movlw	-3
  8491  003BF0  2AE3               	incf	plusw1,f,c
  8492  003BF2                     u2330:
  8493                           
  8494                           ;stkvar	_dividend @ sp[(-2)+-8]
  8495  003BF2  0EF6               	movlw	246
  8496  003BF4  24E1               	addwf	fsr1l,w,c
  8497  003BF6  6ED9               	movwf	fsr2l,c
  8498  003BF8  0EFF               	movlw	255
  8499  003BFA  20E2               	addwfc	fsr1h,w,c
  8500  003BFC  6EDA               	movwf	fsr2h,c
  8501                           
  8502                           ;stkvar	?___aomod @ sp[(-2)+-8]
  8503  003BFE  0E08               	movlw	8
  8504  003C00  6E37               	movwf	btemp,c
  8505  003C02  0EF6               	movlw	-10
  8506  003C04                     us234999:
  8507  003C04  006F FF7B FFE3     	movff	postinc2,plusw1
  8508  003C0A  28E8               	incf	wreg,w,c
  8509  003C0C  2E37               	decfsz	btemp,f,c
  8510  003C0E  D7FA               	bra	us234999
  8511                           
  8512                           ; ___aomod: autosize = 2, savesize = 0, parsavesize = 0, tempsize = 0 parsize = 16, args
      +                          ize = 16, vargsize = 0
  8513  003C10  52E5               	movf	postdec1,f,c
  8514  003C12  52E5               	movf	postdec1,f,c
  8515  003C14  0012               	return		;funcret
  8516  003C16                     __end_of___aomod:
  8517                           	opt callstack 0
  8518                           
  8519 ;; *************** function ___aodiv *****************
  8520 ;; Defined at:
  8521 ;;		line 9 in file "/opt/microchip/xc8/v2.05/pic/sources/c99/common/aodiv.c"
  8522 ;; Parameters:    Size  Location     Type
  8523 ;;  dividend        8  [STACK] long long 
  8524 ;;  divisor         8  [STACK] long long 
  8525 ;; Auto vars:     Size  Location     Type
  8526 ;;  quotient        8  [STACK] long long 
  8527 ;;  sign            1  [STACK] unsigned char 
  8528 ;;  counter         1  [STACK] unsigned char 
  8529 ;; Return value:  Size  Location     Type
  8530 ;;                  8  [STACK] long long 
  8531 ;; Registers used:
  8532 ;;		wreg, fsr1l, fsr1h, fsr2l, fsr2h, status,2, status,0, btemp
  8533 ;; Tracked objects:
  8534 ;;		On entry : 0/1
  8535 ;;		On exit  : 0/0
  8536 ;;		Unchanged: 0/0
  8537 ;; Data sizes:     COMRAM   BANK0   BANK1   BANK2   BANK3   BANK4   BANK5   BANK6   BANK7   BANK8   BANK9  BANK10  BANK1
      +1  BANK12  BANK13  BANK14  BANK15  BANK16  BANK17  BANK18  BANK19  BANK20  BANK21  BANK22  BANK23  BANK24  BANK25  BANK2
      +6  BANK27  BANK28  BANK29  BANK30  BANK31
  8538 ;;      Params:         0       0       0       0       0       0       0       0       0       0       0       0       
      +0       0       0       0       0       0       0       0       0       0       0       0       0       0       0       
      +0       0       0       0       0       0
  8539 ;;      Locals:         0       0       0       0       0       0       0       0       0       0       0       0       
      +0       0       0       0       0       0       0       0       0       0       0       0       0       0       0       
      +0       0       0       0       0       0
  8540 ;;      Temps:          0       0       0       0       0       0       0       0       0       0       0       0       
      +0       0       0       0       0       0       0       0       0       0       0       0       0       0       0       
      +0       0       0       0       0       0
  8541 ;;      Totals:         0       0       0       0       0       0       0       0       0       0       0       0       
      +0       0       0       0       0       0       0       0       0       0       0       0       0       0       0       
      +0       0       0       0       0       0
  8542 ;;Total ram usage:        0 bytes
  8543 ;; Hardware stack levels used:    1
  8544 ;; Hardware stack levels required when called:    3
  8545 ;; This function calls:
  8546 ;;		Nothing
  8547 ;; This function is called by:
  8548 ;;		_dtoa
  8549 ;; This function uses a reentrant model
  8550 ;;
  8551                           
  8552                           	psect	text41
  8553  003756                     __ptext41:
  8554                           	opt callstack 0
  8555  003756                     ___aodiv:
  8556                           	opt callstack 0
  8557                           
  8558                           ; autosize = 10, savesize = 0, parsavesize = 0, tempsize = 0 parsize = 16, argsize = 16 
      +                          vargsize = 0, retsize = 8 argfudge = 0
  8559  003756  0E0A               	movlw	10
  8560  003758  26E1               	addwf	fsr1l,f,c
  8561  00375A  0E00               	movlw	0
  8562  00375C  22E2               	addwfc	fsr1h,f,c
  8563                           
  8564                           ;stkvar	_sign @ sp[(-10)+8]
  8565                           
  8566                           ;incstack = 0
  8567  00375E  0EFE               	movlw	-2
  8568  003760  6AE3               	clrf	plusw1,c
  8569                           
  8570                           ;stkvar	_divisor @ sp[(-10)+-16]
  8571  003762  0EED               	movlw	-19
  8572  003764  AEE3               	btfss	plusw1,7,c
  8573  003766  D028               	goto	l4241
  8574                           
  8575                           ;stkvar	_divisor @ sp[(-10)+-16]
  8576                           ;stkvar	_divisor @ sp[(-10)+-16]
  8577  003768  0EE6               	movlw	-26
  8578  00376A  6CE3               	negf	plusw1,c
  8579  00376C  0EE7               	movlw	-25
  8580  00376E  1EE3               	comf	plusw1,f,c
  8581  003770  0EE8               	movlw	-24
  8582  003772  1EE3               	comf	plusw1,f,c
  8583  003774  0EE9               	movlw	-23
  8584  003776  1EE3               	comf	plusw1,f,c
  8585  003778  0EEA               	movlw	-22
  8586  00377A  1EE3               	comf	plusw1,f,c
  8587  00377C  0EEB               	movlw	-21
  8588  00377E  1EE3               	comf	plusw1,f,c
  8589  003780  0EEC               	movlw	-20
  8590  003782  1EE3               	comf	plusw1,f,c
  8591  003784  0EED               	movlw	-19
  8592  003786  1EE3               	comf	plusw1,f,c
  8593  003788  E314               	bnc	u2130
  8594  00378A  0EE7               	movlw	-25
  8595  00378C  2AE3               	incf	plusw1,f,c
  8596  00378E  E311               	bnc	u2130
  8597  003790  0EE8               	movlw	-24
  8598  003792  2AE3               	incf	plusw1,f,c
  8599  003794  E30E               	bnc	u2130
  8600  003796  0EE9               	movlw	-23
  8601  003798  2AE3               	incf	plusw1,f,c
  8602  00379A  E30B               	bnc	u2130
  8603  00379C  0EEA               	movlw	-22
  8604  00379E  2AE3               	incf	plusw1,f,c
  8605  0037A0  E308               	bnc	u2130
  8606  0037A2  0EEB               	movlw	-21
  8607  0037A4  2AE3               	incf	plusw1,f,c
  8608  0037A6  E305               	bnc	u2130
  8609  0037A8  0EEC               	movlw	-20
  8610  0037AA  2AE3               	incf	plusw1,f,c
  8611  0037AC  E302               	bnc	u2130
  8612  0037AE  0EED               	movlw	-19
  8613  0037B0  2AE3               	incf	plusw1,f,c
  8614  0037B2                     u2130:
  8615                           
  8616                           ;stkvar	_sign @ sp[(-10)+8]
  8617  0037B2  0EFE               	movlw	-2
  8618  0037B4  6AE3               	clrf	plusw1,c
  8619  0037B6  2AE3               	incf	plusw1,f,c
  8620  0037B8                     l4241:
  8621                           
  8622                           ;stkvar	_dividend @ sp[(-10)+-8]
  8623  0037B8  0EF5               	movlw	-11
  8624  0037BA  AEE3               	btfss	plusw1,7,c
  8625  0037BC  D027               	goto	l4247
  8626                           
  8627                           ;stkvar	_dividend @ sp[(-10)+-8]
  8628                           ;stkvar	_dividend @ sp[(-10)+-8]
  8629  0037BE  0EEE               	movlw	-18
  8630  0037C0  6CE3               	negf	plusw1,c
  8631  0037C2  0EEF               	movlw	-17
  8632  0037C4  1EE3               	comf	plusw1,f,c
  8633  0037C6  0EF0               	movlw	-16
  8634  0037C8  1EE3               	comf	plusw1,f,c
  8635  0037CA  0EF1               	movlw	-15
  8636  0037CC  1EE3               	comf	plusw1,f,c
  8637  0037CE  0EF2               	movlw	-14
  8638  0037D0  1EE3               	comf	plusw1,f,c
  8639  0037D2  0EF3               	movlw	-13
  8640  0037D4  1EE3               	comf	plusw1,f,c
  8641  0037D6  0EF4               	movlw	-12
  8642  0037D8  1EE3               	comf	plusw1,f,c
  8643  0037DA  0EF5               	movlw	-11
  8644  0037DC  1EE3               	comf	plusw1,f,c
  8645  0037DE  E314               	bnc	u2150
  8646  0037E0  0EEF               	movlw	-17
  8647  0037E2  2AE3               	incf	plusw1,f,c
  8648  0037E4  E311               	bnc	u2150
  8649  0037E6  0EF0               	movlw	-16
  8650  0037E8  2AE3               	incf	plusw1,f,c
  8651  0037EA  E30E               	bnc	u2150
  8652  0037EC  0EF1               	movlw	-15
  8653  0037EE  2AE3               	incf	plusw1,f,c
  8654  0037F0  E30B               	bnc	u2150
  8655  0037F2  0EF2               	movlw	-14
  8656  0037F4  2AE3               	incf	plusw1,f,c
  8657  0037F6  E308               	bnc	u2150
  8658  0037F8  0EF3               	movlw	-13
  8659  0037FA  2AE3               	incf	plusw1,f,c
  8660  0037FC  E305               	bnc	u2150
  8661  0037FE  0EF4               	movlw	-12
  8662  003800  2AE3               	incf	plusw1,f,c
  8663  003802  E302               	bnc	u2150
  8664  003804  0EF5               	movlw	-11
  8665  003806  2AE3               	incf	plusw1,f,c
  8666  003808                     u2150:
  8667                           
  8668                           ;stkvar	_sign @ sp[(-10)+8]
  8669  003808  0EFE               	movlw	-2
  8670  00380A  70E3               	btg	plusw1,0,c
  8671  00380C                     l4247:
  8672                           
  8673                           ;stkvar	_quotient @ sp[(-10)+0]
  8674  00380C  0E07               	movlw	7
  8675  00380E  6E37               	movwf	btemp,c
  8676  003810  0EF6               	movlw	-10
  8677  003812                     u2161:
  8678  003812  6AE3               	clrf	plusw1,c
  8679  003814  2AE8               	incf	wreg,f,c
  8680  003816  0637               	decf	btemp,f,c
  8681  003818  E2FC               	bc	u2161
  8682                           
  8683                           ;stkvar	_divisor @ sp[(-10)+-16]
  8684  00381A  0EE6               	movlw	-26
  8685  00381C  50E3               	movf	plusw1,w,c
  8686  00381E  E116               	bnz	u2170
  8687  003820  0EE7               	movlw	-25
  8688  003822  50E3               	movf	plusw1,w,c
  8689  003824  E113               	bnz	u2170
  8690  003826  0EE8               	movlw	-24
  8691  003828  50E3               	movf	plusw1,w,c
  8692  00382A  E110               	bnz	u2170
  8693  00382C  0EE9               	movlw	-23
  8694  00382E  50E3               	movf	plusw1,w,c
  8695  003830  E10D               	bnz	u2170
  8696  003832  0EEA               	movlw	-22
  8697  003834  50E3               	movf	plusw1,w,c
  8698  003836  E10A               	bnz	u2170
  8699  003838  0EEB               	movlw	-21
  8700  00383A  50E3               	movf	plusw1,w,c
  8701  00383C  E107               	bnz	u2170
  8702  00383E  0EEC               	movlw	-20
  8703  003840  50E3               	movf	plusw1,w,c
  8704  003842  E104               	bnz	u2170
  8705  003844  0EED               	movlw	-19
  8706  003846  50E3               	movf	plusw1,w,c
  8707  003848  B4D8               	btfsc	status,2,c
  8708  00384A  D088               	goto	u2200
  8709  00384C                     u2170:
  8710                           
  8711                           ;stkvar	_counter @ sp[(-10)+9]
  8712  00384C  0EFF               	movlw	-1
  8713  00384E  6AE3               	clrf	plusw1,c
  8714  003850  D012               	goto	L22
  8715  003852                     l4253:
  8716                           
  8717                           ;stkvar	_divisor @ sp[(-10)+-16]
  8718  003852  90D8               	bcf	status,0,c
  8719  003854  0EE6               	movlw	-26
  8720  003856  36E3               	rlcf	plusw1,f,c
  8721  003858  0EE7               	movlw	-25
  8722  00385A  36E3               	rlcf	plusw1,f,c
  8723  00385C  0EE8               	movlw	-24
  8724  00385E  36E3               	rlcf	plusw1,f,c
  8725  003860  0EE9               	movlw	-23
  8726  003862  36E3               	rlcf	plusw1,f,c
  8727  003864  0EEA               	movlw	-22
  8728  003866  36E3               	rlcf	plusw1,f,c
  8729  003868  0EEB               	movlw	-21
  8730  00386A  36E3               	rlcf	plusw1,f,c
  8731  00386C  0EEC               	movlw	-20
  8732  00386E  36E3               	rlcf	plusw1,f,c
  8733  003870  0EED               	movlw	-19
  8734  003872  36E3               	rlcf	plusw1,f,c
  8735                           
  8736                           ;stkvar	_counter @ sp[(-10)+9]
  8737  003874  0EFF               	movlw	-1
  8738  003876                     L22:
  8739  003876  2AE3               	incf	plusw1,f,c
  8740                           
  8741                           ;stkvar	_divisor @ sp[(-10)+-16]
  8742  003878  0EED               	movlw	-19
  8743  00387A  AEE3               	btfss	plusw1,7,c
  8744  00387C  D7EA               	goto	l4253
  8745  00387E                     u2180:
  8746                           
  8747                           ;stkvar	_quotient @ sp[(-10)+0]
  8748  00387E  90D8               	bcf	status,0,c
  8749  003880  0EF6               	movlw	-10
  8750  003882  36E3               	rlcf	plusw1,f,c
  8751  003884  0EF7               	movlw	-9
  8752  003886  36E3               	rlcf	plusw1,f,c
  8753  003888  0EF8               	movlw	-8
  8754  00388A  36E3               	rlcf	plusw1,f,c
  8755  00388C  0EF9               	movlw	-7
  8756  00388E  36E3               	rlcf	plusw1,f,c
  8757  003890  0EFA               	movlw	-6
  8758  003892  36E3               	rlcf	plusw1,f,c
  8759  003894  0EFB               	movlw	-5
  8760  003896  36E3               	rlcf	plusw1,f,c
  8761  003898  0EFC               	movlw	-4
  8762  00389A  36E3               	rlcf	plusw1,f,c
  8763  00389C  0EFD               	movlw	-3
  8764  00389E  36E3               	rlcf	plusw1,f,c
  8765                           
  8766                           ;stkvar	_divisor @ sp[(-10)+-16]
  8767                           ;stkvar	_dividend @ sp[(-10)+-8]
  8768  0038A0  50E1               	movf	fsr1l,w,c
  8769  0038A2  0FEE               	addlw	-18
  8770  0038A4  6ED9               	movwf	fsr2l,c
  8771  0038A6  50E2               	movf	fsr1h,w,c
  8772  0038A8  6EDA               	movwf	fsr2h,c
  8773  0038AA  0EFF               	movlw	255
  8774  0038AC  22DA               	addwfc	fsr2h,f,c
  8775  0038AE  0EE6               	movlw	-26
  8776  0038B0  50E3               	movf	plusw1,w,c
  8777  0038B2  5CDE               	subwf	postinc2,w,c
  8778  0038B4  0EE7               	movlw	-25
  8779  0038B6  50E3               	movf	plusw1,w,c
  8780  0038B8  58DE               	subwfb	postinc2,w,c
  8781  0038BA  0EE8               	movlw	-24
  8782  0038BC  50E3               	movf	plusw1,w,c
  8783  0038BE  58DE               	subwfb	postinc2,w,c
  8784  0038C0  0EE9               	movlw	-23
  8785  0038C2  50E3               	movf	plusw1,w,c
  8786  0038C4  58DE               	subwfb	postinc2,w,c
  8787  0038C6  0EEA               	movlw	-22
  8788  0038C8  50E3               	movf	plusw1,w,c
  8789  0038CA  58DE               	subwfb	postinc2,w,c
  8790  0038CC  0EEB               	movlw	-21
  8791  0038CE  50E3               	movf	plusw1,w,c
  8792  0038D0  58DE               	subwfb	postinc2,w,c
  8793  0038D2  0EEC               	movlw	-20
  8794  0038D4  50E3               	movf	plusw1,w,c
  8795  0038D6  58DE               	subwfb	postinc2,w,c
  8796  0038D8  0EED               	movlw	-19
  8797  0038DA  50E3               	movf	plusw1,w,c
  8798  0038DC  58DE               	subwfb	postinc2,w,c
  8799  0038DE  A0D8               	btfss	status,0,c
  8800  0038E0  D021               	goto	l4265
  8801                           
  8802                           ;stkvar	_divisor @ sp[(-10)+-16]
  8803                           ;stkvar	_dividend @ sp[(-10)+-8]
  8804  0038E2  50E1               	movf	fsr1l,w,c
  8805  0038E4  0FEE               	addlw	-18
  8806  0038E6  6ED9               	movwf	fsr2l,c
  8807  0038E8  50E2               	movf	fsr1h,w,c
  8808  0038EA  6EDA               	movwf	fsr2h,c
  8809  0038EC  0EFF               	movlw	255
  8810  0038EE  22DA               	addwfc	fsr2h,f,c
  8811  0038F0  0EE6               	movlw	-26
  8812  0038F2  50E3               	movf	plusw1,w,c
  8813  0038F4  5EDE               	subwf	postinc2,f,c
  8814  0038F6  0EE7               	movlw	-25
  8815  0038F8  50E3               	movf	plusw1,w,c
  8816  0038FA  5ADE               	subwfb	postinc2,f,c
  8817  0038FC  0EE8               	movlw	-24
  8818  0038FE  50E3               	movf	plusw1,w,c
  8819  003900  5ADE               	subwfb	postinc2,f,c
  8820  003902  0EE9               	movlw	-23
  8821  003904  50E3               	movf	plusw1,w,c
  8822  003906  5ADE               	subwfb	postinc2,f,c
  8823  003908  0EEA               	movlw	-22
  8824  00390A  50E3               	movf	plusw1,w,c
  8825  00390C  5ADE               	subwfb	postinc2,f,c
  8826  00390E  0EEB               	movlw	-21
  8827  003910  50E3               	movf	plusw1,w,c
  8828  003912  5ADE               	subwfb	postinc2,f,c
  8829  003914  0EEC               	movlw	-20
  8830  003916  50E3               	movf	plusw1,w,c
  8831  003918  5ADE               	subwfb	postinc2,f,c
  8832  00391A  0EED               	movlw	-19
  8833  00391C  50E3               	movf	plusw1,w,c
  8834  00391E  5ADE               	subwfb	postinc2,f,c
  8835                           
  8836                           ;stkvar	_quotient @ sp[(-10)+0]
  8837  003920  0EF6               	movlw	-10
  8838  003922  80E3               	bsf	plusw1,0,c
  8839  003924                     l4265:
  8840                           
  8841                           ;stkvar	_divisor @ sp[(-10)+-16]
  8842  003924  90D8               	bcf	status,0,c
  8843  003926  0EED               	movlw	-19
  8844  003928  32E3               	rrcf	plusw1,f,c
  8845  00392A  0EEC               	movlw	-20
  8846  00392C  32E3               	rrcf	plusw1,f,c
  8847  00392E  0EEB               	movlw	-21
  8848  003930  32E3               	rrcf	plusw1,f,c
  8849  003932  0EEA               	movlw	-22
  8850  003934  32E3               	rrcf	plusw1,f,c
  8851  003936  0EE9               	movlw	-23
  8852  003938  32E3               	rrcf	plusw1,f,c
  8853  00393A  0EE8               	movlw	-24
  8854  00393C  32E3               	rrcf	plusw1,f,c
  8855  00393E  0EE7               	movlw	-25
  8856  003940  32E3               	rrcf	plusw1,f,c
  8857  003942  0EE6               	movlw	-26
  8858  003944  32E3               	rrcf	plusw1,f,c
  8859                           
  8860                           ;stkvar	_counter @ sp[(-10)+9]
  8861  003946  0EFF               	movlw	-1
  8862  003948  50E3               	movf	plusw1,w,c
  8863  00394A  6E37               	movwf	btemp,c
  8864  00394C  0E01               	movlw	1
  8865  00394E  5E37               	subwf	btemp,f,c
  8866  003950  0EFF               	movlw	-1
  8867  003952  0060  F0DF  FFE3   	movff	btemp,plusw1
  8868  003958  A4D8               	btfss	status,2,c
  8869  00395A  D791               	goto	u2180
  8870  00395C                     u2200:
  8871                           
  8872                           ;stkvar	_sign @ sp[(-10)+8]
  8873  00395C  0EFE               	movlw	-2
  8874  00395E  50E3               	movf	plusw1,w,c
  8875  003960  B4D8               	btfsc	status,2,c
  8876  003962  D025               	goto	u2220
  8877                           
  8878                           ;stkvar	_quotient @ sp[(-10)+0]
  8879                           ;stkvar	_quotient @ sp[(-10)+0]
  8880  003964  0EF6               	movlw	-10
  8881  003966  6CE3               	negf	plusw1,c
  8882  003968  0EF7               	movlw	-9
  8883  00396A  1EE3               	comf	plusw1,f,c
  8884  00396C  0EF8               	movlw	-8
  8885  00396E  1EE3               	comf	plusw1,f,c
  8886  003970  0EF9               	movlw	-7
  8887  003972  1EE3               	comf	plusw1,f,c
  8888  003974  0EFA               	movlw	-6
  8889  003976  1EE3               	comf	plusw1,f,c
  8890  003978  0EFB               	movlw	-5
  8891  00397A  1EE3               	comf	plusw1,f,c
  8892  00397C  0EFC               	movlw	-4
  8893  00397E  1EE3               	comf	plusw1,f,c
  8894  003980  0EFD               	movlw	-3
  8895  003982  1EE3               	comf	plusw1,f,c
  8896  003984  E314               	bnc	u2220
  8897  003986  0EF7               	movlw	-9
  8898  003988  2AE3               	incf	plusw1,f,c
  8899  00398A  E311               	bnc	u2220
  8900  00398C  0EF8               	movlw	-8
  8901  00398E  2AE3               	incf	plusw1,f,c
  8902  003990  E30E               	bnc	u2220
  8903  003992  0EF9               	movlw	-7
  8904  003994  2AE3               	incf	plusw1,f,c
  8905  003996  E30B               	bnc	u2220
  8906  003998  0EFA               	movlw	-6
  8907  00399A  2AE3               	incf	plusw1,f,c
  8908  00399C  E308               	bnc	u2220
  8909  00399E  0EFB               	movlw	-5
  8910  0039A0  2AE3               	incf	plusw1,f,c
  8911  0039A2  E305               	bnc	u2220
  8912  0039A4  0EFC               	movlw	-4
  8913  0039A6  2AE3               	incf	plusw1,f,c
  8914  0039A8  E302               	bnc	u2220
  8915  0039AA  0EFD               	movlw	-3
  8916  0039AC  2AE3               	incf	plusw1,f,c
  8917  0039AE                     u2220:
  8918                           
  8919                           ;stkvar	_quotient @ sp[(-10)+0]
  8920  0039AE  0EF6               	movlw	246
  8921  0039B0  24E1               	addwf	fsr1l,w,c
  8922  0039B2  6ED9               	movwf	fsr2l,c
  8923  0039B4  0EFF               	movlw	255
  8924  0039B6  20E2               	addwfc	fsr1h,w,c
  8925  0039B8  6EDA               	movwf	fsr2h,c
  8926                           
  8927                           ;stkvar	?___aodiv @ sp[(-10)+-8]
  8928  0039BA  0E08               	movlw	8
  8929  0039BC  6E37               	movwf	btemp,c
  8930  0039BE  0EEE               	movlw	-18
  8931  0039C0                     us223999:
  8932  0039C0  006F FF7B FFE3     	movff	postinc2,plusw1
  8933  0039C6  28E8               	incf	wreg,w,c
  8934  0039C8  2E37               	decfsz	btemp,f,c
  8935  0039CA  D7FA               	bra	us223999
  8936                           
  8937                           ; ___aodiv: autosize = 10, savesize = 0, parsavesize = 0, tempsize = 0 parsize = 16, arg
      +                          size = 16, vargsize = 0
  8938  0039CC  0EF6               	movlw	246
  8939  0039CE  26E1               	addwf	fsr1l,f,c
  8940  0039D0  0EFF               	movlw	255
  8941  0039D2  22E2               	addwfc	fsr1h,f,c
  8942  0039D4  0012               	return		;funcret
  8943  0039D6                     __end_of___aodiv:
  8944                           	opt callstack 0
  8945                           
  8946 ;; *************** function _atoi *****************
  8947 ;; Defined at:
  8948 ;;		line 4 in file "/opt/microchip/xc8/v2.05/pic/sources/c99/common/atoi.c"
  8949 ;; Parameters:    Size  Location     Type
  8950 ;;  s               1  [STACK] PTR const unsigned char 
  8951 ;;		 -> STR_6(3), STR_5(3), STR_4(19), STR_3(6), 
  8952 ;;		 -> STR_2(10), STR_1(61), 
  8953 ;; Auto vars:     Size  Location     Type
  8954 ;;  n               2  [STACK] int 
  8955 ;;  neg             2  [STACK] int 
  8956 ;; Return value:  Size  Location     Type
  8957 ;;                  2  [STACK] int 
  8958 ;; Registers used:
  8959 ;;		wreg, fsr1l, fsr1h, fsr2l, fsr2h, status,2, status,0, btemp, btemp+1, btemp+8, btemp+9, btemp+10, btemp+11, tblptrl,
      + tblptrh, tblptru, prodl, prodh
  8960 ;; Tracked objects:
  8961 ;;		On entry : 0/3D
  8962 ;;		On exit  : 0/0
  8963 ;;		Unchanged: 0/0
  8964 ;; Data sizes:     COMRAM   BANK0   BANK1   BANK2   BANK3   BANK4   BANK5   BANK6   BANK7   BANK8   BANK9  BANK10  BANK1
      +1  BANK12  BANK13  BANK14  BANK15  BANK16  BANK17  BANK18  BANK19  BANK20  BANK21  BANK22  BANK23  BANK24  BANK25  BANK2
      +6  BANK27  BANK28  BANK29  BANK30  BANK31
  8965 ;;      Params:         0       0       0       0       0       0       0       0       0       0       0       0       
      +0       0       0       0       0       0       0       0       0       0       0       0       0       0       0       
      +0       0       0       0       0       0
  8966 ;;      Locals:         0       0       0       0       0       0       0       0       0       0       0       0       
      +0       0       0       0       0       0       0       0       0       0       0       0       0       0       0       
      +0       0       0       0       0       0
  8967 ;;      Temps:          0       0       0       0       0       0       0       0       0       0       0       0       
      +0       0       0       0       0       0       0       0       0       0       0       0       0       0       0       
      +0       0       0       0       0       0
  8968 ;;      Totals:         0       0       0       0       0       0       0       0       0       0       0       0       
      +0       0       0       0       0       0       0       0       0       0       0       0       0       0       0       
      +0       0       0       0       0       0
  8969 ;;Total ram usage:        0 bytes
  8970 ;; Hardware stack levels used:    1
  8971 ;; Hardware stack levels required when called:    4
  8972 ;; This function calls:
  8973 ;;		_isdigit
  8974 ;;		_isspace
  8975 ;; This function is called by:
  8976 ;;		_vfpfcnvrt
  8977 ;; This function uses a reentrant model
  8978 ;;
  8979                           
  8980                           	psect	text42
  8981  003E44                     __ptext42:
  8982                           	opt callstack 0
  8983  003E44                     _atoi:
  8984                           	opt callstack 0
  8985                           
  8986                           ; autosize = 9, savesize = 0, parsavesize = 0, tempsize = 0 parsize = 1, argsize = 1 var
      +                          gsize = 0, retsize = 0 argfudge = 0
  8987  003E44  0E09               	movlw	9
  8988  003E46  26E1               	addwf	fsr1l,f,c
  8989  003E48  0E00               	movlw	0
  8990  003E4A  22E2               	addwfc	fsr1h,f,c
  8991                           
  8992                           ;stkvar	_n @ sp[(-9)+5]
  8993                           
  8994                           ;incstack = 0
  8995  003E4C  0EFC               	movlw	-4
  8996  003E4E  6AE3               	clrf	plusw1,c
  8997  003E50  0EFD               	movlw	-3
  8998  003E52  6AE3               	clrf	plusw1,c
  8999                           
  9000                           ;stkvar	_neg @ sp[(-9)+7]
  9001  003E54  0EFE               	movlw	-2
  9002  003E56  6AE3               	clrf	plusw1,c
  9003  003E58  0EFF               	movlw	-1
  9004  003E5A  6AE3               	clrf	plusw1,c
  9005  003E5C  D002               	goto	l2284
  9006  003E5E                     l4517:
  9007                           
  9008                           ;stkvar	_s @ sp[(-9)+-1]
  9009  003E5E  0EF6               	movlw	-10
  9010  003E60  2AE3               	incf	plusw1,f,c
  9011  003E62                     l2284:
  9012                           
  9013                           ;stkvar	_atoi$3865 @ sp[(-9)+4]
  9014  003E62  0EFB               	movlw	-5
  9015  003E64  6AE3               	clrf	plusw1,c
  9016  003E66  2AE3               	incf	plusw1,f,c
  9017                           
  9018                           ;stkvar	_s @ sp[(-9)+-1]
  9019  003E68  50E1               	movf	fsr1l,w,c
  9020  003E6A  0FF6               	addlw	-10
  9021  003E6C  6ED9               	movwf	fsr2l,c
  9022  003E6E  50E2               	movf	fsr1h,w,c
  9023  003E70  6EDA               	movwf	fsr2h,c
  9024  003E72  0EFF               	movlw	255
  9025  003E74  22DA               	addwfc	fsr2h,f,c
  9026  003E76  006F FF7F FFF6     	movff	indf2,tblptrl
  9027  003E7C                     	if	1	;There is more than 1 active tblptr byte
  9028  003E7C  0E20               	movlw	high __smallconst
  9029  003E7E  6EF7               	movwf	tblptrh,c
  9030  003E80                     	endif
  9031  003E80                     	if	0	;tblptru may be non-zero
  9032  003E80                     	endif
  9033  003E80                     	if	1	;Program memory is > 0xFFFF, there are 3 active tblptr bytes
  9034  003E80  0E00               	movlw	low (__smallconst shr (0+16))
  9035  003E82  6EF8               	movwf	tblptru,c
  9036  003E84                     	endif
  9037  003E84  0008               	tblrd		*
  9038  003E86  50F5               	movf	tablat,w,c
  9039  003E88  0A20               	xorlw	32
  9040  003E8A  B4D8               	btfsc	status,2,c
  9041  003E8C  D022               	goto	l4525
  9042  003E8E  0EF7               	movlw	247
  9043  003E90  6E41               	movwf	btemp+10,c
  9044  003E92  0EFF               	movlw	255
  9045  003E94  6E42               	movwf	btemp+11,c
  9046                           
  9047                           ;stkvar	_s @ sp[(-9)+-1]
  9048  003E96  50E1               	movf	fsr1l,w,c
  9049  003E98  0FF6               	addlw	-10
  9050  003E9A  6ED9               	movwf	fsr2l,c
  9051  003E9C  50E2               	movf	fsr1h,w,c
  9052  003E9E  6EDA               	movwf	fsr2h,c
  9053  003EA0  0EFF               	movlw	255
  9054  003EA2  22DA               	addwfc	fsr2h,f,c
  9055  003EA4  006F FF7F FFF6     	movff	indf2,tblptrl
  9056  003EAA                     	if	1	;There is more than 1 active tblptr byte
  9057  003EAA  0E20               	movlw	high __smallconst
  9058  003EAC  6EF7               	movwf	tblptrh,c
  9059  003EAE                     	endif
  9060  003EAE                     	if	0	;tblptru may be non-zero
  9061  003EAE                     	endif
  9062  003EAE                     	if	1	;Program memory is > 0xFFFF, there are 3 active tblptr bytes
  9063  003EAE  0E00               	movlw	low (__smallconst shr (0+16))
  9064  003EB0  6EF8               	movwf	tblptru,c
  9065  003EB2                     	endif
  9066  003EB2  0008               	tblrd		*
  9067  003EB4  50F5               	movf	tablat,w,c
  9068  003EB6  6E3F               	movwf	btemp+8,c
  9069  003EB8  6A40               	clrf	btemp+9,c
  9070  003EBA  5041               	movf	btemp+10,w,c
  9071  003EBC  263F               	addwf	btemp+8,f,c
  9072  003EBE  5042               	movf	btemp+11,w,c
  9073  003EC0  2240               	addwfc	btemp+9,f,c
  9074  003EC2  5040               	movf	btemp+9,w,c
  9075  003EC4  E104               	bnz	u2820
  9076  003EC6  0E05               	movlw	5
  9077  003EC8  5C3F               	subwf	btemp+8,w,c
  9078  003ECA  A0D8               	btfss	status,0,c
  9079  003ECC  D002               	goto	l4525
  9080  003ECE                     u2820:
  9081                           
  9082                           ;stkvar	_atoi$3865 @ sp[(-9)+4]
  9083  003ECE  0EFB               	movlw	-5
  9084  003ED0  6AE3               	clrf	plusw1,c
  9085  003ED2                     l4525:
  9086                           
  9087                           ;stkvar	_atoi$3865 @ sp[(-9)+4]
  9088  003ED2  0EFB               	movlw	-5
  9089  003ED4  50E3               	movf	plusw1,w,c
  9090  003ED6  6E41               	movwf	btemp+10,c
  9091  003ED8  6A42               	clrf	btemp+11,c
  9092                           
  9093                           ;stkvar	_atoi$3864 @ sp[(-9)+2]
  9094  003EDA  0EF9               	movlw	-7
  9095  003EDC  0060  F107  FFE3   	movff	btemp+10,plusw1
  9096  003EE2  0EFA               	movlw	-6
  9097  003EE4  0060  F10B  FFE3   	movff	btemp+11,plusw1
  9098                           
  9099                           ;stkvar	_atoi$3864 @ sp[(-9)+2]
  9100  003EEA  0EF9               	movlw	-7
  9101  003EEC  006F FF8C  F037    	movff	plusw1,btemp
  9102  003EF2  0EFA               	movlw	-6
  9103  003EF4  50E3               	movf	plusw1,w,c
  9104  003EF6  1037               	iorwf	btemp,w,c
  9105  003EF8  B4D8               	btfsc	status,2,c
  9106  003EFA  D010               	goto	l4535
  9107  003EFC  D7B0               	goto	l4517
  9108  003EFE                     l4531:
  9109  003EFE  0E01               	movlw	1
  9110  003F00  6E41               	movwf	btemp+10,c
  9111  003F02  0E00               	movlw	0
  9112  003F04  6E42               	movwf	btemp+11,c
  9113                           
  9114                           ;stkvar	_neg @ sp[(-9)+7]
  9115  003F06  0EFE               	movlw	-2
  9116  003F08  0060  F107  FFE3   	movff	btemp+10,plusw1
  9117  003F0E  0EFF               	movlw	-1
  9118  003F10  0060  F10B  FFE3   	movff	btemp+11,plusw1
  9119  003F16                     l4533:
  9120                           
  9121                           ;stkvar	_s @ sp[(-9)+-1]
  9122  003F16  0EF6               	movlw	-10
  9123  003F18  2AE3               	incf	plusw1,f,c
  9124  003F1A  D051               	goto	l4541
  9125  003F1C                     l4535:
  9126                           
  9127                           ;stkvar	_s @ sp[(-9)+-1]
  9128  003F1C  50E1               	movf	fsr1l,w,c
  9129  003F1E  0FF6               	addlw	-10
  9130  003F20  6ED9               	movwf	fsr2l,c
  9131  003F22  50E2               	movf	fsr1h,w,c
  9132  003F24  6EDA               	movwf	fsr2h,c
  9133  003F26  0EFF               	movlw	255
  9134  003F28  22DA               	addwfc	fsr2h,f,c
  9135  003F2A  006F FF7F FFF6     	movff	indf2,tblptrl
  9136  003F30                     	if	1	;There is more than 1 active tblptr byte
  9137  003F30  0E20               	movlw	high __smallconst
  9138  003F32  6EF7               	movwf	tblptrh,c
  9139  003F34                     	endif
  9140  003F34                     	if	0	;tblptru may be non-zero
  9141  003F34                     	endif
  9142  003F34                     	if	1	;Program memory is > 0xFFFF, there are 3 active tblptr bytes
  9143  003F34  0E00               	movlw	low (__smallconst shr (0+16))
  9144  003F36  6EF8               	movwf	tblptru,c
  9145  003F38                     	endif
  9146  003F38  0008               	tblrd		*
  9147  003F3A  50F5               	movf	tablat,w,c
  9148  003F3C  6E41               	movwf	btemp+10,c
  9149  003F3E  6A42               	clrf	btemp+11,c
  9150                           
  9151                           ; Switch on 2 bytes has been partitioned into a top level switch of size 1, and 1 sub-sw
      +                          itches
  9152                           ; Switch size 1, requested type "simple"
  9153                           ; Number of cases is 1, Range of values is 0 to 0
  9154                           ; switch strategies available:
  9155                           ; Name         Instructions Cycles
  9156                           ; simple_byte            4     3 (average)
  9157                           ;	Chosen strategy is simple_byte
  9158  003F40  5042               	movf	btemp+11,w,c
  9159  003F42  0A00               	xorlw	0	; case 0
  9160  003F44  A4D8               	btfss	status,2,c
  9161  003F46  D03B               	goto	l4541
  9162                           
  9163                           ; Switch size 1, requested type "simple"
  9164                           ; Number of cases is 2, Range of values is 43 to 45
  9165                           ; switch strategies available:
  9166                           ; Name         Instructions Cycles
  9167                           ; simple_byte            7     4 (average)
  9168                           ;	Chosen strategy is simple_byte
  9169  003F48  5041               	movf	btemp+10,w,c
  9170  003F4A  0A2B               	xorlw	43	; case 43
  9171  003F4C  B4D8               	btfsc	status,2,c
  9172  003F4E  D7E3               	goto	l4533
  9173  003F50  0A06               	xorlw	6	; case 45
  9174  003F52  B4D8               	btfsc	status,2,c
  9175  003F54  D7D4               	goto	l4531
  9176  003F56  D033               	goto	l4541
  9177  003F58                     l4537:
  9178                           
  9179                           ;stkvar	_n @ sp[(-9)+5]
  9180  003F58  0EFC               	movlw	-4
  9181  003F5A  006F FF8C  F041    	movff	plusw1,btemp+10
  9182  003F60  0EFD               	movlw	-3
  9183  003F62  006F FF8C  F042    	movff	plusw1,btemp+11
  9184  003F68  0E0A               	movlw	10
  9185  003F6A  0241               	mulwf	btemp+10,c
  9186  003F6C  006F FFCC  F03F    	movff	prodl,btemp+8
  9187  003F72  006F FFD0  F040    	movff	prodh,btemp+9
  9188  003F78  0242               	mulwf	btemp+11,c
  9189  003F7A  50F3               	movf	prodl,w,c
  9190  003F7C  2640               	addwf	btemp+9,f,c
  9191                           
  9192                           ;stkvar	_s @ sp[(-9)+-1]
  9193  003F7E  50E1               	movf	fsr1l,w,c
  9194  003F80  0FF6               	addlw	-10
  9195  003F82  6ED9               	movwf	fsr2l,c
  9196  003F84  50E2               	movf	fsr1h,w,c
  9197  003F86  6EDA               	movwf	fsr2h,c
  9198  003F88  0EFF               	movlw	255
  9199  003F8A  22DA               	addwfc	fsr2h,f,c
  9200  003F8C  006F FF7F FFF6     	movff	indf2,tblptrl
  9201  003F92                     	if	1	;There is more than 1 active tblptr byte
  9202  003F92  0E20               	movlw	high __smallconst
  9203  003F94  6EF7               	movwf	tblptrh,c
  9204  003F96                     	endif
  9205  003F96                     	if	0	;tblptru may be non-zero
  9206  003F96                     	endif
  9207  003F96                     	if	1	;Program memory is > 0xFFFF, there are 3 active tblptr bytes
  9208  003F96  0E00               	movlw	low (__smallconst shr (0+16))
  9209  003F98  6EF8               	movwf	tblptru,c
  9210  003F9A                     	endif
  9211  003F9A  0008               	tblrd		*
  9212  003F9C  50F5               	movf	tablat,w,c
  9213  003F9E  5E3F               	subwf	btemp+8,f,c
  9214  003FA0  0E00               	movlw	0
  9215  003FA2  5A40               	subwfb	btemp+9,f,c
  9216  003FA4  0E30               	movlw	48
  9217  003FA6  263F               	addwf	btemp+8,f,c
  9218  003FA8  0E00               	movlw	0
  9219  003FAA  2240               	addwfc	btemp+9,f,c
  9220                           
  9221                           ;stkvar	_n @ sp[(-9)+5]
  9222  003FAC  0EFC               	movlw	-4
  9223  003FAE  0060  F0FF  FFE3   	movff	btemp+8,plusw1
  9224  003FB4  0EFD               	movlw	-3
  9225  003FB6  0060  F103  FFE3   	movff	btemp+9,plusw1
  9226  003FBC  D7AC               	goto	l4533
  9227  003FBE                     l4541:
  9228  003FBE  0ED0               	movlw	208
  9229  003FC0  6E41               	movwf	btemp+10,c
  9230  003FC2  0EFF               	movlw	255
  9231  003FC4  6E42               	movwf	btemp+11,c
  9232                           
  9233                           ;stkvar	_s @ sp[(-9)+-1]
  9234  003FC6  50E1               	movf	fsr1l,w,c
  9235  003FC8  0FF6               	addlw	-10
  9236  003FCA  6ED9               	movwf	fsr2l,c
  9237  003FCC  50E2               	movf	fsr1h,w,c
  9238  003FCE  6EDA               	movwf	fsr2h,c
  9239  003FD0  0EFF               	movlw	255
  9240  003FD2  22DA               	addwfc	fsr2h,f,c
  9241  003FD4  006F FF7F FFF6     	movff	indf2,tblptrl
  9242  003FDA                     	if	1	;There is more than 1 active tblptr byte
  9243  003FDA  0E20               	movlw	high __smallconst
  9244  003FDC  6EF7               	movwf	tblptrh,c
  9245  003FDE                     	endif
  9246  003FDE                     	if	0	;tblptru may be non-zero
  9247  003FDE                     	endif
  9248  003FDE                     	if	1	;Program memory is > 0xFFFF, there are 3 active tblptr bytes
  9249  003FDE  0E00               	movlw	low (__smallconst shr (0+16))
  9250  003FE0  6EF8               	movwf	tblptru,c
  9251  003FE2                     	endif
  9252  003FE2  0008               	tblrd		*
  9253  003FE4  50F5               	movf	tablat,w,c
  9254  003FE6  6E3F               	movwf	btemp+8,c
  9255  003FE8  6A40               	clrf	btemp+9,c
  9256  003FEA  5041               	movf	btemp+10,w,c
  9257  003FEC  263F               	addwf	btemp+8,f,c
  9258  003FEE  5042               	movf	btemp+11,w,c
  9259  003FF0  2240               	addwfc	btemp+9,f,c
  9260  003FF2  5040               	movf	btemp+9,w,c
  9261  003FF4  E106               	bnz	u2840
  9262  003FF6  0E0A               	movlw	10
  9263  003FF8  5C3F               	subwf	btemp+8,w,c
  9264  003FFA  B0D8               	btfsc	status,0,c
  9265  003FFC  D002               	goto	u2840
  9266  003FFE  0E01               	movlw	1
  9267  004000  D001               	goto	u2850
  9268  004002                     u2840:
  9269  004002  0E00               	movlw	0
  9270  004004                     u2850:
  9271  004004  6E41               	movwf	btemp+10,c
  9272  004006  6A42               	clrf	btemp+11,c
  9273                           
  9274                           ;stkvar	_atoi$3866 @ sp[(-9)+0]
  9275  004008  0EF7               	movlw	-9
  9276  00400A  0060  F107  FFE3   	movff	btemp+10,plusw1
  9277  004010  0EF8               	movlw	-8
  9278  004012  0060  F10B  FFE3   	movff	btemp+11,plusw1
  9279                           
  9280                           ;stkvar	_atoi$3866 @ sp[(-9)+0]
  9281  004018  0EF7               	movlw	-9
  9282  00401A  006F FF8C  F037    	movff	plusw1,btemp
  9283  004020  0EF8               	movlw	-8
  9284  004022  50E3               	movf	plusw1,w,c
  9285  004024  1037               	iorwf	btemp,w,c
  9286  004026  A4D8               	btfss	status,2,c
  9287  004028  D797               	goto	l4537
  9288                           
  9289                           ;stkvar	_neg @ sp[(-9)+7]
  9290  00402A  0EFE               	movlw	-2
  9291  00402C  006F FF8C  F037    	movff	plusw1,btemp
  9292  004032  0EFF               	movlw	-1
  9293  004034  50E3               	movf	plusw1,w,c
  9294  004036  1037               	iorwf	btemp,w,c
  9295  004038  A4D8               	btfss	status,2,c
  9296  00403A  D00E               	goto	l4551
  9297                           
  9298                           ;stkvar	_n @ sp[(-9)+5]
  9299  00403C  0EFC               	movlw	-4
  9300  00403E  006F FF8C  F037    	movff	plusw1,btemp
  9301  004044  1E37               	comf	btemp,f,c
  9302  004046  0EFD               	movlw	-3
  9303  004048  006F FF8C  F038    	movff	plusw1,btemp+1
  9304  00404E  1E38               	comf	btemp+1,f,c
  9305  004050  2A37               	incf	btemp,f,c
  9306  004052  B4D8               	btfsc	status,2,c
  9307  004054  2A38               	incf	btemp+1,f,c
  9308  004056  D008               	goto	l2308
  9309  004058                     l4551:
  9310                           
  9311                           ;stkvar	_n @ sp[(-9)+5]
  9312  004058  0EFC               	movlw	-4
  9313  00405A  006F FF8C  F037    	movff	plusw1,btemp
  9314  004060  0EFD               	movlw	-3
  9315  004062  006F FF8C  F038    	movff	plusw1,btemp+1
  9316  004068                     l2308:
  9317                           
  9318                           ; _atoi: autosize = 9, savesize = 0, parsavesize = 0, tempsize = 0 parsize = 1, argsize 
      +                          = 1, vargsize = 0
  9319  004068  0EF6               	movlw	246
  9320  00406A  26E1               	addwf	fsr1l,f,c
  9321  00406C  0EFF               	movlw	255
  9322  00406E  22E2               	addwfc	fsr1h,f,c
  9323  004070  0012               	return		;funcret
  9324  004072                     __end_of_atoi:
  9325                           	opt callstack 0
  9326                           
  9327 ;; *************** function _isspace *****************
  9328 ;; Defined at:
  9329 ;;		line 5 in file "/opt/microchip/xc8/v2.05/pic/sources/c99/common/isspace.c"
  9330 ;; Parameters:    Size  Location     Type
  9331 ;;  c               2  [STACK] int 
  9332 ;; Auto vars:     Size  Location     Type
  9333 ;;		None
  9334 ;; Return value:  Size  Location     Type
  9335 ;;                  2  [STACK] int 
  9336 ;; Registers used:
  9337 ;;		wreg, fsr1l, fsr1h, status,2, status,0, btemp, btemp+1, btemp+10, btemp+11
  9338 ;; Tracked objects:
  9339 ;;		On entry : 0/0
  9340 ;;		On exit  : 0/0
  9341 ;;		Unchanged: 0/0
  9342 ;; Data sizes:     COMRAM   BANK0   BANK1   BANK2   BANK3   BANK4   BANK5   BANK6   BANK7   BANK8   BANK9  BANK10  BANK1
      +1  BANK12  BANK13  BANK14  BANK15  BANK16  BANK17  BANK18  BANK19  BANK20  BANK21  BANK22  BANK23  BANK24  BANK25  BANK2
      +6  BANK27  BANK28  BANK29  BANK30  BANK31
  9343 ;;      Params:         0       0       0       0       0       0       0       0       0       0       0       0       
      +0       0       0       0       0       0       0       0       0       0       0       0       0       0       0       
      +0       0       0       0       0       0
  9344 ;;      Locals:         0       0       0       0       0       0       0       0       0       0       0       0       
      +0       0       0       0       0       0       0       0       0       0       0       0       0       0       0       
      +0       0       0       0       0       0
  9345 ;;      Temps:          0       0       0       0       0       0       0       0       0       0       0       0       
      +0       0       0       0       0       0       0       0       0       0       0       0       0       0       0       
      +0       0       0       0       0       0
  9346 ;;      Totals:         0       0       0       0       0       0       0       0       0       0       0       0       
      +0       0       0       0       0       0       0       0       0       0       0       0       0       0       0       
      +0       0       0       0       0       0
  9347 ;;Total ram usage:        0 bytes
  9348 ;; Hardware stack levels used:    1
  9349 ;; Hardware stack levels required when called:    3
  9350 ;; This function calls:
  9351 ;;		Nothing
  9352 ;; This function is called by:
  9353 ;;		_atoi
  9354 ;; This function uses a reentrant model
  9355 ;;
  9356                           
  9357                           	psect	text43
  9358  004E3C                     __ptext43:
  9359                           	opt callstack 0
  9360  004E3C                     _isspace:
  9361                           	opt callstack 0
  9362                           
  9363                           ; autosize = 1, savesize = 0, parsavesize = 0, tempsize = 0 parsize = 2, argsize = 2 var
      +                          gsize = 0, retsize = 0 argfudge = 0
  9364  004E3C  52E6               	movf	postinc1,f,c
  9365                           
  9366                           ;stkvar	_isspace$3891 @ sp[(-1)+0]
  9367                           
  9368                           ;incstack = 0
  9369  004E3E  0EFF               	movlw	-1
  9370  004E40  6AE3               	clrf	plusw1,c
  9371  004E42  2AE3               	incf	plusw1,f,c
  9372                           
  9373                           ;stkvar	_c @ sp[(-1)+-2]
  9374  004E44  0EFD               	movlw	-3
  9375  004E46  006F FF8C  F037    	movff	plusw1,btemp
  9376  004E4C  0E20               	movlw	32
  9377  004E4E  1837               	xorwf	btemp,w,c
  9378  004E50  E104               	bnz	u2350
  9379  004E52  0EFE               	movlw	-2
  9380  004E54  50E3               	movf	plusw1,w,c
  9381  004E56  B4D8               	btfsc	status,2,c
  9382  004E58  D012               	goto	l4321
  9383  004E5A                     u2350:
  9384                           
  9385                           ;stkvar	_c @ sp[(-1)+-2]
  9386  004E5A  0EFD               	movlw	-3
  9387  004E5C  50E3               	movf	plusw1,w,c
  9388  004E5E  0FF7               	addlw	247
  9389  004E60  6E41               	movwf	btemp+10,c
  9390  004E62  0EFE               	movlw	-2
  9391  004E64  006F FF8C  F042    	movff	plusw1,btemp+11
  9392  004E6A  0EFF               	movlw	255
  9393  004E6C  2242               	addwfc	btemp+11,f,c
  9394  004E6E  5042               	movf	btemp+11,w,c
  9395  004E70  E104               	bnz	u2360
  9396  004E72  0E05               	movlw	5
  9397  004E74  5C41               	subwf	btemp+10,w,c
  9398  004E76  A0D8               	btfss	status,0,c
  9399  004E78  D002               	goto	l4321
  9400  004E7A                     u2360:
  9401                           
  9402                           ;stkvar	_isspace$3891 @ sp[(-1)+0]
  9403  004E7A  0EFF               	movlw	-1
  9404  004E7C  6AE3               	clrf	plusw1,c
  9405  004E7E                     l4321:
  9406                           
  9407                           ;stkvar	_isspace$3891 @ sp[(-1)+0]
  9408  004E7E  0EFF               	movlw	-1
  9409  004E80  50E3               	movf	plusw1,w,c
  9410  004E82  6E37               	movwf	btemp,c
  9411  004E84  6A38               	clrf	btemp+1,c
  9412                           
  9413                           ; _isspace: autosize = 1, savesize = 0, parsavesize = 0, tempsize = 0 parsize = 2, argsi
      +                          ze = 2, vargsize = 0
  9414  004E86  52E5               	movf	postdec1,f,c
  9415  004E88  52E5               	movf	postdec1,f,c
  9416  004E8A  52E5               	movf	postdec1,f,c
  9417  004E8C  0012               	return		;funcret
  9418  004E8E                     __end_of_isspace:
  9419                           	opt callstack 0
  9420                           
  9421 ;; *************** function _isdigit *****************
  9422 ;; Defined at:
  9423 ;;		line 5 in file "/opt/microchip/xc8/v2.05/pic/sources/c99/common/isdigit.c"
  9424 ;; Parameters:    Size  Location     Type
  9425 ;;  c               2  [STACK] int 
  9426 ;; Auto vars:     Size  Location     Type
  9427 ;;		None
  9428 ;; Return value:  Size  Location     Type
  9429 ;;                  2  [STACK] int 
  9430 ;; Registers used:
  9431 ;;		wreg, fsr1l, fsr1h, status,2, status,0, btemp, btemp+1, btemp+10, btemp+11
  9432 ;; Tracked objects:
  9433 ;;		On entry : 0/0
  9434 ;;		On exit  : 0/0
  9435 ;;		Unchanged: 0/0
  9436 ;; Data sizes:     COMRAM   BANK0   BANK1   BANK2   BANK3   BANK4   BANK5   BANK6   BANK7   BANK8   BANK9  BANK10  BANK1
      +1  BANK12  BANK13  BANK14  BANK15  BANK16  BANK17  BANK18  BANK19  BANK20  BANK21  BANK22  BANK23  BANK24  BANK25  BANK2
      +6  BANK27  BANK28  BANK29  BANK30  BANK31
  9437 ;;      Params:         0       0       0       0       0       0       0       0       0       0       0       0       
      +0       0       0       0       0       0       0       0       0       0       0       0       0       0       0       
      +0       0       0       0       0       0
  9438 ;;      Locals:         0       0       0       0       0       0       0       0       0       0       0       0       
      +0       0       0       0       0       0       0       0       0       0       0       0       0       0       0       
      +0       0       0       0       0       0
  9439 ;;      Temps:          0       0       0       0       0       0       0       0       0       0       0       0       
      +0       0       0       0       0       0       0       0       0       0       0       0       0       0       0       
      +0       0       0       0       0       0
  9440 ;;      Totals:         0       0       0       0       0       0       0       0       0       0       0       0       
      +0       0       0       0       0       0       0       0       0       0       0       0       0       0       0       
      +0       0       0       0       0       0
  9441 ;;Total ram usage:        0 bytes
  9442 ;; Hardware stack levels used:    1
  9443 ;; Hardware stack levels required when called:    3
  9444 ;; This function calls:
  9445 ;;		Nothing
  9446 ;; This function is called by:
  9447 ;;		_vfpfcnvrt
  9448 ;;		_atoi
  9449 ;; This function uses a reentrant model
  9450 ;;
  9451                           
  9452                           	psect	text44
  9453  005104                     __ptext44:
  9454                           	opt callstack 0
  9455  005104                     _isdigit:
  9456                           	opt callstack 24
  9457                           
  9458                           ;stkvar	_c @ sp[(0)+-2]
  9459                           
  9460                           ; autosize = 0, savesize = 0, parsavesize = 0, tempsize = 0 parsize = 2, argsize = 2 var
      +                          gsize = 0, retsize = 0 argfudge = 0
  9461                           ;incstack = 0
  9462  005104  0EFE               	movlw	-2
  9463  005106  50E3               	movf	plusw1,w,c
  9464  005108  0FD0               	addlw	208
  9465  00510A  6E41               	movwf	btemp+10,c
  9466  00510C  0EFF               	movlw	-1
  9467  00510E  006F FF8C  F042    	movff	plusw1,btemp+11
  9468  005114  0EFF               	movlw	255
  9469  005116  2242               	addwfc	btemp+11,f,c
  9470  005118  5042               	movf	btemp+11,w,c
  9471  00511A  E106               	bnz	u2100
  9472  00511C  0E0A               	movlw	10
  9473  00511E  5C41               	subwf	btemp+10,w,c
  9474  005120  B0D8               	btfsc	status,0,c
  9475  005122  D002               	goto	u2100
  9476  005124  0E01               	movlw	1
  9477  005126  D001               	goto	u2110
  9478  005128                     u2100:
  9479  005128  0E00               	movlw	0
  9480  00512A                     u2110:
  9481  00512A  6E37               	movwf	btemp,c
  9482  00512C  6A38               	clrf	btemp+1,c
  9483                           
  9484                           ; _isdigit: autosize = 0, savesize = 0, parsavesize = 0, tempsize = 0 parsize = 2, argsi
      +                          ze = 2, vargsize = 0
  9485  00512E  52E5               	movf	postdec1,f,c
  9486  005130  52E5               	movf	postdec1,f,c
  9487  005132  0012               	return		;funcret
  9488  005134                     __end_of_isdigit:
  9489                           	opt callstack 0
  9490                           
  9491 ;; *************** function _block_checksum *****************
  9492 ;; Defined at:
  9493 ;;		line 10 in file "gemsecs.c"
  9494 ;; Parameters:    Size  Location     Type
  9495 ;;  byte_block      1  [STACK] PTR unsigned char 
  9496 ;;		 -> H10.block(10), H10(39), 
  9497 ;;  byte_count      2  [STACK] unsigned short 
  9498 ;; Auto vars:     Size  Location     Type
  9499 ;;  i               2  [STACK] unsigned short 
  9500 ;;  sum             2  [STACK] unsigned short 
  9501 ;; Return value:  Size  Location     Type
  9502 ;;                  2  [STACK] unsigned short 
  9503 ;; Registers used:
  9504 ;;		wreg, fsr1l, fsr1h, fsr2l, fsr2h, status,2, status,0, btemp, btemp+1, btemp+8, btemp+9, btemp+10, btemp+11
  9505 ;; Tracked objects:
  9506 ;;		On entry : 3F/3D
  9507 ;;		On exit  : 0/0
  9508 ;;		Unchanged: 0/0
  9509 ;; Data sizes:     COMRAM   BANK0   BANK1   BANK2   BANK3   BANK4   BANK5   BANK6   BANK7   BANK8   BANK9  BANK10  BANK1
      +1  BANK12  BANK13  BANK14  BANK15  BANK16  BANK17  BANK18  BANK19  BANK20  BANK21  BANK22  BANK23  BANK24  BANK25  BANK2
      +6  BANK27  BANK28  BANK29  BANK30  BANK31
  9510 ;;      Params:         0       0       0       0       0       0       0       0       0       0       0       0       
      +0       0       0       0       0       0       0       0       0       0       0       0       0       0       0       
      +0       0       0       0       0       0
  9511 ;;      Locals:         0       0       0       0       0       0       0       0       0       0       0       0       
      +0       0       0       0       0       0       0       0       0       0       0       0       0       0       0       
      +0       0       0       0       0       0
  9512 ;;      Temps:          0       0       0       0       0       0       0       0       0       0       0       0       
      +0       0       0       0       0       0       0       0       0       0       0       0       0       0       0       
      +0       0       0       0       0       0
  9513 ;;      Totals:         0       0       0       0       0       0       0       0       0       0       0       0       
      +0       0       0       0       0       0       0       0       0       0       0       0       0       0       0       
      +0       0       0       0       0       0
  9514 ;;Total ram usage:        0 bytes
  9515 ;; Hardware stack levels used:    1
  9516 ;; Hardware stack levels required when called:    3
  9517 ;; This function calls:
  9518 ;;		Nothing
  9519 ;; This function is called by:
  9520 ;;		_main
  9521 ;; This function uses a reentrant model
  9522 ;;
  9523                           
  9524                           	psect	text45
  9525  00459E                     __ptext45:
  9526                           	opt callstack 0
  9527  00459E                     _block_checksum:
  9528                           	opt callstack 0
  9529                           
  9530                           ; autosize = 4, savesize = 0, parsavesize = 0, tempsize = 0 parsize = 3, argsize = 3 var
      +                          gsize = 0, retsize = 0 argfudge = 0
  9531  00459E  52E6               	movf	postinc1,f,c
  9532  0045A0  52E6               	movf	postinc1,f,c
  9533  0045A2  52E6               	movf	postinc1,f,c
  9534  0045A4  52E6               	movf	postinc1,f,c
  9535                           
  9536                           ;gemsecs.c: 10: uint16_t block_checksum(uint8_t *byte_block, uint16_t byte_count);gemsec
      +                          s.c: 11: {;gemsecs.c: 12:  uint16_t sum = 0, i;
  9537                           ;stkvar	_sum @ sp[(-4)+2]
  9538                           
  9539                           ;incstack = 0
  9540  0045A6  0EFE               	movlw	-2
  9541  0045A8  6AE3               	clrf	plusw1,c
  9542  0045AA  0EFF               	movlw	-1
  9543  0045AC  6AE3               	clrf	plusw1,c
  9544                           
  9545                           ;gemsecs.c: 14:  for (i = 0; i < byte_count; i++) {
  9546                           ;stkvar	_i @ sp[(-4)+0]
  9547  0045AE  0EFC               	movlw	-4
  9548  0045B0  6AE3               	clrf	plusw1,c
  9549  0045B2  0EFD               	movlw	-3
  9550  0045B4  6AE3               	clrf	plusw1,c
  9551  0045B6  D02C               	goto	l5335
  9552  0045B8                     l5331:
  9553                           
  9554                           ;gemsecs.c: 15:   sum += byte_block[i];
  9555                           ;stkvar	_i @ sp[(-4)+0]
  9556  0045B8  0EFC               	movlw	-4
  9557  0045BA  006F FF8C  F042    	movff	plusw1,btemp+11
  9558                           
  9559                           ;stkvar	_byte_block @ sp[(-4)+-1]
  9560  0045C0  0EFB               	movlw	-5
  9561  0045C2  50E3               	movf	plusw1,w,c
  9562  0045C4  2442               	addwf	btemp+11,w,c
  9563  0045C6  6ED9               	movwf	fsr2l,c
  9564  0045C8  6ADA               	clrf	fsr2h,c
  9565  0045CA  50DF               	movf	indf2,w,c
  9566  0045CC  6E42               	movwf	btemp+11,c
  9567                           
  9568                           ;stkvar	_sum @ sp[(-4)+2]
  9569  0045CE  0EFE               	movlw	-2
  9570  0045D0  50E3               	movf	plusw1,w,c
  9571  0045D2  2442               	addwf	btemp+11,w,c
  9572  0045D4  6E37               	movwf	btemp,c
  9573  0045D6  0EFE               	movlw	-2
  9574  0045D8  0060  F0DF  FFE3   	movff	btemp,plusw1
  9575  0045DE  6A37               	clrf	btemp,c
  9576  0045E0  0EFF               	movlw	-1
  9577  0045E2  50E3               	movf	plusw1,w,c
  9578  0045E4  2237               	addwfc	btemp,f,c
  9579  0045E6  0EFF               	movlw	-1
  9580  0045E8  0060  F0DF  FFE3   	movff	btemp,plusw1
  9581                           
  9582                           ;gemsecs.c: 16:  }
  9583                           ;stkvar	_i @ sp[(-4)+0]
  9584  0045EE  0EFC               	movlw	-4
  9585  0045F0  50E3               	movf	plusw1,w,c
  9586  0045F2  0F01               	addlw	1
  9587  0045F4  6E37               	movwf	btemp,c
  9588  0045F6  0EFC               	movlw	-4
  9589  0045F8  0060  F0DF  FFE3   	movff	btemp,plusw1
  9590  0045FE  6A37               	clrf	btemp,c
  9591  004600  0EFD               	movlw	-3
  9592  004602  50E3               	movf	plusw1,w,c
  9593  004604  2037               	addwfc	btemp,w,c
  9594  004606  6E37               	movwf	btemp,c
  9595  004608  0EFD               	movlw	-3
  9596  00460A  0060  F0DF  FFE3   	movff	btemp,plusw1
  9597  004610                     l5335:
  9598                           
  9599                           ;stkvar	_byte_count @ sp[(-4)+-3]
  9600  004610  0EF9               	movlw	-7
  9601  004612  006F FF8C  F041    	movff	plusw1,btemp+10
  9602  004618  0EFA               	movlw	-6
  9603  00461A  006F FF8C  F042    	movff	plusw1,btemp+11
  9604                           
  9605                           ;stkvar	_i @ sp[(-4)+0]
  9606  004620  0EFC               	movlw	-4
  9607  004622  006F FF8C  F03F    	movff	plusw1,btemp+8
  9608  004628  0EFD               	movlw	-3
  9609  00462A  006F FF8C  F040    	movff	plusw1,btemp+9
  9610  004630  5041               	movf	btemp+10,w,c
  9611  004632  5C3F               	subwf	btemp+8,w,c
  9612  004634  5042               	movf	btemp+11,w,c
  9613  004636  5840               	subwfb	btemp+9,w,c
  9614  004638  A0D8               	btfss	status,0,c
  9615  00463A  D7BE               	goto	l5331
  9616                           
  9617                           ;gemsecs.c: 17:  return sum;
  9618                           ;stkvar	_sum @ sp[(-4)+2]
  9619  00463C  0EFE               	movlw	-2
  9620  00463E  006F FF8C  F037    	movff	plusw1,btemp
  9621  004644  0EFF               	movlw	-1
  9622  004646  006F FF8C  F038    	movff	plusw1,btemp+1
  9623                           
  9624                           ; _block_checksum: autosize = 4, savesize = 0, parsavesize = 0, tempsize = 0 parsize = 3
      +                          , argsize = 3, vargsize = 0
  9625  00464C  0EF9               	movlw	249
  9626  00464E  26E1               	addwf	fsr1l,f,c
  9627  004650  0EFF               	movlw	255
  9628  004652  22E2               	addwfc	fsr1h,f,c
  9629  004654  0012               	return		;funcret
  9630  004656                     __end_of_block_checksum:
  9631                           	opt callstack 0
  9632                           
  9633 ;; *************** function _SYSTEM_Initialize *****************
  9634 ;; Defined at:
  9635 ;;		line 50 in file "mcc_generated_files/mcc.c"
  9636 ;; Parameters:    Size  Location     Type
  9637 ;;		None
  9638 ;; Auto vars:     Size  Location     Type
  9639 ;;		None
  9640 ;; Return value:  Size  Location     Type
  9641 ;;                  1  [STACK] void 
  9642 ;; Registers used:
  9643 ;;		wreg, fsr1l, fsr1h, fsr2l, fsr2h, status,2, btemp+11
  9644 ;; Tracked objects:
  9645 ;;		On entry : 0/0
  9646 ;;		On exit  : 3F/3C
  9647 ;;		Unchanged: 0/0
  9648 ;; Data sizes:     COMRAM   BANK0   BANK1   BANK2   BANK3   BANK4   BANK5   BANK6   BANK7   BANK8   BANK9  BANK10  BANK1
      +1  BANK12  BANK13  BANK14  BANK15  BANK16  BANK17  BANK18  BANK19  BANK20  BANK21  BANK22  BANK23  BANK24  BANK25  BANK2
      +6  BANK27  BANK28  BANK29  BANK30  BANK31
  9649 ;;      Params:         0       0       0       0       0       0       0       0       0       0       0       0       
      +0       0       0       0       0       0       0       0       0       0       0       0       0       0       0       
      +0       0       0       0       0       0
  9650 ;;      Locals:         0       0       0       0       0       0       0       0       0       0       0       0       
      +0       0       0       0       0       0       0       0       0       0       0       0       0       0       0       
      +0       0       0       0       0       0
  9651 ;;      Temps:          0       0       0       0       0       0       0       0       0       0       0       0       
      +0       0       0       0       0       0       0       0       0       0       0       0       0       0       0       
      +0       0       0       0       0       0
  9652 ;;      Totals:         0       0       0       0       0       0       0       0       0       0       0       0       
      +0       0       0       0       0       0       0       0       0       0       0       0       0       0       0       
      +0       0       0       0       0       0
  9653 ;;Total ram usage:        0 bytes
  9654 ;; Hardware stack levels used:    1
  9655 ;; Hardware stack levels required when called:    5
  9656 ;; This function calls:
  9657 ;;		_ADCC_Initialize
  9658 ;;		_CLC1_Initialize
  9659 ;;		_CLKREF_Initialize
  9660 ;;		_DMA1_Initialize
  9661 ;;		_DSM_Initialize
  9662 ;;		_EXT_INT_Initialize
  9663 ;;		_INTERRUPT_Initialize
  9664 ;;		_NCO1_Initialize
  9665 ;;		_OSCILLATOR_Initialize
  9666 ;;		_PIN_MANAGER_Initialize
  9667 ;;		_PMD_Initialize
  9668 ;;		_SPI1_Initialize
  9669 ;;		_TMR6_Initialize
  9670 ;;		_UART1_Initialize
  9671 ;;		_UART2_Initialize
  9672 ;; This function is called by:
  9673 ;;		_main
  9674 ;; This function uses a reentrant model
  9675 ;;
  9676                           
  9677                           	psect	text46
  9678  00502A                     __ptext46:
  9679                           	opt callstack 0
  9680  00502A                     _SYSTEM_Initialize:
  9681                           	opt callstack 25
  9682                           
  9683                           ;mcc_generated_files/mcc.c: 52:     INTERRUPT_Initialize();
  9684                           
  9685                           ; autosize = 0, savesize = 0, parsavesize = 0, tempsize = 0 parsize = 0, argsize = 0 var
      +                          gsize = 0, retsize = 0 argfudge = 0
  9686                           ;incstack = 0
  9687  00502A  EC31  F026         	call	_INTERRUPT_Initialize	;wreg free
  9688                           
  9689                           ; BSR set to: 57
  9690                           ;mcc_generated_files/mcc.c: 53:     PMD_Initialize();
  9691  00502E  EC4D  F02B         	call	_PMD_Initialize	;wreg free
  9692                           
  9693                           ; BSR set to: 57
  9694                           ;mcc_generated_files/mcc.c: 54:     PIN_MANAGER_Initialize();
  9695  005032  ECD6  F023         	call	_PIN_MANAGER_Initialize	;wreg free
  9696                           
  9697                           ; BSR set to: 58
  9698                           ;mcc_generated_files/mcc.c: 55:     OSCILLATOR_Initialize();
  9699  005036  EC42  F02B         	call	_OSCILLATOR_Initialize	;wreg free
  9700                           
  9701                           ; BSR set to: 57
  9702                           ;mcc_generated_files/mcc.c: 56:     ADCC_Initialize();
  9703  00503A  EC6D  F027         	call	_ADCC_Initialize	;wreg free
  9704                           
  9705                           ;mcc_generated_files/mcc.c: 57:     NCO1_Initialize();
  9706  00503E  EC0E  F02B         	call	_NCO1_Initialize	;wreg free
  9707                           
  9708                           ; BSR set to: 63
  9709                           ;mcc_generated_files/mcc.c: 58:     EXT_INT_Initialize();
  9710  005042  EC47  F027         	call	_EXT_INT_Initialize	;wreg free
  9711                           
  9712                           ; BSR set to: 57
  9713                           ;mcc_generated_files/mcc.c: 59:     TMR6_Initialize();
  9714  005046  EC7B  F029         	call	_TMR6_Initialize	;wreg free
  9715                           
  9716                           ;mcc_generated_files/mcc.c: 60:     CLC1_Initialize();
  9717  00504A  EC7C  F02A         	call	_CLC1_Initialize	;wreg free
  9718                           
  9719                           ; BSR set to: 60
  9720                           ;mcc_generated_files/mcc.c: 61:     DSM_Initialize();
  9721  00504E  EC1C  F02B         	call	_DSM_Initialize	;wreg free
  9722                           
  9723                           ; BSR set to: 60
  9724                           ;mcc_generated_files/mcc.c: 62:     UART1_Initialize();
  9725  005052  ECFE  F025         	call	_UART1_Initialize	;wreg free
  9726                           
  9727                           ; BSR set to: 57
  9728                           ;mcc_generated_files/mcc.c: 63:     UART2_Initialize();
  9729  005056  EC94  F026         	call	_UART2_Initialize	;wreg free
  9730                           
  9731                           ; BSR set to: 57
  9732                           ;mcc_generated_files/mcc.c: 64:     SPI1_Initialize();
  9733  00505A  EC37  F02B         	call	_SPI1_Initialize	;wreg free
  9734                           
  9735                           ; BSR set to: 61
  9736                           ;mcc_generated_files/mcc.c: 65:     DMA1_Initialize();
  9737  00505E  ECC9  F025         	call	_DMA1_Initialize	;wreg free
  9738                           
  9739                           ; BSR set to: 59
  9740                           ;mcc_generated_files/mcc.c: 66:     CLKREF_Initialize();
  9741  005062  EC86  F02B         	call	_CLKREF_Initialize	;wreg free
  9742                           
  9743                           ; BSR set to: 60
  9744                           ; _SYSTEM_Initialize: autosize = 0, savesize = 0, parsavesize = 0, tempsize = 0 parsize 
      +                          = 0, argsize = 0, vargsize = 0
  9745  005066  0012               	return		;funcret
  9746  005068                     __end_of_SYSTEM_Initialize:
  9747                           	opt callstack 0
  9748                           
  9749 ;; *************** function _UART2_Initialize *****************
  9750 ;; Defined at:
  9751 ;;		line 78 in file "mcc_generated_files/uart2.c"
  9752 ;; Parameters:    Size  Location     Type
  9753 ;;		None
  9754 ;; Auto vars:     Size  Location     Type
  9755 ;;		None
  9756 ;; Return value:  Size  Location     Type
  9757 ;;                  1  [STACK] void 
  9758 ;; Registers used:
  9759 ;;		wreg, fsr1l, fsr1h, fsr2l, fsr2h, status,2
  9760 ;; Tracked objects:
  9761 ;;		On entry : 3F/39
  9762 ;;		On exit  : 3F/39
  9763 ;;		Unchanged: 0/0
  9764 ;; Data sizes:     COMRAM   BANK0   BANK1   BANK2   BANK3   BANK4   BANK5   BANK6   BANK7   BANK8   BANK9  BANK10  BANK1
      +1  BANK12  BANK13  BANK14  BANK15  BANK16  BANK17  BANK18  BANK19  BANK20  BANK21  BANK22  BANK23  BANK24  BANK25  BANK2
      +6  BANK27  BANK28  BANK29  BANK30  BANK31
  9765 ;;      Params:         0       0       0       0       0       0       0       0       0       0       0       0       
      +0       0       0       0       0       0       0       0       0       0       0       0       0       0       0       
      +0       0       0       0       0       0
  9766 ;;      Locals:         0       0       0       0       0       0       0       0       0       0       0       0       
      +0       0       0       0       0       0       0       0       0       0       0       0       0       0       0       
      +0       0       0       0       0       0
  9767 ;;      Temps:          0       0       0       0       0       0       0       0       0       0       0       0       
      +0       0       0       0       0       0       0       0       0       0       0       0       0       0       0       
      +0       0       0       0       0       0
  9768 ;;      Totals:         0       0       0       0       0       0       0       0       0       0       0       0       
      +0       0       0       0       0       0       0       0       0       0       0       0       0       0       0       
      +0       0       0       0       0       0
  9769 ;;Total ram usage:        0 bytes
  9770 ;; Hardware stack levels used:    1
  9771 ;; Hardware stack levels required when called:    4
  9772 ;; This function calls:
  9773 ;;		_UART2_SetRxInterruptHandler
  9774 ;;		_UART2_SetTxInterruptHandler
  9775 ;; This function is called by:
  9776 ;;		_SYSTEM_Initialize
  9777 ;; This function uses a reentrant model
  9778 ;;
  9779                           
  9780                           	psect	text47
  9781  004D28                     __ptext47:
  9782                           	opt callstack 0
  9783  004D28                     _UART2_Initialize:
  9784                           	opt callstack 25
  9785                           
  9786                           ;mcc_generated_files/uart2.c: 81:     PIE6bits.U2RXIE = 0;
  9787                           
  9788                           ; BSR set to: 60
  9789                           ; autosize = 0, savesize = 0, parsavesize = 0, tempsize = 0 parsize = 0, argsize = 0 var
      +                          gsize = 0, retsize = 0 argfudge = 0
  9790                           ;incstack = 0
  9791  004D28  0139               	movlb	57	; () banked
  9792  004D2A  9596               	bcf	150,2,b	;volatile
  9793                           
  9794                           ; BSR set to: 57
  9795                           ;mcc_generated_files/uart2.c: 82:     UART2_SetRxInterruptHandler(UART2_Receive_ISR);
  9796  004D2C  0EC2               	movlw	low _UART2_Receive_ISR
  9797  004D2E  6EE6               	movwf	postinc1,c
  9798  004D30  0E55               	movlw	high _UART2_Receive_ISR
  9799  004D32  6EE6               	movwf	postinc1,c
  9800  004D34  0E00               	movlw	low (_UART2_Receive_ISR shr (0+16))
  9801  004D36  6EE6               	movwf	postinc1,c
  9802  004D38  EC3F  F029         	call	_UART2_SetRxInterruptHandler	;wreg free
  9803                           
  9804                           ;mcc_generated_files/uart2.c: 83:     PIE6bits.U2TXIE = 0;
  9805  004D3C  0139               	movlb	57	; () banked
  9806  004D3E  9796               	bcf	150,3,b	;volatile
  9807                           
  9808                           ;mcc_generated_files/uart2.c: 84:     UART2_SetTxInterruptHandler(UART2_Transmit_ISR);
  9809  004D40  0E60               	movlw	low _UART2_Transmit_ISR
  9810  004D42  6EE6               	movwf	postinc1,c
  9811  004D44  0E51               	movlw	high _UART2_Transmit_ISR
  9812  004D46  6EE6               	movwf	postinc1,c
  9813  004D48  0E00               	movlw	low (_UART2_Transmit_ISR shr (0+16))
  9814  004D4A  6EE6               	movwf	postinc1,c
  9815  004D4C  EC2B  F029         	call	_UART2_SetTxInterruptHandler	;wreg free
  9816                           
  9817                           ;mcc_generated_files/uart2.c: 89:     U2P1L = 0x00;
  9818  004D50  013D               	movlb	61	; () banked
  9819  004D52  6BD4               	clrf	212,b	;volatile
  9820                           
  9821                           ; BSR set to: 61
  9822                           ;mcc_generated_files/uart2.c: 92:     U2P2L = 0x00;
  9823  004D54  6BD6               	clrf	214,b	;volatile
  9824                           
  9825                           ; BSR set to: 61
  9826                           ;mcc_generated_files/uart2.c: 95:     U2P3L = 0x00;
  9827  004D56  6BD8               	clrf	216,b	;volatile
  9828                           
  9829                           ; BSR set to: 61
  9830                           ;mcc_generated_files/uart2.c: 98:     U2CON0 = 0xB0;
  9831  004D58  0EB0               	movlw	176
  9832  004D5A  6FDA               	movwf	218,b	;volatile
  9833                           
  9834                           ; BSR set to: 61
  9835                           ;mcc_generated_files/uart2.c: 101:     U2CON1 = 0x80;
  9836  004D5C  0E80               	movlw	128
  9837  004D5E  6FDB               	movwf	219,b	;volatile
  9838                           
  9839                           ; BSR set to: 61
  9840                           ;mcc_generated_files/uart2.c: 104:     U2CON2 = 0x00;
  9841  004D60  6BDC               	clrf	220,b	;volatile
  9842                           
  9843                           ; BSR set to: 61
  9844                           ;mcc_generated_files/uart2.c: 107:     U2BRGL = 0x82;
  9845  004D62  0E82               	movlw	130
  9846  004D64  6FDD               	movwf	221,b	;volatile
  9847                           
  9848                           ; BSR set to: 61
  9849                           ;mcc_generated_files/uart2.c: 110:     U2BRGH = 0x06;
  9850  004D66  0E06               	movlw	6
  9851  004D68  6FDE               	movwf	222,b	;volatile
  9852                           
  9853                           ; BSR set to: 61
  9854                           ;mcc_generated_files/uart2.c: 113:     U2FIFO = 0x00;
  9855  004D6A  6BDF               	clrf	223,b	;volatile
  9856                           
  9857                           ; BSR set to: 61
  9858                           ;mcc_generated_files/uart2.c: 116:     U2UIR = 0x00;
  9859  004D6C  6BE0               	clrf	224,b	;volatile
  9860                           
  9861                           ; BSR set to: 61
  9862                           ;mcc_generated_files/uart2.c: 119:     U2ERRIR = 0x00;
  9863  004D6E  6BE1               	clrf	225,b	;volatile
  9864                           
  9865                           ; BSR set to: 61
  9866                           ;mcc_generated_files/uart2.c: 122:     U2ERRIE = 0x00;
  9867  004D70  6BE2               	clrf	226,b	;volatile
  9868                           
  9869                           ; BSR set to: 61
  9870                           ;mcc_generated_files/uart2.c: 126:     uart2TxHead = 0;
  9871  004D72  6A30               	clrf	_uart2TxHead,c	;volatile
  9872                           
  9873                           ; BSR set to: 61
  9874                           ;mcc_generated_files/uart2.c: 127:     uart2TxTail = 0;
  9875  004D74  6A2F               	clrf	_uart2TxTail,c	;volatile
  9876                           
  9877                           ; BSR set to: 61
  9878                           ;mcc_generated_files/uart2.c: 128:     uart2TxBufferRemaining = sizeof(uart2TxBuffer);
  9879  004D76  0E40               	movlw	64
  9880  004D78  6E2E               	movwf	_uart2TxBufferRemaining,c	;volatile
  9881                           
  9882                           ; BSR set to: 61
  9883                           ;mcc_generated_files/uart2.c: 129:     uart2RxHead = 0;
  9884  004D7A  6A2D               	clrf	_uart2RxHead,c	;volatile
  9885                           
  9886                           ; BSR set to: 61
  9887                           ;mcc_generated_files/uart2.c: 130:     uart2RxTail = 0;
  9888  004D7C  6A2C               	clrf	_uart2RxTail,c	;volatile
  9889                           
  9890                           ; BSR set to: 61
  9891                           ;mcc_generated_files/uart2.c: 131:     uart2RxCount = 0;
  9892  004D7E  6A2B               	clrf	_uart2RxCount,c	;volatile
  9893                           
  9894                           ; BSR set to: 61
  9895                           ;mcc_generated_files/uart2.c: 134:     PIE6bits.U2RXIE = 1;
  9896  004D80  0139               	movlb	57	; () banked
  9897  004D82  8596               	bsf	150,2,b	;volatile
  9898                           
  9899                           ; BSR set to: 57
  9900                           ; _UART2_Initialize: autosize = 0, savesize = 0, parsavesize = 0, tempsize = 0 parsize =
      +                           0, argsize = 0, vargsize = 0
  9901  004D84  0012               	return		;funcret
  9902  004D86                     __end_of_UART2_Initialize:
  9903                           	opt callstack 0
  9904                           
  9905 ;; *************** function _UART2_SetTxInterruptHandler *****************
  9906 ;; Defined at:
  9907 ;;		line 252 in file "mcc_generated_files/uart2.c"
  9908 ;; Parameters:    Size  Location     Type
  9909 ;;  InterruptHan    3  [STACK] PTR FTN()void 
  9910 ;;		 -> UART2_Transmit_ISR(1), 
  9911 ;; Auto vars:     Size  Location     Type
  9912 ;;		None
  9913 ;; Return value:  Size  Location     Type
  9914 ;;                  1  [STACK] void 
  9915 ;; Registers used:
  9916 ;;		wreg, fsr1l, fsr1h, fsr2l, fsr2h
  9917 ;; Tracked objects:
  9918 ;;		On entry : 3F/39
  9919 ;;		On exit  : 0/0
  9920 ;;		Unchanged: 0/0
  9921 ;; Data sizes:     COMRAM   BANK0   BANK1   BANK2   BANK3   BANK4   BANK5   BANK6   BANK7   BANK8   BANK9  BANK10  BANK1
      +1  BANK12  BANK13  BANK14  BANK15  BANK16  BANK17  BANK18  BANK19  BANK20  BANK21  BANK22  BANK23  BANK24  BANK25  BANK2
      +6  BANK27  BANK28  BANK29  BANK30  BANK31
  9922 ;;      Params:         0       0       0       0       0       0       0       0       0       0       0       0       
      +0       0       0       0       0       0       0       0       0       0       0       0       0       0       0       
      +0       0       0       0       0       0
  9923 ;;      Locals:         0       0       0       0       0       0       0       0       0       0       0       0       
      +0       0       0       0       0       0       0       0       0       0       0       0       0       0       0       
      +0       0       0       0       0       0
  9924 ;;      Temps:          0       0       0       0       0       0       0       0       0       0       0       0       
      +0       0       0       0       0       0       0       0       0       0       0       0       0       0       0       
      +0       0       0       0       0       0
  9925 ;;      Totals:         0       0       0       0       0       0       0       0       0       0       0       0       
      +0       0       0       0       0       0       0       0       0       0       0       0       0       0       0       
      +0       0       0       0       0       0
  9926 ;;Total ram usage:        0 bytes
  9927 ;; Hardware stack levels used:    1
  9928 ;; Hardware stack levels required when called:    3
  9929 ;; This function calls:
  9930 ;;		Nothing
  9931 ;; This function is called by:
  9932 ;;		_UART2_Initialize
  9933 ;; This function uses a reentrant model
  9934 ;;
  9935                           
  9936                           	psect	text48
  9937  005256                     __ptext48:
  9938                           	opt callstack 0
  9939  005256                     _UART2_SetTxInterruptHandler:
  9940                           	opt callstack 25
  9941                           
  9942                           ;mcc_generated_files/uart2.c: 253:     UART2_TxInterruptHandler = InterruptHandler;
  9943                           ;stkvar	_InterruptHandler @ sp[(0)+-3]
  9944                           
  9945                           ; BSR set to: 57
  9946                           ; autosize = 0, savesize = 0, parsavesize = 0, tempsize = 0 parsize = 3, argsize = 3 var
      +                          gsize = 0, retsize = 0 argfudge = 0
  9947                           ;incstack = 0
  9948  005256  50E1               	movf	fsr1l,w,c
  9949  005258  0FFD               	addlw	-3
  9950  00525A  6ED9               	movwf	fsr2l,c
  9951  00525C  50E2               	movf	fsr1h,w,c
  9952  00525E  6EDA               	movwf	fsr2h,c
  9953  005260  0EFF               	movlw	255
  9954  005262  22DA               	addwfc	fsr2h,f,c
  9955  005264  006F FF78  F011    	movff	postinc2,_UART2_TxInterruptHandler
  9956  00526A  006F FF78  F012    	movff	postinc2,_UART2_TxInterruptHandler+1
  9957  005270  006F FF74  F013    	movff	postdec2,_UART2_TxInterruptHandler+2
  9958                           
  9959                           ; _UART2_SetTxInterruptHandler: autosize = 0, savesize = 0, parsavesize = 0, tempsize = 
      +                          0 parsize = 3, argsize = 3, vargsize = 0
  9960  005276  52E5               	movf	postdec1,f,c
  9961  005278  52E5               	movf	postdec1,f,c
  9962  00527A  52E5               	movf	postdec1,f,c
  9963  00527C  0012               	return		;funcret
  9964  00527E                     __end_of_UART2_SetTxInterruptHandler:
  9965                           	opt callstack 0
  9966                           
  9967 ;; *************** function _UART2_SetRxInterruptHandler *****************
  9968 ;; Defined at:
  9969 ;;		line 248 in file "mcc_generated_files/uart2.c"
  9970 ;; Parameters:    Size  Location     Type
  9971 ;;  InterruptHan    3  [STACK] PTR FTN()void 
  9972 ;;		 -> UART2_Receive_ISR(1), 
  9973 ;; Auto vars:     Size  Location     Type
  9974 ;;		None
  9975 ;; Return value:  Size  Location     Type
  9976 ;;                  1  [STACK] void 
  9977 ;; Registers used:
  9978 ;;		wreg, fsr1l, fsr1h, fsr2l, fsr2h
  9979 ;; Tracked objects:
  9980 ;;		On entry : 3F/39
  9981 ;;		On exit  : 0/0
  9982 ;;		Unchanged: 0/0
  9983 ;; Data sizes:     COMRAM   BANK0   BANK1   BANK2   BANK3   BANK4   BANK5   BANK6   BANK7   BANK8   BANK9  BANK10  BANK1
      +1  BANK12  BANK13  BANK14  BANK15  BANK16  BANK17  BANK18  BANK19  BANK20  BANK21  BANK22  BANK23  BANK24  BANK25  BANK2
      +6  BANK27  BANK28  BANK29  BANK30  BANK31
  9984 ;;      Params:         0       0       0       0       0       0       0       0       0       0       0       0       
      +0       0       0       0       0       0       0       0       0       0       0       0       0       0       0       
      +0       0       0       0       0       0
  9985 ;;      Locals:         0       0       0       0       0       0       0       0       0       0       0       0       
      +0       0       0       0       0       0       0       0       0       0       0       0       0       0       0       
      +0       0       0       0       0       0
  9986 ;;      Temps:          0       0       0       0       0       0       0       0       0       0       0       0       
      +0       0       0       0       0       0       0       0       0       0       0       0       0       0       0       
      +0       0       0       0       0       0
  9987 ;;      Totals:         0       0       0       0       0       0       0       0       0       0       0       0       
      +0       0       0       0       0       0       0       0       0       0       0       0       0       0       0       
      +0       0       0       0       0       0
  9988 ;;Total ram usage:        0 bytes
  9989 ;; Hardware stack levels used:    1
  9990 ;; Hardware stack levels required when called:    3
  9991 ;; This function calls:
  9992 ;;		Nothing
  9993 ;; This function is called by:
  9994 ;;		_UART2_Initialize
  9995 ;; This function uses a reentrant model
  9996 ;;
  9997                           
  9998                           	psect	text49
  9999  00527E                     __ptext49:
 10000                           	opt callstack 0
 10001  00527E                     _UART2_SetRxInterruptHandler:
 10002                           	opt callstack 25
 10003                           
 10004                           ;mcc_generated_files/uart2.c: 249:     UART2_RxInterruptHandler = InterruptHandler;
 10005                           ;stkvar	_InterruptHandler @ sp[(0)+-3]
 10006                           
 10007                           ; autosize = 0, savesize = 0, parsavesize = 0, tempsize = 0 parsize = 3, argsize = 3 var
      +                          gsize = 0, retsize = 0 argfudge = 0
 10008                           ;incstack = 0
 10009  00527E  50E1               	movf	fsr1l,w,c
 10010  005280  0FFD               	addlw	-3
 10011  005282  6ED9               	movwf	fsr2l,c
 10012  005284  50E2               	movf	fsr1h,w,c
 10013  005286  6EDA               	movwf	fsr2h,c
 10014  005288  0EFF               	movlw	255
 10015  00528A  22DA               	addwfc	fsr2h,f,c
 10016  00528C  006F FF78  F014    	movff	postinc2,_UART2_RxInterruptHandler
 10017  005292  006F FF78  F015    	movff	postinc2,_UART2_RxInterruptHandler+1
 10018  005298  006F FF74  F016    	movff	postdec2,_UART2_RxInterruptHandler+2
 10019                           
 10020                           ; _UART2_SetRxInterruptHandler: autosize = 0, savesize = 0, parsavesize = 0, tempsize = 
      +                          0 parsize = 3, argsize = 3, vargsize = 0
 10021  00529E  52E5               	movf	postdec1,f,c
 10022  0052A0  52E5               	movf	postdec1,f,c
 10023  0052A2  52E5               	movf	postdec1,f,c
 10024  0052A4  0012               	return		;funcret
 10025  0052A6                     __end_of_UART2_SetRxInterruptHandler:
 10026                           	opt callstack 0
 10027                           
 10028 ;; *************** function _UART1_Initialize *****************
 10029 ;; Defined at:
 10030 ;;		line 78 in file "mcc_generated_files/uart1.c"
 10031 ;; Parameters:    Size  Location     Type
 10032 ;;		None
 10033 ;; Auto vars:     Size  Location     Type
 10034 ;;		None
 10035 ;; Return value:  Size  Location     Type
 10036 ;;                  1  [STACK] void 
 10037 ;; Registers used:
 10038 ;;		wreg, fsr1l, fsr1h, fsr2l, fsr2h, status,2
 10039 ;; Tracked objects:
 10040 ;;		On entry : 3F/3C
 10041 ;;		On exit  : 3F/39
 10042 ;;		Unchanged: 0/0
 10043 ;; Data sizes:     COMRAM   BANK0   BANK1   BANK2   BANK3   BANK4   BANK5   BANK6   BANK7   BANK8   BANK9  BANK10  BANK1
      +1  BANK12  BANK13  BANK14  BANK15  BANK16  BANK17  BANK18  BANK19  BANK20  BANK21  BANK22  BANK23  BANK24  BANK25  BANK2
      +6  BANK27  BANK28  BANK29  BANK30  BANK31
 10044 ;;      Params:         0       0       0       0       0       0       0       0       0       0       0       0       
      +0       0       0       0       0       0       0       0       0       0       0       0       0       0       0       
      +0       0       0       0       0       0
 10045 ;;      Locals:         0       0       0       0       0       0       0       0       0       0       0       0       
      +0       0       0       0       0       0       0       0       0       0       0       0       0       0       0       
      +0       0       0       0       0       0
 10046 ;;      Temps:          0       0       0       0       0       0       0       0       0       0       0       0       
      +0       0       0       0       0       0       0       0       0       0       0       0       0       0       0       
      +0       0       0       0       0       0
 10047 ;;      Totals:         0       0       0       0       0       0       0       0       0       0       0       0       
      +0       0       0       0       0       0       0       0       0       0       0       0       0       0       0       
      +0       0       0       0       0       0
 10048 ;;Total ram usage:        0 bytes
 10049 ;; Hardware stack levels used:    1
 10050 ;; Hardware stack levels required when called:    4
 10051 ;; This function calls:
 10052 ;;		_UART1_SetRxInterruptHandler
 10053 ;;		_UART1_SetTxInterruptHandler
 10054 ;; This function is called by:
 10055 ;;		_SYSTEM_Initialize
 10056 ;; This function uses a reentrant model
 10057 ;;
 10058                           
 10059                           	psect	text50
 10060  004BFC                     __ptext50:
 10061                           	opt callstack 0
 10062  004BFC                     _UART1_Initialize:
 10063                           	opt callstack 25
 10064                           
 10065                           ;mcc_generated_files/uart1.c: 81:  PIE3bits.U1RXIE = 0;
 10066                           
 10067                           ; autosize = 0, savesize = 0, parsavesize = 0, tempsize = 0 parsize = 0, argsize = 0 var
      +                          gsize = 0, retsize = 0 argfudge = 0
 10068                           ;incstack = 0
 10069  004BFC  0139               	movlb	57	; () banked
 10070  004BFE  9793               	bcf	147,3,b	;volatile
 10071                           
 10072                           ; BSR set to: 57
 10073                           ;mcc_generated_files/uart1.c: 82:  UART1_SetRxInterruptHandler(UART1_Receive_ISR);
 10074  004C00  0EA2               	movlw	low _UART1_Receive_ISR
 10075  004C02  6EE6               	movwf	postinc1,c
 10076  004C04  0E55               	movlw	high _UART1_Receive_ISR
 10077  004C06  6EE6               	movwf	postinc1,c
 10078  004C08  0E00               	movlw	low (_UART1_Receive_ISR shr (0+16))
 10079  004C0A  6EE6               	movwf	postinc1,c
 10080  004C0C  EC67  F029         	call	_UART1_SetRxInterruptHandler	;wreg free
 10081                           
 10082                           ;mcc_generated_files/uart1.c: 83:  PIE3bits.U1TXIE = 0;
 10083  004C10  0139               	movlb	57	; () banked
 10084  004C12  9993               	bcf	147,4,b	;volatile
 10085                           
 10086                           ;mcc_generated_files/uart1.c: 84:  UART1_SetTxInterruptHandler(UART1_Transmit_ISR);
 10087  004C14  0E34               	movlw	low _UART1_Transmit_ISR
 10088  004C16  6EE6               	movwf	postinc1,c
 10089  004C18  0E51               	movlw	high _UART1_Transmit_ISR
 10090  004C1A  6EE6               	movwf	postinc1,c
 10091  004C1C  0E00               	movlw	low (_UART1_Transmit_ISR shr (0+16))
 10092  004C1E  6EE6               	movwf	postinc1,c
 10093  004C20  EC53  F029         	call	_UART1_SetTxInterruptHandler	;wreg free
 10094                           
 10095                           ;mcc_generated_files/uart1.c: 89:  U1P1L = 0x00;
 10096  004C24  013D               	movlb	61	; () banked
 10097  004C26  6BEC               	clrf	236,b	;volatile
 10098                           
 10099                           ; BSR set to: 61
 10100                           ;mcc_generated_files/uart1.c: 92:  U1P1H = 0x00;
 10101  004C28  6BED               	clrf	237,b	;volatile
 10102                           
 10103                           ; BSR set to: 61
 10104                           ;mcc_generated_files/uart1.c: 95:  U1P2L = 0x00;
 10105  004C2A  6BEE               	clrf	238,b	;volatile
 10106                           
 10107                           ; BSR set to: 61
 10108                           ;mcc_generated_files/uart1.c: 98:  U1P2H = 0x00;
 10109  004C2C  6BEF               	clrf	239,b	;volatile
 10110                           
 10111                           ; BSR set to: 61
 10112                           ;mcc_generated_files/uart1.c: 101:  U1P3L = 0x00;
 10113  004C2E  6BF0               	clrf	240,b	;volatile
 10114                           
 10115                           ; BSR set to: 61
 10116                           ;mcc_generated_files/uart1.c: 104:  U1P3H = 0x00;
 10117  004C30  6BF1               	clrf	241,b	;volatile
 10118                           
 10119                           ; BSR set to: 61
 10120                           ;mcc_generated_files/uart1.c: 107:  U1CON0 = 0xB0;
 10121  004C32  0EB0               	movlw	176
 10122  004C34  6FF2               	movwf	242,b	;volatile
 10123                           
 10124                           ; BSR set to: 61
 10125                           ;mcc_generated_files/uart1.c: 110:  U1CON1 = 0x80;
 10126  004C36  0E80               	movlw	128
 10127  004C38  6FF3               	movwf	243,b	;volatile
 10128                           
 10129                           ; BSR set to: 61
 10130                           ;mcc_generated_files/uart1.c: 113:  U1CON2 = 0x30;
 10131  004C3A  0E30               	movlw	48
 10132  004C3C  6FF4               	movwf	244,b	;volatile
 10133                           
 10134                           ; BSR set to: 61
 10135                           ;mcc_generated_files/uart1.c: 116:  U1BRGL = 0x82;
 10136  004C3E  0E82               	movlw	130
 10137  004C40  6FF5               	movwf	245,b	;volatile
 10138                           
 10139                           ; BSR set to: 61
 10140                           ;mcc_generated_files/uart1.c: 119:  U1BRGH = 0x06;
 10141  004C42  0E06               	movlw	6
 10142  004C44  6FF6               	movwf	246,b	;volatile
 10143                           
 10144                           ; BSR set to: 61
 10145                           ;mcc_generated_files/uart1.c: 122:  U1FIFO = 0x00;
 10146  004C46  6BF7               	clrf	247,b	;volatile
 10147                           
 10148                           ; BSR set to: 61
 10149                           ;mcc_generated_files/uart1.c: 125:  U1UIR = 0x00;
 10150  004C48  6BF8               	clrf	248,b	;volatile
 10151                           
 10152                           ; BSR set to: 61
 10153                           ;mcc_generated_files/uart1.c: 128:  U1ERRIR = 0x00;
 10154  004C4A  6BF9               	clrf	249,b	;volatile
 10155                           
 10156                           ; BSR set to: 61
 10157                           ;mcc_generated_files/uart1.c: 131:  U1ERRIE = 0x00;
 10158  004C4C  6BFA               	clrf	250,b	;volatile
 10159                           
 10160                           ; BSR set to: 61
 10161                           ;mcc_generated_files/uart1.c: 135:  uart1TxHead = 0;
 10162  004C4E  6A36               	clrf	_uart1TxHead,c	;volatile
 10163                           
 10164                           ; BSR set to: 61
 10165                           ;mcc_generated_files/uart1.c: 136:  uart1TxTail = 0;
 10166  004C50  6A35               	clrf	_uart1TxTail,c	;volatile
 10167                           
 10168                           ; BSR set to: 61
 10169                           ;mcc_generated_files/uart1.c: 137:  uart1TxBufferRemaining = sizeof(uart1TxBuffer);
 10170  004C52  0E40               	movlw	64
 10171  004C54  6E34               	movwf	_uart1TxBufferRemaining,c	;volatile
 10172                           
 10173                           ; BSR set to: 61
 10174                           ;mcc_generated_files/uart1.c: 138:  uart1RxHead = 0;
 10175  004C56  6A33               	clrf	_uart1RxHead,c	;volatile
 10176                           
 10177                           ; BSR set to: 61
 10178                           ;mcc_generated_files/uart1.c: 139:  uart1RxTail = 0;
 10179  004C58  6A32               	clrf	_uart1RxTail,c	;volatile
 10180                           
 10181                           ; BSR set to: 61
 10182                           ;mcc_generated_files/uart1.c: 140:  uart1RxCount = 0;
 10183  004C5A  6A31               	clrf	_uart1RxCount,c	;volatile
 10184                           
 10185                           ; BSR set to: 61
 10186                           ;mcc_generated_files/uart1.c: 143:  PIE3bits.U1RXIE = 1;
 10187  004C5C  0139               	movlb	57	; () banked
 10188  004C5E  8793               	bsf	147,3,b	;volatile
 10189                           
 10190                           ; BSR set to: 57
 10191                           ; _UART1_Initialize: autosize = 0, savesize = 0, parsavesize = 0, tempsize = 0 parsize =
      +                           0, argsize = 0, vargsize = 0
 10192  004C60  0012               	return		;funcret
 10193  004C62                     __end_of_UART1_Initialize:
 10194                           	opt callstack 0
 10195                           
 10196 ;; *************** function _UART1_SetTxInterruptHandler *****************
 10197 ;; Defined at:
 10198 ;;		line 257 in file "mcc_generated_files/uart1.c"
 10199 ;; Parameters:    Size  Location     Type
 10200 ;;  InterruptHan    3  [STACK] PTR FTN()void 
 10201 ;;		 -> UART1_Transmit_ISR(1), 
 10202 ;; Auto vars:     Size  Location     Type
 10203 ;;		None
 10204 ;; Return value:  Size  Location     Type
 10205 ;;                  1  [STACK] void 
 10206 ;; Registers used:
 10207 ;;		wreg, fsr1l, fsr1h, fsr2l, fsr2h
 10208 ;; Tracked objects:
 10209 ;;		On entry : 3F/39
 10210 ;;		On exit  : 0/0
 10211 ;;		Unchanged: 0/0
 10212 ;; Data sizes:     COMRAM   BANK0   BANK1   BANK2   BANK3   BANK4   BANK5   BANK6   BANK7   BANK8   BANK9  BANK10  BANK1
      +1  BANK12  BANK13  BANK14  BANK15  BANK16  BANK17  BANK18  BANK19  BANK20  BANK21  BANK22  BANK23  BANK24  BANK25  BANK2
      +6  BANK27  BANK28  BANK29  BANK30  BANK31
 10213 ;;      Params:         0       0       0       0       0       0       0       0       0       0       0       0       
      +0       0       0       0       0       0       0       0       0       0       0       0       0       0       0       
      +0       0       0       0       0       0
 10214 ;;      Locals:         0       0       0       0       0       0       0       0       0       0       0       0       
      +0       0       0       0       0       0       0       0       0       0       0       0       0       0       0       
      +0       0       0       0       0       0
 10215 ;;      Temps:          0       0       0       0       0       0       0       0       0       0       0       0       
      +0       0       0       0       0       0       0       0       0       0       0       0       0       0       0       
      +0       0       0       0       0       0
 10216 ;;      Totals:         0       0       0       0       0       0       0       0       0       0       0       0       
      +0       0       0       0       0       0       0       0       0       0       0       0       0       0       0       
      +0       0       0       0       0       0
 10217 ;;Total ram usage:        0 bytes
 10218 ;; Hardware stack levels used:    1
 10219 ;; Hardware stack levels required when called:    3
 10220 ;; This function calls:
 10221 ;;		Nothing
 10222 ;; This function is called by:
 10223 ;;		_UART1_Initialize
 10224 ;; This function uses a reentrant model
 10225 ;;
 10226                           
 10227                           	psect	text51
 10228  0052A6                     __ptext51:
 10229                           	opt callstack 0
 10230  0052A6                     _UART1_SetTxInterruptHandler:
 10231                           	opt callstack 25
 10232                           
 10233                           ;mcc_generated_files/uart1.c: 257: void UART1_SetTxInterruptHandler(void (* InterruptHan
      +                          dler)(void));mcc_generated_files/uart1.c: 258: {;mcc_generated_files/uart1.c: 259:  UART
      +                          1_TxInterruptHandler = InterruptHandler;
 10234                           ;stkvar	_InterruptHandler @ sp[(0)+-3]
 10235                           
 10236                           ; BSR set to: 57
 10237                           ; autosize = 0, savesize = 0, parsavesize = 0, tempsize = 0 parsize = 3, argsize = 3 var
      +                          gsize = 0, retsize = 0 argfudge = 0
 10238                           ;incstack = 0
 10239  0052A6  50E1               	movf	fsr1l,w,c
 10240  0052A8  0FFD               	addlw	-3
 10241  0052AA  6ED9               	movwf	fsr2l,c
 10242  0052AC  50E2               	movf	fsr1h,w,c
 10243  0052AE  6EDA               	movwf	fsr2h,c
 10244  0052B0  0EFF               	movlw	255
 10245  0052B2  22DA               	addwfc	fsr2h,f,c
 10246  0052B4  006F FF78  F00B    	movff	postinc2,_UART1_TxInterruptHandler
 10247  0052BA  006F FF78  F00C    	movff	postinc2,_UART1_TxInterruptHandler+1
 10248  0052C0  006F FF74  F00D    	movff	postdec2,_UART1_TxInterruptHandler+2
 10249                           
 10250                           ; _UART1_SetTxInterruptHandler: autosize = 0, savesize = 0, parsavesize = 0, tempsize = 
      +                          0 parsize = 3, argsize = 3, vargsize = 0
 10251  0052C6  52E5               	movf	postdec1,f,c
 10252  0052C8  52E5               	movf	postdec1,f,c
 10253  0052CA  52E5               	movf	postdec1,f,c
 10254  0052CC  0012               	return		;funcret
 10255  0052CE                     __end_of_UART1_SetTxInterruptHandler:
 10256                           	opt callstack 0
 10257                           
 10258 ;; *************** function _UART1_SetRxInterruptHandler *****************
 10259 ;; Defined at:
 10260 ;;		line 252 in file "mcc_generated_files/uart1.c"
 10261 ;; Parameters:    Size  Location     Type
 10262 ;;  InterruptHan    3  [STACK] PTR FTN()void 
 10263 ;;		 -> UART1_Receive_ISR(1), 
 10264 ;; Auto vars:     Size  Location     Type
 10265 ;;		None
 10266 ;; Return value:  Size  Location     Type
 10267 ;;                  1  [STACK] void 
 10268 ;; Registers used:
 10269 ;;		wreg, fsr1l, fsr1h, fsr2l, fsr2h
 10270 ;; Tracked objects:
 10271 ;;		On entry : 3F/39
 10272 ;;		On exit  : 0/0
 10273 ;;		Unchanged: 0/0
 10274 ;; Data sizes:     COMRAM   BANK0   BANK1   BANK2   BANK3   BANK4   BANK5   BANK6   BANK7   BANK8   BANK9  BANK10  BANK1
      +1  BANK12  BANK13  BANK14  BANK15  BANK16  BANK17  BANK18  BANK19  BANK20  BANK21  BANK22  BANK23  BANK24  BANK25  BANK2
      +6  BANK27  BANK28  BANK29  BANK30  BANK31
 10275 ;;      Params:         0       0       0       0       0       0       0       0       0       0       0       0       
      +0       0       0       0       0       0       0       0       0       0       0       0       0       0       0       
      +0       0       0       0       0       0
 10276 ;;      Locals:         0       0       0       0       0       0       0       0       0       0       0       0       
      +0       0       0       0       0       0       0       0       0       0       0       0       0       0       0       
      +0       0       0       0       0       0
 10277 ;;      Temps:          0       0       0       0       0       0       0       0       0       0       0       0       
      +0       0       0       0       0       0       0       0       0       0       0       0       0       0       0       
      +0       0       0       0       0       0
 10278 ;;      Totals:         0       0       0       0       0       0       0       0       0       0       0       0       
      +0       0       0       0       0       0       0       0       0       0       0       0       0       0       0       
      +0       0       0       0       0       0
 10279 ;;Total ram usage:        0 bytes
 10280 ;; Hardware stack levels used:    1
 10281 ;; Hardware stack levels required when called:    3
 10282 ;; This function calls:
 10283 ;;		Nothing
 10284 ;; This function is called by:
 10285 ;;		_UART1_Initialize
 10286 ;; This function uses a reentrant model
 10287 ;;
 10288                           
 10289                           	psect	text52
 10290  0052CE                     __ptext52:
 10291                           	opt callstack 0
 10292  0052CE                     _UART1_SetRxInterruptHandler:
 10293                           	opt callstack 25
 10294                           
 10295                           ;mcc_generated_files/uart1.c: 252: void UART1_SetRxInterruptHandler(void (* InterruptHan
      +                          dler)(void));mcc_generated_files/uart1.c: 253: {;mcc_generated_files/uart1.c: 254:  UART
      +                          1_RxInterruptHandler = InterruptHandler;
 10296                           ;stkvar	_InterruptHandler @ sp[(0)+-3]
 10297                           
 10298                           ; autosize = 0, savesize = 0, parsavesize = 0, tempsize = 0 parsize = 3, argsize = 3 var
      +                          gsize = 0, retsize = 0 argfudge = 0
 10299                           ;incstack = 0
 10300  0052CE  50E1               	movf	fsr1l,w,c
 10301  0052D0  0FFD               	addlw	-3
 10302  0052D2  6ED9               	movwf	fsr2l,c
 10303  0052D4  50E2               	movf	fsr1h,w,c
 10304  0052D6  6EDA               	movwf	fsr2h,c
 10305  0052D8  0EFF               	movlw	255
 10306  0052DA  22DA               	addwfc	fsr2h,f,c
 10307  0052DC  006F FF78  F00E    	movff	postinc2,_UART1_RxInterruptHandler
 10308  0052E2  006F FF78  F00F    	movff	postinc2,_UART1_RxInterruptHandler+1
 10309  0052E8  006F FF74  F010    	movff	postdec2,_UART1_RxInterruptHandler+2
 10310                           
 10311                           ; _UART1_SetRxInterruptHandler: autosize = 0, savesize = 0, parsavesize = 0, tempsize = 
      +                          0 parsize = 3, argsize = 3, vargsize = 0
 10312  0052EE  52E5               	movf	postdec1,f,c
 10313  0052F0  52E5               	movf	postdec1,f,c
 10314  0052F2  52E5               	movf	postdec1,f,c
 10315  0052F4  0012               	return		;funcret
 10316  0052F6                     __end_of_UART1_SetRxInterruptHandler:
 10317                           	opt callstack 0
 10318                           
 10319 ;; *************** function _TMR6_Initialize *****************
 10320 ;; Defined at:
 10321 ;;		line 70 in file "mcc_generated_files/tmr6.c"
 10322 ;; Parameters:    Size  Location     Type
 10323 ;;		None
 10324 ;; Auto vars:     Size  Location     Type
 10325 ;;		None
 10326 ;; Return value:  Size  Location     Type
 10327 ;;                  1  [STACK] void 
 10328 ;; Registers used:
 10329 ;;		wreg, fsr1l, fsr1h, fsr2l, fsr2h, status,2
 10330 ;; Tracked objects:
 10331 ;;		On entry : 3F/39
 10332 ;;		On exit  : 0/0
 10333 ;;		Unchanged: 0/0
 10334 ;; Data sizes:     COMRAM   BANK0   BANK1   BANK2   BANK3   BANK4   BANK5   BANK6   BANK7   BANK8   BANK9  BANK10  BANK1
      +1  BANK12  BANK13  BANK14  BANK15  BANK16  BANK17  BANK18  BANK19  BANK20  BANK21  BANK22  BANK23  BANK24  BANK25  BANK2
      +6  BANK27  BANK28  BANK29  BANK30  BANK31
 10335 ;;      Params:         0       0       0       0       0       0       0       0       0       0       0       0       
      +0       0       0       0       0       0       0       0       0       0       0       0       0       0       0       
      +0       0       0       0       0       0
 10336 ;;      Locals:         0       0       0       0       0       0       0       0       0       0       0       0       
      +0       0       0       0       0       0       0       0       0       0       0       0       0       0       0       
      +0       0       0       0       0       0
 10337 ;;      Temps:          0       0       0       0       0       0       0       0       0       0       0       0       
      +0       0       0       0       0       0       0       0       0       0       0       0       0       0       0       
      +0       0       0       0       0       0
 10338 ;;      Totals:         0       0       0       0       0       0       0       0       0       0       0       0       
      +0       0       0       0       0       0       0       0       0       0       0       0       0       0       0       
      +0       0       0       0       0       0
 10339 ;;Total ram usage:        0 bytes
 10340 ;; Hardware stack levels used:    1
 10341 ;; Hardware stack levels required when called:    4
 10342 ;; This function calls:
 10343 ;;		_TMR6_SetInterruptHandler
 10344 ;; This function is called by:
 10345 ;;		_SYSTEM_Initialize
 10346 ;; This function uses a reentrant model
 10347 ;;
 10348                           
 10349                           	psect	text53
 10350  0052F6                     __ptext53:
 10351                           	opt callstack 0
 10352  0052F6                     _TMR6_Initialize:
 10353                           	opt callstack 25
 10354                           
 10355                           ;mcc_generated_files/tmr6.c: 75:  T6CLKCON = 0x01;
 10356                           
 10357                           ; autosize = 0, savesize = 0, parsavesize = 0, tempsize = 0 parsize = 0, argsize = 0 var
      +                          gsize = 0, retsize = 0 argfudge = 0
 10358                           ;incstack = 0
 10359  0052F6  0E01               	movlw	1
 10360  0052F8  6E96               	movwf	16278,c	;volatile
 10361                           
 10362                           ;mcc_generated_files/tmr6.c: 78:  T6HLT = 0x00;
 10363  0052FA  6A95               	clrf	16277,c	;volatile
 10364                           
 10365                           ;mcc_generated_files/tmr6.c: 81:  T6RST = 0x00;
 10366  0052FC  6A97               	clrf	16279,c	;volatile
 10367                           
 10368                           ;mcc_generated_files/tmr6.c: 84:  T6PR = 0x03;
 10369  0052FE  0E03               	movlw	3
 10370  005300  6E93               	movwf	16275,c	;volatile
 10371                           
 10372                           ;mcc_generated_files/tmr6.c: 87:  T6TMR = 0x00;
 10373  005302  6A92               	clrf	16274,c	;volatile
 10374                           
 10375                           ;mcc_generated_files/tmr6.c: 90:  PIR9bits.TMR6IF = 0;
 10376  005304  0139               	movlb	57	; () banked
 10377  005306  91A9               	bcf	169,0,b	;volatile
 10378                           
 10379                           ; BSR set to: 57
 10380                           ;mcc_generated_files/tmr6.c: 93:  PIE9bits.TMR6IE = 1;
 10381  005308  8199               	bsf	153,0,b	;volatile
 10382                           
 10383                           ; BSR set to: 57
 10384                           ;mcc_generated_files/tmr6.c: 96:  TMR6_SetInterruptHandler(TMR6_DefaultInterruptHandler)
      +                          ;
 10385  00530A  0E86               	movlw	low _TMR6_DefaultInterruptHandler
 10386  00530C  6EE6               	movwf	postinc1,c
 10387  00530E  0E4D               	movlw	high _TMR6_DefaultInterruptHandler
 10388  005310  6EE6               	movwf	postinc1,c
 10389  005312  0E00               	movlw	low (_TMR6_DefaultInterruptHandler shr (0+16))
 10390  005314  6EE6               	movwf	postinc1,c
 10391  005316  EC8F  F029         	call	_TMR6_SetInterruptHandler	;wreg free
 10392                           
 10393                           ;mcc_generated_files/tmr6.c: 99:  T6CON = 0xFF;
 10394  00531A  6894               	setf	16276,c	;volatile
 10395                           
 10396                           ; _TMR6_Initialize: autosize = 0, savesize = 0, parsavesize = 0, tempsize = 0 parsize = 
      +                          0, argsize = 0, vargsize = 0
 10397  00531C  0012               	return		;funcret
 10398  00531E                     __end_of_TMR6_Initialize:
 10399                           	opt callstack 0
 10400                           
 10401 ;; *************** function _TMR6_SetInterruptHandler *****************
 10402 ;; Defined at:
 10403 ;;		line 191 in file "mcc_generated_files/tmr6.c"
 10404 ;; Parameters:    Size  Location     Type
 10405 ;;  InterruptHan    3  [STACK] PTR FTN()void 
 10406 ;;		 -> TMR6_DefaultInterruptHandler(1), 
 10407 ;; Auto vars:     Size  Location     Type
 10408 ;;		None
 10409 ;; Return value:  Size  Location     Type
 10410 ;;                  1  [STACK] void 
 10411 ;; Registers used:
 10412 ;;		wreg, fsr1l, fsr1h, fsr2l, fsr2h
 10413 ;; Tracked objects:
 10414 ;;		On entry : 3F/39
 10415 ;;		On exit  : 0/0
 10416 ;;		Unchanged: 0/0
 10417 ;; Data sizes:     COMRAM   BANK0   BANK1   BANK2   BANK3   BANK4   BANK5   BANK6   BANK7   BANK8   BANK9  BANK10  BANK1
      +1  BANK12  BANK13  BANK14  BANK15  BANK16  BANK17  BANK18  BANK19  BANK20  BANK21  BANK22  BANK23  BANK24  BANK25  BANK2
      +6  BANK27  BANK28  BANK29  BANK30  BANK31
 10418 ;;      Params:         0       0       0       0       0       0       0       0       0       0       0       0       
      +0       0       0       0       0       0       0       0       0       0       0       0       0       0       0       
      +0       0       0       0       0       0
 10419 ;;      Locals:         0       0       0       0       0       0       0       0       0       0       0       0       
      +0       0       0       0       0       0       0       0       0       0       0       0       0       0       0       
      +0       0       0       0       0       0
 10420 ;;      Temps:          0       0       0       0       0       0       0       0       0       0       0       0       
      +0       0       0       0       0       0       0       0       0       0       0       0       0       0       0       
      +0       0       0       0       0       0
 10421 ;;      Totals:         0       0       0       0       0       0       0       0       0       0       0       0       
      +0       0       0       0       0       0       0       0       0       0       0       0       0       0       0       
      +0       0       0       0       0       0
 10422 ;;Total ram usage:        0 bytes
 10423 ;; Hardware stack levels used:    1
 10424 ;; Hardware stack levels required when called:    3
 10425 ;; This function calls:
 10426 ;;		Nothing
 10427 ;; This function is called by:
 10428 ;;		_TMR6_Initialize
 10429 ;; This function uses a reentrant model
 10430 ;;
 10431                           
 10432                           	psect	text54
 10433  00531E                     __ptext54:
 10434                           	opt callstack 0
 10435  00531E                     _TMR6_SetInterruptHandler:
 10436                           	opt callstack 25
 10437                           
 10438                           ;mcc_generated_files/tmr6.c: 191: void TMR6_SetInterruptHandler(void (* InterruptHandler
      +                          )(void));mcc_generated_files/tmr6.c: 192: {;mcc_generated_files/tmr6.c: 193:  TMR6_Inter
      +                          ruptHandler = InterruptHandler;
 10439                           ;stkvar	_InterruptHandler @ sp[(0)+-3]
 10440                           
 10441                           ; autosize = 0, savesize = 0, parsavesize = 0, tempsize = 0 parsize = 3, argsize = 3 var
      +                          gsize = 0, retsize = 0 argfudge = 0
 10442                           ;incstack = 0
 10443  00531E  50E1               	movf	fsr1l,w,c
 10444  005320  0FFD               	addlw	-3
 10445  005322  6ED9               	movwf	fsr2l,c
 10446  005324  50E2               	movf	fsr1h,w,c
 10447  005326  6EDA               	movwf	fsr2h,c
 10448  005328  0EFF               	movlw	255
 10449  00532A  22DA               	addwfc	fsr2h,f,c
 10450  00532C  006F FF78  F005    	movff	postinc2,_TMR6_InterruptHandler
 10451  005332  006F FF78  F006    	movff	postinc2,_TMR6_InterruptHandler+1
 10452  005338  006F FF74  F007    	movff	postdec2,_TMR6_InterruptHandler+2
 10453                           
 10454                           ; _TMR6_SetInterruptHandler: autosize = 0, savesize = 0, parsavesize = 0, tempsize = 0 p
      +                          arsize = 3, argsize = 3, vargsize = 0
 10455  00533E  52E5               	movf	postdec1,f,c
 10456  005340  52E5               	movf	postdec1,f,c
 10457  005342  52E5               	movf	postdec1,f,c
 10458  005344  0012               	return		;funcret
 10459  005346                     __end_of_TMR6_SetInterruptHandler:
 10460                           	opt callstack 0
 10461                           
 10462 ;; *************** function _SPI1_Initialize *****************
 10463 ;; Defined at:
 10464 ;;		line 64 in file "mcc_generated_files/spi1.c"
 10465 ;; Parameters:    Size  Location     Type
 10466 ;;		None
 10467 ;; Auto vars:     Size  Location     Type
 10468 ;;		None
 10469 ;; Return value:  Size  Location     Type
 10470 ;;                  1  [STACK] void 
 10471 ;; Registers used:
 10472 ;;		wreg, status,2
 10473 ;; Tracked objects:
 10474 ;;		On entry : 3F/39
 10475 ;;		On exit  : 3F/3D
 10476 ;;		Unchanged: 0/0
 10477 ;; Data sizes:     COMRAM   BANK0   BANK1   BANK2   BANK3   BANK4   BANK5   BANK6   BANK7   BANK8   BANK9  BANK10  BANK1
      +1  BANK12  BANK13  BANK14  BANK15  BANK16  BANK17  BANK18  BANK19  BANK20  BANK21  BANK22  BANK23  BANK24  BANK25  BANK2
      +6  BANK27  BANK28  BANK29  BANK30  BANK31
 10478 ;;      Params:         0       0       0       0       0       0       0       0       0       0       0       0       
      +0       0       0       0       0       0       0       0       0       0       0       0       0       0       0       
      +0       0       0       0       0       0
 10479 ;;      Locals:         0       0       0       0       0       0       0       0       0       0       0       0       
      +0       0       0       0       0       0       0       0       0       0       0       0       0       0       0       
      +0       0       0       0       0       0
 10480 ;;      Temps:          0       0       0       0       0       0       0       0       0       0       0       0       
      +0       0       0       0       0       0       0       0       0       0       0       0       0       0       0       
      +0       0       0       0       0       0
 10481 ;;      Totals:         0       0       0       0       0       0       0       0       0       0       0       0       
      +0       0       0       0       0       0       0       0       0       0       0       0       0       0       0       
      +0       0       0       0       0       0
 10482 ;;Total ram usage:        0 bytes
 10483 ;; Hardware stack levels used:    1
 10484 ;; Hardware stack levels required when called:    3
 10485 ;; This function calls:
 10486 ;;		Nothing
 10487 ;; This function is called by:
 10488 ;;		_SYSTEM_Initialize
 10489 ;; This function uses a reentrant model
 10490 ;;
 10491                           
 10492                           	psect	text55
 10493  00566E                     __ptext55:
 10494                           	opt callstack 0
 10495  00566E                     _SPI1_Initialize:
 10496                           	opt callstack 26
 10497                           
 10498                           ;mcc_generated_files/spi1.c: 68:   SPI1CON1 = 0x40;
 10499                           
 10500                           ; autosize = 0, savesize = 0, parsavesize = 0, tempsize = 0 parsize = 0, argsize = 0 var
      +                          gsize = 0, retsize = 0 argfudge = 0
 10501                           ;incstack = 0
 10502  00566E  0E40               	movlw	64
 10503  005670  013D               	movlb	61	; () banked
 10504  005672  6F15               	movwf	21,b	;volatile
 10505                           
 10506                           ;mcc_generated_files/spi1.c: 70:   SPI1CON2 = 0x03;
 10507  005674  0E03               	movlw	3
 10508  005676  6F16               	movwf	22,b	;volatile
 10509                           
 10510                           ;mcc_generated_files/spi1.c: 72:   SPI1BAUD = 0x4F;
 10511  005678  0E4F               	movlw	79
 10512  00567A  6F19               	movwf	25,b	;volatile
 10513                           
 10514                           ; BSR set to: 61
 10515                           ;mcc_generated_files/spi1.c: 74:   SPI1CLK = 0x00;
 10516  00567C  6B1C               	clrf	28,b	;volatile
 10517                           
 10518                           ;mcc_generated_files/spi1.c: 76:   SPI1CON0 = 0x83;
 10519  00567E  0E83               	movlw	131
 10520  005680  6F14               	movwf	20,b	;volatile
 10521                           
 10522                           ; BSR set to: 61
 10523                           ; _SPI1_Initialize: autosize = 0, savesize = 0, parsavesize = 0, tempsize = 0 parsize = 
      +                          0, argsize = 0, vargsize = 0
 10524  005682  0012               	return		;funcret
 10525  005684                     __end_of_SPI1_Initialize:
 10526                           	opt callstack 0
 10527                           
 10528 ;; *************** function _PMD_Initialize *****************
 10529 ;; Defined at:
 10530 ;;		line 87 in file "mcc_generated_files/mcc.c"
 10531 ;; Parameters:    Size  Location     Type
 10532 ;;		None
 10533 ;; Auto vars:     Size  Location     Type
 10534 ;;		None
 10535 ;; Return value:  Size  Location     Type
 10536 ;;                  1  [STACK] void 
 10537 ;; Registers used:
 10538 ;;		None
 10539 ;; Tracked objects:
 10540 ;;		On entry : 3F/39
 10541 ;;		On exit  : 3F/39
 10542 ;;		Unchanged: 0/0
 10543 ;; Data sizes:     COMRAM   BANK0   BANK1   BANK2   BANK3   BANK4   BANK5   BANK6   BANK7   BANK8   BANK9  BANK10  BANK1
      +1  BANK12  BANK13  BANK14  BANK15  BANK16  BANK17  BANK18  BANK19  BANK20  BANK21  BANK22  BANK23  BANK24  BANK25  BANK2
      +6  BANK27  BANK28  BANK29  BANK30  BANK31
 10544 ;;      Params:         0       0       0       0       0       0       0       0       0       0       0       0       
      +0       0       0       0       0       0       0       0       0       0       0       0       0       0       0       
      +0       0       0       0       0       0
 10545 ;;      Locals:         0       0       0       0       0       0       0       0       0       0       0       0       
      +0       0       0       0       0       0       0       0       0       0       0       0       0       0       0       
      +0       0       0       0       0       0
 10546 ;;      Temps:          0       0       0       0       0       0       0       0       0       0       0       0       
      +0       0       0       0       0       0       0       0       0       0       0       0       0       0       0       
      +0       0       0       0       0       0
 10547 ;;      Totals:         0       0       0       0       0       0       0       0       0       0       0       0       
      +0       0       0       0       0       0       0       0       0       0       0       0       0       0       0       
      +0       0       0       0       0       0
 10548 ;;Total ram usage:        0 bytes
 10549 ;; Hardware stack levels used:    1
 10550 ;; Hardware stack levels required when called:    3
 10551 ;; This function calls:
 10552 ;;		Nothing
 10553 ;; This function is called by:
 10554 ;;		_SYSTEM_Initialize
 10555 ;; This function uses a reentrant model
 10556 ;;
 10557                           
 10558                           	psect	text56
 10559  00569A                     __ptext56:
 10560                           	opt callstack 0
 10561  00569A                     _PMD_Initialize:
 10562                           	opt callstack 26
 10563                           
 10564                           ;mcc_generated_files/mcc.c: 90:     PMD0 = 0x00;
 10565                           
 10566                           ; BSR set to: 61
 10567                           ; autosize = 0, savesize = 0, parsavesize = 0, tempsize = 0 parsize = 0, argsize = 0 var
      +                          gsize = 0, retsize = 0 argfudge = 0
 10568                           ;incstack = 0
 10569  00569A  0139               	movlb	57	; () banked
 10570  00569C  6BC0               	clrf	192,b	;volatile
 10571                           
 10572                           ;mcc_generated_files/mcc.c: 92:     PMD1 = 0x00;
 10573  00569E  6BC1               	clrf	193,b	;volatile
 10574                           
 10575                           ;mcc_generated_files/mcc.c: 94:     PMD2 = 0x00;
 10576  0056A0  6BC2               	clrf	194,b	;volatile
 10577                           
 10578                           ;mcc_generated_files/mcc.c: 96:     PMD3 = 0x00;
 10579  0056A2  6BC3               	clrf	195,b	;volatile
 10580                           
 10581                           ;mcc_generated_files/mcc.c: 98:     PMD4 = 0x00;
 10582  0056A4  6BC4               	clrf	196,b	;volatile
 10583                           
 10584                           ;mcc_generated_files/mcc.c: 100:     PMD5 = 0x00;
 10585  0056A6  6BC5               	clrf	197,b	;volatile
 10586                           
 10587                           ;mcc_generated_files/mcc.c: 102:     PMD6 = 0x00;
 10588  0056A8  6BC6               	clrf	198,b	;volatile
 10589                           
 10590                           ;mcc_generated_files/mcc.c: 104:     PMD7 = 0x00;
 10591  0056AA  6BC7               	clrf	199,b	;volatile
 10592                           
 10593                           ; BSR set to: 57
 10594                           ; _PMD_Initialize: autosize = 0, savesize = 0, parsavesize = 0, tempsize = 0 parsize = 0
      +                          , argsize = 0, vargsize = 0
 10595  0056AC  0012               	return		;funcret
 10596  0056AE                     __end_of_PMD_Initialize:
 10597                           	opt callstack 0
 10598                           
 10599 ;; *************** function _PIN_MANAGER_Initialize *****************
 10600 ;; Defined at:
 10601 ;;		line 57 in file "mcc_generated_files/pin_manager.c"
 10602 ;; Parameters:    Size  Location     Type
 10603 ;;		None
 10604 ;; Auto vars:     Size  Location     Type
 10605 ;;		None
 10606 ;; Return value:  Size  Location     Type
 10607 ;;                  1  [STACK] void 
 10608 ;; Registers used:
 10609 ;;		wreg, status,2
 10610 ;; Tracked objects:
 10611 ;;		On entry : 3F/39
 10612 ;;		On exit  : 3F/3A
 10613 ;;		Unchanged: 0/0
 10614 ;; Data sizes:     COMRAM   BANK0   BANK1   BANK2   BANK3   BANK4   BANK5   BANK6   BANK7   BANK8   BANK9  BANK10  BANK1
      +1  BANK12  BANK13  BANK14  BANK15  BANK16  BANK17  BANK18  BANK19  BANK20  BANK21  BANK22  BANK23  BANK24  BANK25  BANK2
      +6  BANK27  BANK28  BANK29  BANK30  BANK31
 10615 ;;      Params:         0       0       0       0       0       0       0       0       0       0       0       0       
      +0       0       0       0       0       0       0       0       0       0       0       0       0       0       0       
      +0       0       0       0       0       0
 10616 ;;      Locals:         0       0       0       0       0       0       0       0       0       0       0       0       
      +0       0       0       0       0       0       0       0       0       0       0       0       0       0       0       
      +0       0       0       0       0       0
 10617 ;;      Temps:          0       0       0       0       0       0       0       0       0       0       0       0       
      +0       0       0       0       0       0       0       0       0       0       0       0       0       0       0       
      +0       0       0       0       0       0
 10618 ;;      Totals:         0       0       0       0       0       0       0       0       0       0       0       0       
      +0       0       0       0       0       0       0       0       0       0       0       0       0       0       0       
      +0       0       0       0       0       0
 10619 ;;Total ram usage:        0 bytes
 10620 ;; Hardware stack levels used:    1
 10621 ;; Hardware stack levels required when called:    3
 10622 ;; This function calls:
 10623 ;;		Nothing
 10624 ;; This function is called by:
 10625 ;;		_SYSTEM_Initialize
 10626 ;; This function uses a reentrant model
 10627 ;;
 10628                           
 10629                           	psect	text57
 10630  0047AC                     __ptext57:
 10631                           	opt callstack 0
 10632  0047AC                     _PIN_MANAGER_Initialize:
 10633                           	opt callstack 26
 10634                           
 10635                           ;mcc_generated_files/pin_manager.c: 62:     LATE = 0x07;
 10636                           
 10637                           ; BSR set to: 57
 10638                           ; autosize = 0, savesize = 0, parsavesize = 0, tempsize = 0 parsize = 0, argsize = 0 var
      +                          gsize = 0, retsize = 0 argfudge = 0
 10639                           ;incstack = 0
 10640  0047AC  0E07               	movlw	7
 10641  0047AE  6EBE               	movwf	16318,c	;volatile
 10642                           
 10643                           ;mcc_generated_files/pin_manager.c: 63:     LATD = 0x00;
 10644  0047B0  6ABD               	clrf	16317,c	;volatile
 10645                           
 10646                           ;mcc_generated_files/pin_manager.c: 64:     LATA = 0x00;
 10647  0047B2  6ABA               	clrf	16314,c	;volatile
 10648                           
 10649                           ;mcc_generated_files/pin_manager.c: 65:     LATF = 0x00;
 10650  0047B4  6ABF               	clrf	16319,c	;volatile
 10651                           
 10652                           ;mcc_generated_files/pin_manager.c: 66:     LATB = 0x00;
 10653  0047B6  6ABB               	clrf	16315,c	;volatile
 10654                           
 10655                           ;mcc_generated_files/pin_manager.c: 67:     LATC = 0x06;
 10656  0047B8  0E06               	movlw	6
 10657  0047BA  6EBC               	movwf	16316,c	;volatile
 10658                           
 10659                           ;mcc_generated_files/pin_manager.c: 72:     TRISE = 0x00;
 10660  0047BC  6AC6               	clrf	16326,c	;volatile
 10661                           
 10662                           ;mcc_generated_files/pin_manager.c: 73:     TRISF = 0xFF;
 10663  0047BE  68C7               	setf	16327,c	;volatile
 10664                           
 10665                           ;mcc_generated_files/pin_manager.c: 74:     TRISA = 0x8F;
 10666  0047C0  0E8F               	movlw	143
 10667  0047C2  6EC2               	movwf	16322,c	;volatile
 10668                           
 10669                           ;mcc_generated_files/pin_manager.c: 75:     TRISB = 0xBF;
 10670  0047C4  0EBF               	movlw	191
 10671  0047C6  6EC3               	movwf	16323,c	;volatile
 10672                           
 10673                           ;mcc_generated_files/pin_manager.c: 76:     TRISC = 0x91;
 10674  0047C8  0E91               	movlw	145
 10675  0047CA  6EC4               	movwf	16324,c	;volatile
 10676                           
 10677                           ;mcc_generated_files/pin_manager.c: 77:     TRISD = 0xFF;
 10678  0047CC  68C5               	setf	16325,c	;volatile
 10679                           
 10680                           ;mcc_generated_files/pin_manager.c: 82:     ANSELD = 0xFF;
 10681  0047CE  013A               	movlb	58	; () banked
 10682  0047D0  6970               	setf	112,b	;volatile
 10683                           
 10684                           ;mcc_generated_files/pin_manager.c: 83:     ANSELC = 0x01;
 10685  0047D2  0E01               	movlw	1
 10686  0047D4  6F60               	movwf	96,b	;volatile
 10687                           
 10688                           ;mcc_generated_files/pin_manager.c: 84:     ANSELB = 0x38;
 10689  0047D6  0E38               	movlw	56
 10690  0047D8  6F50               	movwf	80,b	;volatile
 10691                           
 10692                           ; BSR set to: 58
 10693                           ;mcc_generated_files/pin_manager.c: 85:     ANSELE = 0x00;
 10694  0047DA  6B80               	clrf	128,b	;volatile
 10695                           
 10696                           ; BSR set to: 58
 10697                           ;mcc_generated_files/pin_manager.c: 86:     ANSELF = 0xFF;
 10698  0047DC  6990               	setf	144,b	;volatile
 10699                           
 10700                           ;mcc_generated_files/pin_manager.c: 87:     ANSELA = 0x8F;
 10701  0047DE  0E8F               	movlw	143
 10702  0047E0  6F40               	movwf	64,b	;volatile
 10703                           
 10704                           ; BSR set to: 58
 10705                           ;mcc_generated_files/pin_manager.c: 92:     WPUD = 0x00;
 10706  0047E2  6B71               	clrf	113,b	;volatile
 10707                           
 10708                           ; BSR set to: 58
 10709                           ;mcc_generated_files/pin_manager.c: 93:     WPUF = 0x00;
 10710  0047E4  6B91               	clrf	145,b	;volatile
 10711                           
 10712                           ; BSR set to: 58
 10713                           ;mcc_generated_files/pin_manager.c: 94:     WPUE = 0x00;
 10714  0047E6  6B81               	clrf	129,b	;volatile
 10715                           
 10716                           ;mcc_generated_files/pin_manager.c: 95:     WPUB = 0x87;
 10717  0047E8  0E87               	movlw	135
 10718  0047EA  6F51               	movwf	81,b	;volatile
 10719                           
 10720                           ; BSR set to: 58
 10721                           ;mcc_generated_files/pin_manager.c: 96:     WPUA = 0x00;
 10722  0047EC  6B41               	clrf	65,b	;volatile
 10723                           
 10724                           ;mcc_generated_files/pin_manager.c: 97:     WPUC = 0x90;
 10725  0047EE  0E90               	movlw	144
 10726  0047F0  6F61               	movwf	97,b	;volatile
 10727                           
 10728                           ; BSR set to: 58
 10729                           ;mcc_generated_files/pin_manager.c: 102:     ODCONE = 0x00;
 10730  0047F2  6B82               	clrf	130,b	;volatile
 10731                           
 10732                           ; BSR set to: 58
 10733                           ;mcc_generated_files/pin_manager.c: 103:     ODCONF = 0x00;
 10734  0047F4  6B92               	clrf	146,b	;volatile
 10735                           
 10736                           ; BSR set to: 58
 10737                           ;mcc_generated_files/pin_manager.c: 104:     ODCONA = 0x00;
 10738  0047F6  6B42               	clrf	66,b	;volatile
 10739                           
 10740                           ; BSR set to: 58
 10741                           ;mcc_generated_files/pin_manager.c: 105:     ODCONB = 0x00;
 10742  0047F8  6B52               	clrf	82,b	;volatile
 10743                           
 10744                           ; BSR set to: 58
 10745                           ;mcc_generated_files/pin_manager.c: 106:     ODCONC = 0x00;
 10746  0047FA  6B62               	clrf	98,b	;volatile
 10747                           
 10748                           ; BSR set to: 58
 10749                           ;mcc_generated_files/pin_manager.c: 107:     ODCOND = 0x00;
 10750  0047FC  6B72               	clrf	114,b	;volatile
 10751                           
 10752                           ; BSR set to: 58
 10753                           ;mcc_generated_files/pin_manager.c: 112:     SLRCONA = 0xFF;
 10754  0047FE  6943               	setf	67,b	;volatile
 10755                           
 10756                           ; BSR set to: 58
 10757                           ;mcc_generated_files/pin_manager.c: 113:     SLRCONB = 0xFF;
 10758  004800  6953               	setf	83,b	;volatile
 10759                           
 10760                           ; BSR set to: 58
 10761                           ;mcc_generated_files/pin_manager.c: 114:     SLRCONC = 0xFF;
 10762  004802  6963               	setf	99,b	;volatile
 10763                           
 10764                           ; BSR set to: 58
 10765                           ;mcc_generated_files/pin_manager.c: 115:     SLRCOND = 0xFF;
 10766  004804  6973               	setf	115,b	;volatile
 10767                           
 10768                           ;mcc_generated_files/pin_manager.c: 116:     SLRCONE = 0x07;
 10769  004806  0E07               	movlw	7
 10770  004808  6F83               	movwf	131,b	;volatile
 10771                           
 10772                           ; BSR set to: 58
 10773                           ;mcc_generated_files/pin_manager.c: 117:     SLRCONF = 0xFF;
 10774  00480A  6993               	setf	147,b	;volatile
 10775                           
 10776                           ;mcc_generated_files/pin_manager.c: 126:     U2RXPPS = 0x0F;
 10777  00480C  0E0F               	movlw	15
 10778  00480E  6FE8               	movwf	232,b	;volatile
 10779                           
 10780                           ;mcc_generated_files/pin_manager.c: 127:     RB6PPS = 0x16;
 10781  004810  0E16               	movlw	22
 10782  004812  6F0E               	movwf	14,b	;volatile
 10783                           
 10784                           ;mcc_generated_files/pin_manager.c: 128:     RC3PPS = 0x1E;
 10785  004814  0E1E               	movlw	30
 10786  004816  6F13               	movwf	19,b	;volatile
 10787                           
 10788                           ;mcc_generated_files/pin_manager.c: 129:     INT0PPS = 0x08;
 10789  004818  0E08               	movlw	8
 10790  00481A  6FC0               	movwf	192,b	;volatile
 10791                           
 10792                           ;mcc_generated_files/pin_manager.c: 130:     INT2PPS = 0x0A;
 10793  00481C  0E0A               	movlw	10
 10794  00481E  6FC2               	movwf	194,b	;volatile
 10795                           
 10796                           ;mcc_generated_files/pin_manager.c: 131:     INT1PPS = 0x09;
 10797  004820  0E09               	movlw	9
 10798  004822  6FC1               	movwf	193,b	;volatile
 10799                           
 10800                           ;mcc_generated_files/pin_manager.c: 132:     U1RXPPS = 0x17;
 10801  004824  0E17               	movlw	23
 10802  004826  6FE5               	movwf	229,b	;volatile
 10803                           
 10804                           ;mcc_generated_files/pin_manager.c: 133:     SPI1SCKPPS = 0x13;
 10805  004828  0E13               	movlw	19
 10806  00482A  6FDE               	movwf	222,b	;volatile
 10807                           
 10808                           ;mcc_generated_files/pin_manager.c: 134:     RA4PPS = 0x01;
 10809  00482C  0E01               	movlw	1
 10810  00482E  6F04               	movwf	4,b	;volatile
 10811                           
 10812                           ;mcc_generated_files/pin_manager.c: 135:     RA5PPS = 0x26;
 10813  004830  0E26               	movlw	38
 10814  004832  6F05               	movwf	5,b	;volatile
 10815                           
 10816                           ;mcc_generated_files/pin_manager.c: 136:     RA6PPS = 0x28;
 10817  004834  0E28               	movlw	40
 10818  004836  6F06               	movwf	6,b	;volatile
 10819                           
 10820                           ;mcc_generated_files/pin_manager.c: 137:     RC5PPS = 0x1F;
 10821  004838  0E1F               	movlw	31
 10822  00483A  6F15               	movwf	21,b	;volatile
 10823                           
 10824                           ;mcc_generated_files/pin_manager.c: 138:     RC6PPS = 0x13;
 10825  00483C  0E13               	movlw	19
 10826  00483E  6F16               	movwf	22,b	;volatile
 10827                           
 10828                           ;mcc_generated_files/pin_manager.c: 139:     SPI1SDIPPS = 0x14;
 10829  004840  0E14               	movlw	20
 10830  004842  6FDF               	movwf	223,b	;volatile
 10831                           
 10832                           ; BSR set to: 58
 10833                           ; _PIN_MANAGER_Initialize: autosize = 0, savesize = 0, parsavesize = 0, tempsize = 0 par
      +                          size = 0, argsize = 0, vargsize = 0
 10834  004844  0012               	return		;funcret
 10835  004846                     __end_of_PIN_MANAGER_Initialize:
 10836                           	opt callstack 0
 10837                           
 10838 ;; *************** function _OSCILLATOR_Initialize *****************
 10839 ;; Defined at:
 10840 ;;		line 69 in file "mcc_generated_files/mcc.c"
 10841 ;; Parameters:    Size  Location     Type
 10842 ;;		None
 10843 ;; Auto vars:     Size  Location     Type
 10844 ;;		None
 10845 ;; Return value:  Size  Location     Type
 10846 ;;                  1  [STACK] void 
 10847 ;; Registers used:
 10848 ;;		wreg, status,2
 10849 ;; Tracked objects:
 10850 ;;		On entry : 3F/3A
 10851 ;;		On exit  : 3F/39
 10852 ;;		Unchanged: 0/0
 10853 ;; Data sizes:     COMRAM   BANK0   BANK1   BANK2   BANK3   BANK4   BANK5   BANK6   BANK7   BANK8   BANK9  BANK10  BANK1
      +1  BANK12  BANK13  BANK14  BANK15  BANK16  BANK17  BANK18  BANK19  BANK20  BANK21  BANK22  BANK23  BANK24  BANK25  BANK2
      +6  BANK27  BANK28  BANK29  BANK30  BANK31
 10854 ;;      Params:         0       0       0       0       0       0       0       0       0       0       0       0       
      +0       0       0       0       0       0       0       0       0       0       0       0       0       0       0       
      +0       0       0       0       0       0
 10855 ;;      Locals:         0       0       0       0       0       0       0       0       0       0       0       0       
      +0       0       0       0       0       0       0       0       0       0       0       0       0       0       0       
      +0       0       0       0       0       0
 10856 ;;      Temps:          0       0       0       0       0       0       0       0       0       0       0       0       
      +0       0       0       0       0       0       0       0       0       0       0       0       0       0       0       
      +0       0       0       0       0       0
 10857 ;;      Totals:         0       0       0       0       0       0       0       0       0       0       0       0       
      +0       0       0       0       0       0       0       0       0       0       0       0       0       0       0       
      +0       0       0       0       0       0
 10858 ;;Total ram usage:        0 bytes
 10859 ;; Hardware stack levels used:    1
 10860 ;; Hardware stack levels required when called:    3
 10861 ;; This function calls:
 10862 ;;		Nothing
 10863 ;; This function is called by:
 10864 ;;		_SYSTEM_Initialize
 10865 ;; This function uses a reentrant model
 10866 ;;
 10867                           
 10868                           	psect	text58
 10869  005684                     __ptext58:
 10870                           	opt callstack 0
 10871  005684                     _OSCILLATOR_Initialize:
 10872                           	opt callstack 26
 10873                           
 10874                           ;mcc_generated_files/mcc.c: 72:     OSCCON1 = 0x20;
 10875                           
 10876                           ; BSR set to: 58
 10877                           ; autosize = 0, savesize = 0, parsavesize = 0, tempsize = 0 parsize = 0, argsize = 0 var
      +                          gsize = 0, retsize = 0 argfudge = 0
 10878                           ;incstack = 0
 10879  005684  0E20               	movlw	32
 10880  005686  0139               	movlb	57	; () banked
 10881  005688  6FD9               	movwf	217,b	;volatile
 10882                           
 10883                           ; BSR set to: 57
 10884                           ;mcc_generated_files/mcc.c: 74:     OSCCON3 = 0x00;
 10885  00568A  6BDB               	clrf	219,b	;volatile
 10886                           
 10887                           ; BSR set to: 57
 10888                           ;mcc_generated_files/mcc.c: 76:     OSCEN = 0x00;
 10889  00568C  6BDD               	clrf	221,b	;volatile
 10890                           
 10891                           ;mcc_generated_files/mcc.c: 78:     OSCFRQ = 0x02;
 10892  00568E  0E02               	movlw	2
 10893  005690  6FDF               	movwf	223,b	;volatile
 10894                           
 10895                           ; BSR set to: 57
 10896                           ;mcc_generated_files/mcc.c: 80:     OSCTUNE = 0x00;
 10897  005692  6BDE               	clrf	222,b	;volatile
 10898  005694                     l190:
 10899                           
 10900                           ; BSR set to: 57
 10901                           ;mcc_generated_files/mcc.c: 82:     while(PLLR == 0)
 10902  005694  B1DC               	btfsc	220,0,b	;volatile
 10903  005696  0012               	return	
 10904  005698  D7FD               	goto	l190
 10905  00569A                     __end_of_OSCILLATOR_Initialize:
 10906                           	opt callstack 0
 10907                           
 10908 ;; *************** function _NCO1_Initialize *****************
 10909 ;; Defined at:
 10910 ;;		line 58 in file "mcc_generated_files/nco1.c"
 10911 ;; Parameters:    Size  Location     Type
 10912 ;;		None
 10913 ;; Auto vars:     Size  Location     Type
 10914 ;;		None
 10915 ;; Return value:  Size  Location     Type
 10916 ;;                  1  [STACK] void 
 10917 ;; Registers used:
 10918 ;;		wreg, status,2
 10919 ;; Tracked objects:
 10920 ;;		On entry : 0/39
 10921 ;;		On exit  : 3F/3F
 10922 ;;		Unchanged: 0/0
 10923 ;; Data sizes:     COMRAM   BANK0   BANK1   BANK2   BANK3   BANK4   BANK5   BANK6   BANK7   BANK8   BANK9  BANK10  BANK1
      +1  BANK12  BANK13  BANK14  BANK15  BANK16  BANK17  BANK18  BANK19  BANK20  BANK21  BANK22  BANK23  BANK24  BANK25  BANK2
      +6  BANK27  BANK28  BANK29  BANK30  BANK31
 10924 ;;      Params:         0       0       0       0       0       0       0       0       0       0       0       0       
      +0       0       0       0       0       0       0       0       0       0       0       0       0       0       0       
      +0       0       0       0       0       0
 10925 ;;      Locals:         0       0       0       0       0       0       0       0       0       0       0       0       
      +0       0       0       0       0       0       0       0       0       0       0       0       0       0       0       
      +0       0       0       0       0       0
 10926 ;;      Temps:          0       0       0       0       0       0       0       0       0       0       0       0       
      +0       0       0       0       0       0       0       0       0       0       0       0       0       0       0       
      +0       0       0       0       0       0
 10927 ;;      Totals:         0       0       0       0       0       0       0       0       0       0       0       0       
      +0       0       0       0       0       0       0       0       0       0       0       0       0       0       0       
      +0       0       0       0       0       0
 10928 ;;Total ram usage:        0 bytes
 10929 ;; Hardware stack levels used:    1
 10930 ;; Hardware stack levels required when called:    3
 10931 ;; This function calls:
 10932 ;;		Nothing
 10933 ;; This function is called by:
 10934 ;;		_SYSTEM_Initialize
 10935 ;; This function uses a reentrant model
 10936 ;;
 10937                           
 10938                           	psect	text59
 10939  00561C                     __ptext59:
 10940                           	opt callstack 0
 10941  00561C                     _NCO1_Initialize:
 10942                           	opt callstack 26
 10943                           
 10944                           ;mcc_generated_files/nco1.c: 62:     NCO1CON = 0x00;
 10945                           
 10946                           ; BSR set to: 57
 10947                           ; autosize = 0, savesize = 0, parsavesize = 0, tempsize = 0 parsize = 0, argsize = 0 var
      +                          gsize = 0, retsize = 0 argfudge = 0
 10948                           ;incstack = 0
 10949  00561C  013F               	movlb	63	; () banked
 10950  00561E  6B3E               	clrf	62,b	;volatile
 10951                           
 10952                           ;mcc_generated_files/nco1.c: 64:     NCO1CLK = 0x00;
 10953  005620  6B3F               	clrf	63,b	;volatile
 10954                           
 10955                           ;mcc_generated_files/nco1.c: 66:     NCO1ACCU = 0x00;
 10956  005622  6B3A               	clrf	58,b	;volatile
 10957                           
 10958                           ;mcc_generated_files/nco1.c: 68:     NCO1ACCH = 0x00;
 10959  005624  6B39               	clrf	57,b	;volatile
 10960                           
 10961                           ;mcc_generated_files/nco1.c: 70:     NCO1ACCL = 0x00;
 10962  005626  6B38               	clrf	56,b	;volatile
 10963                           
 10964                           ; BSR set to: 63
 10965                           ;mcc_generated_files/nco1.c: 72:     NCO1INCU = 0x06;
 10966  005628  0E06               	movlw	6
 10967  00562A  6F3D               	movwf	61,b	;volatile
 10968                           
 10969                           ;mcc_generated_files/nco1.c: 74:     NCO1INCH = 0xC7;
 10970  00562C  0EC7               	movlw	199
 10971  00562E  6F3C               	movwf	60,b	;volatile
 10972                           
 10973                           ;mcc_generated_files/nco1.c: 76:     NCO1INCL = 0xAE;
 10974  005630  0EAE               	movlw	174
 10975  005632  6F3B               	movwf	59,b	;volatile
 10976                           
 10977                           ; BSR set to: 63
 10978                           ;mcc_generated_files/nco1.c: 79:     NCO1CONbits.EN = 1;
 10979  005634  8F3E               	bsf	62,7,b	;volatile
 10980                           
 10981                           ; BSR set to: 63
 10982                           ; _NCO1_Initialize: autosize = 0, savesize = 0, parsavesize = 0, tempsize = 0 parsize = 
      +                          0, argsize = 0, vargsize = 0
 10983  005636  0012               	return		;funcret
 10984  005638                     __end_of_NCO1_Initialize:
 10985                           	opt callstack 0
 10986                           
 10987 ;; *************** function _INTERRUPT_Initialize *****************
 10988 ;; Defined at:
 10989 ;;		line 52 in file "mcc_generated_files/interrupt_manager.c"
 10990 ;; Parameters:    Size  Location     Type
 10991 ;;		None
 10992 ;; Auto vars:     Size  Location     Type
 10993 ;;  state           1  [STACK] _Bool 
 10994 ;; Return value:  Size  Location     Type
 10995 ;;                  1  [STACK] void 
 10996 ;; Registers used:
 10997 ;;		wreg, fsr1l, fsr1h, status,2, btemp+11
 10998 ;; Tracked objects:
 10999 ;;		On entry : 0/0
 11000 ;;		On exit  : 3F/39
 11001 ;;		Unchanged: 0/0
 11002 ;; Data sizes:     COMRAM   BANK0   BANK1   BANK2   BANK3   BANK4   BANK5   BANK6   BANK7   BANK8   BANK9  BANK10  BANK1
      +1  BANK12  BANK13  BANK14  BANK15  BANK16  BANK17  BANK18  BANK19  BANK20  BANK21  BANK22  BANK23  BANK24  BANK25  BANK2
      +6  BANK27  BANK28  BANK29  BANK30  BANK31
 11003 ;;      Params:         0       0       0       0       0       0       0       0       0       0       0       0       
      +0       0       0       0       0       0       0       0       0       0       0       0       0       0       0       
      +0       0       0       0       0       0
 11004 ;;      Locals:         0       0       0       0       0       0       0       0       0       0       0       0       
      +0       0       0       0       0       0       0       0       0       0       0       0       0       0       0       
      +0       0       0       0       0       0
 11005 ;;      Temps:          0       0       0       0       0       0       0       0       0       0       0       0       
      +0       0       0       0       0       0       0       0       0       0       0       0       0       0       0       
      +0       0       0       0       0       0
 11006 ;;      Totals:         0       0       0       0       0       0       0       0       0       0       0       0       
      +0       0       0       0       0       0       0       0       0       0       0       0       0       0       0       
      +0       0       0       0       0       0
 11007 ;;Total ram usage:        0 bytes
 11008 ;; Hardware stack levels used:    1
 11009 ;; Hardware stack levels required when called:    3
 11010 ;; This function calls:
 11011 ;;		Nothing
 11012 ;; This function is called by:
 11013 ;;		_SYSTEM_Initialize
 11014 ;; This function uses a reentrant model
 11015 ;;
 11016                           
 11017                           	psect	text60
 11018  004C62                     __ptext60:
 11019                           	opt callstack 0
 11020  004C62                     _INTERRUPT_Initialize:
 11021                           	opt callstack 0
 11022                           
 11023                           ; BSR set to: 63
 11024                           ; autosize = 1, savesize = 0, parsavesize = 0, tempsize = 0 parsize = 0, argsize = 0 var
      +                          gsize = 0, retsize = 0 argfudge = 0
 11025  004C62  52E6               	movf	postinc1,f,c
 11026                           
 11027                           ;mcc_generated_files/interrupt_manager.c: 54:     INTCON0bits.IPEN = 1;
 11028                           
 11029                           ;incstack = 0
 11030  004C64  8AD2               	bsf	16338,5,c	;volatile
 11031                           
 11032                           ;mcc_generated_files/interrupt_manager.c: 56:     _Bool state = (unsigned char)GIE;
 11033  004C66  AED2               	btfss	16338,7,c	;volatile
 11034  004C68  D003               	goto	u3100
 11035  004C6A  6A42               	clrf	btemp+11,c
 11036  004C6C  2A42               	incf	btemp+11,f,c
 11037  004C6E  D001               	goto	u3118
 11038  004C70                     u3100:
 11039  004C70  6A42               	clrf	btemp+11,c
 11040  004C72                     u3118:
 11041                           
 11042                           ;stkvar	_state @ sp[(-1)+0]
 11043  004C72  0EFF               	movlw	-1
 11044  004C74  0060  F10B  FFE3   	movff	btemp+11,plusw1
 11045                           
 11046                           ;mcc_generated_files/interrupt_manager.c: 57:     GIE = 0;
 11047  004C7A  9ED2               	bcf	16338,7,c	;volatile
 11048                           
 11049                           ;mcc_generated_files/interrupt_manager.c: 58:     IVTLOCK = 0x55;
 11050  004C7C  0E55               	movlw	85
 11051  004C7E  6ED4               	movwf	16340,c	;volatile
 11052                           
 11053                           ;mcc_generated_files/interrupt_manager.c: 59:     IVTLOCK = 0xAA;
 11054  004C80  0EAA               	movlw	170
 11055  004C82  6ED4               	movwf	16340,c	;volatile
 11056                           
 11057                           ;mcc_generated_files/interrupt_manager.c: 60:     IVTLOCKbits.IVTLOCKED = 0x00;
 11058  004C84  90D4               	bcf	16340,0,c	;volatile
 11059                           
 11060                           ;mcc_generated_files/interrupt_manager.c: 62:     IVTADU = 0;
 11061  004C86  0138               	movlb	56	; () banked
 11062  004C88  6B9F               	clrf	159,b	;volatile
 11063                           
 11064                           ; BSR set to: 56
 11065                           ;mcc_generated_files/interrupt_manager.c: 63:     IVTADH = 0;
 11066  004C8A  6B9E               	clrf	158,b	;volatile
 11067                           
 11068                           ; BSR set to: 56
 11069                           ;mcc_generated_files/interrupt_manager.c: 64:     IVTADL = 8;
 11070  004C8C  0E08               	movlw	8
 11071  004C8E  6F9D               	movwf	157,b	;volatile
 11072                           
 11073                           ; BSR set to: 56
 11074                           ;mcc_generated_files/interrupt_manager.c: 66:     IVTLOCK = 0x55;
 11075  004C90  0E55               	movlw	85
 11076  004C92  6ED4               	movwf	16340,c	;volatile
 11077                           
 11078                           ; BSR set to: 56
 11079                           ;mcc_generated_files/interrupt_manager.c: 67:     IVTLOCK = 0xAA;
 11080  004C94  0EAA               	movlw	170
 11081  004C96  6ED4               	movwf	16340,c	;volatile
 11082                           
 11083                           ; BSR set to: 56
 11084                           ;mcc_generated_files/interrupt_manager.c: 68:     IVTLOCKbits.IVTLOCKED = 0x01;
 11085  004C98  80D4               	bsf	16340,0,c	;volatile
 11086                           
 11087                           ; BSR set to: 56
 11088                           ;mcc_generated_files/interrupt_manager.c: 70:     GIE = state;
 11089                           ;stkvar	_state @ sp[(-1)+0]
 11090  004C9A  0EFF               	movlw	-1
 11091  004C9C  B0E3               	btfsc	plusw1,0,c
 11092  004C9E  D002               	bra	u3125
 11093  004CA0  9ED2               	bcf	16338,7,c	;volatile
 11094  004CA2  D001               	bra	u3126
 11095  004CA4                     u3125:
 11096  004CA4  8ED2               	bsf	16338,7,c	;volatile
 11097  004CA6                     u3126:
 11098                           
 11099                           ;mcc_generated_files/interrupt_manager.c: 72:     IPR2bits.DMA1AIP = 1;
 11100  004CA6  0139               	movlb	57	; () banked
 11101  004CA8  8782               	bsf	130,3,b	;volatile
 11102                           
 11103                           ; BSR set to: 57
 11104                           ;mcc_generated_files/interrupt_manager.c: 73:     IPR2bits.DMA1DCNTIP = 1;
 11105  004CAA  8382               	bsf	130,1,b	;volatile
 11106                           
 11107                           ; BSR set to: 57
 11108                           ;mcc_generated_files/interrupt_manager.c: 74:     IPR2bits.DMA1SCNTIP = 1;
 11109  004CAC  8182               	bsf	130,0,b	;volatile
 11110                           
 11111                           ; BSR set to: 57
 11112                           ;mcc_generated_files/interrupt_manager.c: 75:     IPR2bits.DMA1ORIP = 1;
 11113  004CAE  8582               	bsf	130,2,b	;volatile
 11114                           
 11115                           ; BSR set to: 57
 11116                           ;mcc_generated_files/interrupt_manager.c: 76:     IPR6bits.U2TXIP = 1;
 11117  004CB0  8786               	bsf	134,3,b	;volatile
 11118                           
 11119                           ; BSR set to: 57
 11120                           ;mcc_generated_files/interrupt_manager.c: 77:     IPR6bits.U2RXIP = 1;
 11121  004CB2  8586               	bsf	134,2,b	;volatile
 11122                           
 11123                           ; BSR set to: 57
 11124                           ;mcc_generated_files/interrupt_manager.c: 78:     IPR3bits.U1TXIP = 1;
 11125  004CB4  8983               	bsf	131,4,b	;volatile
 11126                           
 11127                           ; BSR set to: 57
 11128                           ;mcc_generated_files/interrupt_manager.c: 79:     IPR3bits.U1RXIP = 1;
 11129  004CB6  8783               	bsf	131,3,b	;volatile
 11130                           
 11131                           ; BSR set to: 57
 11132                           ;mcc_generated_files/interrupt_manager.c: 80:     IPR1bits.INT0IP = 1;
 11133  004CB8  8181               	bsf	129,0,b	;volatile
 11134                           
 11135                           ; BSR set to: 57
 11136                           ;mcc_generated_files/interrupt_manager.c: 81:     IPR5bits.INT1IP = 1;
 11137  004CBA  8185               	bsf	133,0,b	;volatile
 11138                           
 11139                           ; BSR set to: 57
 11140                           ;mcc_generated_files/interrupt_manager.c: 82:     IPR7bits.INT2IP = 1;
 11141  004CBC  8B87               	bsf	135,5,b	;volatile
 11142                           
 11143                           ; BSR set to: 57
 11144                           ;mcc_generated_files/interrupt_manager.c: 83:     IPR9bits.TMR6IP = 1;
 11145  004CBE  8189               	bsf	137,0,b	;volatile
 11146                           
 11147                           ; BSR set to: 57
 11148                           ;mcc_generated_files/interrupt_manager.c: 84:     IPR1bits.ADIP = 1;
 11149  004CC0  8581               	bsf	129,2,b	;volatile
 11150                           
 11151                           ; BSR set to: 57
 11152                           ; _INTERRUPT_Initialize: autosize = 1, savesize = 0, parsavesize = 0, tempsize = 0 parsi
      +                          ze = 0, argsize = 0, vargsize = 0
 11153  004CC2  52E5               	movf	postdec1,f,c
 11154  004CC4  0012               	return		;funcret
 11155  004CC6                     __end_of_INTERRUPT_Initialize:
 11156                           	opt callstack 0
 11157                           
 11158 ;; *************** function _EXT_INT_Initialize *****************
 11159 ;; Defined at:
 11160 ;;		line 114 in file "mcc_generated_files/ext_int.c"
 11161 ;; Parameters:    Size  Location     Type
 11162 ;;		None
 11163 ;; Auto vars:     Size  Location     Type
 11164 ;;		None
 11165 ;; Return value:  Size  Location     Type
 11166 ;;                  1  [STACK] void 
 11167 ;; Registers used:
 11168 ;;		wreg, fsr1l, fsr1h, fsr2l, fsr2h
 11169 ;; Tracked objects:
 11170 ;;		On entry : 3F/3F
 11171 ;;		On exit  : 3F/39
 11172 ;;		Unchanged: 0/0
 11173 ;; Data sizes:     COMRAM   BANK0   BANK1   BANK2   BANK3   BANK4   BANK5   BANK6   BANK7   BANK8   BANK9  BANK10  BANK1
      +1  BANK12  BANK13  BANK14  BANK15  BANK16  BANK17  BANK18  BANK19  BANK20  BANK21  BANK22  BANK23  BANK24  BANK25  BANK2
      +6  BANK27  BANK28  BANK29  BANK30  BANK31
 11174 ;;      Params:         0       0       0       0       0       0       0       0       0       0       0       0       
      +0       0       0       0       0       0       0       0       0       0       0       0       0       0       0       
      +0       0       0       0       0       0
 11175 ;;      Locals:         0       0       0       0       0       0       0       0       0       0       0       0       
      +0       0       0       0       0       0       0       0       0       0       0       0       0       0       0       
      +0       0       0       0       0       0
 11176 ;;      Temps:          0       0       0       0       0       0       0       0       0       0       0       0       
      +0       0       0       0       0       0       0       0       0       0       0       0       0       0       0       
      +0       0       0       0       0       0
 11177 ;;      Totals:         0       0       0       0       0       0       0       0       0       0       0       0       
      +0       0       0       0       0       0       0       0       0       0       0       0       0       0       0       
      +0       0       0       0       0       0
 11178 ;;Total ram usage:        0 bytes
 11179 ;; Hardware stack levels used:    1
 11180 ;; Hardware stack levels required when called:    4
 11181 ;; This function calls:
 11182 ;;		_INT0_SetInterruptHandler
 11183 ;;		_INT1_SetInterruptHandler
 11184 ;;		_INT2_SetInterruptHandler
 11185 ;; This function is called by:
 11186 ;;		_SYSTEM_Initialize
 11187 ;; This function uses a reentrant model
 11188 ;;
 11189                           
 11190                           	psect	text61
 11191  004E8E                     __ptext61:
 11192                           	opt callstack 0
 11193  004E8E                     _EXT_INT_Initialize:
 11194                           	opt callstack 25
 11195                           
 11196                           ;mcc_generated_files/ext_int.c: 119:     (PIR1bits.INT0IF = 0);
 11197                           
 11198                           ; BSR set to: 57
 11199                           ; autosize = 0, savesize = 0, parsavesize = 0, tempsize = 0 parsize = 0, argsize = 0 var
      +                          gsize = 0, retsize = 0 argfudge = 0
 11200                           ;incstack = 0
 11201  004E8E  0139               	movlb	57	; () banked
 11202  004E90  91A1               	bcf	161,0,b	;volatile
 11203                           
 11204                           ;mcc_generated_files/ext_int.c: 120:     (INTCON0bits.INT0EDG = 0);
 11205  004E92  90D2               	bcf	16338,0,c	;volatile
 11206                           
 11207                           ; BSR set to: 57
 11208                           ;mcc_generated_files/ext_int.c: 122:     INT0_SetInterruptHandler(INT0_DefaultInterruptH
      +                          andler);
 11209  004E94  0E52               	movlw	low _INT0_DefaultInterruptHandler
 11210  004E96  6EE6               	movwf	postinc1,c
 11211  004E98  0E57               	movlw	high _INT0_DefaultInterruptHandler
 11212  004E9A  6EE6               	movwf	postinc1,c
 11213  004E9C  0E00               	movlw	low (_INT0_DefaultInterruptHandler shr (0+16))
 11214  004E9E  6EE6               	movwf	postinc1,c
 11215  004EA0  ECCB  F029         	call	_INT0_SetInterruptHandler	;wreg free
 11216                           
 11217                           ;mcc_generated_files/ext_int.c: 123:     (PIE1bits.INT0IE = 1);
 11218  004EA4  0139               	movlb	57	; () banked
 11219  004EA6  8191               	bsf	145,0,b	;volatile
 11220                           
 11221                           ; BSR set to: 57
 11222                           ;mcc_generated_files/ext_int.c: 128:     (PIR5bits.INT1IF = 0);
 11223  004EA8  91A5               	bcf	165,0,b	;volatile
 11224                           
 11225                           ; BSR set to: 57
 11226                           ;mcc_generated_files/ext_int.c: 129:     (INTCON0bits.INT1EDG = 0);
 11227  004EAA  92D2               	bcf	16338,1,c	;volatile
 11228                           
 11229                           ;mcc_generated_files/ext_int.c: 131:     INT1_SetInterruptHandler(INT1_DefaultInterruptH
      +                          andler);
 11230  004EAC  0E54               	movlw	low _INT1_DefaultInterruptHandler
 11231  004EAE  6EE6               	movwf	postinc1,c
 11232  004EB0  0E57               	movlw	high _INT1_DefaultInterruptHandler
 11233  004EB2  6EE6               	movwf	postinc1,c
 11234  004EB4  0E00               	movlw	low (_INT1_DefaultInterruptHandler shr (0+16))
 11235  004EB6  6EE6               	movwf	postinc1,c
 11236  004EB8  ECB7  F029         	call	_INT1_SetInterruptHandler	;wreg free
 11237                           
 11238                           ;mcc_generated_files/ext_int.c: 132:     (PIE5bits.INT1IE = 1);
 11239  004EBC  0139               	movlb	57	; () banked
 11240  004EBE  8195               	bsf	149,0,b	;volatile
 11241                           
 11242                           ; BSR set to: 57
 11243                           ;mcc_generated_files/ext_int.c: 137:     (PIR7bits.INT2IF = 0);
 11244  004EC0  9BA7               	bcf	167,5,b	;volatile
 11245                           
 11246                           ; BSR set to: 57
 11247                           ;mcc_generated_files/ext_int.c: 138:     (INTCON0bits.INT2EDG = 0);
 11248  004EC2  94D2               	bcf	16338,2,c	;volatile
 11249                           
 11250                           ;mcc_generated_files/ext_int.c: 140:     INT2_SetInterruptHandler(INT2_DefaultInterruptH
      +                          andler);
 11251  004EC4  0E56               	movlw	low _INT2_DefaultInterruptHandler
 11252  004EC6  6EE6               	movwf	postinc1,c
 11253  004EC8  0E57               	movlw	high _INT2_DefaultInterruptHandler
 11254  004ECA  6EE6               	movwf	postinc1,c
 11255  004ECC  0E00               	movlw	low (_INT2_DefaultInterruptHandler shr (0+16))
 11256  004ECE  6EE6               	movwf	postinc1,c
 11257  004ED0  ECA3  F029         	call	_INT2_SetInterruptHandler	;wreg free
 11258                           
 11259                           ;mcc_generated_files/ext_int.c: 141:     (PIE7bits.INT2IE = 1);
 11260  004ED4  0139               	movlb	57	; () banked
 11261  004ED6  8B97               	bsf	151,5,b	;volatile
 11262                           
 11263                           ; BSR set to: 57
 11264                           ; _EXT_INT_Initialize: autosize = 0, savesize = 0, parsavesize = 0, tempsize = 0 parsize
      +                           = 0, argsize = 0, vargsize = 0
 11265  004ED8  0012               	return		;funcret
 11266  004EDA                     __end_of_EXT_INT_Initialize:
 11267                           	opt callstack 0
 11268                           
 11269 ;; *************** function _INT2_SetInterruptHandler *****************
 11270 ;; Defined at:
 11271 ;;		line 105 in file "mcc_generated_files/ext_int.c"
 11272 ;; Parameters:    Size  Location     Type
 11273 ;;  InterruptHan    3  [STACK] PTR FTN()void 
 11274 ;;		 -> INT2_DefaultInterruptHandler(1), 
 11275 ;; Auto vars:     Size  Location     Type
 11276 ;;		None
 11277 ;; Return value:  Size  Location     Type
 11278 ;;                  1  [STACK] void 
 11279 ;; Registers used:
 11280 ;;		wreg, fsr1l, fsr1h, fsr2l, fsr2h
 11281 ;; Tracked objects:
 11282 ;;		On entry : 3F/39
 11283 ;;		On exit  : 0/0
 11284 ;;		Unchanged: 0/0
 11285 ;; Data sizes:     COMRAM   BANK0   BANK1   BANK2   BANK3   BANK4   BANK5   BANK6   BANK7   BANK8   BANK9  BANK10  BANK1
      +1  BANK12  BANK13  BANK14  BANK15  BANK16  BANK17  BANK18  BANK19  BANK20  BANK21  BANK22  BANK23  BANK24  BANK25  BANK2
      +6  BANK27  BANK28  BANK29  BANK30  BANK31
 11286 ;;      Params:         0       0       0       0       0       0       0       0       0       0       0       0       
      +0       0       0       0       0       0       0       0       0       0       0       0       0       0       0       
      +0       0       0       0       0       0
 11287 ;;      Locals:         0       0       0       0       0       0       0       0       0       0       0       0       
      +0       0       0       0       0       0       0       0       0       0       0       0       0       0       0       
      +0       0       0       0       0       0
 11288 ;;      Temps:          0       0       0       0       0       0       0       0       0       0       0       0       
      +0       0       0       0       0       0       0       0       0       0       0       0       0       0       0       
      +0       0       0       0       0       0
 11289 ;;      Totals:         0       0       0       0       0       0       0       0       0       0       0       0       
      +0       0       0       0       0       0       0       0       0       0       0       0       0       0       0       
      +0       0       0       0       0       0
 11290 ;;Total ram usage:        0 bytes
 11291 ;; Hardware stack levels used:    1
 11292 ;; Hardware stack levels required when called:    3
 11293 ;; This function calls:
 11294 ;;		Nothing
 11295 ;; This function is called by:
 11296 ;;		_EXT_INT_Initialize
 11297 ;; This function uses a reentrant model
 11298 ;;
 11299                           
 11300                           	psect	text62
 11301  005346                     __ptext62:
 11302                           	opt callstack 0
 11303  005346                     _INT2_SetInterruptHandler:
 11304                           	opt callstack 25
 11305                           
 11306                           ;mcc_generated_files/ext_int.c: 106:     INT2_InterruptHandler = InterruptHandler;
 11307                           ;stkvar	_InterruptHandler @ sp[(0)+-3]
 11308                           
 11309                           ; BSR set to: 57
 11310                           ; autosize = 0, savesize = 0, parsavesize = 0, tempsize = 0 parsize = 3, argsize = 3 var
      +                          gsize = 0, retsize = 0 argfudge = 0
 11311                           ;incstack = 0
 11312  005346  50E1               	movf	fsr1l,w,c
 11313  005348  0FFD               	addlw	-3
 11314  00534A  6ED9               	movwf	fsr2l,c
 11315  00534C  50E2               	movf	fsr1h,w,c
 11316  00534E  6EDA               	movwf	fsr2h,c
 11317  005350  0EFF               	movlw	255
 11318  005352  22DA               	addwfc	fsr2h,f,c
 11319  005354  006F FF78  F017    	movff	postinc2,_INT2_InterruptHandler
 11320  00535A  006F FF78  F018    	movff	postinc2,_INT2_InterruptHandler+1
 11321  005360  006F FF74  F019    	movff	postdec2,_INT2_InterruptHandler+2
 11322                           
 11323                           ; _INT2_SetInterruptHandler: autosize = 0, savesize = 0, parsavesize = 0, tempsize = 0 p
      +                          arsize = 3, argsize = 3, vargsize = 0
 11324  005366  52E5               	movf	postdec1,f,c
 11325  005368  52E5               	movf	postdec1,f,c
 11326  00536A  52E5               	movf	postdec1,f,c
 11327  00536C  0012               	return		;funcret
 11328  00536E                     __end_of_INT2_SetInterruptHandler:
 11329                           	opt callstack 0
 11330                           
 11331 ;; *************** function _INT1_SetInterruptHandler *****************
 11332 ;; Defined at:
 11333 ;;		line 79 in file "mcc_generated_files/ext_int.c"
 11334 ;; Parameters:    Size  Location     Type
 11335 ;;  InterruptHan    3  [STACK] PTR FTN()void 
 11336 ;;		 -> INT1_DefaultInterruptHandler(1), 
 11337 ;; Auto vars:     Size  Location     Type
 11338 ;;		None
 11339 ;; Return value:  Size  Location     Type
 11340 ;;                  1  [STACK] void 
 11341 ;; Registers used:
 11342 ;;		wreg, fsr1l, fsr1h, fsr2l, fsr2h
 11343 ;; Tracked objects:
 11344 ;;		On entry : 3F/39
 11345 ;;		On exit  : 0/0
 11346 ;;		Unchanged: 0/0
 11347 ;; Data sizes:     COMRAM   BANK0   BANK1   BANK2   BANK3   BANK4   BANK5   BANK6   BANK7   BANK8   BANK9  BANK10  BANK1
      +1  BANK12  BANK13  BANK14  BANK15  BANK16  BANK17  BANK18  BANK19  BANK20  BANK21  BANK22  BANK23  BANK24  BANK25  BANK2
      +6  BANK27  BANK28  BANK29  BANK30  BANK31
 11348 ;;      Params:         0       0       0       0       0       0       0       0       0       0       0       0       
      +0       0       0       0       0       0       0       0       0       0       0       0       0       0       0       
      +0       0       0       0       0       0
 11349 ;;      Locals:         0       0       0       0       0       0       0       0       0       0       0       0       
      +0       0       0       0       0       0       0       0       0       0       0       0       0       0       0       
      +0       0       0       0       0       0
 11350 ;;      Temps:          0       0       0       0       0       0       0       0       0       0       0       0       
      +0       0       0       0       0       0       0       0       0       0       0       0       0       0       0       
      +0       0       0       0       0       0
 11351 ;;      Totals:         0       0       0       0       0       0       0       0       0       0       0       0       
      +0       0       0       0       0       0       0       0       0       0       0       0       0       0       0       
      +0       0       0       0       0       0
 11352 ;;Total ram usage:        0 bytes
 11353 ;; Hardware stack levels used:    1
 11354 ;; Hardware stack levels required when called:    3
 11355 ;; This function calls:
 11356 ;;		Nothing
 11357 ;; This function is called by:
 11358 ;;		_EXT_INT_Initialize
 11359 ;; This function uses a reentrant model
 11360 ;;
 11361                           
 11362                           	psect	text63
 11363  00536E                     __ptext63:
 11364                           	opt callstack 0
 11365  00536E                     _INT1_SetInterruptHandler:
 11366                           	opt callstack 25
 11367                           
 11368                           ;mcc_generated_files/ext_int.c: 80:     INT1_InterruptHandler = InterruptHandler;
 11369                           ;stkvar	_InterruptHandler @ sp[(0)+-3]
 11370                           
 11371                           ; autosize = 0, savesize = 0, parsavesize = 0, tempsize = 0 parsize = 3, argsize = 3 var
      +                          gsize = 0, retsize = 0 argfudge = 0
 11372                           ;incstack = 0
 11373  00536E  50E1               	movf	fsr1l,w,c
 11374  005370  0FFD               	addlw	-3
 11375  005372  6ED9               	movwf	fsr2l,c
 11376  005374  50E2               	movf	fsr1h,w,c
 11377  005376  6EDA               	movwf	fsr2h,c
 11378  005378  0EFF               	movlw	255
 11379  00537A  22DA               	addwfc	fsr2h,f,c
 11380  00537C  006F FF78  F01A    	movff	postinc2,_INT1_InterruptHandler
 11381  005382  006F FF78  F01B    	movff	postinc2,_INT1_InterruptHandler+1
 11382  005388  006F FF74  F01C    	movff	postdec2,_INT1_InterruptHandler+2
 11383                           
 11384                           ; _INT1_SetInterruptHandler: autosize = 0, savesize = 0, parsavesize = 0, tempsize = 0 p
      +                          arsize = 3, argsize = 3, vargsize = 0
 11385  00538E  52E5               	movf	postdec1,f,c
 11386  005390  52E5               	movf	postdec1,f,c
 11387  005392  52E5               	movf	postdec1,f,c
 11388  005394  0012               	return		;funcret
 11389  005396                     __end_of_INT1_SetInterruptHandler:
 11390                           	opt callstack 0
 11391                           
 11392 ;; *************** function _INT0_SetInterruptHandler *****************
 11393 ;; Defined at:
 11394 ;;		line 53 in file "mcc_generated_files/ext_int.c"
 11395 ;; Parameters:    Size  Location     Type
 11396 ;;  InterruptHan    3  [STACK] PTR FTN()void 
 11397 ;;		 -> INT0_DefaultInterruptHandler(1), 
 11398 ;; Auto vars:     Size  Location     Type
 11399 ;;		None
 11400 ;; Return value:  Size  Location     Type
 11401 ;;                  1  [STACK] void 
 11402 ;; Registers used:
 11403 ;;		wreg, fsr1l, fsr1h, fsr2l, fsr2h
 11404 ;; Tracked objects:
 11405 ;;		On entry : 3F/39
 11406 ;;		On exit  : 0/0
 11407 ;;		Unchanged: 0/0
 11408 ;; Data sizes:     COMRAM   BANK0   BANK1   BANK2   BANK3   BANK4   BANK5   BANK6   BANK7   BANK8   BANK9  BANK10  BANK1
      +1  BANK12  BANK13  BANK14  BANK15  BANK16  BANK17  BANK18  BANK19  BANK20  BANK21  BANK22  BANK23  BANK24  BANK25  BANK2
      +6  BANK27  BANK28  BANK29  BANK30  BANK31
 11409 ;;      Params:         0       0       0       0       0       0       0       0       0       0       0       0       
      +0       0       0       0       0       0       0       0       0       0       0       0       0       0       0       
      +0       0       0       0       0       0
 11410 ;;      Locals:         0       0       0       0       0       0       0       0       0       0       0       0       
      +0       0       0       0       0       0       0       0       0       0       0       0       0       0       0       
      +0       0       0       0       0       0
 11411 ;;      Temps:          0       0       0       0       0       0       0       0       0       0       0       0       
      +0       0       0       0       0       0       0       0       0       0       0       0       0       0       0       
      +0       0       0       0       0       0
 11412 ;;      Totals:         0       0       0       0       0       0       0       0       0       0       0       0       
      +0       0       0       0       0       0       0       0       0       0       0       0       0       0       0       
      +0       0       0       0       0       0
 11413 ;;Total ram usage:        0 bytes
 11414 ;; Hardware stack levels used:    1
 11415 ;; Hardware stack levels required when called:    3
 11416 ;; This function calls:
 11417 ;;		Nothing
 11418 ;; This function is called by:
 11419 ;;		_EXT_INT_Initialize
 11420 ;; This function uses a reentrant model
 11421 ;;
 11422                           
 11423                           	psect	text64
 11424  005396                     __ptext64:
 11425                           	opt callstack 0
 11426  005396                     _INT0_SetInterruptHandler:
 11427                           	opt callstack 25
 11428                           
 11429                           ;mcc_generated_files/ext_int.c: 54:     INT0_InterruptHandler = InterruptHandler;
 11430                           ;stkvar	_InterruptHandler @ sp[(0)+-3]
 11431                           
 11432                           ; autosize = 0, savesize = 0, parsavesize = 0, tempsize = 0 parsize = 3, argsize = 3 var
      +                          gsize = 0, retsize = 0 argfudge = 0
 11433                           ;incstack = 0
 11434  005396  50E1               	movf	fsr1l,w,c
 11435  005398  0FFD               	addlw	-3
 11436  00539A  6ED9               	movwf	fsr2l,c
 11437  00539C  50E2               	movf	fsr1h,w,c
 11438  00539E  6EDA               	movwf	fsr2h,c
 11439  0053A0  0EFF               	movlw	255
 11440  0053A2  22DA               	addwfc	fsr2h,f,c
 11441  0053A4  006F FF78  F01D    	movff	postinc2,_INT0_InterruptHandler
 11442  0053AA  006F FF78  F01E    	movff	postinc2,_INT0_InterruptHandler+1
 11443  0053B0  006F FF74  F01F    	movff	postdec2,_INT0_InterruptHandler+2
 11444                           
 11445                           ; _INT0_SetInterruptHandler: autosize = 0, savesize = 0, parsavesize = 0, tempsize = 0 p
      +                          arsize = 3, argsize = 3, vargsize = 0
 11446  0053B6  52E5               	movf	postdec1,f,c
 11447  0053B8  52E5               	movf	postdec1,f,c
 11448  0053BA  52E5               	movf	postdec1,f,c
 11449  0053BC  0012               	return		;funcret
 11450  0053BE                     __end_of_INT0_SetInterruptHandler:
 11451                           	opt callstack 0
 11452                           
 11453 ;; *************** function _DSM_Initialize *****************
 11454 ;; Defined at:
 11455 ;;		line 58 in file "mcc_generated_files/dsm.c"
 11456 ;; Parameters:    Size  Location     Type
 11457 ;;		None
 11458 ;; Auto vars:     Size  Location     Type
 11459 ;;		None
 11460 ;; Return value:  Size  Location     Type
 11461 ;;                  1  [STACK] void 
 11462 ;; Registers used:
 11463 ;;		wreg, status,2
 11464 ;; Tracked objects:
 11465 ;;		On entry : 3F/3C
 11466 ;;		On exit  : 3F/3C
 11467 ;;		Unchanged: 0/0
 11468 ;; Data sizes:     COMRAM   BANK0   BANK1   BANK2   BANK3   BANK4   BANK5   BANK6   BANK7   BANK8   BANK9  BANK10  BANK1
      +1  BANK12  BANK13  BANK14  BANK15  BANK16  BANK17  BANK18  BANK19  BANK20  BANK21  BANK22  BANK23  BANK24  BANK25  BANK2
      +6  BANK27  BANK28  BANK29  BANK30  BANK31
 11469 ;;      Params:         0       0       0       0       0       0       0       0       0       0       0       0       
      +0       0       0       0       0       0       0       0       0       0       0       0       0       0       0       
      +0       0       0       0       0       0
 11470 ;;      Locals:         0       0       0       0       0       0       0       0       0       0       0       0       
      +0       0       0       0       0       0       0       0       0       0       0       0       0       0       0       
      +0       0       0       0       0       0
 11471 ;;      Temps:          0       0       0       0       0       0       0       0       0       0       0       0       
      +0       0       0       0       0       0       0       0       0       0       0       0       0       0       0       
      +0       0       0       0       0       0
 11472 ;;      Totals:         0       0       0       0       0       0       0       0       0       0       0       0       
      +0       0       0       0       0       0       0       0       0       0       0       0       0       0       0       
      +0       0       0       0       0       0
 11473 ;;Total ram usage:        0 bytes
 11474 ;; Hardware stack levels used:    1
 11475 ;; Hardware stack levels required when called:    3
 11476 ;; This function calls:
 11477 ;;		Nothing
 11478 ;; This function is called by:
 11479 ;;		_SYSTEM_Initialize
 11480 ;; This function uses a reentrant model
 11481 ;;
 11482                           
 11483                           	psect	text65
 11484  005638                     __ptext65:
 11485                           	opt callstack 0
 11486  005638                     _DSM_Initialize:
 11487                           	opt callstack 26
 11488                           
 11489                           ;mcc_generated_files/dsm.c: 63:     MD1CON0bits.MD1OPOL = 0;
 11490                           
 11491                           ; autosize = 0, savesize = 0, parsavesize = 0, tempsize = 0 parsize = 0, argsize = 0 var
      +                          gsize = 0, retsize = 0 argfudge = 0
 11492                           ;incstack = 0
 11493  005638  013C               	movlb	60	; () banked
 11494  00563A  99FA               	bcf	250,4,b	;volatile
 11495                           
 11496                           ;mcc_generated_files/dsm.c: 66:     MD1CON1bits.MD1CLSYNC = 1;
 11497  00563C  81FB               	bsf	251,0,b	;volatile
 11498                           
 11499                           ;mcc_generated_files/dsm.c: 69:     MD1CON1bits.MD1CLPOL = 0;
 11500  00563E  93FB               	bcf	251,1,b	;volatile
 11501                           
 11502                           ;mcc_generated_files/dsm.c: 72:     MD1CON1bits.MD1CHSYNC = 1;
 11503  005640  89FB               	bsf	251,4,b	;volatile
 11504                           
 11505                           ;mcc_generated_files/dsm.c: 75:     MD1CON1bits.MD1CHPOL = 0;
 11506  005642  9BFB               	bcf	251,5,b	;volatile
 11507                           
 11508                           ; BSR set to: 60
 11509                           ;mcc_generated_files/dsm.c: 78:     MD1SRC = 0x13;
 11510  005644  0E13               	movlw	19
 11511  005646  6FFC               	movwf	252,b	;volatile
 11512                           
 11513                           ;mcc_generated_files/dsm.c: 81:     MD1CARH = 0x0E;
 11514  005648  0E0E               	movlw	14
 11515  00564A  6FFE               	movwf	254,b	;volatile
 11516                           
 11517                           ;mcc_generated_files/dsm.c: 84:     MD1CARL = 0x04;
 11518  00564C  0E04               	movlw	4
 11519  00564E  6FFD               	movwf	253,b	;volatile
 11520                           
 11521                           ; BSR set to: 60
 11522                           ;mcc_generated_files/dsm.c: 87:     MD1CON0bits.MD1EN = 1;
 11523  005650  8FFA               	bsf	250,7,b	;volatile
 11524                           
 11525                           ; BSR set to: 60
 11526                           ; _DSM_Initialize: autosize = 0, savesize = 0, parsavesize = 0, tempsize = 0 parsize = 0
      +                          , argsize = 0, vargsize = 0
 11527  005652  0012               	return		;funcret
 11528  005654                     __end_of_DSM_Initialize:
 11529                           	opt callstack 0
 11530                           
 11531 ;; *************** function _DMA1_Initialize *****************
 11532 ;; Defined at:
 11533 ;;		line 86 in file "mcc_generated_files/dma1.c"
 11534 ;; Parameters:    Size  Location     Type
 11535 ;;		None
 11536 ;; Auto vars:     Size  Location     Type
 11537 ;;		None
 11538 ;; Return value:  Size  Location     Type
 11539 ;;                  1  [STACK] void 
 11540 ;; Registers used:
 11541 ;;		wreg, status,2
 11542 ;; Tracked objects:
 11543 ;;		On entry : 3F/3D
 11544 ;;		On exit  : 3F/3B
 11545 ;;		Unchanged: 0/0
 11546 ;; Data sizes:     COMRAM   BANK0   BANK1   BANK2   BANK3   BANK4   BANK5   BANK6   BANK7   BANK8   BANK9  BANK10  BANK1
      +1  BANK12  BANK13  BANK14  BANK15  BANK16  BANK17  BANK18  BANK19  BANK20  BANK21  BANK22  BANK23  BANK24  BANK25  BANK2
      +6  BANK27  BANK28  BANK29  BANK30  BANK31
 11547 ;;      Params:         0       0       0       0       0       0       0       0       0       0       0       0       
      +0       0       0       0       0       0       0       0       0       0       0       0       0       0       0       
      +0       0       0       0       0       0
 11548 ;;      Locals:         0       0       0       0       0       0       0       0       0       0       0       0       
      +0       0       0       0       0       0       0       0       0       0       0       0       0       0       0       
      +0       0       0       0       0       0
 11549 ;;      Temps:          0       0       0       0       0       0       0       0       0       0       0       0       
      +0       0       0       0       0       0       0       0       0       0       0       0       0       0       0       
      +0       0       0       0       0       0
 11550 ;;      Totals:         0       0       0       0       0       0       0       0       0       0       0       0       
      +0       0       0       0       0       0       0       0       0       0       0       0       0       0       0       
      +0       0       0       0       0       0
 11551 ;;Total ram usage:        0 bytes
 11552 ;; Hardware stack levels used:    1
 11553 ;; Hardware stack levels required when called:    3
 11554 ;; This function calls:
 11555 ;;		Nothing
 11556 ;; This function is called by:
 11557 ;;		_SYSTEM_Initialize
 11558 ;; This function uses a reentrant model
 11559 ;;
 11560                           
 11561                           	psect	text66
 11562  004B92                     __ptext66:
 11563                           	opt callstack 0
 11564  004B92                     _DMA1_Initialize:
 11565                           	opt callstack 26
 11566                           
 11567                           ;mcc_generated_files/dma1.c: 88:  DMA1SSA = 0x001000;
 11568                           
 11569                           ; BSR set to: 60
 11570                           ; autosize = 0, savesize = 0, parsavesize = 0, tempsize = 0 parsize = 0, argsize = 0 var
      +                          gsize = 0, retsize = 0 argfudge = 0
 11571                           ;incstack = 0
 11572  004B92  0E00               	movlw	0
 11573  004B94  013B               	movlb	59	; () banked
 11574  004B96  6FF9               	movwf	249,b	;volatile
 11575  004B98  0E10               	movlw	16
 11576  004B9A  6FFA               	movwf	250,b	;volatile
 11577  004B9C  0E00               	movlw	0
 11578  004B9E  6FFB               	movwf	251,b	;volatile
 11579                           
 11580                           ;mcc_generated_files/dma1.c: 89:  DMA1DSA = 0x3D11;
 11581  004BA0  0E3D               	movlw	61
 11582  004BA2  6FF1               	movwf	241,b	;volatile
 11583  004BA4  0E11               	movlw	17
 11584  004BA6  6FF0               	movwf	240,b	;volatile
 11585                           
 11586                           ;mcc_generated_files/dma1.c: 90:  DMA1CON1 = 0x03;
 11587  004BA8  0E03               	movlw	3
 11588  004BAA  6FFD               	movwf	253,b	;volatile
 11589                           
 11590                           ;mcc_generated_files/dma1.c: 91:  DMA1SSZ = 0x0001;
 11591  004BAC  0E00               	movlw	0
 11592  004BAE  6FF8               	movwf	248,b	;volatile
 11593  004BB0  0E01               	movlw	1
 11594  004BB2  6FF7               	movwf	247,b	;volatile
 11595                           
 11596                           ;mcc_generated_files/dma1.c: 92:  DMA1DSZ = 0x0001;
 11597  004BB4  0E00               	movlw	0
 11598  004BB6  6FEF               	movwf	239,b	;volatile
 11599  004BB8  0E01               	movlw	1
 11600  004BBA  6FEE               	movwf	238,b	;volatile
 11601                           
 11602                           ;mcc_generated_files/dma1.c: 93:  DMA1SIRQ = 0x15;
 11603  004BBC  0E15               	movlw	21
 11604  004BBE  6FFF               	movwf	255,b	;volatile
 11605                           
 11606                           ; BSR set to: 59
 11607                           ;mcc_generated_files/dma1.c: 94:  DMA1AIRQ = 0x0;
 11608  004BC0  6BFE               	clrf	254,b	;volatile
 11609                           
 11610                           ; BSR set to: 59
 11611                           ;mcc_generated_files/dma1.c: 96:  PIR2bits.DMA1DCNTIF = 0;
 11612  004BC2  0139               	movlb	57	; () banked
 11613  004BC4  93A2               	bcf	162,1,b	;volatile
 11614                           
 11615                           ; BSR set to: 57
 11616                           ;mcc_generated_files/dma1.c: 97:  PIR2bits.DMA1SCNTIF = 0;
 11617  004BC6  91A2               	bcf	162,0,b	;volatile
 11618                           
 11619                           ; BSR set to: 57
 11620                           ;mcc_generated_files/dma1.c: 98:  PIR2bits.DMA1AIF = 0;
 11621  004BC8  97A2               	bcf	162,3,b	;volatile
 11622                           
 11623                           ; BSR set to: 57
 11624                           ;mcc_generated_files/dma1.c: 99:  PIR2bits.DMA1ORIF = 0;
 11625  004BCA  95A2               	bcf	162,2,b	;volatile
 11626                           
 11627                           ; BSR set to: 57
 11628                           ;mcc_generated_files/dma1.c: 101:  PIE2bits.DMA1DCNTIE = 1;
 11629  004BCC  8392               	bsf	146,1,b	;volatile
 11630                           
 11631                           ; BSR set to: 57
 11632                           ;mcc_generated_files/dma1.c: 102:  PIE2bits.DMA1SCNTIE = 1;
 11633  004BCE  8192               	bsf	146,0,b	;volatile
 11634                           
 11635                           ; BSR set to: 57
 11636                           ;mcc_generated_files/dma1.c: 103:  PIE2bits.DMA1AIE = 1;
 11637  004BD0  8792               	bsf	146,3,b	;volatile
 11638                           
 11639                           ; BSR set to: 57
 11640                           ;mcc_generated_files/dma1.c: 104:  PIE2bits.DMA1ORIE = 1;
 11641  004BD2  8592               	bsf	146,2,b	;volatile
 11642                           
 11643                           ; BSR set to: 57
 11644                           ;mcc_generated_files/dma1.c: 106:  ISRPR = 0;
 11645  004BD4  6BF1               	clrf	241,b	;volatile
 11646                           
 11647                           ;mcc_generated_files/dma1.c: 107:  MAINPR = 1;
 11648  004BD6  0E01               	movlw	1
 11649  004BD8  6FF2               	movwf	242,b	;volatile
 11650                           
 11651                           ;mcc_generated_files/dma1.c: 108:  DMA1PR = 4;
 11652  004BDA  0E04               	movlw	4
 11653  004BDC  6FF3               	movwf	243,b	;volatile
 11654                           
 11655                           ;mcc_generated_files/dma1.c: 109:  DMA2PR = 2;
 11656  004BDE  0E02               	movlw	2
 11657  004BE0  6FF4               	movwf	244,b	;volatile
 11658                           
 11659                           ;mcc_generated_files/dma1.c: 110:  SCANPR = 3;
 11660  004BE2  0E03               	movlw	3
 11661  004BE4  6FF7               	movwf	247,b	;volatile
 11662  004BE6  9ED2               	bcf	16338,7,c	;# 
 11663  004BE8  0139               	banksel	14831	;# 
 11664  004BEA  0E55               	movlw	85	;# 
 11665  004BEC  6FEF               	movwf	14831,b	;# 
 11666  004BEE  0EAA               	movlw	170	;# 
 11667  004BF0  6FEF               	movwf	14831,b	;# 
 11668  004BF2  81EF               	bsf	14831,0,b	;# 
 11669  004BF4  8ED2               	bsf	16338,7,c	;# 
 11670                           
 11671                           ;mcc_generated_files/dma1.c: 123:  DMA1CON0 = 0x00;
 11672  004BF6  013B               	movlb	59	; () banked
 11673  004BF8  6BFC               	clrf	252,b	;volatile
 11674                           
 11675                           ; BSR set to: 59
 11676                           ; _DMA1_Initialize: autosize = 0, savesize = 0, parsavesize = 0, tempsize = 0 parsize = 
      +                          0, argsize = 0, vargsize = 0
 11677  004BFA  0012               	return		;funcret
 11678  004BFC                     __end_of_DMA1_Initialize:
 11679                           	opt callstack 0
 11680                           
 11681 ;; *************** function _CLKREF_Initialize *****************
 11682 ;; Defined at:
 11683 ;;		line 58 in file "mcc_generated_files/clkref.c"
 11684 ;; Parameters:    Size  Location     Type
 11685 ;;		None
 11686 ;; Auto vars:     Size  Location     Type
 11687 ;;		None
 11688 ;; Return value:  Size  Location     Type
 11689 ;;                  1  [STACK] void 
 11690 ;; Registers used:
 11691 ;;		wreg, status,2
 11692 ;; Tracked objects:
 11693 ;;		On entry : 3F/3B
 11694 ;;		On exit  : 3F/3C
 11695 ;;		Unchanged: 0/0
 11696 ;; Data sizes:     COMRAM   BANK0   BANK1   BANK2   BANK3   BANK4   BANK5   BANK6   BANK7   BANK8   BANK9  BANK10  BANK1
      +1  BANK12  BANK13  BANK14  BANK15  BANK16  BANK17  BANK18  BANK19  BANK20  BANK21  BANK22  BANK23  BANK24  BANK25  BANK2
      +6  BANK27  BANK28  BANK29  BANK30  BANK31
 11697 ;;      Params:         0       0       0       0       0       0       0       0       0       0       0       0       
      +0       0       0       0       0       0       0       0       0       0       0       0       0       0       0       
      +0       0       0       0       0       0
 11698 ;;      Locals:         0       0       0       0       0       0       0       0       0       0       0       0       
      +0       0       0       0       0       0       0       0       0       0       0       0       0       0       0       
      +0       0       0       0       0       0
 11699 ;;      Temps:          0       0       0       0       0       0       0       0       0       0       0       0       
      +0       0       0       0       0       0       0       0       0       0       0       0       0       0       0       
      +0       0       0       0       0       0
 11700 ;;      Totals:         0       0       0       0       0       0       0       0       0       0       0       0       
      +0       0       0       0       0       0       0       0       0       0       0       0       0       0       0       
      +0       0       0       0       0       0
 11701 ;;Total ram usage:        0 bytes
 11702 ;; Hardware stack levels used:    1
 11703 ;; Hardware stack levels required when called:    3
 11704 ;; This function calls:
 11705 ;;		Nothing
 11706 ;; This function is called by:
 11707 ;;		_SYSTEM_Initialize
 11708 ;; This function uses a reentrant model
 11709 ;;
 11710                           
 11711                           	psect	text67
 11712  00570C                     __ptext67:
 11713                           	opt callstack 0
 11714  00570C                     _CLKREF_Initialize:
 11715                           	opt callstack 26
 11716                           
 11717                           ;mcc_generated_files/clkref.c: 61:     CLKRCLK = 0x00;
 11718                           
 11719                           ; BSR set to: 59
 11720                           ; autosize = 0, savesize = 0, parsavesize = 0, tempsize = 0 parsize = 0, argsize = 0 var
      +                          gsize = 0, retsize = 0 argfudge = 0
 11721                           ;incstack = 0
 11722  00570C  013C               	movlb	60	; () banked
 11723  00570E  6BE6               	clrf	230,b	;volatile
 11724                           
 11725                           ; BSR set to: 60
 11726                           ;mcc_generated_files/clkref.c: 63:     CLKRCON = 0x94;
 11727  005710  0E94               	movlw	148
 11728  005712  6FE5               	movwf	229,b	;volatile
 11729                           
 11730                           ; BSR set to: 60
 11731                           ; _CLKREF_Initialize: autosize = 0, savesize = 0, parsavesize = 0, tempsize = 0 parsize 
      +                          = 0, argsize = 0, vargsize = 0
 11732  005714  0012               	return		;funcret
 11733  005716                     __end_of_CLKREF_Initialize:
 11734                           	opt callstack 0
 11735                           
 11736 ;; *************** function _CLC1_Initialize *****************
 11737 ;; Defined at:
 11738 ;;		line 58 in file "mcc_generated_files/clc1.c"
 11739 ;; Parameters:    Size  Location     Type
 11740 ;;		None
 11741 ;; Auto vars:     Size  Location     Type
 11742 ;;		None
 11743 ;; Return value:  Size  Location     Type
 11744 ;;                  1  [STACK] void 
 11745 ;; Registers used:
 11746 ;;		wreg, status,2
 11747 ;; Tracked objects:
 11748 ;;		On entry : 0/39
 11749 ;;		On exit  : 3F/3C
 11750 ;;		Unchanged: 0/0
 11751 ;; Data sizes:     COMRAM   BANK0   BANK1   BANK2   BANK3   BANK4   BANK5   BANK6   BANK7   BANK8   BANK9  BANK10  BANK1
      +1  BANK12  BANK13  BANK14  BANK15  BANK16  BANK17  BANK18  BANK19  BANK20  BANK21  BANK22  BANK23  BANK24  BANK25  BANK2
      +6  BANK27  BANK28  BANK29  BANK30  BANK31
 11752 ;;      Params:         0       0       0       0       0       0       0       0       0       0       0       0       
      +0       0       0       0       0       0       0       0       0       0       0       0       0       0       0       
      +0       0       0       0       0       0
 11753 ;;      Locals:         0       0       0       0       0       0       0       0       0       0       0       0       
      +0       0       0       0       0       0       0       0       0       0       0       0       0       0       0       
      +0       0       0       0       0       0
 11754 ;;      Temps:          0       0       0       0       0       0       0       0       0       0       0       0       
      +0       0       0       0       0       0       0       0       0       0       0       0       0       0       0       
      +0       0       0       0       0       0
 11755 ;;      Totals:         0       0       0       0       0       0       0       0       0       0       0       0       
      +0       0       0       0       0       0       0       0       0       0       0       0       0       0       0       
      +0       0       0       0       0       0
 11756 ;;Total ram usage:        0 bytes
 11757 ;; Hardware stack levels used:    1
 11758 ;; Hardware stack levels required when called:    3
 11759 ;; This function calls:
 11760 ;;		Nothing
 11761 ;; This function is called by:
 11762 ;;		_SYSTEM_Initialize
 11763 ;; This function uses a reentrant model
 11764 ;;
 11765                           
 11766                           	psect	text68
 11767  0054F8                     __ptext68:
 11768                           	opt callstack 0
 11769  0054F8                     _CLC1_Initialize:
 11770                           	opt callstack 26
 11771                           
 11772                           ;mcc_generated_files/clc1.c: 63:     CLC1POL = 0x00;
 11773                           
 11774                           ; BSR set to: 60
 11775                           ; autosize = 0, savesize = 0, parsavesize = 0, tempsize = 0 parsize = 0, argsize = 0 var
      +                          gsize = 0, retsize = 0 argfudge = 0
 11776                           ;incstack = 0
 11777  0054F8  013C               	movlb	60	; () banked
 11778  0054FA  6B75               	clrf	117,b	;volatile
 11779                           
 11780                           ; BSR set to: 60
 11781                           ;mcc_generated_files/clc1.c: 65:     CLC1SEL0 = 0x04;
 11782  0054FC  0E04               	movlw	4
 11783  0054FE  6F76               	movwf	118,b	;volatile
 11784                           
 11785                           ;mcc_generated_files/clc1.c: 67:     CLC1SEL1 = 0x04;
 11786  005500  0E04               	movlw	4
 11787  005502  6F77               	movwf	119,b	;volatile
 11788                           
 11789                           ;mcc_generated_files/clc1.c: 69:     CLC1SEL2 = 0x04;
 11790  005504  0E04               	movlw	4
 11791  005506  6F78               	movwf	120,b	;volatile
 11792                           
 11793                           ;mcc_generated_files/clc1.c: 71:     CLC1SEL3 = 0x04;
 11794  005508  0E04               	movlw	4
 11795  00550A  6F79               	movwf	121,b	;volatile
 11796                           
 11797                           ; BSR set to: 60
 11798                           ;mcc_generated_files/clc1.c: 73:     CLC1GLS0 = 0x00;
 11799  00550C  6B7A               	clrf	122,b	;volatile
 11800                           
 11801                           ; BSR set to: 60
 11802                           ;mcc_generated_files/clc1.c: 75:     CLC1GLS1 = 0x00;
 11803  00550E  6B7B               	clrf	123,b	;volatile
 11804                           
 11805                           ; BSR set to: 60
 11806                           ;mcc_generated_files/clc1.c: 77:     CLC1GLS2 = 0x00;
 11807  005510  6B7C               	clrf	124,b	;volatile
 11808                           
 11809                           ; BSR set to: 60
 11810                           ;mcc_generated_files/clc1.c: 79:     CLC1GLS3 = 0x00;
 11811  005512  6B7D               	clrf	125,b	;volatile
 11812                           
 11813                           ;mcc_generated_files/clc1.c: 81:     CLC1CON = 0x81;
 11814  005514  0E81               	movlw	129
 11815  005516  6F74               	movwf	116,b	;volatile
 11816                           
 11817                           ; BSR set to: 60
 11818                           ; _CLC1_Initialize: autosize = 0, savesize = 0, parsavesize = 0, tempsize = 0 parsize = 
      +                          0, argsize = 0, vargsize = 0
 11819  005518  0012               	return		;funcret
 11820  00551A                     __end_of_CLC1_Initialize:
 11821                           	opt callstack 0
 11822                           
 11823 ;; *************** function _ADCC_Initialize *****************
 11824 ;; Defined at:
 11825 ;;		line 64 in file "mcc_generated_files/adcc.c"
 11826 ;; Parameters:    Size  Location     Type
 11827 ;;		None
 11828 ;; Auto vars:     Size  Location     Type
 11829 ;;		None
 11830 ;; Return value:  Size  Location     Type
 11831 ;;                  1  [STACK] void 
 11832 ;; Registers used:
 11833 ;;		wreg, fsr1l, fsr1h, fsr2l, fsr2h, status,2
 11834 ;; Tracked objects:
 11835 ;;		On entry : 3F/39
 11836 ;;		On exit  : 0/0
 11837 ;;		Unchanged: 0/0
 11838 ;; Data sizes:     COMRAM   BANK0   BANK1   BANK2   BANK3   BANK4   BANK5   BANK6   BANK7   BANK8   BANK9  BANK10  BANK1
      +1  BANK12  BANK13  BANK14  BANK15  BANK16  BANK17  BANK18  BANK19  BANK20  BANK21  BANK22  BANK23  BANK24  BANK25  BANK2
      +6  BANK27  BANK28  BANK29  BANK30  BANK31
 11839 ;;      Params:         0       0       0       0       0       0       0       0       0       0       0       0       
      +0       0       0       0       0       0       0       0       0       0       0       0       0       0       0       
      +0       0       0       0       0       0
 11840 ;;      Locals:         0       0       0       0       0       0       0       0       0       0       0       0       
      +0       0       0       0       0       0       0       0       0       0       0       0       0       0       0       
      +0       0       0       0       0       0
 11841 ;;      Temps:          0       0       0       0       0       0       0       0       0       0       0       0       
      +0       0       0       0       0       0       0       0       0       0       0       0       0       0       0       
      +0       0       0       0       0       0
 11842 ;;      Totals:         0       0       0       0       0       0       0       0       0       0       0       0       
      +0       0       0       0       0       0       0       0       0       0       0       0       0       0       0       
      +0       0       0       0       0       0
 11843 ;;Total ram usage:        0 bytes
 11844 ;; Hardware stack levels used:    1
 11845 ;; Hardware stack levels required when called:    4
 11846 ;; This function calls:
 11847 ;;		_ADCC_SetADIInterruptHandler
 11848 ;; This function is called by:
 11849 ;;		_SYSTEM_Initialize
 11850 ;; This function uses a reentrant model
 11851 ;;
 11852                           
 11853                           	psect	text69
 11854  004EDA                     __ptext69:
 11855                           	opt callstack 0
 11856  004EDA                     _ADCC_Initialize:
 11857                           	opt callstack 25
 11858                           
 11859                           ;mcc_generated_files/adcc.c: 68:     ADLTHL = 0x00;
 11860                           
 11861                           ; BSR set to: 60
 11862                           ; autosize = 0, savesize = 0, parsavesize = 0, tempsize = 0 parsize = 0, argsize = 0 var
      +                          gsize = 0, retsize = 0 argfudge = 0
 11863                           ;incstack = 0
 11864  004EDA  013E               	movlb	62	; () banked
 11865  004EDC  6BDE               	clrf	222,b	;volatile
 11866                           
 11867                           ;mcc_generated_files/adcc.c: 70:     ADLTHH = 0x00;
 11868  004EDE  6BDF               	clrf	223,b	;volatile
 11869                           
 11870                           ;mcc_generated_files/adcc.c: 72:     ADUTHL = 0x00;
 11871  004EE0  6BE0               	clrf	224,b	;volatile
 11872                           
 11873                           ;mcc_generated_files/adcc.c: 74:     ADUTHH = 0x00;
 11874  004EE2  6BE1               	clrf	225,b	;volatile
 11875                           
 11876                           ;mcc_generated_files/adcc.c: 76:     ADSTPTL = 0x00;
 11877  004EE4  6BE4               	clrf	228,b	;volatile
 11878                           
 11879                           ;mcc_generated_files/adcc.c: 78:     ADSTPTH = 0x00;
 11880  004EE6  6BE5               	clrf	229,b	;volatile
 11881                           
 11882                           ;mcc_generated_files/adcc.c: 80:     ADACCU = 0x00;
 11883  004EE8  6BEA               	clrf	234,b	;volatile
 11884                           
 11885                           ;mcc_generated_files/adcc.c: 82:     ADRPT = 0x00;
 11886  004EEA  6BEC               	clrf	236,b	;volatile
 11887                           
 11888                           ;mcc_generated_files/adcc.c: 84:     ADPCH = 0x00;
 11889  004EEC  6BF1               	clrf	241,b	;volatile
 11890                           
 11891                           ;mcc_generated_files/adcc.c: 86:     ADACQL = 0x00;
 11892  004EEE  6BF3               	clrf	243,b	;volatile
 11893                           
 11894                           ;mcc_generated_files/adcc.c: 88:     ADACQH = 0x00;
 11895  004EF0  6BF4               	clrf	244,b	;volatile
 11896                           
 11897                           ;mcc_generated_files/adcc.c: 90:     ADCAP = 0x00;
 11898  004EF2  6BF5               	clrf	245,b	;volatile
 11899                           
 11900                           ;mcc_generated_files/adcc.c: 92:     ADPREL = 0x00;
 11901  004EF4  6BF6               	clrf	246,b	;volatile
 11902                           
 11903                           ;mcc_generated_files/adcc.c: 94:     ADPREH = 0x00;
 11904  004EF6  6BF7               	clrf	247,b	;volatile
 11905                           
 11906                           ;mcc_generated_files/adcc.c: 96:     ADCON1 = 0x00;
 11907  004EF8  6BF9               	clrf	249,b	;volatile
 11908                           
 11909                           ;mcc_generated_files/adcc.c: 98:     ADCON2 = 0x00;
 11910  004EFA  6BFA               	clrf	250,b	;volatile
 11911                           
 11912                           ;mcc_generated_files/adcc.c: 100:     ADCON3 = 0x00;
 11913  004EFC  6BFB               	clrf	251,b	;volatile
 11914                           
 11915                           ;mcc_generated_files/adcc.c: 102:     ADSTAT = 0x00;
 11916  004EFE  6BFC               	clrf	252,b	;volatile
 11917                           
 11918                           ; BSR set to: 62
 11919                           ;mcc_generated_files/adcc.c: 104:     ADREF = 0x02;
 11920  004F00  0E02               	movlw	2
 11921  004F02  6FFD               	movwf	253,b	;volatile
 11922                           
 11923                           ; BSR set to: 62
 11924                           ;mcc_generated_files/adcc.c: 106:     ADACT = 0x00;
 11925  004F04  6BFE               	clrf	254,b	;volatile
 11926                           
 11927                           ; BSR set to: 62
 11928                           ;mcc_generated_files/adcc.c: 108:     ADCLK = 0x00;
 11929  004F06  6BFF               	clrf	255,b	;volatile
 11930                           
 11931                           ;mcc_generated_files/adcc.c: 110:     ADCON0 = 0x94;
 11932  004F08  0E94               	movlw	148
 11933  004F0A  6FF8               	movwf	248,b	;volatile
 11934                           
 11935                           ; BSR set to: 62
 11936                           ;mcc_generated_files/adcc.c: 113:     PIR1bits.ADIF = 0;
 11937  004F0C  0139               	movlb	57	; () banked
 11938  004F0E  95A1               	bcf	161,2,b	;volatile
 11939                           
 11940                           ; BSR set to: 57
 11941                           ;mcc_generated_files/adcc.c: 115:     PIE1bits.ADIE = 1;
 11942  004F10  8591               	bsf	145,2,b	;volatile
 11943                           
 11944                           ; BSR set to: 57
 11945                           ;mcc_generated_files/adcc.c: 117:     ADCC_SetADIInterruptHandler(ADCC_DefaultInterruptH
      +                          andler);
 11946  004F12  0E58               	movlw	low _ADCC_DefaultInterruptHandler
 11947  004F14  6EE6               	movwf	postinc1,c
 11948  004F16  0E57               	movlw	high _ADCC_DefaultInterruptHandler
 11949  004F18  6EE6               	movwf	postinc1,c
 11950  004F1A  0E00               	movlw	low (_ADCC_DefaultInterruptHandler shr (0+16))
 11951  004F1C  6EE6               	movwf	postinc1,c
 11952  004F1E  ECDF  F029         	call	_ADCC_SetADIInterruptHandler	;wreg free
 11953                           
 11954                           ; _ADCC_Initialize: autosize = 0, savesize = 0, parsavesize = 0, tempsize = 0 parsize = 
      +                          0, argsize = 0, vargsize = 0
 11955  004F22  0012               	return		;funcret
 11956  004F24                     __end_of_ADCC_Initialize:
 11957                           	opt callstack 0
 11958                           
 11959 ;; *************** function _ADCC_SetADIInterruptHandler *****************
 11960 ;; Defined at:
 11961 ;;		line 316 in file "mcc_generated_files/adcc.c"
 11962 ;; Parameters:    Size  Location     Type
 11963 ;;  InterruptHan    3  [STACK] PTR FTN()void 
 11964 ;;		 -> ADCC_DefaultInterruptHandler(1), 
 11965 ;; Auto vars:     Size  Location     Type
 11966 ;;		None
 11967 ;; Return value:  Size  Location     Type
 11968 ;;                  1  [STACK] void 
 11969 ;; Registers used:
 11970 ;;		wreg, fsr1l, fsr1h, fsr2l, fsr2h
 11971 ;; Tracked objects:
 11972 ;;		On entry : 3F/39
 11973 ;;		On exit  : 0/0
 11974 ;;		Unchanged: 0/0
 11975 ;; Data sizes:     COMRAM   BANK0   BANK1   BANK2   BANK3   BANK4   BANK5   BANK6   BANK7   BANK8   BANK9  BANK10  BANK1
      +1  BANK12  BANK13  BANK14  BANK15  BANK16  BANK17  BANK18  BANK19  BANK20  BANK21  BANK22  BANK23  BANK24  BANK25  BANK2
      +6  BANK27  BANK28  BANK29  BANK30  BANK31
 11976 ;;      Params:         0       0       0       0       0       0       0       0       0       0       0       0       
      +0       0       0       0       0       0       0       0       0       0       0       0       0       0       0       
      +0       0       0       0       0       0
 11977 ;;      Locals:         0       0       0       0       0       0       0       0       0       0       0       0       
      +0       0       0       0       0       0       0       0       0       0       0       0       0       0       0       
      +0       0       0       0       0       0
 11978 ;;      Temps:          0       0       0       0       0       0       0       0       0       0       0       0       
      +0       0       0       0       0       0       0       0       0       0       0       0       0       0       0       
      +0       0       0       0       0       0
 11979 ;;      Totals:         0       0       0       0       0       0       0       0       0       0       0       0       
      +0       0       0       0       0       0       0       0       0       0       0       0       0       0       0       
      +0       0       0       0       0       0
 11980 ;;Total ram usage:        0 bytes
 11981 ;; Hardware stack levels used:    1
 11982 ;; Hardware stack levels required when called:    3
 11983 ;; This function calls:
 11984 ;;		Nothing
 11985 ;; This function is called by:
 11986 ;;		_ADCC_Initialize
 11987 ;; This function uses a reentrant model
 11988 ;;
 11989                           
 11990                           	psect	text70
 11991  0053BE                     __ptext70:
 11992                           	opt callstack 0
 11993  0053BE                     _ADCC_SetADIInterruptHandler:
 11994                           	opt callstack 25
 11995                           
 11996                           ;mcc_generated_files/adcc.c: 317:     ADCC_ADI_InterruptHandler = InterruptHandler;
 11997                           ;stkvar	_InterruptHandler @ sp[(0)+-3]
 11998                           
 11999                           ; autosize = 0, savesize = 0, parsavesize = 0, tempsize = 0 parsize = 3, argsize = 3 var
      +                          gsize = 0, retsize = 0 argfudge = 0
 12000                           ;incstack = 0
 12001  0053BE  50E1               	movf	fsr1l,w,c
 12002  0053C0  0FFD               	addlw	-3
 12003  0053C2  6ED9               	movwf	fsr2l,c
 12004  0053C4  50E2               	movf	fsr1h,w,c
 12005  0053C6  6EDA               	movwf	fsr2h,c
 12006  0053C8  0EFF               	movlw	255
 12007  0053CA  22DA               	addwfc	fsr2h,f,c
 12008  0053CC  006F FF78  F008    	movff	postinc2,_ADCC_ADI_InterruptHandler
 12009  0053D2  006F FF78  F009    	movff	postinc2,_ADCC_ADI_InterruptHandler+1
 12010  0053D8  006F FF74  F00A    	movff	postdec2,_ADCC_ADI_InterruptHandler+2
 12011                           
 12012                           ; _ADCC_SetADIInterruptHandler: autosize = 0, savesize = 0, parsavesize = 0, tempsize = 
      +                          0 parsize = 3, argsize = 3, vargsize = 0
 12013  0053DE  52E5               	movf	postdec1,f,c
 12014  0053E0  52E5               	movf	postdec1,f,c
 12015  0053E2  52E5               	movf	postdec1,f,c
 12016  0053E4  0012               	return		;funcret
 12017  0053E6                     __end_of_ADCC_SetADIInterruptHandler:
 12018                           	opt callstack 0
 12019                           
 12020 ;; *************** function _INT0_ISR *****************
 12021 ;; Defined at:
 12022 ;;		line 35 in file "mcc_generated_files/ext_int.c"
 12023 ;; Parameters:    Size  Location     Type
 12024 ;;		None
 12025 ;; Auto vars:     Size  Location     Type
 12026 ;;		None
 12027 ;; Return value:  Size  Location     Type
 12028 ;;                  1    wreg      void 
 12029 ;; Registers used:
 12030 ;;		wreg, status,2, status,0, pclath, tosl
 12031 ;; Tracked objects:
 12032 ;;		On entry : 0/0
 12033 ;;		On exit  : 0/0
 12034 ;;		Unchanged: 0/0
 12035 ;; Data sizes:     COMRAM   BANK0   BANK1   BANK2   BANK3   BANK4   BANK5   BANK6   BANK7   BANK8   BANK9  BANK10  BANK1
      +1  BANK12  BANK13  BANK14  BANK15  BANK16  BANK17  BANK18  BANK19  BANK20  BANK21  BANK22  BANK23  BANK24  BANK25  BANK2
      +6  BANK27  BANK28  BANK29  BANK30  BANK31
 12036 ;;      Params:         0       0       0       0       0       0       0       0       0       0       0       0       
      +0       0       0       0       0       0       0       0       0       0       0       0       0       0       0       
      +0       0       0       0       0       0
 12037 ;;      Locals:         0       0       0       0       0       0       0       0       0       0       0       0       
      +0       0       0       0       0       0       0       0       0       0       0       0       0       0       0       
      +0       0       0       0       0       0
 12038 ;;      Temps:          0       0       0       0       0       0       0       0       0       0       0       0       
      +0       0       0       0       0       0       0       0       0       0       0       0       0       0       0       
      +0       0       0       0       0       0
 12039 ;;      Totals:         0       0       0       0       0       0       0       0       0       0       0       0       
      +0       0       0       0       0       0       0       0       0       0       0       0       0       0       0       
      +0       0       0       0       0       0
 12040 ;;Total ram usage:        0 bytes
 12041 ;; Hardware stack levels used:    1
 12042 ;; Hardware stack levels required when called:    2
 12043 ;; This function calls:
 12044 ;;		_INT0_CallBack
 12045 ;; This function is called by:
 12046 ;;		Interrupt level 2
 12047 ;; This function uses a non-reentrant model
 12048 ;;
 12049                           
 12050                           	psect	text71
 12051  0056C0                     __ptext71:
 12052                           	opt callstack 0
 12053  0056C0                     _INT0_ISR:
 12054                           	opt callstack 18
 12055                           
 12056                           ;incstack = 0
 12057  0056C0  EE13  F084         	lfsr	1,___inthi_sp
 12058                           
 12059                           ;mcc_generated_files/ext_int.c: 37:     (PIR1bits.INT0IF = 0);
 12060  0056C4  0139               	movlb	57	; () banked
 12061  0056C6  91A1               	bcf	161,0,b	;volatile
 12062                           
 12063                           ; BSR set to: 57
 12064                           ;mcc_generated_files/ext_int.c: 40:     INT0_CallBack();
 12065  0056C8  EC8D  F02A         	call	_INT0_CallBack	;wreg free
 12066  0056CC  0011               	retfie		f
 12067  0056CE                     __end_of_INT0_ISR:
 12068                           	opt callstack 0
 12069                           
 12070 ;; *************** function _INT0_CallBack *****************
 12071 ;; Defined at:
 12072 ;;		line 44 in file "mcc_generated_files/ext_int.c"
 12073 ;; Parameters:    Size  Location     Type
 12074 ;;		None
 12075 ;; Auto vars:     Size  Location     Type
 12076 ;;		None
 12077 ;; Return value:  Size  Location     Type
 12078 ;;                  1  [STACK] void 
 12079 ;; Registers used:
 12080 ;;		wreg, status,2, status,0, pclath, tosl
 12081 ;; Tracked objects:
 12082 ;;		On entry : 3F/39
 12083 ;;		On exit  : 0/0
 12084 ;;		Unchanged: 0/0
 12085 ;; Data sizes:     COMRAM   BANK0   BANK1   BANK2   BANK3   BANK4   BANK5   BANK6   BANK7   BANK8   BANK9  BANK10  BANK1
      +1  BANK12  BANK13  BANK14  BANK15  BANK16  BANK17  BANK18  BANK19  BANK20  BANK21  BANK22  BANK23  BANK24  BANK25  BANK2
      +6  BANK27  BANK28  BANK29  BANK30  BANK31
 12086 ;;      Params:         0       0       0       0       0       0       0       0       0       0       0       0       
      +0       0       0       0       0       0       0       0       0       0       0       0       0       0       0       
      +0       0       0       0       0       0
 12087 ;;      Locals:         0       0       0       0       0       0       0       0       0       0       0       0       
      +0       0       0       0       0       0       0       0       0       0       0       0       0       0       0       
      +0       0       0       0       0       0
 12088 ;;      Temps:          0       0       0       0       0       0       0       0       0       0       0       0       
      +0       0       0       0       0       0       0       0       0       0       0       0       0       0       0       
      +0       0       0       0       0       0
 12089 ;;      Totals:         0       0       0       0       0       0       0       0       0       0       0       0       
      +0       0       0       0       0       0       0       0       0       0       0       0       0       0       0       
      +0       0       0       0       0       0
 12090 ;;Total ram usage:        0 bytes
 12091 ;; Hardware stack levels used:    1
 12092 ;; Hardware stack levels required when called:    1
 12093 ;; This function calls:
 12094 ;;		Absolute function
 12095 ;;		_INT0_DefaultInterruptHandler
 12096 ;; This function is called by:
 12097 ;;		_INT0_ISR
 12098 ;; This function uses a reentrant model
 12099 ;;
 12100                           
 12101                           	psect	text72
 12102  00551A                     __ptext72:
 12103                           	opt callstack 0
 12104  00551A                     _INT0_CallBack:
 12105                           	opt callstack 18
 12106                           
 12107                           ;mcc_generated_files/ext_int.c: 47:     if(INT0_InterruptHandler)
 12108                           
 12109                           ; autosize = 0, savesize = 0, parsavesize = 0, tempsize = 0 parsize = 0, argsize = 0 var
      +                          gsize = 0, retsize = 0 argfudge = 0
 12110                           ;incstack = 0
 12111  00551A  501D               	movf	_INT0_InterruptHandler,w,c
 12112  00551C  101E               	iorwf	_INT0_InterruptHandler+1,w,c
 12113  00551E  101F               	iorwf	_INT0_InterruptHandler+2,w,c
 12114  005520  B4D8               	btfsc	status,2,c
 12115  005522  0012               	return	
 12116                           
 12117                           ;mcc_generated_files/ext_int.c: 48:     {;mcc_generated_files/ext_int.c: 49:         INT
      +                          0_InterruptHandler();
 12118  005524  D801               	call	u138_48
 12119  005526  0012               	return	
 12120  005528                     u138_48:
 12121  005528  0005               	push	
 12122  00552A  6EFA               	movwf	pclath,c
 12123  00552C  501D               	movf	_INT0_InterruptHandler,w,c
 12124  00552E  6EFD               	movwf	tosl,c
 12125  005530  501E               	movf	_INT0_InterruptHandler+1,w,c
 12126  005532  6EFE               	movwf	tosh,c
 12127  005534  501F               	movf	_INT0_InterruptHandler+2,w,c
 12128  005536  6EFF               	movwf	tosu,c
 12129  005538  50FA               	movf	pclath,w,c
 12130  00553A  0012               	return		;indir
 12131  00553C                     __end_of_INT0_CallBack:
 12132                           	opt callstack 0
 12133                           
 12134 ;; *************** function _INT0_DefaultInterruptHandler *****************
 12135 ;; Defined at:
 12136 ;;		line 57 in file "mcc_generated_files/ext_int.c"
 12137 ;; Parameters:    Size  Location     Type
 12138 ;;		None
 12139 ;; Auto vars:     Size  Location     Type
 12140 ;;		None
 12141 ;; Return value:  Size  Location     Type
 12142 ;;                  1  [STACK] void 
 12143 ;; Registers used:
 12144 ;;		None
 12145 ;; Tracked objects:
 12146 ;;		On entry : 0/39
 12147 ;;		On exit  : 0/0
 12148 ;;		Unchanged: 0/0
 12149 ;; Data sizes:     COMRAM   BANK0   BANK1   BANK2   BANK3   BANK4   BANK5   BANK6   BANK7   BANK8   BANK9  BANK10  BANK1
      +1  BANK12  BANK13  BANK14  BANK15  BANK16  BANK17  BANK18  BANK19  BANK20  BANK21  BANK22  BANK23  BANK24  BANK25  BANK2
      +6  BANK27  BANK28  BANK29  BANK30  BANK31
 12150 ;;      Params:         0       0       0       0       0       0       0       0       0       0       0       0       
      +0       0       0       0       0       0       0       0       0       0       0       0       0       0       0       
      +0       0       0       0       0       0
 12151 ;;      Locals:         0       0       0       0       0       0       0       0       0       0       0       0       
      +0       0       0       0       0       0       0       0       0       0       0       0       0       0       0       
      +0       0       0       0       0       0
 12152 ;;      Temps:          0       0       0       0       0       0       0       0       0       0       0       0       
      +0       0       0       0       0       0       0       0       0       0       0       0       0       0       0       
      +0       0       0       0       0       0
 12153 ;;      Totals:         0       0       0       0       0       0       0       0       0       0       0       0       
      +0       0       0       0       0       0       0       0       0       0       0       0       0       0       0       
      +0       0       0       0       0       0
 12154 ;;Total ram usage:        0 bytes
 12155 ;; Hardware stack levels used:    1
 12156 ;; This function calls:
 12157 ;;		Nothing
 12158 ;; This function is called by:
 12159 ;;		_EXT_INT_Initialize
 12160 ;;		_INT0_CallBack
 12161 ;; This function uses a reentrant model
 12162 ;;
 12163                           
 12164                           	psect	text73
 12165  005752                     __ptext73:
 12166                           	opt callstack 0
 12167  005752                     _INT0_DefaultInterruptHandler:
 12168                           	opt callstack 18
 12169                           
 12170                           ; _INT0_DefaultInterruptHandler: autosize = 0, savesize = 0, parsavesize = 0, tempsize =
      +                           0 parsize = 0, argsize = 0, vargsize = 0
 12171                           
 12172                           ; autosize = 0, savesize = 0, parsavesize = 0, tempsize = 0 parsize = 0, argsize = 0 var
      +                          gsize = 0, retsize = 0 argfudge = 0
 12173                           ;incstack = 0
 12174  005752  0012               	return		;funcret
 12175  005754                     __end_of_INT0_DefaultInterruptHandler:
 12176                           	opt callstack 0
 12177                           
 12178 ;; *************** function _INT1_ISR *****************
 12179 ;; Defined at:
 12180 ;;		line 61 in file "mcc_generated_files/ext_int.c"
 12181 ;; Parameters:    Size  Location     Type
 12182 ;;		None
 12183 ;; Auto vars:     Size  Location     Type
 12184 ;;		None
 12185 ;; Return value:  Size  Location     Type
 12186 ;;                  1    wreg      void 
 12187 ;; Registers used:
 12188 ;;		wreg, status,2, status,0, pclath, tosl
 12189 ;; Tracked objects:
 12190 ;;		On entry : 0/0
 12191 ;;		On exit  : 0/0
 12192 ;;		Unchanged: 0/0
 12193 ;; Data sizes:     COMRAM   BANK0   BANK1   BANK2   BANK3   BANK4   BANK5   BANK6   BANK7   BANK8   BANK9  BANK10  BANK1
      +1  BANK12  BANK13  BANK14  BANK15  BANK16  BANK17  BANK18  BANK19  BANK20  BANK21  BANK22  BANK23  BANK24  BANK25  BANK2
      +6  BANK27  BANK28  BANK29  BANK30  BANK31
 12194 ;;      Params:         0       0       0       0       0       0       0       0       0       0       0       0       
      +0       0       0       0       0       0       0       0       0       0       0       0       0       0       0       
      +0       0       0       0       0       0
 12195 ;;      Locals:         0       0       0       0       0       0       0       0       0       0       0       0       
      +0       0       0       0       0       0       0       0       0       0       0       0       0       0       0       
      +0       0       0       0       0       0
 12196 ;;      Temps:          0       0       0       0       0       0       0       0       0       0       0       0       
      +0       0       0       0       0       0       0       0       0       0       0       0       0       0       0       
      +0       0       0       0       0       0
 12197 ;;      Totals:         0       0       0       0       0       0       0       0       0       0       0       0       
      +0       0       0       0       0       0       0       0       0       0       0       0       0       0       0       
      +0       0       0       0       0       0
 12198 ;;Total ram usage:        0 bytes
 12199 ;; Hardware stack levels used:    1
 12200 ;; Hardware stack levels required when called:    2
 12201 ;; This function calls:
 12202 ;;		_INT1_CallBack
 12203 ;; This function is called by:
 12204 ;;		Interrupt level 2
 12205 ;; This function uses a non-reentrant model
 12206 ;;
 12207                           
 12208                           	psect	text74
 12209  0056D0                     __ptext74:
 12210                           	opt callstack 0
 12211  0056D0                     _INT1_ISR:
 12212                           	opt callstack 18
 12213                           
 12214                           ;incstack = 0
 12215  0056D0  EE13  F084         	lfsr	1,___inthi_sp
 12216                           
 12217                           ;mcc_generated_files/ext_int.c: 63:     (PIR5bits.INT1IF = 0);
 12218  0056D4  0139               	movlb	57	; () banked
 12219  0056D6  91A5               	bcf	165,0,b	;volatile
 12220                           
 12221                           ; BSR set to: 57
 12222                           ;mcc_generated_files/ext_int.c: 66:     INT1_CallBack();
 12223  0056D8  EC9E  F02A         	call	_INT1_CallBack	;wreg free
 12224  0056DC  0011               	retfie		f
 12225  0056DE                     __end_of_INT1_ISR:
 12226                           	opt callstack 0
 12227                           
 12228 ;; *************** function _INT1_CallBack *****************
 12229 ;; Defined at:
 12230 ;;		line 70 in file "mcc_generated_files/ext_int.c"
 12231 ;; Parameters:    Size  Location     Type
 12232 ;;		None
 12233 ;; Auto vars:     Size  Location     Type
 12234 ;;		None
 12235 ;; Return value:  Size  Location     Type
 12236 ;;                  1  [STACK] void 
 12237 ;; Registers used:
 12238 ;;		wreg, status,2, status,0, pclath, tosl
 12239 ;; Tracked objects:
 12240 ;;		On entry : 3F/39
 12241 ;;		On exit  : 0/0
 12242 ;;		Unchanged: 0/0
 12243 ;; Data sizes:     COMRAM   BANK0   BANK1   BANK2   BANK3   BANK4   BANK5   BANK6   BANK7   BANK8   BANK9  BANK10  BANK1
      +1  BANK12  BANK13  BANK14  BANK15  BANK16  BANK17  BANK18  BANK19  BANK20  BANK21  BANK22  BANK23  BANK24  BANK25  BANK2
      +6  BANK27  BANK28  BANK29  BANK30  BANK31
 12244 ;;      Params:         0       0       0       0       0       0       0       0       0       0       0       0       
      +0       0       0       0       0       0       0       0       0       0       0       0       0       0       0       
      +0       0       0       0       0       0
 12245 ;;      Locals:         0       0       0       0       0       0       0       0       0       0       0       0       
      +0       0       0       0       0       0       0       0       0       0       0       0       0       0       0       
      +0       0       0       0       0       0
 12246 ;;      Temps:          0       0       0       0       0       0       0       0       0       0       0       0       
      +0       0       0       0       0       0       0       0       0       0       0       0       0       0       0       
      +0       0       0       0       0       0
 12247 ;;      Totals:         0       0       0       0       0       0       0       0       0       0       0       0       
      +0       0       0       0       0       0       0       0       0       0       0       0       0       0       0       
      +0       0       0       0       0       0
 12248 ;;Total ram usage:        0 bytes
 12249 ;; Hardware stack levels used:    1
 12250 ;; Hardware stack levels required when called:    1
 12251 ;; This function calls:
 12252 ;;		Absolute function
 12253 ;;		_INT1_DefaultInterruptHandler
 12254 ;; This function is called by:
 12255 ;;		_INT1_ISR
 12256 ;; This function uses a reentrant model
 12257 ;;
 12258                           
 12259                           	psect	text75
 12260  00553C                     __ptext75:
 12261                           	opt callstack 0
 12262  00553C                     _INT1_CallBack:
 12263                           	opt callstack 18
 12264                           
 12265                           ;mcc_generated_files/ext_int.c: 73:     if(INT1_InterruptHandler)
 12266                           
 12267                           ; autosize = 0, savesize = 0, parsavesize = 0, tempsize = 0 parsize = 0, argsize = 0 var
      +                          gsize = 0, retsize = 0 argfudge = 0
 12268                           ;incstack = 0
 12269  00553C  501A               	movf	_INT1_InterruptHandler,w,c
 12270  00553E  101B               	iorwf	_INT1_InterruptHandler+1,w,c
 12271  005540  101C               	iorwf	_INT1_InterruptHandler+2,w,c
 12272  005542  B4D8               	btfsc	status,2,c
 12273  005544  0012               	return	
 12274                           
 12275                           ;mcc_generated_files/ext_int.c: 74:     {;mcc_generated_files/ext_int.c: 75:         INT
      +                          1_InterruptHandler();
 12276  005546  D801               	call	u140_48
 12277  005548  0012               	return	
 12278  00554A                     u140_48:
 12279  00554A  0005               	push	
 12280  00554C  6EFA               	movwf	pclath,c
 12281  00554E  501A               	movf	_INT1_InterruptHandler,w,c
 12282  005550  6EFD               	movwf	tosl,c
 12283  005552  501B               	movf	_INT1_InterruptHandler+1,w,c
 12284  005554  6EFE               	movwf	tosh,c
 12285  005556  501C               	movf	_INT1_InterruptHandler+2,w,c
 12286  005558  6EFF               	movwf	tosu,c
 12287  00555A  50FA               	movf	pclath,w,c
 12288  00555C  0012               	return		;indir
 12289  00555E                     __end_of_INT1_CallBack:
 12290                           	opt callstack 0
 12291                           
 12292 ;; *************** function _INT1_DefaultInterruptHandler *****************
 12293 ;; Defined at:
 12294 ;;		line 83 in file "mcc_generated_files/ext_int.c"
 12295 ;; Parameters:    Size  Location     Type
 12296 ;;		None
 12297 ;; Auto vars:     Size  Location     Type
 12298 ;;		None
 12299 ;; Return value:  Size  Location     Type
 12300 ;;                  1  [STACK] void 
 12301 ;; Registers used:
 12302 ;;		None
 12303 ;; Tracked objects:
 12304 ;;		On entry : 0/39
 12305 ;;		On exit  : 0/0
 12306 ;;		Unchanged: 0/0
 12307 ;; Data sizes:     COMRAM   BANK0   BANK1   BANK2   BANK3   BANK4   BANK5   BANK6   BANK7   BANK8   BANK9  BANK10  BANK1
      +1  BANK12  BANK13  BANK14  BANK15  BANK16  BANK17  BANK18  BANK19  BANK20  BANK21  BANK22  BANK23  BANK24  BANK25  BANK2
      +6  BANK27  BANK28  BANK29  BANK30  BANK31
 12308 ;;      Params:         0       0       0       0       0       0       0       0       0       0       0       0       
      +0       0       0       0       0       0       0       0       0       0       0       0       0       0       0       
      +0       0       0       0       0       0
 12309 ;;      Locals:         0       0       0       0       0       0       0       0       0       0       0       0       
      +0       0       0       0       0       0       0       0       0       0       0       0       0       0       0       
      +0       0       0       0       0       0
 12310 ;;      Temps:          0       0       0       0       0       0       0       0       0       0       0       0       
      +0       0       0       0       0       0       0       0       0       0       0       0       0       0       0       
      +0       0       0       0       0       0
 12311 ;;      Totals:         0       0       0       0       0       0       0       0       0       0       0       0       
      +0       0       0       0       0       0       0       0       0       0       0       0       0       0       0       
      +0       0       0       0       0       0
 12312 ;;Total ram usage:        0 bytes
 12313 ;; Hardware stack levels used:    1
 12314 ;; This function calls:
 12315 ;;		Nothing
 12316 ;; This function is called by:
 12317 ;;		_EXT_INT_Initialize
 12318 ;;		_INT1_CallBack
 12319 ;; This function uses a reentrant model
 12320 ;;
 12321                           
 12322                           	psect	text76
 12323  005754                     __ptext76:
 12324                           	opt callstack 0
 12325  005754                     _INT1_DefaultInterruptHandler:
 12326                           	opt callstack 18
 12327                           
 12328                           ; _INT1_DefaultInterruptHandler: autosize = 0, savesize = 0, parsavesize = 0, tempsize =
      +                           0 parsize = 0, argsize = 0, vargsize = 0
 12329                           
 12330                           ; autosize = 0, savesize = 0, parsavesize = 0, tempsize = 0 parsize = 0, argsize = 0 var
      +                          gsize = 0, retsize = 0 argfudge = 0
 12331                           ;incstack = 0
 12332  005754  0012               	return		;funcret
 12333  005756                     __end_of_INT1_DefaultInterruptHandler:
 12334                           	opt callstack 0
 12335                           
 12336 ;; *************** function _INT2_ISR *****************
 12337 ;; Defined at:
 12338 ;;		line 87 in file "mcc_generated_files/ext_int.c"
 12339 ;; Parameters:    Size  Location     Type
 12340 ;;		None
 12341 ;; Auto vars:     Size  Location     Type
 12342 ;;		None
 12343 ;; Return value:  Size  Location     Type
 12344 ;;                  1    wreg      void 
 12345 ;; Registers used:
 12346 ;;		wreg, status,2, status,0, pclath, tosl
 12347 ;; Tracked objects:
 12348 ;;		On entry : 0/0
 12349 ;;		On exit  : 0/0
 12350 ;;		Unchanged: 0/0
 12351 ;; Data sizes:     COMRAM   BANK0   BANK1   BANK2   BANK3   BANK4   BANK5   BANK6   BANK7   BANK8   BANK9  BANK10  BANK1
      +1  BANK12  BANK13  BANK14  BANK15  BANK16  BANK17  BANK18  BANK19  BANK20  BANK21  BANK22  BANK23  BANK24  BANK25  BANK2
      +6  BANK27  BANK28  BANK29  BANK30  BANK31
 12352 ;;      Params:         0       0       0       0       0       0       0       0       0       0       0       0       
      +0       0       0       0       0       0       0       0       0       0       0       0       0       0       0       
      +0       0       0       0       0       0
 12353 ;;      Locals:         0       0       0       0       0       0       0       0       0       0       0       0       
      +0       0       0       0       0       0       0       0       0       0       0       0       0       0       0       
      +0       0       0       0       0       0
 12354 ;;      Temps:          0       0       0       0       0       0       0       0       0       0       0       0       
      +0       0       0       0       0       0       0       0       0       0       0       0       0       0       0       
      +0       0       0       0       0       0
 12355 ;;      Totals:         0       0       0       0       0       0       0       0       0       0       0       0       
      +0       0       0       0       0       0       0       0       0       0       0       0       0       0       0       
      +0       0       0       0       0       0
 12356 ;;Total ram usage:        0 bytes
 12357 ;; Hardware stack levels used:    1
 12358 ;; Hardware stack levels required when called:    2
 12359 ;; This function calls:
 12360 ;;		_INT2_CallBack
 12361 ;; This function is called by:
 12362 ;;		Interrupt level 2
 12363 ;; This function uses a non-reentrant model
 12364 ;;
 12365                           
 12366                           	psect	text77
 12367  0056E0                     __ptext77:
 12368                           	opt callstack 0
 12369  0056E0                     _INT2_ISR:
 12370                           	opt callstack 18
 12371                           
 12372                           ;incstack = 0
 12373  0056E0  EE13  F084         	lfsr	1,___inthi_sp
 12374                           
 12375                           ;mcc_generated_files/ext_int.c: 89:     (PIR7bits.INT2IF = 0);
 12376  0056E4  0139               	movlb	57	; () banked
 12377  0056E6  9BA7               	bcf	167,5,b	;volatile
 12378                           
 12379                           ; BSR set to: 57
 12380                           ;mcc_generated_files/ext_int.c: 92:     INT2_CallBack();
 12381  0056E8  ECAF  F02A         	call	_INT2_CallBack	;wreg free
 12382  0056EC  0011               	retfie		f
 12383  0056EE                     __end_of_INT2_ISR:
 12384                           	opt callstack 0
 12385                           
 12386 ;; *************** function _INT2_CallBack *****************
 12387 ;; Defined at:
 12388 ;;		line 96 in file "mcc_generated_files/ext_int.c"
 12389 ;; Parameters:    Size  Location     Type
 12390 ;;		None
 12391 ;; Auto vars:     Size  Location     Type
 12392 ;;		None
 12393 ;; Return value:  Size  Location     Type
 12394 ;;                  1  [STACK] void 
 12395 ;; Registers used:
 12396 ;;		wreg, status,2, status,0, pclath, tosl
 12397 ;; Tracked objects:
 12398 ;;		On entry : 3F/39
 12399 ;;		On exit  : 0/0
 12400 ;;		Unchanged: 0/0
 12401 ;; Data sizes:     COMRAM   BANK0   BANK1   BANK2   BANK3   BANK4   BANK5   BANK6   BANK7   BANK8   BANK9  BANK10  BANK1
      +1  BANK12  BANK13  BANK14  BANK15  BANK16  BANK17  BANK18  BANK19  BANK20  BANK21  BANK22  BANK23  BANK24  BANK25  BANK2
      +6  BANK27  BANK28  BANK29  BANK30  BANK31
 12402 ;;      Params:         0       0       0       0       0       0       0       0       0       0       0       0       
      +0       0       0       0       0       0       0       0       0       0       0       0       0       0       0       
      +0       0       0       0       0       0
 12403 ;;      Locals:         0       0       0       0       0       0       0       0       0       0       0       0       
      +0       0       0       0       0       0       0       0       0       0       0       0       0       0       0       
      +0       0       0       0       0       0
 12404 ;;      Temps:          0       0       0       0       0       0       0       0       0       0       0       0       
      +0       0       0       0       0       0       0       0       0       0       0       0       0       0       0       
      +0       0       0       0       0       0
 12405 ;;      Totals:         0       0       0       0       0       0       0       0       0       0       0       0       
      +0       0       0       0       0       0       0       0       0       0       0       0       0       0       0       
      +0       0       0       0       0       0
 12406 ;;Total ram usage:        0 bytes
 12407 ;; Hardware stack levels used:    1
 12408 ;; Hardware stack levels required when called:    1
 12409 ;; This function calls:
 12410 ;;		Absolute function
 12411 ;;		_INT2_DefaultInterruptHandler
 12412 ;; This function is called by:
 12413 ;;		_INT2_ISR
 12414 ;; This function uses a reentrant model
 12415 ;;
 12416                           
 12417                           	psect	text78
 12418  00555E                     __ptext78:
 12419                           	opt callstack 0
 12420  00555E                     _INT2_CallBack:
 12421                           	opt callstack 18
 12422                           
 12423                           ;mcc_generated_files/ext_int.c: 99:     if(INT2_InterruptHandler)
 12424                           
 12425                           ; autosize = 0, savesize = 0, parsavesize = 0, tempsize = 0 parsize = 0, argsize = 0 var
      +                          gsize = 0, retsize = 0 argfudge = 0
 12426                           ;incstack = 0
 12427  00555E  5017               	movf	_INT2_InterruptHandler,w,c
 12428  005560  1018               	iorwf	_INT2_InterruptHandler+1,w,c
 12429  005562  1019               	iorwf	_INT2_InterruptHandler+2,w,c
 12430  005564  B4D8               	btfsc	status,2,c
 12431  005566  0012               	return	
 12432                           
 12433                           ;mcc_generated_files/ext_int.c: 100:     {;mcc_generated_files/ext_int.c: 101:         I
      +                          NT2_InterruptHandler();
 12434  005568  D801               	call	u142_48
 12435  00556A  0012               	return	
 12436  00556C                     u142_48:
 12437  00556C  0005               	push	
 12438  00556E  6EFA               	movwf	pclath,c
 12439  005570  5017               	movf	_INT2_InterruptHandler,w,c
 12440  005572  6EFD               	movwf	tosl,c
 12441  005574  5018               	movf	_INT2_InterruptHandler+1,w,c
 12442  005576  6EFE               	movwf	tosh,c
 12443  005578  5019               	movf	_INT2_InterruptHandler+2,w,c
 12444  00557A  6EFF               	movwf	tosu,c
 12445  00557C  50FA               	movf	pclath,w,c
 12446  00557E  0012               	return		;indir
 12447  005580                     __end_of_INT2_CallBack:
 12448                           	opt callstack 0
 12449                           
 12450 ;; *************** function _INT2_DefaultInterruptHandler *****************
 12451 ;; Defined at:
 12452 ;;		line 109 in file "mcc_generated_files/ext_int.c"
 12453 ;; Parameters:    Size  Location     Type
 12454 ;;		None
 12455 ;; Auto vars:     Size  Location     Type
 12456 ;;		None
 12457 ;; Return value:  Size  Location     Type
 12458 ;;                  1  [STACK] void 
 12459 ;; Registers used:
 12460 ;;		None
 12461 ;; Tracked objects:
 12462 ;;		On entry : 0/39
 12463 ;;		On exit  : 0/0
 12464 ;;		Unchanged: 0/0
 12465 ;; Data sizes:     COMRAM   BANK0   BANK1   BANK2   BANK3   BANK4   BANK5   BANK6   BANK7   BANK8   BANK9  BANK10  BANK1
      +1  BANK12  BANK13  BANK14  BANK15  BANK16  BANK17  BANK18  BANK19  BANK20  BANK21  BANK22  BANK23  BANK24  BANK25  BANK2
      +6  BANK27  BANK28  BANK29  BANK30  BANK31
 12466 ;;      Params:         0       0       0       0       0       0       0       0       0       0       0       0       
      +0       0       0       0       0       0       0       0       0       0       0       0       0       0       0       
      +0       0       0       0       0       0
 12467 ;;      Locals:         0       0       0       0       0       0       0       0       0       0       0       0       
      +0       0       0       0       0       0       0       0       0       0       0       0       0       0       0       
      +0       0       0       0       0       0
 12468 ;;      Temps:          0       0       0       0       0       0       0       0       0       0       0       0       
      +0       0       0       0       0       0       0       0       0       0       0       0       0       0       0       
      +0       0       0       0       0       0
 12469 ;;      Totals:         0       0       0       0       0       0       0       0       0       0       0       0       
      +0       0       0       0       0       0       0       0       0       0       0       0       0       0       0       
      +0       0       0       0       0       0
 12470 ;;Total ram usage:        0 bytes
 12471 ;; Hardware stack levels used:    1
 12472 ;; This function calls:
 12473 ;;		Nothing
 12474 ;; This function is called by:
 12475 ;;		_EXT_INT_Initialize
 12476 ;;		_INT2_CallBack
 12477 ;; This function uses a reentrant model
 12478 ;;
 12479                           
 12480                           	psect	text79
 12481  005756                     __ptext79:
 12482                           	opt callstack 0
 12483  005756                     _INT2_DefaultInterruptHandler:
 12484                           	opt callstack 18
 12485                           
 12486                           ; _INT2_DefaultInterruptHandler: autosize = 0, savesize = 0, parsavesize = 0, tempsize =
      +                           0 parsize = 0, argsize = 0, vargsize = 0
 12487                           
 12488                           ; autosize = 0, savesize = 0, parsavesize = 0, tempsize = 0 parsize = 0, argsize = 0 var
      +                          gsize = 0, retsize = 0 argfudge = 0
 12489                           ;incstack = 0
 12490  005756  0012               	return		;funcret
 12491  005758                     __end_of_INT2_DefaultInterruptHandler:
 12492                           	opt callstack 0
 12493                           
 12494 ;; *************** function _Default_ISR *****************
 12495 ;; Defined at:
 12496 ;;		line 87 in file "mcc_generated_files/interrupt_manager.c"
 12497 ;; Parameters:    Size  Location     Type
 12498 ;;		None
 12499 ;; Auto vars:     Size  Location     Type
 12500 ;;		None
 12501 ;; Return value:  Size  Location     Type
 12502 ;;                  1    wreg      void 
 12503 ;; Registers used:
 12504 ;;		None
 12505 ;; Tracked objects:
 12506 ;;		On entry : 0/0
 12507 ;;		On exit  : 0/0
 12508 ;;		Unchanged: 0/0
 12509 ;; Data sizes:     COMRAM   BANK0   BANK1   BANK2   BANK3   BANK4   BANK5   BANK6   BANK7   BANK8   BANK9  BANK10  BANK1
      +1  BANK12  BANK13  BANK14  BANK15  BANK16  BANK17  BANK18  BANK19  BANK20  BANK21  BANK22  BANK23  BANK24  BANK25  BANK2
      +6  BANK27  BANK28  BANK29  BANK30  BANK31
 12510 ;;      Params:         0       0       0       0       0       0       0       0       0       0       0       0       
      +0       0       0       0       0       0       0       0       0       0       0       0       0       0       0       
      +0       0       0       0       0       0
 12511 ;;      Locals:         0       0       0       0       0       0       0       0       0       0       0       0       
      +0       0       0       0       0       0       0       0       0       0       0       0       0       0       0       
      +0       0       0       0       0       0
 12512 ;;      Temps:          0       0       0       0       0       0       0       0       0       0       0       0       
      +0       0       0       0       0       0       0       0       0       0       0       0       0       0       0       
      +0       0       0       0       0       0
 12513 ;;      Totals:         0       0       0       0       0       0       0       0       0       0       0       0       
      +0       0       0       0       0       0       0       0       0       0       0       0       0       0       0       
      +0       0       0       0       0       0
 12514 ;;Total ram usage:        0 bytes
 12515 ;; Hardware stack levels used:    1
 12516 ;; This function calls:
 12517 ;;		Nothing
 12518 ;; This function is called by:
 12519 ;;		Interrupt level 2
 12520 ;; This function uses a non-reentrant model
 12521 ;;
 12522                           
 12523                           	psect	text80
 12524  00574C                     __ptext80:
 12525                           	opt callstack 0
 12526  00574C                     _Default_ISR:
 12527                           	opt callstack 20
 12528                           
 12529                           ;incstack = 0
 12530  00574C  EE13  F084         	lfsr	1,___inthi_sp
 12531  005750  0011               	retfie		f
 12532  005752                     __end_of_Default_ISR:
 12533                           	opt callstack 0
 12534                           
 12535 ;; *************** function _ADCC_ISR *****************
 12536 ;; Defined at:
 12537 ;;		line 307 in file "mcc_generated_files/adcc.c"
 12538 ;; Parameters:    Size  Location     Type
 12539 ;;		None
 12540 ;; Auto vars:     Size  Location     Type
 12541 ;;		None
 12542 ;; Return value:  Size  Location     Type
 12543 ;;                  1    wreg      void 
 12544 ;; Registers used:
 12545 ;;		wreg, status,2, status,0, pclath, tosl
 12546 ;; Tracked objects:
 12547 ;;		On entry : 0/0
 12548 ;;		On exit  : 0/0
 12549 ;;		Unchanged: 0/0
 12550 ;; Data sizes:     COMRAM   BANK0   BANK1   BANK2   BANK3   BANK4   BANK5   BANK6   BANK7   BANK8   BANK9  BANK10  BANK1
      +1  BANK12  BANK13  BANK14  BANK15  BANK16  BANK17  BANK18  BANK19  BANK20  BANK21  BANK22  BANK23  BANK24  BANK25  BANK2
      +6  BANK27  BANK28  BANK29  BANK30  BANK31
 12551 ;;      Params:         0       0       0       0       0       0       0       0       0       0       0       0       
      +0       0       0       0       0       0       0       0       0       0       0       0       0       0       0       
      +0       0       0       0       0       0
 12552 ;;      Locals:         0       0       0       0       0       0       0       0       0       0       0       0       
      +0       0       0       0       0       0       0       0       0       0       0       0       0       0       0       
      +0       0       0       0       0       0
 12553 ;;      Temps:          0       0       0       0       0       0       0       0       0       0       0       0       
      +0       0       0       0       0       0       0       0       0       0       0       0       0       0       0       
      +0       0       0       0       0       0
 12554 ;;      Totals:         0       0       0       0       0       0       0       0       0       0       0       0       
      +0       0       0       0       0       0       0       0       0       0       0       0       0       0       0       
      +0       0       0       0       0       0
 12555 ;;Total ram usage:        0 bytes
 12556 ;; Hardware stack levels used:    1
 12557 ;; Hardware stack levels required when called:    1
 12558 ;; This function calls:
 12559 ;;		Absolute function
 12560 ;;		_ADCC_DefaultInterruptHandler
 12561 ;; This function is called by:
 12562 ;;		Interrupt level 2
 12563 ;; This function uses a non-reentrant model
 12564 ;;
 12565                           
 12566                           	psect	text81
 12567  00518C                     __ptext81:
 12568                           	opt callstack 0
 12569  00518C                     _ADCC_ISR:
 12570                           	opt callstack 19
 12571                           
 12572                           ;incstack = 0
 12573  00518C  EE13  F084         	lfsr	1,___inthi_sp
 12574                           
 12575                           ;mcc_generated_files/adcc.c: 310:     PIR1bits.ADIF = 0;
 12576  005190  0139               	movlb	57	; () banked
 12577  005192  95A1               	bcf	161,2,b	;volatile
 12578                           
 12579                           ; BSR set to: 57
 12580                           ;mcc_generated_files/adcc.c: 312:     if (ADCC_ADI_InterruptHandler)
 12581  005194  5008               	movf	_ADCC_ADI_InterruptHandler,w,c
 12582  005196  1009               	iorwf	_ADCC_ADI_InterruptHandler+1,w,c
 12583  005198  100A               	iorwf	_ADCC_ADI_InterruptHandler+2,w,c
 12584  00519A  B4D8               	btfsc	status,2,c
 12585  00519C  0011               	retfie		f
 12586                           
 12587                           ; BSR set to: 57
 12588                           ;mcc_generated_files/adcc.c: 313:             ADCC_ADI_InterruptHandler();
 12589  00519E  D801               	call	i2u175_48
 12590  0051A0  0011               	retfie		f
 12591  0051A2                     i2u175_48:
 12592  0051A2  0005               	push	
 12593  0051A4  6EFA               	movwf	pclath,c
 12594  0051A6  5008               	movf	_ADCC_ADI_InterruptHandler,w,c
 12595  0051A8  6EFD               	movwf	tosl,c
 12596  0051AA  5009               	movf	_ADCC_ADI_InterruptHandler+1,w,c
 12597  0051AC  6EFE               	movwf	tosh,c
 12598  0051AE  500A               	movf	_ADCC_ADI_InterruptHandler+2,w,c
 12599  0051B0  6EFF               	movwf	tosu,c
 12600  0051B2  50FA               	movf	pclath,w,c
 12601  0051B4  0012               	return		;indir
 12602  0051B6                     __end_of_ADCC_ISR:
 12603                           	opt callstack 0
 12604                           
 12605 ;; *************** function _ADCC_DefaultInterruptHandler *****************
 12606 ;; Defined at:
 12607 ;;		line 320 in file "mcc_generated_files/adcc.c"
 12608 ;; Parameters:    Size  Location     Type
 12609 ;;		None
 12610 ;; Auto vars:     Size  Location     Type
 12611 ;;		None
 12612 ;; Return value:  Size  Location     Type
 12613 ;;                  1  [STACK] void 
 12614 ;; Registers used:
 12615 ;;		None
 12616 ;; Tracked objects:
 12617 ;;		On entry : 3F/39
 12618 ;;		On exit  : 0/0
 12619 ;;		Unchanged: 0/0
 12620 ;; Data sizes:     COMRAM   BANK0   BANK1   BANK2   BANK3   BANK4   BANK5   BANK6   BANK7   BANK8   BANK9  BANK10  BANK1
      +1  BANK12  BANK13  BANK14  BANK15  BANK16  BANK17  BANK18  BANK19  BANK20  BANK21  BANK22  BANK23  BANK24  BANK25  BANK2
      +6  BANK27  BANK28  BANK29  BANK30  BANK31
 12621 ;;      Params:         0       0       0       0       0       0       0       0       0       0       0       0       
      +0       0       0       0       0       0       0       0       0       0       0       0       0       0       0       
      +0       0       0       0       0       0
 12622 ;;      Locals:         0       0       0       0       0       0       0       0       0       0       0       0       
      +0       0       0       0       0       0       0       0       0       0       0       0       0       0       0       
      +0       0       0       0       0       0
 12623 ;;      Temps:          0       0       0       0       0       0       0       0       0       0       0       0       
      +0       0       0       0       0       0       0       0       0       0       0       0       0       0       0       
      +0       0       0       0       0       0
 12624 ;;      Totals:         0       0       0       0       0       0       0       0       0       0       0       0       
      +0       0       0       0       0       0       0       0       0       0       0       0       0       0       0       
      +0       0       0       0       0       0
 12625 ;;Total ram usage:        0 bytes
 12626 ;; Hardware stack levels used:    1
 12627 ;; This function calls:
 12628 ;;		Nothing
 12629 ;; This function is called by:
 12630 ;;		_ADCC_Initialize
 12631 ;;		_ADCC_ISR
 12632 ;; This function uses a reentrant model
 12633 ;;
 12634                           
 12635                           	psect	text82
 12636  005758                     __ptext82:
 12637                           	opt callstack 0
 12638  005758                     _ADCC_DefaultInterruptHandler:
 12639                           	opt callstack 19
 12640                           
 12641                           ; _ADCC_DefaultInterruptHandler: autosize = 0, savesize = 0, parsavesize = 0, tempsize =
      +                           0 parsize = 0, argsize = 0, vargsize = 0
 12642                           
 12643                           ; autosize = 0, savesize = 0, parsavesize = 0, tempsize = 0 parsize = 0, argsize = 0 var
      +                          gsize = 0, retsize = 0 argfudge = 0
 12644                           ;incstack = 0
 12645  005758  0012               	return		;funcret
 12646  00575A                     __end_of_ADCC_DefaultInterruptHandler:
 12647                           	opt callstack 0
 12648                           
 12649 ;; *************** function _UART1_tx_vect_isr *****************
 12650 ;; Defined at:
 12651 ;;		line 210 in file "mcc_generated_files/uart1.c"
 12652 ;; Parameters:    Size  Location     Type
 12653 ;;		None
 12654 ;; Auto vars:     Size  Location     Type
 12655 ;;		None
 12656 ;; Return value:  Size  Location     Type
 12657 ;;                  1    wreg      void 
 12658 ;; Registers used:
 12659 ;;		wreg, fsr2l, fsr2h, status,2, status,0, pclath, tosl
 12660 ;; Tracked objects:
 12661 ;;		On entry : 0/0
 12662 ;;		On exit  : 0/0
 12663 ;;		Unchanged: 0/0
 12664 ;; Data sizes:     COMRAM   BANK0   BANK1   BANK2   BANK3   BANK4   BANK5   BANK6   BANK7   BANK8   BANK9  BANK10  BANK1
      +1  BANK12  BANK13  BANK14  BANK15  BANK16  BANK17  BANK18  BANK19  BANK20  BANK21  BANK22  BANK23  BANK24  BANK25  BANK2
      +6  BANK27  BANK28  BANK29  BANK30  BANK31
 12665 ;;      Params:         0       0       0       0       0       0       0       0       0       0       0       0       
      +0       0       0       0       0       0       0       0       0       0       0       0       0       0       0       
      +0       0       0       0       0       0
 12666 ;;      Locals:         0       0       0       0       0       0       0       0       0       0       0       0       
      +0       0       0       0       0       0       0       0       0       0       0       0       0       0       0       
      +0       0       0       0       0       0
 12667 ;;      Temps:          0       0       0       0       0       0       0       0       0       0       0       0       
      +0       0       0       0       0       0       0       0       0       0       0       0       0       0       0       
      +0       0       0       0       0       0
 12668 ;;      Totals:         0       0       0       0       0       0       0       0       0       0       0       0       
      +0       0       0       0       0       0       0       0       0       0       0       0       0       0       0       
      +0       0       0       0       0       0
 12669 ;;Total ram usage:        0 bytes
 12670 ;; Hardware stack levels used:    1
 12671 ;; Hardware stack levels required when called:    1
 12672 ;; This function calls:
 12673 ;;		Absolute function
 12674 ;;		_UART1_Transmit_ISR
 12675 ;; This function is called by:
 12676 ;;		Interrupt level 2
 12677 ;; This function uses a non-reentrant model
 12678 ;;
 12679                           
 12680                           	psect	text83
 12681  005410                     __ptext83:
 12682                           	opt callstack 0
 12683  005410                     _UART1_tx_vect_isr:
 12684                           	opt callstack 19
 12685                           
 12686                           ;incstack = 0
 12687  005410  EE13  F084         	lfsr	1,___inthi_sp
 12688                           
 12689                           ;mcc_generated_files/uart1.c: 212:  if (UART1_TxInterruptHandler) {
 12690  005414  500B               	movf	_UART1_TxInterruptHandler,w,c
 12691  005416  100C               	iorwf	_UART1_TxInterruptHandler+1,w,c
 12692  005418  100D               	iorwf	_UART1_TxInterruptHandler+2,w,c
 12693  00541A  B4D8               	btfsc	status,2,c
 12694  00541C  0011               	retfie		f
 12695                           
 12696                           ;mcc_generated_files/uart1.c: 213:   UART1_TxInterruptHandler();
 12697  00541E  D801               	call	i2u357_48
 12698  005420  0011               	retfie		f
 12699  005422                     i2u357_48:
 12700  005422  0005               	push	
 12701  005424  6EFA               	movwf	pclath,c
 12702  005426  500B               	movf	_UART1_TxInterruptHandler,w,c
 12703  005428  6EFD               	movwf	tosl,c
 12704  00542A  500C               	movf	_UART1_TxInterruptHandler+1,w,c
 12705  00542C  6EFE               	movwf	tosh,c
 12706  00542E  500D               	movf	_UART1_TxInterruptHandler+2,w,c
 12707  005430  6EFF               	movwf	tosu,c
 12708  005432  50FA               	movf	pclath,w,c
 12709  005434  0012               	return		;indir
 12710  005436                     __end_of_UART1_tx_vect_isr:
 12711                           	opt callstack 0
 12712                           
 12713 ;; *************** function _UART1_Transmit_ISR *****************
 12714 ;; Defined at:
 12715 ;;		line 224 in file "mcc_generated_files/uart1.c"
 12716 ;; Parameters:    Size  Location     Type
 12717 ;;		None
 12718 ;; Auto vars:     Size  Location     Type
 12719 ;;		None
 12720 ;; Return value:  Size  Location     Type
 12721 ;;                  1  [STACK] void 
 12722 ;; Registers used:
 12723 ;;		wreg, fsr2l, fsr2h, status,2, status,0
 12724 ;; Tracked objects:
 12725 ;;		On entry : 0/0
 12726 ;;		On exit  : 3B/39
 12727 ;;		Unchanged: 0/0
 12728 ;; Data sizes:     COMRAM   BANK0   BANK1   BANK2   BANK3   BANK4   BANK5   BANK6   BANK7   BANK8   BANK9  BANK10  BANK1
      +1  BANK12  BANK13  BANK14  BANK15  BANK16  BANK17  BANK18  BANK19  BANK20  BANK21  BANK22  BANK23  BANK24  BANK25  BANK2
      +6  BANK27  BANK28  BANK29  BANK30  BANK31
 12729 ;;      Params:         0       0       0       0       0       0       0       0       0       0       0       0       
      +0       0       0       0       0       0       0       0       0       0       0       0       0       0       0       
      +0       0       0       0       0       0
 12730 ;;      Locals:         0       0       0       0       0       0       0       0       0       0       0       0       
      +0       0       0       0       0       0       0       0       0       0       0       0       0       0       0       
      +0       0       0       0       0       0
 12731 ;;      Temps:          0       0       0       0       0       0       0       0       0       0       0       0       
      +0       0       0       0       0       0       0       0       0       0       0       0       0       0       0       
      +0       0       0       0       0       0
 12732 ;;      Totals:         0       0       0       0       0       0       0       0       0       0       0       0       
      +0       0       0       0       0       0       0       0       0       0       0       0       0       0       0       
      +0       0       0       0       0       0
 12733 ;;Total ram usage:        0 bytes
 12734 ;; Hardware stack levels used:    1
 12735 ;; This function calls:
 12736 ;;		Nothing
 12737 ;; This function is called by:
 12738 ;;		_UART1_Initialize
 12739 ;;		_UART1_tx_vect_isr
 12740 ;; This function uses a reentrant model
 12741 ;;
 12742                           
 12743                           	psect	text84
 12744  005134                     __ptext84:
 12745                           	opt callstack 0
 12746  005134                     _UART1_Transmit_ISR:
 12747                           	opt callstack 19
 12748                           
 12749                           ;mcc_generated_files/uart1.c: 227:  if (sizeof(uart1TxBuffer) > uart1TxBufferRemaining) 
      +                          {
 12750                           
 12751                           ; autosize = 0, savesize = 0, parsavesize = 0, tempsize = 0 parsize = 0, argsize = 0 var
      +                          gsize = 0, retsize = 0 argfudge = 0
 12752                           ;incstack = 0
 12753  005134  0E40               	movlw	64
 12754  005136  6034               	cpfslt	_uart1TxBufferRemaining,c
 12755  005138  D010               	goto	l597
 12756                           
 12757                           ;mcc_generated_files/uart1.c: 228:   U1TXB = uart1TxBuffer[uart1TxTail++];
 12758  00513A  0E80               	movlw	low _uart1TxBuffer
 12759  00513C  2435               	addwf	_uart1TxTail,w,c	;volatile
 12760  00513E  6ED9               	movwf	fsr2l,c
 12761  005140  6ADA               	clrf	fsr2h,c
 12762  005142  0E01               	movlw	high _uart1TxBuffer
 12763  005144  22DA               	addwfc	fsr2h,f,c
 12764  005146  50DF               	movf	indf2,w,c
 12765  005148  013D               	movlb	61	; () banked
 12766  00514A  6FEA               	movwf	234,b	;volatile
 12767                           
 12768                           ; BSR set to: 61
 12769  00514C  2A35               	incf	_uart1TxTail,f,c	;volatile
 12770                           
 12771                           ; BSR set to: 61
 12772                           ;mcc_generated_files/uart1.c: 229:   if (sizeof(uart1TxBuffer) <= uart1TxTail) {
 12773  00514E  0E3F               	movlw	63
 12774  005150  6435               	cpfsgt	_uart1TxTail,c
 12775  005152  D001               	goto	l5231
 12776                           
 12777                           ; BSR set to: 61
 12778                           ;mcc_generated_files/uart1.c: 230:    uart1TxTail = 0;
 12779  005154  6A35               	clrf	_uart1TxTail,c	;volatile
 12780  005156                     l5231:
 12781                           
 12782                           ; BSR set to: 61
 12783                           ;mcc_generated_files/uart1.c: 232:   uart1TxBufferRemaining++;
 12784  005156  2A34               	incf	_uart1TxBufferRemaining,f,c	;volatile
 12785                           
 12786                           ;mcc_generated_files/uart1.c: 233:  } else {
 12787  005158  0012               	return	
 12788  00515A                     l597:
 12789                           
 12790                           ;mcc_generated_files/uart1.c: 234:   PIE3bits.U1TXIE = 0;
 12791  00515A  0139               	movlb	57	; () banked
 12792  00515C  9993               	bcf	147,4,b	;volatile
 12793                           
 12794                           ; _UART1_Transmit_ISR: autosize = 0, savesize = 0, parsavesize = 0, tempsize = 0 parsize
      +                           = 0, argsize = 0, vargsize = 0
 12795  00515E  0012               	return		;funcret
 12796  005160                     __end_of_UART1_Transmit_ISR:
 12797                           	opt callstack 0
 12798                           
 12799 ;; *************** function _UART1_rx_vect_isr *****************
 12800 ;; Defined at:
 12801 ;;		line 217 in file "mcc_generated_files/uart1.c"
 12802 ;; Parameters:    Size  Location     Type
 12803 ;;		None
 12804 ;; Auto vars:     Size  Location     Type
 12805 ;;		None
 12806 ;; Return value:  Size  Location     Type
 12807 ;;                  1    wreg      void 
 12808 ;; Registers used:
 12809 ;;		wreg, fsr2l, fsr2h, status,2, status,0, pclath, tosl
 12810 ;; Tracked objects:
 12811 ;;		On entry : 0/0
 12812 ;;		On exit  : 0/0
 12813 ;;		Unchanged: 0/0
 12814 ;; Data sizes:     COMRAM   BANK0   BANK1   BANK2   BANK3   BANK4   BANK5   BANK6   BANK7   BANK8   BANK9  BANK10  BANK1
      +1  BANK12  BANK13  BANK14  BANK15  BANK16  BANK17  BANK18  BANK19  BANK20  BANK21  BANK22  BANK23  BANK24  BANK25  BANK2
      +6  BANK27  BANK28  BANK29  BANK30  BANK31
 12815 ;;      Params:         0       0       0       0       0       0       0       0       0       0       0       0       
      +0       0       0       0       0       0       0       0       0       0       0       0       0       0       0       
      +0       0       0       0       0       0
 12816 ;;      Locals:         0       0       0       0       0       0       0       0       0       0       0       0       
      +0       0       0       0       0       0       0       0       0       0       0       0       0       0       0       
      +0       0       0       0       0       0
 12817 ;;      Temps:          0       0       0       0       0       0       0       0       0       0       0       0       
      +0       0       0       0       0       0       0       0       0       0       0       0       0       0       0       
      +0       0       0       0       0       0
 12818 ;;      Totals:         0       0       0       0       0       0       0       0       0       0       0       0       
      +0       0       0       0       0       0       0       0       0       0       0       0       0       0       0       
      +0       0       0       0       0       0
 12819 ;;Total ram usage:        0 bytes
 12820 ;; Hardware stack levels used:    1
 12821 ;; Hardware stack levels required when called:    1
 12822 ;; This function calls:
 12823 ;;		Absolute function
 12824 ;;		_UART1_Receive_ISR
 12825 ;; This function is called by:
 12826 ;;		Interrupt level 2
 12827 ;; This function uses a non-reentrant model
 12828 ;;
 12829                           
 12830                           	psect	text85
 12831  005438                     __ptext85:
 12832                           	opt callstack 0
 12833  005438                     _UART1_rx_vect_isr:
 12834                           	opt callstack 19
 12835                           
 12836                           ;incstack = 0
 12837  005438  EE13  F084         	lfsr	1,___inthi_sp
 12838                           
 12839                           ;mcc_generated_files/uart1.c: 219:  if (UART1_RxInterruptHandler) {
 12840  00543C  500E               	movf	_UART1_RxInterruptHandler,w,c
 12841  00543E  100F               	iorwf	_UART1_RxInterruptHandler+1,w,c
 12842  005440  1010               	iorwf	_UART1_RxInterruptHandler+2,w,c
 12843  005442  B4D8               	btfsc	status,2,c
 12844  005444  0011               	retfie		f
 12845                           
 12846                           ;mcc_generated_files/uart1.c: 220:   UART1_RxInterruptHandler();
 12847  005446  D801               	call	i2u359_48
 12848  005448  0011               	retfie		f
 12849  00544A                     i2u359_48:
 12850  00544A  0005               	push	
 12851  00544C  6EFA               	movwf	pclath,c
 12852  00544E  500E               	movf	_UART1_RxInterruptHandler,w,c
 12853  005450  6EFD               	movwf	tosl,c
 12854  005452  500F               	movf	_UART1_RxInterruptHandler+1,w,c
 12855  005454  6EFE               	movwf	tosh,c
 12856  005456  5010               	movf	_UART1_RxInterruptHandler+2,w,c
 12857  005458  6EFF               	movwf	tosu,c
 12858  00545A  50FA               	movf	pclath,w,c
 12859  00545C  0012               	return		;indir
 12860  00545E                     __end_of_UART1_rx_vect_isr:
 12861                           	opt callstack 0
 12862                           
 12863 ;; *************** function _UART1_Receive_ISR *****************
 12864 ;; Defined at:
 12865 ;;		line 240 in file "mcc_generated_files/uart1.c"
 12866 ;; Parameters:    Size  Location     Type
 12867 ;;		None
 12868 ;; Auto vars:     Size  Location     Type
 12869 ;;		None
 12870 ;; Return value:  Size  Location     Type
 12871 ;;                  1  [STACK] void 
 12872 ;; Registers used:
 12873 ;;		wreg, fsr2l, fsr2h, status,2, status,0
 12874 ;; Tracked objects:
 12875 ;;		On entry : 0/0
 12876 ;;		On exit  : 0/0
 12877 ;;		Unchanged: 0/0
 12878 ;; Data sizes:     COMRAM   BANK0   BANK1   BANK2   BANK3   BANK4   BANK5   BANK6   BANK7   BANK8   BANK9  BANK10  BANK1
      +1  BANK12  BANK13  BANK14  BANK15  BANK16  BANK17  BANK18  BANK19  BANK20  BANK21  BANK22  BANK23  BANK24  BANK25  BANK2
      +6  BANK27  BANK28  BANK29  BANK30  BANK31
 12879 ;;      Params:         0       0       0       0       0       0       0       0       0       0       0       0       
      +0       0       0       0       0       0       0       0       0       0       0       0       0       0       0       
      +0       0       0       0       0       0
 12880 ;;      Locals:         0       0       0       0       0       0       0       0       0       0       0       0       
      +0       0       0       0       0       0       0       0       0       0       0       0       0       0       0       
      +0       0       0       0       0       0
 12881 ;;      Temps:          0       0       0       0       0       0       0       0       0       0       0       0       
      +0       0       0       0       0       0       0       0       0       0       0       0       0       0       0       
      +0       0       0       0       0       0
 12882 ;;      Totals:         0       0       0       0       0       0       0       0       0       0       0       0       
      +0       0       0       0       0       0       0       0       0       0       0       0       0       0       0       
      +0       0       0       0       0       0
 12883 ;;Total ram usage:        0 bytes
 12884 ;; Hardware stack levels used:    1
 12885 ;; This function calls:
 12886 ;;		Nothing
 12887 ;; This function is called by:
 12888 ;;		_UART1_Initialize
 12889 ;;		_UART1_rx_vect_isr
 12890 ;; This function uses a reentrant model
 12891 ;;
 12892                           
 12893                           	psect	text86
 12894  0055A2                     __ptext86:
 12895                           	opt callstack 0
 12896  0055A2                     _UART1_Receive_ISR:
 12897                           	opt callstack 19
 12898                           
 12899                           ;mcc_generated_files/uart1.c: 243:  uart1RxBuffer[uart1RxHead++] = U1RXB;
 12900                           
 12901                           ; autosize = 0, savesize = 0, parsavesize = 0, tempsize = 0 parsize = 0, argsize = 0 var
      +                          gsize = 0, retsize = 0 argfudge = 0
 12902                           ;incstack = 0
 12903  0055A2  0E40               	movlw	low _uart1RxBuffer
 12904  0055A4  2433               	addwf	_uart1RxHead,w,c	;volatile
 12905  0055A6  6ED9               	movwf	fsr2l,c
 12906  0055A8  6ADA               	clrf	fsr2h,c
 12907  0055AA  0E01               	movlw	high _uart1RxBuffer
 12908  0055AC  22DA               	addwfc	fsr2h,f,c
 12909  0055AE  006F F7A3 FFDF     	movff	15848,indf2	;volatile
 12910  0055B4  2A33               	incf	_uart1RxHead,f,c	;volatile
 12911                           
 12912                           ;mcc_generated_files/uart1.c: 244:  if (sizeof(uart1RxBuffer) <= uart1RxHead) {
 12913  0055B6  0E3F               	movlw	63
 12914  0055B8  6433               	cpfsgt	_uart1RxHead,c
 12915  0055BA  D001               	goto	l5241
 12916                           
 12917                           ;mcc_generated_files/uart1.c: 245:   uart1RxHead = 0;
 12918  0055BC  6A33               	clrf	_uart1RxHead,c	;volatile
 12919  0055BE                     l5241:
 12920                           
 12921                           ;mcc_generated_files/uart1.c: 247:  uart1RxCount++;
 12922  0055BE  2A31               	incf	_uart1RxCount,f,c	;volatile
 12923                           
 12924                           ; _UART1_Receive_ISR: autosize = 0, savesize = 0, parsavesize = 0, tempsize = 0 parsize 
      +                          = 0, argsize = 0, vargsize = 0
 12925  0055C0  0012               	return		;funcret
 12926  0055C2                     __end_of_UART1_Receive_ISR:
 12927                           	opt callstack 0
 12928                           
 12929 ;; *************** function _UART2_tx_vect_isr *****************
 12930 ;; Defined at:
 12931 ;;		line 195 in file "mcc_generated_files/uart2.c"
 12932 ;; Parameters:    Size  Location     Type
 12933 ;;		None
 12934 ;; Auto vars:     Size  Location     Type
 12935 ;;		None
 12936 ;; Return value:  Size  Location     Type
 12937 ;;                  1    wreg      void 
 12938 ;; Registers used:
 12939 ;;		wreg, fsr2l, fsr2h, status,2, status,0, pclath, tosl
 12940 ;; Tracked objects:
 12941 ;;		On entry : 0/0
 12942 ;;		On exit  : 0/0
 12943 ;;		Unchanged: 0/0
 12944 ;; Data sizes:     COMRAM   BANK0   BANK1   BANK2   BANK3   BANK4   BANK5   BANK6   BANK7   BANK8   BANK9  BANK10  BANK1
      +1  BANK12  BANK13  BANK14  BANK15  BANK16  BANK17  BANK18  BANK19  BANK20  BANK21  BANK22  BANK23  BANK24  BANK25  BANK2
      +6  BANK27  BANK28  BANK29  BANK30  BANK31
 12945 ;;      Params:         0       0       0       0       0       0       0       0       0       0       0       0       
      +0       0       0       0       0       0       0       0       0       0       0       0       0       0       0       
      +0       0       0       0       0       0
 12946 ;;      Locals:         0       0       0       0       0       0       0       0       0       0       0       0       
      +0       0       0       0       0       0       0       0       0       0       0       0       0       0       0       
      +0       0       0       0       0       0
 12947 ;;      Temps:          0       0       0       0       0       0       0       0       0       0       0       0       
      +0       0       0       0       0       0       0       0       0       0       0       0       0       0       0       
      +0       0       0       0       0       0
 12948 ;;      Totals:         0       0       0       0       0       0       0       0       0       0       0       0       
      +0       0       0       0       0       0       0       0       0       0       0       0       0       0       0       
      +0       0       0       0       0       0
 12949 ;;Total ram usage:        0 bytes
 12950 ;; Hardware stack levels used:    1
 12951 ;; Hardware stack levels required when called:    1
 12952 ;; This function calls:
 12953 ;;		Absolute function
 12954 ;;		_UART2_Transmit_ISR
 12955 ;; This function is called by:
 12956 ;;		Interrupt level 2
 12957 ;; This function uses a non-reentrant model
 12958 ;;
 12959                           
 12960                           	psect	text87
 12961  005460                     __ptext87:
 12962                           	opt callstack 0
 12963  005460                     _UART2_tx_vect_isr:
 12964                           	opt callstack 19
 12965                           
 12966                           ;incstack = 0
 12967  005460  EE13  F084         	lfsr	1,___inthi_sp
 12968                           
 12969                           ;mcc_generated_files/uart2.c: 197:     if(UART2_TxInterruptHandler)
 12970  005464  5011               	movf	_UART2_TxInterruptHandler,w,c
 12971  005466  1012               	iorwf	_UART2_TxInterruptHandler+1,w,c
 12972  005468  1013               	iorwf	_UART2_TxInterruptHandler+2,w,c
 12973  00546A  B4D8               	btfsc	status,2,c
 12974  00546C  0011               	retfie		f
 12975                           
 12976                           ;mcc_generated_files/uart2.c: 198:     {;mcc_generated_files/uart2.c: 199:         UART2
      +                          _TxInterruptHandler();
 12977  00546E  D801               	call	i2u361_48
 12978  005470  0011               	retfie		f
 12979  005472                     i2u361_48:
 12980  005472  0005               	push	
 12981  005474  6EFA               	movwf	pclath,c
 12982  005476  5011               	movf	_UART2_TxInterruptHandler,w,c
 12983  005478  6EFD               	movwf	tosl,c
 12984  00547A  5012               	movf	_UART2_TxInterruptHandler+1,w,c
 12985  00547C  6EFE               	movwf	tosh,c
 12986  00547E  5013               	movf	_UART2_TxInterruptHandler+2,w,c
 12987  005480  6EFF               	movwf	tosu,c
 12988  005482  50FA               	movf	pclath,w,c
 12989  005484  0012               	return		;indir
 12990  005486                     __end_of_UART2_tx_vect_isr:
 12991                           	opt callstack 0
 12992                           
 12993 ;; *************** function _UART2_Transmit_ISR *****************
 12994 ;; Defined at:
 12995 ;;		line 213 in file "mcc_generated_files/uart2.c"
 12996 ;; Parameters:    Size  Location     Type
 12997 ;;		None
 12998 ;; Auto vars:     Size  Location     Type
 12999 ;;		None
 13000 ;; Return value:  Size  Location     Type
 13001 ;;                  1  [STACK] void 
 13002 ;; Registers used:
 13003 ;;		wreg, fsr2l, fsr2h, status,2, status,0
 13004 ;; Tracked objects:
 13005 ;;		On entry : 0/0
 13006 ;;		On exit  : 3B/39
 13007 ;;		Unchanged: 0/0
 13008 ;; Data sizes:     COMRAM   BANK0   BANK1   BANK2   BANK3   BANK4   BANK5   BANK6   BANK7   BANK8   BANK9  BANK10  BANK1
      +1  BANK12  BANK13  BANK14  BANK15  BANK16  BANK17  BANK18  BANK19  BANK20  BANK21  BANK22  BANK23  BANK24  BANK25  BANK2
      +6  BANK27  BANK28  BANK29  BANK30  BANK31
 13009 ;;      Params:         0       0       0       0       0       0       0       0       0       0       0       0       
      +0       0       0       0       0       0       0       0       0       0       0       0       0       0       0       
      +0       0       0       0       0       0
 13010 ;;      Locals:         0       0       0       0       0       0       0       0       0       0       0       0       
      +0       0       0       0       0       0       0       0       0       0       0       0       0       0       0       
      +0       0       0       0       0       0
 13011 ;;      Temps:          0       0       0       0       0       0       0       0       0       0       0       0       
      +0       0       0       0       0       0       0       0       0       0       0       0       0       0       0       
      +0       0       0       0       0       0
 13012 ;;      Totals:         0       0       0       0       0       0       0       0       0       0       0       0       
      +0       0       0       0       0       0       0       0       0       0       0       0       0       0       0       
      +0       0       0       0       0       0
 13013 ;;Total ram usage:        0 bytes
 13014 ;; Hardware stack levels used:    1
 13015 ;; This function calls:
 13016 ;;		Nothing
 13017 ;; This function is called by:
 13018 ;;		_UART2_Initialize
 13019 ;;		_UART2_tx_vect_isr
 13020 ;; This function uses a reentrant model
 13021 ;;
 13022                           
 13023                           	psect	text88
 13024  005160                     __ptext88:
 13025                           	opt callstack 0
 13026  005160                     _UART2_Transmit_ISR:
 13027                           	opt callstack 19
 13028                           
 13029                           ;mcc_generated_files/uart2.c: 216:     if(sizeof(uart2TxBuffer) > uart2TxBufferRemaining
      +                          )
 13030                           
 13031                           ; autosize = 0, savesize = 0, parsavesize = 0, tempsize = 0 parsize = 0, argsize = 0 var
      +                          gsize = 0, retsize = 0 argfudge = 0
 13032                           ;incstack = 0
 13033  005160  0E40               	movlw	64
 13034  005162  602E               	cpfslt	_uart2TxBufferRemaining,c
 13035  005164  D010               	goto	l713
 13036                           
 13037                           ;mcc_generated_files/uart2.c: 217:     {;mcc_generated_files/uart2.c: 218:         U2TXB
      +                           = uart2TxBuffer[uart2TxTail++];
 13038  005166  0E00               	movlw	low _uart2TxBuffer
 13039  005168  242F               	addwf	_uart2TxTail,w,c	;volatile
 13040  00516A  6ED9               	movwf	fsr2l,c
 13041  00516C  6ADA               	clrf	fsr2h,c
 13042  00516E  0E01               	movlw	high _uart2TxBuffer
 13043  005170  22DA               	addwfc	fsr2h,f,c
 13044  005172  50DF               	movf	indf2,w,c
 13045  005174  013D               	movlb	61	; () banked
 13046  005176  6FD2               	movwf	210,b	;volatile
 13047                           
 13048                           ; BSR set to: 61
 13049  005178  2A2F               	incf	_uart2TxTail,f,c	;volatile
 13050                           
 13051                           ; BSR set to: 61
 13052                           ;mcc_generated_files/uart2.c: 219:        if(sizeof(uart2TxBuffer) <= uart2TxTail)
 13053  00517A  0E3F               	movlw	63
 13054  00517C  642F               	cpfsgt	_uart2TxTail,c
 13055  00517E  D001               	goto	l5253
 13056                           
 13057                           ; BSR set to: 61
 13058                           ;mcc_generated_files/uart2.c: 220:         {;mcc_generated_files/uart2.c: 221:          
      +                             uart2TxTail = 0;
 13059  005180  6A2F               	clrf	_uart2TxTail,c	;volatile
 13060  005182                     l5253:
 13061                           
 13062                           ; BSR set to: 61
 13063                           ;mcc_generated_files/uart2.c: 223:         uart2TxBufferRemaining++;
 13064  005182  2A2E               	incf	_uart2TxBufferRemaining,f,c	;volatile
 13065                           
 13066                           ;mcc_generated_files/uart2.c: 224:     }
 13067  005184  0012               	return	
 13068  005186                     l713:
 13069                           
 13070                           ;mcc_generated_files/uart2.c: 226:     {;mcc_generated_files/uart2.c: 227:         PIE6b
      +                          its.U2TXIE = 0;
 13071  005186  0139               	movlb	57	; () banked
 13072  005188  9796               	bcf	150,3,b	;volatile
 13073                           
 13074                           ; _UART2_Transmit_ISR: autosize = 0, savesize = 0, parsavesize = 0, tempsize = 0 parsize
      +                           = 0, argsize = 0, vargsize = 0
 13075  00518A  0012               	return		;funcret
 13076  00518C                     __end_of_UART2_Transmit_ISR:
 13077                           	opt callstack 0
 13078                           
 13079 ;; *************** function _UART2_rx_vect_isr *****************
 13080 ;; Defined at:
 13081 ;;		line 203 in file "mcc_generated_files/uart2.c"
 13082 ;; Parameters:    Size  Location     Type
 13083 ;;		None
 13084 ;; Auto vars:     Size  Location     Type
 13085 ;;		None
 13086 ;; Return value:  Size  Location     Type
 13087 ;;                  1    wreg      void 
 13088 ;; Registers used:
 13089 ;;		wreg, fsr2l, fsr2h, status,2, status,0, pclath, tosl
 13090 ;; Tracked objects:
 13091 ;;		On entry : 0/0
 13092 ;;		On exit  : 0/0
 13093 ;;		Unchanged: 0/0
 13094 ;; Data sizes:     COMRAM   BANK0   BANK1   BANK2   BANK3   BANK4   BANK5   BANK6   BANK7   BANK8   BANK9  BANK10  BANK1
      +1  BANK12  BANK13  BANK14  BANK15  BANK16  BANK17  BANK18  BANK19  BANK20  BANK21  BANK22  BANK23  BANK24  BANK25  BANK2
      +6  BANK27  BANK28  BANK29  BANK30  BANK31
 13095 ;;      Params:         0       0       0       0       0       0       0       0       0       0       0       0       
      +0       0       0       0       0       0       0       0       0       0       0       0       0       0       0       
      +0       0       0       0       0       0
 13096 ;;      Locals:         0       0       0       0       0       0       0       0       0       0       0       0       
      +0       0       0       0       0       0       0       0       0       0       0       0       0       0       0       
      +0       0       0       0       0       0
 13097 ;;      Temps:          0       0       0       0       0       0       0       0       0       0       0       0       
      +0       0       0       0       0       0       0       0       0       0       0       0       0       0       0       
      +0       0       0       0       0       0
 13098 ;;      Totals:         0       0       0       0       0       0       0       0       0       0       0       0       
      +0       0       0       0       0       0       0       0       0       0       0       0       0       0       0       
      +0       0       0       0       0       0
 13099 ;;Total ram usage:        0 bytes
 13100 ;; Hardware stack levels used:    1
 13101 ;; Hardware stack levels required when called:    1
 13102 ;; This function calls:
 13103 ;;		Absolute function
 13104 ;;		_UART2_Receive_ISR
 13105 ;; This function is called by:
 13106 ;;		Interrupt level 2
 13107 ;; This function uses a non-reentrant model
 13108 ;;
 13109                           
 13110                           	psect	text89
 13111  005488                     __ptext89:
 13112                           	opt callstack 0
 13113  005488                     _UART2_rx_vect_isr:
 13114                           	opt callstack 19
 13115                           
 13116                           ;incstack = 0
 13117  005488  EE13  F084         	lfsr	1,___inthi_sp
 13118                           
 13119                           ;mcc_generated_files/uart2.c: 205:     if(UART2_RxInterruptHandler)
 13120  00548C  5014               	movf	_UART2_RxInterruptHandler,w,c
 13121  00548E  1015               	iorwf	_UART2_RxInterruptHandler+1,w,c
 13122  005490  1016               	iorwf	_UART2_RxInterruptHandler+2,w,c
 13123  005492  B4D8               	btfsc	status,2,c
 13124  005494  0011               	retfie		f
 13125                           
 13126                           ;mcc_generated_files/uart2.c: 206:     {;mcc_generated_files/uart2.c: 207:         UART2
      +                          _RxInterruptHandler();
 13127  005496  D801               	call	i2u363_48
 13128  005498  0011               	retfie		f
 13129  00549A                     i2u363_48:
 13130  00549A  0005               	push	
 13131  00549C  6EFA               	movwf	pclath,c
 13132  00549E  5014               	movf	_UART2_RxInterruptHandler,w,c
 13133  0054A0  6EFD               	movwf	tosl,c
 13134  0054A2  5015               	movf	_UART2_RxInterruptHandler+1,w,c
 13135  0054A4  6EFE               	movwf	tosh,c
 13136  0054A6  5016               	movf	_UART2_RxInterruptHandler+2,w,c
 13137  0054A8  6EFF               	movwf	tosu,c
 13138  0054AA  50FA               	movf	pclath,w,c
 13139  0054AC  0012               	return		;indir
 13140  0054AE                     __end_of_UART2_rx_vect_isr:
 13141                           	opt callstack 0
 13142                           
 13143 ;; *************** function _UART2_Receive_ISR *****************
 13144 ;; Defined at:
 13145 ;;		line 233 in file "mcc_generated_files/uart2.c"
 13146 ;; Parameters:    Size  Location     Type
 13147 ;;		None
 13148 ;; Auto vars:     Size  Location     Type
 13149 ;;		None
 13150 ;; Return value:  Size  Location     Type
 13151 ;;                  1  [STACK] void 
 13152 ;; Registers used:
 13153 ;;		wreg, fsr2l, fsr2h, status,2, status,0
 13154 ;; Tracked objects:
 13155 ;;		On entry : 0/0
 13156 ;;		On exit  : 0/0
 13157 ;;		Unchanged: 0/0
 13158 ;; Data sizes:     COMRAM   BANK0   BANK1   BANK2   BANK3   BANK4   BANK5   BANK6   BANK7   BANK8   BANK9  BANK10  BANK1
      +1  BANK12  BANK13  BANK14  BANK15  BANK16  BANK17  BANK18  BANK19  BANK20  BANK21  BANK22  BANK23  BANK24  BANK25  BANK2
      +6  BANK27  BANK28  BANK29  BANK30  BANK31
 13159 ;;      Params:         0       0       0       0       0       0       0       0       0       0       0       0       
      +0       0       0       0       0       0       0       0       0       0       0       0       0       0       0       
      +0       0       0       0       0       0
 13160 ;;      Locals:         0       0       0       0       0       0       0       0       0       0       0       0       
      +0       0       0       0       0       0       0       0       0       0       0       0       0       0       0       
      +0       0       0       0       0       0
 13161 ;;      Temps:          0       0       0       0       0       0       0       0       0       0       0       0       
      +0       0       0       0       0       0       0       0       0       0       0       0       0       0       0       
      +0       0       0       0       0       0
 13162 ;;      Totals:         0       0       0       0       0       0       0       0       0       0       0       0       
      +0       0       0       0       0       0       0       0       0       0       0       0       0       0       0       
      +0       0       0       0       0       0
 13163 ;;Total ram usage:        0 bytes
 13164 ;; Hardware stack levels used:    1
 13165 ;; This function calls:
 13166 ;;		Nothing
 13167 ;; This function is called by:
 13168 ;;		_UART2_Initialize
 13169 ;;		_UART2_rx_vect_isr
 13170 ;; This function uses a reentrant model
 13171 ;;
 13172                           
 13173                           	psect	text90
 13174  0055C2                     __ptext90:
 13175                           	opt callstack 0
 13176  0055C2                     _UART2_Receive_ISR:
 13177                           	opt callstack 19
 13178                           
 13179                           ;mcc_generated_files/uart2.c: 236:     uart2RxBuffer[uart2RxHead++] = U2RXB;
 13180                           
 13181                           ; autosize = 0, savesize = 0, parsavesize = 0, tempsize = 0 parsize = 0, argsize = 0 var
      +                          gsize = 0, retsize = 0 argfudge = 0
 13182                           ;incstack = 0
 13183  0055C2  0E00               	movlw	low _uart2RxBuffer
 13184  0055C4  242D               	addwf	_uart2RxHead,w,c	;volatile
 13185  0055C6  6ED9               	movwf	fsr2l,c
 13186  0055C8  6ADA               	clrf	fsr2h,c
 13187  0055CA  0E02               	movlw	high _uart2RxBuffer
 13188  0055CC  22DA               	addwfc	fsr2h,f,c
 13189  0055CE  006F F743 FFDF     	movff	15824,indf2	;volatile
 13190  0055D4  2A2D               	incf	_uart2RxHead,f,c	;volatile
 13191                           
 13192                           ;mcc_generated_files/uart2.c: 237:     if(sizeof(uart2RxBuffer) <= uart2RxHead)
 13193  0055D6  0E3F               	movlw	63
 13194  0055D8  642D               	cpfsgt	_uart2RxHead,c
 13195  0055DA  D001               	goto	l5263
 13196                           
 13197                           ;mcc_generated_files/uart2.c: 238:     {;mcc_generated_files/uart2.c: 239:         uart2
      +                          RxHead = 0;
 13198  0055DC  6A2D               	clrf	_uart2RxHead,c	;volatile
 13199  0055DE                     l5263:
 13200                           
 13201                           ;mcc_generated_files/uart2.c: 241:     uart2RxCount++;
 13202  0055DE  2A2B               	incf	_uart2RxCount,f,c	;volatile
 13203                           
 13204                           ; _UART2_Receive_ISR: autosize = 0, savesize = 0, parsavesize = 0, tempsize = 0 parsize 
      +                          = 0, argsize = 0, vargsize = 0
 13205  0055E0  0012               	return		;funcret
 13206  0055E2                     __end_of_UART2_Receive_ISR:
 13207                           	opt callstack 0
 13208                           
 13209 ;; *************** function _TMR6_ISR *****************
 13210 ;; Defined at:
 13211 ;;		line 171 in file "mcc_generated_files/tmr6.c"
 13212 ;; Parameters:    Size  Location     Type
 13213 ;;		None
 13214 ;; Auto vars:     Size  Location     Type
 13215 ;;		None
 13216 ;; Return value:  Size  Location     Type
 13217 ;;                  1    wreg      void 
 13218 ;; Registers used:
 13219 ;;		wreg, fsr1l, fsr1h, fsr2l, fsr2h, status,2, status,0, pclath, btemp, btemp+11, tosl, prodl, prodh
 13220 ;; Tracked objects:
 13221 ;;		On entry : 0/0
 13222 ;;		On exit  : 0/0
 13223 ;;		Unchanged: 0/0
 13224 ;; Data sizes:     COMRAM   BANK0   BANK1   BANK2   BANK3   BANK4   BANK5   BANK6   BANK7   BANK8   BANK9  BANK10  BANK1
      +1  BANK12  BANK13  BANK14  BANK15  BANK16  BANK17  BANK18  BANK19  BANK20  BANK21  BANK22  BANK23  BANK24  BANK25  BANK2
      +6  BANK27  BANK28  BANK29  BANK30  BANK31
 13225 ;;      Params:         0       0       0       0       0       0       0       0       0       0       0       0       
      +0       0       0       0       0       0       0       0       0       0       0       0       0       0       0       
      +0       0       0       0       0       0
 13226 ;;      Locals:         0       0       0       0       0       0       0       0       0       0       0       0       
      +0       0       0       0       0       0       0       0       0       0       0       0       0       0       0       
      +0       0       0       0       0       0
 13227 ;;      Temps:          2       0       0       0       0       0       0       0       0       0       0       0       
      +0       0       0       0       0       0       0       0       0       0       0       0       0       0       0       
      +0       0       0       0       0       0
 13228 ;;      Totals:         2       0       0       0       0       0       0       0       0       0       0       0       
      +0       0       0       0       0       0       0       0       0       0       0       0       0       0       0       
      +0       0       0       0       0       0
 13229 ;;Total ram usage:        2 bytes
 13230 ;; Hardware stack levels used:    1
 13231 ;; Hardware stack levels required when called:    2
 13232 ;; This function calls:
 13233 ;;		_TMR6_CallBack
 13234 ;; This function is called by:
 13235 ;;		Interrupt level 2
 13236 ;; This function uses a non-reentrant model
 13237 ;;
 13238                           
 13239                           	psect	text91
 13240  0054B0                     __ptext91:
 13241                           	opt callstack 0
 13242  0054B0                     _TMR6_ISR:
 13243                           	opt callstack 18
 13244                           
 13245                           ;incstack = 0
 13246  0054B0  0060  F0DC  F05E   	movff	btemp,??_TMR6_ISR
 13247  0054B6  0060  F108  F05F   	movff	btemp+11,??_TMR6_ISR+1
 13248  0054BC  EE13  F084         	lfsr	1,___inthi_sp
 13249                           
 13250                           ;mcc_generated_files/tmr6.c: 175:  PIR9bits.TMR6IF = 0;
 13251  0054C0  0139               	movlb	57	; () banked
 13252  0054C2  91A9               	bcf	169,0,b	;volatile
 13253                           
 13254                           ; BSR set to: 57
 13255                           ;mcc_generated_files/tmr6.c: 179:  TMR6_CallBack();
 13256  0054C4  ECC0  F02A         	call	_TMR6_CallBack	;wreg free
 13257  0054C8  0060  F17C  F042   	movff	??_TMR6_ISR+1,btemp+11
 13258  0054CE  0060  F178  F037   	movff	??_TMR6_ISR,btemp
 13259  0054D4  0011               	retfie		f
 13260  0054D6                     __end_of_TMR6_ISR:
 13261                           	opt callstack 0
 13262                           
 13263 ;; *************** function _TMR6_CallBack *****************
 13264 ;; Defined at:
 13265 ;;		line 182 in file "mcc_generated_files/tmr6.c"
 13266 ;; Parameters:    Size  Location     Type
 13267 ;;		None
 13268 ;; Auto vars:     Size  Location     Type
 13269 ;;		None
 13270 ;; Return value:  Size  Location     Type
 13271 ;;                  1  [STACK] void 
 13272 ;; Registers used:
 13273 ;;		wreg, fsr1l, fsr1h, fsr2l, fsr2h, status,2, status,0, pclath, btemp, btemp+11, tosl, prodl, prodh
 13274 ;; Tracked objects:
 13275 ;;		On entry : 3F/39
 13276 ;;		On exit  : 0/0
 13277 ;;		Unchanged: 0/0
 13278 ;; Data sizes:     COMRAM   BANK0   BANK1   BANK2   BANK3   BANK4   BANK5   BANK6   BANK7   BANK8   BANK9  BANK10  BANK1
      +1  BANK12  BANK13  BANK14  BANK15  BANK16  BANK17  BANK18  BANK19  BANK20  BANK21  BANK22  BANK23  BANK24  BANK25  BANK2
      +6  BANK27  BANK28  BANK29  BANK30  BANK31
 13279 ;;      Params:         0       0       0       0       0       0       0       0       0       0       0       0       
      +0       0       0       0       0       0       0       0       0       0       0       0       0       0       0       
      +0       0       0       0       0       0
 13280 ;;      Locals:         0       0       0       0       0       0       0       0       0       0       0       0       
      +0       0       0       0       0       0       0       0       0       0       0       0       0       0       0       
      +0       0       0       0       0       0
 13281 ;;      Temps:          0       0       0       0       0       0       0       0       0       0       0       0       
      +0       0       0       0       0       0       0       0       0       0       0       0       0       0       0       
      +0       0       0       0       0       0
 13282 ;;      Totals:         0       0       0       0       0       0       0       0       0       0       0       0       
      +0       0       0       0       0       0       0       0       0       0       0       0       0       0       0       
      +0       0       0       0       0       0
 13283 ;;Total ram usage:        0 bytes
 13284 ;; Hardware stack levels used:    1
 13285 ;; Hardware stack levels required when called:    1
 13286 ;; This function calls:
 13287 ;;		Absolute function
 13288 ;;		_TMR6_DefaultInterruptHandler
 13289 ;; This function is called by:
 13290 ;;		_TMR6_ISR
 13291 ;; This function uses a reentrant model
 13292 ;;
 13293                           
 13294                           	psect	text92
 13295  005580                     __ptext92:
 13296                           	opt callstack 0
 13297  005580                     _TMR6_CallBack:
 13298                           	opt callstack 18
 13299                           
 13300                           ;mcc_generated_files/tmr6.c: 186:  if (TMR6_InterruptHandler) {
 13301                           
 13302                           ; autosize = 0, savesize = 0, parsavesize = 0, tempsize = 0 parsize = 0, argsize = 0 var
      +                          gsize = 0, retsize = 0 argfudge = 0
 13303                           ;incstack = 0
 13304  005580  5005               	movf	_TMR6_InterruptHandler,w,c
 13305  005582  1006               	iorwf	_TMR6_InterruptHandler+1,w,c
 13306  005584  1007               	iorwf	_TMR6_InterruptHandler+2,w,c
 13307  005586  B4D8               	btfsc	status,2,c
 13308  005588  0012               	return	
 13309                           
 13310                           ;mcc_generated_files/tmr6.c: 187:   TMR6_InterruptHandler();
 13311  00558A  D801               	call	u332_48
 13312  00558C  0012               	return	
 13313  00558E                     u332_48:
 13314  00558E  0005               	push	
 13315  005590  6EFA               	movwf	pclath,c
 13316  005592  5005               	movf	_TMR6_InterruptHandler,w,c
 13317  005594  6EFD               	movwf	tosl,c
 13318  005596  5006               	movf	_TMR6_InterruptHandler+1,w,c
 13319  005598  6EFE               	movwf	tosh,c
 13320  00559A  5007               	movf	_TMR6_InterruptHandler+2,w,c
 13321  00559C  6EFF               	movwf	tosu,c
 13322  00559E  50FA               	movf	pclath,w,c
 13323  0055A0  0012               	return		;indir
 13324  0055A2                     __end_of_TMR6_CallBack:
 13325                           	opt callstack 0
 13326                           
 13327 ;; *************** function _TMR6_DefaultInterruptHandler *****************
 13328 ;; Defined at:
 13329 ;;		line 196 in file "mcc_generated_files/tmr6.c"
 13330 ;; Parameters:    Size  Location     Type
 13331 ;;		None
 13332 ;; Auto vars:     Size  Location     Type
 13333 ;;  i               1  [STACK] unsigned char 
 13334 ;; Return value:  Size  Location     Type
 13335 ;;                  1  [STACK] void 
 13336 ;; Registers used:
 13337 ;;		wreg, fsr1l, fsr1h, fsr2l, fsr2h, status,2, status,0, btemp, btemp+11, prodl, prodh
 13338 ;; Tracked objects:
 13339 ;;		On entry : 0/39
 13340 ;;		On exit  : 0/0
 13341 ;;		Unchanged: 0/0
 13342 ;; Data sizes:     COMRAM   BANK0   BANK1   BANK2   BANK3   BANK4   BANK5   BANK6   BANK7   BANK8   BANK9  BANK10  BANK1
      +1  BANK12  BANK13  BANK14  BANK15  BANK16  BANK17  BANK18  BANK19  BANK20  BANK21  BANK22  BANK23  BANK24  BANK25  BANK2
      +6  BANK27  BANK28  BANK29  BANK30  BANK31
 13343 ;;      Params:         0       0       0       0       0       0       0       0       0       0       0       0       
      +0       0       0       0       0       0       0       0       0       0       0       0       0       0       0       
      +0       0       0       0       0       0
 13344 ;;      Locals:         0       0       0       0       0       0       0       0       0       0       0       0       
      +0       0       0       0       0       0       0       0       0       0       0       0       0       0       0       
      +0       0       0       0       0       0
 13345 ;;      Temps:          0       0       0       0       0       0       0       0       0       0       0       0       
      +0       0       0       0       0       0       0       0       0       0       0       0       0       0       0       
      +0       0       0       0       0       0
 13346 ;;      Totals:         0       0       0       0       0       0       0       0       0       0       0       0       
      +0       0       0       0       0       0       0       0       0       0       0       0       0       0       0       
      +0       0       0       0       0       0
 13347 ;;Total ram usage:        0 bytes
 13348 ;; Hardware stack levels used:    1
 13349 ;; This function calls:
 13350 ;;		Nothing
 13351 ;; This function is called by:
 13352 ;;		_TMR6_Initialize
 13353 ;;		_TMR6_CallBack
 13354 ;; This function uses a reentrant model
 13355 ;;
 13356                           
 13357                           	psect	text93
 13358  004D86                     __ptext93:
 13359                           	opt callstack 0
 13360  004D86                     _TMR6_DefaultInterruptHandler:
 13361                           	opt callstack 0
 13362                           
 13363                           ; autosize = 1, savesize = 0, parsavesize = 0, tempsize = 0 parsize = 0, argsize = 0 var
      +                          gsize = 0, retsize = 0 argfudge = 0
 13364  004D86  52E6               	movf	postinc1,f,c
 13365                           
 13366                           ;mcc_generated_files/tmr6.c: 198:  uint8_t i;;mcc_generated_files/tmr6.c: 201:  LATEbits
      +                          .LATE0 = (uint8_t) ~LATEbits.LATE0;
 13367                           
 13368                           ;incstack = 0
 13369  004D88  A0BE               	btfss	16318,0,c	;volatile
 13370  004D8A  D002               	goto	u319_40
 13371  004D8C  0E01               	movlw	1
 13372  004D8E  D001               	goto	u319_46
 13373  004D90                     u319_40:
 13374  004D90  0E00               	movlw	0
 13375  004D92                     u319_46:
 13376  004D92  0AFF               	xorlw	255
 13377  004D94  6E42               	movwf	btemp+11,c
 13378  004D96  50BE               	movf	16318,w,c	;volatile
 13379  004D98  1842               	xorwf	btemp+11,w,c
 13380  004D9A  0BFE               	andlw	-2
 13381  004D9C  1842               	xorwf	btemp+11,w,c
 13382  004D9E  6EBE               	movwf	16318,c	;volatile
 13383                           
 13384                           ;mcc_generated_files/tmr6.c: 204:  for (i = 0; i < TMR_COUNT; i++) {
 13385                           ;stkvar	_i @ sp[(-1)+0]
 13386  004DA0  0EFF               	movlw	-1
 13387  004DA2  6AE3               	clrf	plusw1,c
 13388  004DA4                     l5131:
 13389                           
 13390                           ;mcc_generated_files/tmr6.c: 205:   if (tickCount[i] != 0) {
 13391                           ;stkvar	_i @ sp[(-1)+0]
 13392  004DA4  0EFF               	movlw	-1
 13393  004DA6  50E3               	movf	plusw1,w,c
 13394  004DA8  0D02               	mullw	2
 13395  004DAA  50F3               	movf	prodl,w,c
 13396  004DAC  0F79               	addlw	low _tickCount
 13397  004DAE  6ED9               	movwf	fsr2l,c
 13398  004DB0  6ADA               	clrf	fsr2h,c
 13399  004DB2  50DE               	movf	postinc2,w,c
 13400  004DB4  10DE               	iorwf	postinc2,w,c
 13401  004DB6  B4D8               	btfsc	status,2,c
 13402  004DB8  D00A               	goto	l5135
 13403                           
 13404                           ;mcc_generated_files/tmr6.c: 206:    tickCount[i]--;
 13405                           ;stkvar	_i @ sp[(-1)+0]
 13406  004DBA  0EFF               	movlw	-1
 13407  004DBC  50E3               	movf	plusw1,w,c
 13408  004DBE  0D02               	mullw	2
 13409  004DC0  50F3               	movf	prodl,w,c
 13410  004DC2  0F79               	addlw	low _tickCount
 13411  004DC4  6ED9               	movwf	fsr2l,c
 13412  004DC6  6ADA               	clrf	fsr2h,c
 13413  004DC8  06DE               	decf	postinc2,f,c
 13414  004DCA  0E00               	movlw	0
 13415  004DCC  5ADD               	subwfb	postdec2,f,c
 13416  004DCE                     l5135:
 13417                           
 13418                           ;mcc_generated_files/tmr6.c: 208:  }
 13419                           ;stkvar	_i @ sp[(-1)+0]
 13420  004DCE  0EFF               	movlw	-1
 13421  004DD0  2AE3               	incf	plusw1,f,c
 13422                           
 13423                           ;stkvar	_i @ sp[(-1)+0]
 13424  004DD2  0EFF               	movlw	-1
 13425  004DD4  006F FF8C  F037    	movff	plusw1,btemp
 13426  004DDA  0E05               	movlw	5
 13427  004DDC  6437               	cpfsgt	btemp,c
 13428  004DDE  D7E2               	goto	l5131
 13429                           
 13430                           ; _TMR6_DefaultInterruptHandler: autosize = 1, savesize = 0, parsavesize = 0, tempsize =
      +                           0 parsize = 0, argsize = 0, vargsize = 0
 13431  004DE0  52E5               	movf	postdec1,f,c
 13432  004DE2  0012               	return		;funcret
 13433  004DE4                     __end_of_TMR6_DefaultInterruptHandler:
 13434                           	opt callstack 0
 13435                           
 13436 ;; *************** function _DMA1_DMASCNT_ISR *****************
 13437 ;; Defined at:
 13438 ;;		line 126 in file "mcc_generated_files/dma1.c"
 13439 ;; Parameters:    Size  Location     Type
 13440 ;;		None
 13441 ;; Auto vars:     Size  Location     Type
 13442 ;;		None
 13443 ;; Return value:  Size  Location     Type
 13444 ;;                  1    wreg      void 
 13445 ;; Registers used:
 13446 ;;		None
 13447 ;; Tracked objects:
 13448 ;;		On entry : 0/0
 13449 ;;		On exit  : 3F/0
 13450 ;;		Unchanged: 0/0
 13451 ;; Data sizes:     COMRAM   BANK0   BANK1   BANK2   BANK3   BANK4   BANK5   BANK6   BANK7   BANK8   BANK9  BANK10  BANK1
      +1  BANK12  BANK13  BANK14  BANK15  BANK16  BANK17  BANK18  BANK19  BANK20  BANK21  BANK22  BANK23  BANK24  BANK25  BANK2
      +6  BANK27  BANK28  BANK29  BANK30  BANK31
 13452 ;;      Params:         0       0       0       0       0       0       0       0       0       0       0       0       
      +0       0       0       0       0       0       0       0       0       0       0       0       0       0       0       
      +0       0       0       0       0       0
 13453 ;;      Locals:         0       0       0       0       0       0       0       0       0       0       0       0       
      +0       0       0       0       0       0       0       0       0       0       0       0       0       0       0       
      +0       0       0       0       0       0
 13454 ;;      Temps:          0       0       0       0       0       0       0       0       0       0       0       0       
      +0       0       0       0       0       0       0       0       0       0       0       0       0       0       0       
      +0       0       0       0       0       0
 13455 ;;      Totals:         0       0       0       0       0       0       0       0       0       0       0       0       
      +0       0       0       0       0       0       0       0       0       0       0       0       0       0       0       
      +0       0       0       0       0       0
 13456 ;;Total ram usage:        0 bytes
 13457 ;; Hardware stack levels used:    1
 13458 ;; This function calls:
 13459 ;;		Nothing
 13460 ;; This function is called by:
 13461 ;;		Interrupt level 2
 13462 ;; This function uses a non-reentrant model
 13463 ;;
 13464                           
 13465                           	psect	text94
 13466  0056F0                     __ptext94:
 13467                           	opt callstack 0
 13468  0056F0                     _DMA1_DMASCNT_ISR:
 13469                           	opt callstack 20
 13470                           
 13471                           ;incstack = 0
 13472  0056F0  EE13  F084         	lfsr	1,___inthi_sp
 13473                           
 13474                           ;mcc_generated_files/dma1.c: 128:  PIR2bits.DMA1SCNTIF = 0;
 13475  0056F4  0139               	movlb	57	; () banked
 13476  0056F6  91A2               	bcf	162,0,b	;volatile
 13477                           
 13478                           ;mcc_generated_files/dma1.c: 130:  spi_link.LCD_DATA = 0;
 13479  0056F8  0100               	movlb	0	; () banked
 13480  0056FA  976D               	bcf	_spi_link& (0+255),3,b	;volatile
 13481                           
 13482                           ; BSR set to: 0
 13483  0056FC  0011               	retfie		f
 13484  0056FE                     __end_of_DMA1_DMASCNT_ISR:
 13485                           	opt callstack 0
 13486                           
 13487 ;; *************** function _DMA1_DMADCNT_ISR *****************
 13488 ;; Defined at:
 13489 ;;		line 133 in file "mcc_generated_files/dma1.c"
 13490 ;; Parameters:    Size  Location     Type
 13491 ;;		None
 13492 ;; Auto vars:     Size  Location     Type
 13493 ;;		None
 13494 ;; Return value:  Size  Location     Type
 13495 ;;                  1    wreg      void 
 13496 ;; Registers used:
 13497 ;;		None
 13498 ;; Tracked objects:
 13499 ;;		On entry : 0/0
 13500 ;;		On exit  : 3F/39
 13501 ;;		Unchanged: 0/0
 13502 ;; Data sizes:     COMRAM   BANK0   BANK1   BANK2   BANK3   BANK4   BANK5   BANK6   BANK7   BANK8   BANK9  BANK10  BANK1
      +1  BANK12  BANK13  BANK14  BANK15  BANK16  BANK17  BANK18  BANK19  BANK20  BANK21  BANK22  BANK23  BANK24  BANK25  BANK2
      +6  BANK27  BANK28  BANK29  BANK30  BANK31
 13503 ;;      Params:         0       0       0       0       0       0       0       0       0       0       0       0       
      +0       0       0       0       0       0       0       0       0       0       0       0       0       0       0       
      +0       0       0       0       0       0
 13504 ;;      Locals:         0       0       0       0       0       0       0       0       0       0       0       0       
      +0       0       0       0       0       0       0       0       0       0       0       0       0       0       0       
      +0       0       0       0       0       0
 13505 ;;      Temps:          0       0       0       0       0       0       0       0       0       0       0       0       
      +0       0       0       0       0       0       0       0       0       0       0       0       0       0       0       
      +0       0       0       0       0       0
 13506 ;;      Totals:         0       0       0       0       0       0       0       0       0       0       0       0       
      +0       0       0       0       0       0       0       0       0       0       0       0       0       0       0       
      +0       0       0       0       0       0
 13507 ;;Total ram usage:        0 bytes
 13508 ;; Hardware stack levels used:    1
 13509 ;; This function calls:
 13510 ;;		Nothing
 13511 ;; This function is called by:
 13512 ;;		Interrupt level 2
 13513 ;; This function uses a non-reentrant model
 13514 ;;
 13515                           
 13516                           	psect	text95
 13517  005718                     __ptext95:
 13518                           	opt callstack 0
 13519  005718                     _DMA1_DMADCNT_ISR:
 13520                           	opt callstack 20
 13521                           
 13522                           ; BSR set to: 0
 13523                           ;incstack = 0
 13524  005718  EE13  F084         	lfsr	1,___inthi_sp
 13525                           
 13526                           ;mcc_generated_files/dma1.c: 135:  PIR2bits.DMA1DCNTIF = 0;
 13527  00571C  0139               	movlb	57	; () banked
 13528  00571E  93A2               	bcf	162,1,b	;volatile
 13529                           
 13530                           ; BSR set to: 57
 13531  005720  0011               	retfie		f
 13532  005722                     __end_of_DMA1_DMADCNT_ISR:
 13533                           	opt callstack 0
 13534                           
 13535 ;; *************** function _DMA1_DMAA_ISR *****************
 13536 ;; Defined at:
 13537 ;;		line 143 in file "mcc_generated_files/dma1.c"
 13538 ;; Parameters:    Size  Location     Type
 13539 ;;		None
 13540 ;; Auto vars:     Size  Location     Type
 13541 ;;		None
 13542 ;; Return value:  Size  Location     Type
 13543 ;;                  1    wreg      void 
 13544 ;; Registers used:
 13545 ;;		None
 13546 ;; Tracked objects:
 13547 ;;		On entry : 0/0
 13548 ;;		On exit  : 3F/39
 13549 ;;		Unchanged: 0/0
 13550 ;; Data sizes:     COMRAM   BANK0   BANK1   BANK2   BANK3   BANK4   BANK5   BANK6   BANK7   BANK8   BANK9  BANK10  BANK1
      +1  BANK12  BANK13  BANK14  BANK15  BANK16  BANK17  BANK18  BANK19  BANK20  BANK21  BANK22  BANK23  BANK24  BANK25  BANK2
      +6  BANK27  BANK28  BANK29  BANK30  BANK31
 13551 ;;      Params:         0       0       0       0       0       0       0       0       0       0       0       0       
      +0       0       0       0       0       0       0       0       0       0       0       0       0       0       0       
      +0       0       0       0       0       0
 13552 ;;      Locals:         0       0       0       0       0       0       0       0       0       0       0       0       
      +0       0       0       0       0       0       0       0       0       0       0       0       0       0       0       
      +0       0       0       0       0       0
 13553 ;;      Temps:          0       0       0       0       0       0       0       0       0       0       0       0       
      +0       0       0       0       0       0       0       0       0       0       0       0       0       0       0       
      +0       0       0       0       0       0
 13554 ;;      Totals:         0       0       0       0       0       0       0       0       0       0       0       0       
      +0       0       0       0       0       0       0       0       0       0       0       0       0       0       0       
      +0       0       0       0       0       0
 13555 ;;Total ram usage:        0 bytes
 13556 ;; Hardware stack levels used:    1
 13557 ;; This function calls:
 13558 ;;		Nothing
 13559 ;; This function is called by:
 13560 ;;		Interrupt level 2
 13561 ;; This function uses a non-reentrant model
 13562 ;;
 13563                           
 13564                           	psect	text96
 13565  005724                     __ptext96:
 13566                           	opt callstack 0
 13567  005724                     _DMA1_DMAA_ISR:
 13568                           	opt callstack 20
 13569                           
 13570                           ; BSR set to: 57
 13571                           ;incstack = 0
 13572  005724  EE13  F084         	lfsr	1,___inthi_sp
 13573                           
 13574                           ;mcc_generated_files/dma1.c: 146:  PIR2bits.DMA1AIF = 0;
 13575  005728  0139               	movlb	57	; () banked
 13576  00572A  97A2               	bcf	162,3,b	;volatile
 13577                           
 13578                           ; BSR set to: 57
 13579  00572C  0011               	retfie		f
 13580  00572E                     __end_of_DMA1_DMAA_ISR:
 13581                           	opt callstack 0
 13582                           
 13583 ;; *************** function _DMA1_DMAOR_ISR *****************
 13584 ;; Defined at:
 13585 ;;		line 154 in file "mcc_generated_files/dma1.c"
 13586 ;; Parameters:    Size  Location     Type
 13587 ;;		None
 13588 ;; Auto vars:     Size  Location     Type
 13589 ;;		None
 13590 ;; Return value:  Size  Location     Type
 13591 ;;                  1    wreg      void 
 13592 ;; Registers used:
 13593 ;;		None
 13594 ;; Tracked objects:
 13595 ;;		On entry : 0/0
 13596 ;;		On exit  : 3F/39
 13597 ;;		Unchanged: 0/0
 13598 ;; Data sizes:     COMRAM   BANK0   BANK1   BANK2   BANK3   BANK4   BANK5   BANK6   BANK7   BANK8   BANK9  BANK10  BANK1
      +1  BANK12  BANK13  BANK14  BANK15  BANK16  BANK17  BANK18  BANK19  BANK20  BANK21  BANK22  BANK23  BANK24  BANK25  BANK2
      +6  BANK27  BANK28  BANK29  BANK30  BANK31
 13599 ;;      Params:         0       0       0       0       0       0       0       0       0       0       0       0       
      +0       0       0       0       0       0       0       0       0       0       0       0       0       0       0       
      +0       0       0       0       0       0
 13600 ;;      Locals:         0       0       0       0       0       0       0       0       0       0       0       0       
      +0       0       0       0       0       0       0       0       0       0       0       0       0       0       0       
      +0       0       0       0       0       0
 13601 ;;      Temps:          0       0       0       0       0       0       0       0       0       0       0       0       
      +0       0       0       0       0       0       0       0       0       0       0       0       0       0       0       
      +0       0       0       0       0       0
 13602 ;;      Totals:         0       0       0       0       0       0       0       0       0       0       0       0       
      +0       0       0       0       0       0       0       0       0       0       0       0       0       0       0       
      +0       0       0       0       0       0
 13603 ;;Total ram usage:        0 bytes
 13604 ;; Hardware stack levels used:    1
 13605 ;; This function calls:
 13606 ;;		Nothing
 13607 ;; This function is called by:
 13608 ;;		Interrupt level 2
 13609 ;; This function uses a non-reentrant model
 13610 ;;
 13611                           
 13612                           	psect	text97
 13613  005700                     __ptext97:
 13614                           	opt callstack 0
 13615  005700                     _DMA1_DMAOR_ISR:
 13616                           	opt callstack 20
 13617                           
 13618                           ; BSR set to: 57
 13619                           ;incstack = 0
 13620  005700  EE13  F084         	lfsr	1,___inthi_sp
 13621                           
 13622                           ;mcc_generated_files/dma1.c: 157:  PIR2bits.DMA1ORIF = 0;
 13623  005704  0139               	movlb	57	; () banked
 13624  005706  95A2               	bcf	162,2,b	;volatile
 13625                           
 13626                           ;mcc_generated_files/dma1.c: 159:  LATEbits.LATE1 = 0;
 13627  005708  92BE               	bcf	16318,1,c	;volatile
 13628                           
 13629                           ; BSR set to: 57
 13630  00570A  0011               	retfie		f
 13631  00570C                     __end_of_DMA1_DMAOR_ISR:
 13632                           	opt callstack 0
 13633                           
 13634                           ;
 13635                           ; Interrupt Vector Table @ 0x8
 13636                           ;
 13637                           
 13638                           	psect	ivt0x8
 13639  000008                     __pivt0x8:
 13640                           	opt callstack 0
 13641  000008                     ivt0x8_base:
 13642                           	opt callstack 0
 13643                           
 13644                           ; Vector 0 : SWINT
 13645  000008  15D3               	dw	_Default_ISR shr (0+2)
 13646                           
 13647                           ; Vector 1 : HLVD
 13648  00000A  15D3               	dw	_Default_ISR shr (0+2)
 13649                           
 13650                           ; Vector 2 : OSF
 13651  00000C  15D3               	dw	_Default_ISR shr (0+2)
 13652                           
 13653                           ; Vector 3 : CSW
 13654  00000E  15D3               	dw	_Default_ISR shr (0+2)
 13655                           
 13656                           ; Vector 4 : NVM
 13657  000010  15D3               	dw	_Default_ISR shr (0+2)
 13658                           
 13659                           ; Vector 5 : SCAN
 13660  000012  15D3               	dw	_Default_ISR shr (0+2)
 13661                           
 13662                           ; Vector 6 : CRC
 13663  000014  15D3               	dw	_Default_ISR shr (0+2)
 13664                           
 13665                           ; Vector 7 : IOC
 13666  000016  15D3               	dw	_Default_ISR shr (0+2)
 13667                           
 13668                           ; Vector 8 : INT0
 13669  000018  15B0               	dw	_INT0_ISR shr (0+2)
 13670                           
 13671                           ; Vector 9 : ZCD
 13672  00001A  15D3               	dw	_Default_ISR shr (0+2)
 13673                           
 13674                           ; Vector 10 : AD
 13675  00001C  1463               	dw	_ADCC_ISR shr (0+2)
 13676                           
 13677                           ; Vector 11 : ADT
 13678  00001E  15D3               	dw	_Default_ISR shr (0+2)
 13679                           
 13680                           ; Vector 12 : CMP1
 13681  000020  15D3               	dw	_Default_ISR shr (0+2)
 13682                           
 13683                           ; Vector 13 : SMT1
 13684  000022  15D3               	dw	_Default_ISR shr (0+2)
 13685                           
 13686                           ; Vector 14 : SMT1PRA
 13687  000024  15D3               	dw	_Default_ISR shr (0+2)
 13688                           
 13689                           ; Vector 15 : SMT1PRW
 13690  000026  15D3               	dw	_Default_ISR shr (0+2)
 13691                           
 13692                           ; Vector 16 : DMA1SCNT
 13693  000028  15BC               	dw	_DMA1_DMASCNT_ISR shr (0+2)
 13694                           
 13695                           ; Vector 17 : DMA1DCNT
 13696  00002A  15C6               	dw	_DMA1_DMADCNT_ISR shr (0+2)
 13697                           
 13698                           ; Vector 18 : DMA1OR
 13699  00002C  15C0               	dw	_DMA1_DMAOR_ISR shr (0+2)
 13700                           
 13701                           ; Vector 19 : DMA1A
 13702  00002E  15C9               	dw	_DMA1_DMAA_ISR shr (0+2)
 13703                           
 13704                           ; Vector 20 : SPI1RX
 13705  000030  15D3               	dw	_Default_ISR shr (0+2)
 13706                           
 13707                           ; Vector 21 : SPI1TX
 13708  000032  15D3               	dw	_Default_ISR shr (0+2)
 13709                           
 13710                           ; Vector 22 : SPI1
 13711  000034  15D3               	dw	_Default_ISR shr (0+2)
 13712                           
 13713                           ; Vector 23 : I2C1RX
 13714  000036  15D3               	dw	_Default_ISR shr (0+2)
 13715                           
 13716                           ; Vector 24 : I2C1TX
 13717  000038  15D3               	dw	_Default_ISR shr (0+2)
 13718                           
 13719                           ; Vector 25 : I2C1
 13720  00003A  15D3               	dw	_Default_ISR shr (0+2)
 13721                           
 13722                           ; Vector 26 : I2C1E
 13723  00003C  15D3               	dw	_Default_ISR shr (0+2)
 13724                           
 13725                           ; Vector 27 : U1RX
 13726  00003E  150E               	dw	_UART1_rx_vect_isr shr (0+2)
 13727                           
 13728                           ; Vector 28 : U1TX
 13729  000040  1504               	dw	_UART1_tx_vect_isr shr (0+2)
 13730                           
 13731                           ; Vector 29 : U1E
 13732  000042  15D3               	dw	_Default_ISR shr (0+2)
 13733                           
 13734                           ; Vector 30 : U1
 13735  000044  15D3               	dw	_Default_ISR shr (0+2)
 13736                           
 13737                           ; Vector 31 : TMR0
 13738  000046  15D3               	dw	_Default_ISR shr (0+2)
 13739                           
 13740                           ; Vector 32 : TMR1
 13741  000048  15D3               	dw	_Default_ISR shr (0+2)
 13742                           
 13743                           ; Vector 33 : TMR1G
 13744  00004A  15D3               	dw	_Default_ISR shr (0+2)
 13745                           
 13746                           ; Vector 34 : TMR2
 13747  00004C  15D3               	dw	_Default_ISR shr (0+2)
 13748                           
 13749                           ; Vector 35 : CCP1
 13750  00004E  15D3               	dw	_Default_ISR shr (0+2)
 13751                           
 13752                           ; Vector 36 : Undefined
 13753  000050  002B               	dw	ivt0x8_undefint shr (0+2)
 13754                           
 13755                           ; Vector 37 : NCO1
 13756  000052  15D3               	dw	_Default_ISR shr (0+2)
 13757                           
 13758                           ; Vector 38 : CWG1
 13759  000054  15D3               	dw	_Default_ISR shr (0+2)
 13760                           
 13761                           ; Vector 39 : CLC1
 13762  000056  15D3               	dw	_Default_ISR shr (0+2)
 13763                           
 13764                           ; Vector 40 : INT1
 13765  000058  15B4               	dw	_INT1_ISR shr (0+2)
 13766                           
 13767                           ; Vector 41 : CMP2
 13768  00005A  15D3               	dw	_Default_ISR shr (0+2)
 13769                           
 13770                           ; Vector 42 : DMA2SCNT
 13771  00005C  15D3               	dw	_Default_ISR shr (0+2)
 13772                           
 13773                           ; Vector 43 : DMA2DCNT
 13774  00005E  15D3               	dw	_Default_ISR shr (0+2)
 13775                           
 13776                           ; Vector 44 : DMA2OR
 13777  000060  15D3               	dw	_Default_ISR shr (0+2)
 13778                           
 13779                           ; Vector 45 : DMA2A
 13780  000062  15D3               	dw	_Default_ISR shr (0+2)
 13781                           
 13782                           ; Vector 46 : I2C2RX
 13783  000064  15D3               	dw	_Default_ISR shr (0+2)
 13784                           
 13785                           ; Vector 47 : I2C2TX
 13786  000066  15D3               	dw	_Default_ISR shr (0+2)
 13787                           
 13788                           ; Vector 48 : I2C2
 13789  000068  15D3               	dw	_Default_ISR shr (0+2)
 13790                           
 13791                           ; Vector 49 : I2C2E
 13792  00006A  15D3               	dw	_Default_ISR shr (0+2)
 13793                           
 13794                           ; Vector 50 : U2RX
 13795  00006C  1522               	dw	_UART2_rx_vect_isr shr (0+2)
 13796                           
 13797                           ; Vector 51 : U2TX
 13798  00006E  1518               	dw	_UART2_tx_vect_isr shr (0+2)
 13799                           
 13800                           ; Vector 52 : U2E
 13801  000070  15D3               	dw	_Default_ISR shr (0+2)
 13802                           
 13803                           ; Vector 53 : U2
 13804  000072  15D3               	dw	_Default_ISR shr (0+2)
 13805                           
 13806                           ; Vector 54 : TMR3
 13807  000074  15D3               	dw	_Default_ISR shr (0+2)
 13808                           
 13809                           ; Vector 55 : TMR3G
 13810  000076  15D3               	dw	_Default_ISR shr (0+2)
 13811                           
 13812                           ; Vector 56 : TMR4
 13813  000078  15D3               	dw	_Default_ISR shr (0+2)
 13814                           
 13815                           ; Vector 57 : CCP2
 13816  00007A  15D3               	dw	_Default_ISR shr (0+2)
 13817                           
 13818                           ; Vector 58 : Undefined
 13819  00007C  002B               	dw	ivt0x8_undefint shr (0+2)
 13820                           
 13821                           ; Vector 59 : CWG2
 13822  00007E  15D3               	dw	_Default_ISR shr (0+2)
 13823                           
 13824                           ; Vector 60 : CLC2
 13825  000080  15D3               	dw	_Default_ISR shr (0+2)
 13826                           
 13827                           ; Vector 61 : INT2
 13828  000082  15B8               	dw	_INT2_ISR shr (0+2)
 13829                           
 13830                           ; Vector 62 : Undefined
 13831  000084  002B               	dw	ivt0x8_undefint shr (0+2)
 13832                           
 13833                           ; Vector 63 : Undefined
 13834  000086  002B               	dw	ivt0x8_undefint shr (0+2)
 13835                           
 13836                           ; Vector 64 : Undefined
 13837  000088  002B               	dw	ivt0x8_undefint shr (0+2)
 13838                           
 13839                           ; Vector 65 : Undefined
 13840  00008A  002B               	dw	ivt0x8_undefint shr (0+2)
 13841                           
 13842                           ; Vector 66 : Undefined
 13843  00008C  002B               	dw	ivt0x8_undefint shr (0+2)
 13844                           
 13845                           ; Vector 67 : Undefined
 13846  00008E  002B               	dw	ivt0x8_undefint shr (0+2)
 13847                           
 13848                           ; Vector 68 : Undefined
 13849  000090  002B               	dw	ivt0x8_undefint shr (0+2)
 13850                           
 13851                           ; Vector 69 : Undefined
 13852  000092  002B               	dw	ivt0x8_undefint shr (0+2)
 13853                           
 13854                           ; Vector 70 : TMR5
 13855  000094  15D3               	dw	_Default_ISR shr (0+2)
 13856                           
 13857                           ; Vector 71 : TMR5G
 13858  000096  15D3               	dw	_Default_ISR shr (0+2)
 13859                           
 13860                           ; Vector 72 : TMR6
 13861  000098  152C               	dw	_TMR6_ISR shr (0+2)
 13862                           
 13863                           ; Vector 73 : CCP3
 13864  00009A  15D3               	dw	_Default_ISR shr (0+2)
 13865                           
 13866                           ; Vector 74 : CWG3
 13867  00009C  15D3               	dw	_Default_ISR shr (0+2)
 13868                           
 13869                           ; Vector 75 : CLC3
 13870  00009E  15D3               	dw	_Default_ISR shr (0+2)
 13871                           
 13872                           ; Vector 76 : Undefined
 13873  0000A0  002B               	dw	ivt0x8_undefint shr (0+2)
 13874                           
 13875                           ; Vector 77 : Undefined
 13876  0000A2  002B               	dw	ivt0x8_undefint shr (0+2)
 13877                           
 13878                           ; Vector 78 : Undefined
 13879  0000A4  002B               	dw	ivt0x8_undefint shr (0+2)
 13880                           
 13881                           ; Vector 79 : Undefined
 13882  0000A6  002B               	dw	ivt0x8_undefint shr (0+2)
 13883                           
 13884                           ; Vector 80 : CCP4
 13885  0000A8  15D3               	dw	_Default_ISR shr (0+2)
 13886                           
 13887                           ; Vector 81 : CLC4
 13888  0000AA  15D3               	dw	_Default_ISR shr (0+2)
 13889  0000AC                     ivt0x8_undefint:
 13890                           	opt callstack 0
 13891  0000AC  00FF               	reset	
 13892                           
 13893                           	psect	text98
 13894  000000                     __ptext98:
 13895                           	opt callstack 0
 13896                           
 13897                           	psect	param0
 13898  0000                     
 13899                           	psect	temp
 13900  000037                     btemp:
 13901                           	opt callstack 0
 13902  000037                     	ds	32
 13903  0000                     wtemp0	set	btemp
 13904  0000                     wtemp1	set	btemp+2
 13905  0000                     wtemp2	set	btemp+4
 13906  0000                     wtemp3	set	btemp+6
 13907  0000                     wtemp4	set	btemp+8
 13908  0000                     wtemp5	set	btemp+10
 13909  0000                     wtemp8	set	btemp+1
 13910  0000                     ttemp0	set	btemp
 13911  0000                     ttemp1	set	btemp+3
 13912  0000                     ttemp2	set	btemp+6
 13913  0000                     ttemp3	set	btemp+9
 13914  0000                     ttemp5	set	btemp+1
 13915  0000                     ttemp6	set	btemp+4
 13916  0000                     ttemp7	set	btemp+8
 13917  0000                     ltemp0	set	btemp
 13918  0000                     ltemp1	set	btemp+4
 13919  0000                     ltemp2	set	btemp+8
 13920  0000                     lltemp0	set	btemp
 13921  0000                     lltemp1	set	btemp+8
 13922  0000                     lltemp2	set	btemp+16
 13923  0000                     lltemp3	set	btemp+24
 13924                           tosu	equ	0x3FFF
 13925                           tosh	equ	0x3FFE
 13926                           tosl	equ	0x3FFD
 13927                           stkptr	equ	0x3FFC
 13928                           pclatu	equ	0x3FFB
 13929                           pclath	equ	0x3FFA
 13930                           pcl	equ	0x3FF9
 13931                           tblptru	equ	0x3FF8
 13932                           tblptrh	equ	0x3FF7
 13933                           tblptrl	equ	0x3FF6
 13934                           tablat	equ	0x3FF5
 13935                           prodh	equ	0x3FF4
 13936                           prodl	equ	0x3FF3
 13937                           indf0	equ	0x3FEF
 13938                           postinc0	equ	0x3FEE
 13939                           postdec0	equ	0x3FED
 13940                           preinc0	equ	0x3FEC
 13941                           plusw0	equ	0x3FEB
 13942                           fsr0h	equ	0x3FEA
 13943                           fsr0l	equ	0x3FE9
 13944                           wreg	equ	0x3FE8
 13945                           indf1	equ	0x3FE7
 13946                           postinc1	equ	0x3FE6
 13947                           postdec1	equ	0x3FE5
 13948                           preinc1	equ	0x3FE4
 13949                           plusw1	equ	0x3FE3
 13950                           fsr1h	equ	0x3FE2
 13951                           fsr1l	equ	0x3FE1
 13952                           bsr	equ	0x3FE0
 13953                           indf2	equ	0x3FDF
 13954                           postinc2	equ	0x3FDE
 13955                           postdec2	equ	0x3FDD
 13956                           preinc2	equ	0x3FDC
 13957                           plusw2	equ	0x3FDB
 13958                           fsr2h	equ	0x3FDA
 13959                           fsr2l	equ	0x3FD9
 13960                           status	equ	0x3FD8


Data Sizes:
    Strings     99
    Constant    0
    Data        46
    BSS         592
    Persistent  0
    Stack       0

Auto Spaces:
    Space          Size  Autos    Used
    COMRAM           63      2      63
    BANK0           160      0     155
    BANK1           256      0     224
    BANK2           256      0     198
    BANK3           256      0       0
    BANK4           256      0       0
    BANK5           256      0       0
    BANK6           256      0       0
    BANK7           256      0       0
    BANK8           256      0       0
    BANK9           256      0       0
    BANK10          256      0       0
    BANK11          256      0       0
    BANK12          256      0       0
    BANK13          256      0       0
    BANK14          256      0       0
    BANK15          256      0       0
    BANK16          256      0       0
    BANK17          256      0       0
    BANK18          256      0       0
    BANK19          256      0       0
    BANK20          256      0       0
    BANK21          256      0       0
    BANK22          256      0       0
    BANK23          256      0       0
    BANK24          256      0       0
    BANK25          256      0       0
    BANK26          256      0       0
    BANK27          256      0       0
    BANK28          256      0       0
    BANK29          256      0       0
    BANK30          256      0       0
    BANK31          256      0       0

Pointer List with Targets:

    s	PTR const unsigned char  size(2) Largest target is 79
		 -> ?_printf(COMRAM[2]), ?_sprintf(COMRAM[2]), nuls(STACK[7]), dbuf(BANK1[32]), 
		 -> V(BANK0[79]), 

    a	PTR const unsigned char  size(2) Largest target is 79
		 -> ?_printf(COMRAM[2]), ?_sprintf(COMRAM[2]), nuls(STACK[7]), dbuf(BANK1[32]), 
		 -> V(BANK0[79]), 

    fmt	PTR const unsigned char  size(1) Largest target is 3
		 -> STR_6(CODE[3]), STR_5(CODE[3]), 

    ap	PTR void [1] size(2) Largest target is 2
		 -> ?_printf(COMRAM[2]), ?_sprintf(COMRAM[2]), 

    fmt	PTR const unsigned char  size(1) Largest target is 61
		 -> STR_4(CODE[19]), STR_3(CODE[6]), STR_2(CODE[10]), STR_1(CODE[61]), 

    s	PTR unsigned char  size(1) Largest target is 79
		 -> V(BANK0[79]), 

    ap	PTR void [1] size(2) Largest target is 2
		 -> ?_printf(COMRAM[2]), ?_sprintf(COMRAM[2]), 

    f.buffer	PTR unsigned char  size(1) Largest target is 79
		 -> V(BANK0[79]), 

    s	PTR const unsigned char  size(2) Largest target is 32
		 -> dbuf(BANK1[32]), 

    fp	PTR struct _IO_FILE size(2) Largest target is 7
		 -> f(STACK[5]), NULL(NULL[0]), 

    S3911_IO_FILE$buffer	PTR unsigned char  size(1) Largest target is 79
		 -> V(BANK0[79]), 

    fp.buffer	PTR unsigned char  size(1) Largest target is 79
		 -> V(BANK0[79]), 

    fp	PTR struct _IO_FILE size(2) Largest target is 7
		 -> f(STACK[5]), NULL(NULL[0]), 

    dest	PTR void  size(2) Largest target is 67
		 -> ring_buf2(BANK2[67]), ring_buf1(BANK2[67]), 

    s	PTR unsigned char  size(2) Largest target is 67
		 -> ring_buf2(BANK2[67]), ring_buf1(BANK2[67]), 

    s	PTR const unsigned char  size(1) Largest target is 61
		 -> STR_6(CODE[3]), STR_5(CODE[3]), STR_4(CODE[19]), STR_3(CODE[6]), 
		 -> STR_2(CODE[10]), STR_1(CODE[61]), 

    ap	PTR PTR void  size(2) Largest target is 2
		 -> ap(STACK[2]), ap(STACK[2]), 

    fp	PTR struct _IO_FILE size(2) Largest target is 7
		 -> f(STACK[5]), NULL(NULL[0]), 

    fmt	PTR const unsigned char  size(1) Largest target is 61
		 -> STR_6(CODE[3]), STR_5(CODE[3]), STR_4(CODE[19]), STR_3(CODE[6]), 
		 -> STR_2(CODE[10]), STR_1(CODE[61]), 

    cfmt	PTR unsigned char  size(1) Largest target is 61
		 -> STR_6(CODE[3]), STR_5(CODE[3]), STR_4(CODE[19]), STR_3(CODE[6]), 
		 -> STR_2(CODE[10]), STR_1(CODE[61]), 

    cp	PTR unsigned char  size(2) Largest target is 2
		 -> ?_printf(COMRAM[2]), ?_sprintf(COMRAM[2]), V(BANK0[79]), 

    fp	PTR struct _IO_FILE size(2) Largest target is 7
		 -> f(STACK[5]), NULL(NULL[0]), 

    ap	PTR PTR void  size(2) Largest target is 2
		 -> ap(STACK[2]), ap(STACK[2]), 

    fmt	PTR PTR unsigned char  size(2) Largest target is 1
		 -> cfmt(STACK[1]), 

    fp	PTR struct _IO_FILE size(2) Largest target is 7
		 -> f(STACK[5]), NULL(NULL[0]), 

    fp	PTR struct _IO_FILE size(2) Largest target is 7
		 -> f(STACK[5]), NULL(NULL[0]), 

    s	PTR unsigned char  size(2) Largest target is 2
		 -> ?_printf(COMRAM[2]), ?_sprintf(COMRAM[2]), V(BANK0[79]), 

    cp	PTR unsigned char  size(2) Largest target is 7
		 -> ?_printf(COMRAM[2]), ?_sprintf(COMRAM[2]), nuls(STACK[7]), V(BANK0[79]), 

    fp	PTR struct _IO_FILE size(2) Largest target is 7
		 -> f(STACK[5]), NULL(NULL[0]), 

    fp	PTR struct _IO_FILE size(2) Largest target is 7
		 -> f(STACK[5]), NULL(NULL[0]), 

    buf	PTR unsigned char  size(2) Largest target is 32
		 -> dbuf(BANK1[32]), 

    t_link	PTR enum E16164 size(1) Largest target is 79
		 -> V(BANK0[79]), 

    r_link	PTR enum E16164 size(1) Largest target is 79
		 -> V(BANK0[79]), 

    byte_block	PTR unsigned char  size(1) Largest target is 39
		 -> H10.block(BANK0[10]), H10(BANK0[39]), 

    _this	PTR struct ringBufS_t size(2) Largest target is 67
		 -> ring_buf1(BANK2[67]), 

    _this	PTR struct ringBufS_t size(2) Largest target is 67
		 -> ring_buf1(BANK2[67]), 

    sp__memset	PTR void  size(2) Largest target is 67
		 -> ring_buf2(BANK2[67]), ring_buf1(BANK2[67]), 

    _this	PTR volatile struct ringBufS_t size(2) Largest target is 67
		 -> ring_buf2(BANK2[67]), ring_buf1(BANK2[67]), 

    strPtr	PTR unsigned char  size(1) Largest target is 79
		 -> V(BANK0[79]), 

    S1989spi_link_type$tx1a	PTR struct ringBufS_t size(2) Largest target is 67
		 -> ring_buf1(BANK2[67]), 

    spi_link.tx1a	PTR struct ringBufS_t size(2) Largest target is 67
		 -> ring_buf1(BANK2[67]), 

    S1989spi_link_type$tx1b	PTR struct ringBufS_t size(2) Largest target is 67
		 -> ring_buf2(BANK2[67]), 

    spi_link.tx1b	PTR struct ringBufS_t size(2) Largest target is 67
		 -> ring_buf2(BANK2[67]), 

    InterruptHandler	PTR FTN()void  size(3) Largest target is 1
		 -> TMR6_DefaultInterruptHandler(), 

    TMR6_InterruptHandler	PTR FTN()void  size(3) Largest target is 1
		 -> TMR6_DefaultInterruptHandler(), Absolute function(), 

    InterruptHandler	PTR FTN()void  size(3) Largest target is 1
		 -> UART2_Transmit_ISR(), 

    InterruptHandler	PTR FTN()void  size(3) Largest target is 1
		 -> UART2_Receive_ISR(), 

    UART2_RxInterruptHandler	PTR FTN()void  size(3) Largest target is 1
		 -> UART2_Receive_ISR(), Absolute function(), 

    UART2_TxInterruptHandler	PTR FTN()void  size(3) Largest target is 1
		 -> UART2_Transmit_ISR(), Absolute function(), 

    InterruptHandler	PTR FTN()void  size(3) Largest target is 1
		 -> UART1_Transmit_ISR(), 

    InterruptHandler	PTR FTN()void  size(3) Largest target is 1
		 -> UART1_Receive_ISR(), 

    UART1_RxInterruptHandler	PTR FTN()void  size(3) Largest target is 1
		 -> UART1_Receive_ISR(), Absolute function(), 

    UART1_TxInterruptHandler	PTR FTN()void  size(3) Largest target is 1
		 -> UART1_Transmit_ISR(), Absolute function(), 

    InterruptHandler	PTR FTN()void  size(3) Largest target is 1
		 -> ADCC_DefaultInterruptHandler(), 

    ADCC_ADI_InterruptHandler	PTR FTN()void  size(3) Largest target is 1
		 -> ADCC_DefaultInterruptHandler(), Absolute function(), 

    InterruptHandler	PTR FTN()void  size(3) Largest target is 1
		 -> INT2_DefaultInterruptHandler(), 

    INT2_InterruptHandler	PTR FTN()void  size(3) Largest target is 1
		 -> INT2_DefaultInterruptHandler(), Absolute function(), 

    InterruptHandler	PTR FTN()void  size(3) Largest target is 1
		 -> INT1_DefaultInterruptHandler(), 

    INT1_InterruptHandler	PTR FTN()void  size(3) Largest target is 1
		 -> INT1_DefaultInterruptHandler(), Absolute function(), 

    InterruptHandler	PTR FTN()void  size(3) Largest target is 1
		 -> INT0_DefaultInterruptHandler(), 

    INT0_InterruptHandler	PTR FTN()void  size(3) Largest target is 1
		 -> INT0_DefaultInterruptHandler(), Absolute function(), 


Critical Paths under _main in COMRAM

    None.

Critical Paths under _INT0_ISR in COMRAM

    None.

Critical Paths under _INT1_ISR in COMRAM

    None.

Critical Paths under _INT2_ISR in COMRAM

    None.

Critical Paths under _Default_ISR in COMRAM

    None.

Critical Paths under _ADCC_ISR in COMRAM

    None.

Critical Paths under _UART1_tx_vect_isr in COMRAM

    None.

Critical Paths under _UART1_rx_vect_isr in COMRAM

    None.

Critical Paths under _UART2_tx_vect_isr in COMRAM

    None.

Critical Paths under _UART2_rx_vect_isr in COMRAM

    None.

Critical Paths under _TMR6_ISR in COMRAM

    None.

Critical Paths under _DMA1_DMASCNT_ISR in COMRAM

    None.

Critical Paths under _DMA1_DMADCNT_ISR in COMRAM

    None.

Critical Paths under _DMA1_DMAA_ISR in COMRAM

    None.

Critical Paths under _DMA1_DMAOR_ISR in COMRAM

    None.

Critical Paths under _main in BANK0

    None.

Critical Paths under _INT0_ISR in BANK0

    None.

Critical Paths under _INT1_ISR in BANK0

    None.

Critical Paths under _INT2_ISR in BANK0

    None.

Critical Paths under _Default_ISR in BANK0

    None.

Critical Paths under _ADCC_ISR in BANK0

    None.

Critical Paths under _UART1_tx_vect_isr in BANK0

    None.

Critical Paths under _UART1_rx_vect_isr in BANK0

    None.

Critical Paths under _UART2_tx_vect_isr in BANK0

    None.

Critical Paths under _UART2_rx_vect_isr in BANK0

    None.

Critical Paths under _TMR6_ISR in BANK0

    None.

Critical Paths under _DMA1_DMASCNT_ISR in BANK0

    None.

Critical Paths under _DMA1_DMADCNT_ISR in BANK0

    None.

Critical Paths under _DMA1_DMAA_ISR in BANK0

    None.

Critical Paths under _DMA1_DMAOR_ISR in BANK0

    None.

Critical Paths under _main in BANK1

    None.

Critical Paths under _INT0_ISR in BANK1

    None.

Critical Paths under _INT1_ISR in BANK1

    None.

Critical Paths under _INT2_ISR in BANK1

    None.

Critical Paths under _Default_ISR in BANK1

    None.

Critical Paths under _ADCC_ISR in BANK1

    None.

Critical Paths under _UART1_tx_vect_isr in BANK1

    None.

Critical Paths under _UART1_rx_vect_isr in BANK1

    None.

Critical Paths under _UART2_tx_vect_isr in BANK1

    None.

Critical Paths under _UART2_rx_vect_isr in BANK1

    None.

Critical Paths under _TMR6_ISR in BANK1

    None.

Critical Paths under _DMA1_DMASCNT_ISR in BANK1

    None.

Critical Paths under _DMA1_DMADCNT_ISR in BANK1

    None.

Critical Paths under _DMA1_DMAA_ISR in BANK1

    None.

Critical Paths under _DMA1_DMAOR_ISR in BANK1

    None.

Critical Paths under _main in BANK2

    None.

Critical Paths under _INT0_ISR in BANK2

    None.

Critical Paths under _INT1_ISR in BANK2

    None.

Critical Paths under _INT2_ISR in BANK2

    None.

Critical Paths under _Default_ISR in BANK2

    None.

Critical Paths under _ADCC_ISR in BANK2

    None.

Critical Paths under _UART1_tx_vect_isr in BANK2

    None.

Critical Paths under _UART1_rx_vect_isr in BANK2

    None.

Critical Paths under _UART2_tx_vect_isr in BANK2

    None.

Critical Paths under _UART2_rx_vect_isr in BANK2

    None.

Critical Paths under _TMR6_ISR in BANK2

    None.

Critical Paths under _DMA1_DMASCNT_ISR in BANK2

    None.

Critical Paths under _DMA1_DMADCNT_ISR in BANK2

    None.

Critical Paths under _DMA1_DMAA_ISR in BANK2

    None.

Critical Paths under _DMA1_DMAOR_ISR in BANK2

    None.

Critical Paths under _main in BANK3

    None.

Critical Paths under _INT0_ISR in BANK3

    None.

Critical Paths under _INT1_ISR in BANK3

    None.

Critical Paths under _INT2_ISR in BANK3

    None.

Critical Paths under _Default_ISR in BANK3

    None.

Critical Paths under _ADCC_ISR in BANK3

    None.

Critical Paths under _UART1_tx_vect_isr in BANK3

    None.

Critical Paths under _UART1_rx_vect_isr in BANK3

    None.

Critical Paths under _UART2_tx_vect_isr in BANK3

    None.

Critical Paths under _UART2_rx_vect_isr in BANK3

    None.

Critical Paths under _TMR6_ISR in BANK3

    None.

Critical Paths under _DMA1_DMASCNT_ISR in BANK3

    None.

Critical Paths under _DMA1_DMADCNT_ISR in BANK3

    None.

Critical Paths under _DMA1_DMAA_ISR in BANK3

    None.

Critical Paths under _DMA1_DMAOR_ISR in BANK3

    None.

Critical Paths under _main in BANK4

    None.

Critical Paths under _INT0_ISR in BANK4

    None.

Critical Paths under _INT1_ISR in BANK4

    None.

Critical Paths under _INT2_ISR in BANK4

    None.

Critical Paths under _Default_ISR in BANK4

    None.

Critical Paths under _ADCC_ISR in BANK4

    None.

Critical Paths under _UART1_tx_vect_isr in BANK4

    None.

Critical Paths under _UART1_rx_vect_isr in BANK4

    None.

Critical Paths under _UART2_tx_vect_isr in BANK4

    None.

Critical Paths under _UART2_rx_vect_isr in BANK4

    None.

Critical Paths under _TMR6_ISR in BANK4

    None.

Critical Paths under _DMA1_DMASCNT_ISR in BANK4

    None.

Critical Paths under _DMA1_DMADCNT_ISR in BANK4

    None.

Critical Paths under _DMA1_DMAA_ISR in BANK4

    None.

Critical Paths under _DMA1_DMAOR_ISR in BANK4

    None.

Critical Paths under _main in BANK5

    None.

Critical Paths under _INT0_ISR in BANK5

    None.

Critical Paths under _INT1_ISR in BANK5

    None.

Critical Paths under _INT2_ISR in BANK5

    None.

Critical Paths under _Default_ISR in BANK5

    None.

Critical Paths under _ADCC_ISR in BANK5

    None.

Critical Paths under _UART1_tx_vect_isr in BANK5

    None.

Critical Paths under _UART1_rx_vect_isr in BANK5

    None.

Critical Paths under _UART2_tx_vect_isr in BANK5

    None.

Critical Paths under _UART2_rx_vect_isr in BANK5

    None.

Critical Paths under _TMR6_ISR in BANK5

    None.

Critical Paths under _DMA1_DMASCNT_ISR in BANK5

    None.

Critical Paths under _DMA1_DMADCNT_ISR in BANK5

    None.

Critical Paths under _DMA1_DMAA_ISR in BANK5

    None.

Critical Paths under _DMA1_DMAOR_ISR in BANK5

    None.

Critical Paths under _main in BANK6

    None.

Critical Paths under _INT0_ISR in BANK6

    None.

Critical Paths under _INT1_ISR in BANK6

    None.

Critical Paths under _INT2_ISR in BANK6

    None.

Critical Paths under _Default_ISR in BANK6

    None.

Critical Paths under _ADCC_ISR in BANK6

    None.

Critical Paths under _UART1_tx_vect_isr in BANK6

    None.

Critical Paths under _UART1_rx_vect_isr in BANK6

    None.

Critical Paths under _UART2_tx_vect_isr in BANK6

    None.

Critical Paths under _UART2_rx_vect_isr in BANK6

    None.

Critical Paths under _TMR6_ISR in BANK6

    None.

Critical Paths under _DMA1_DMASCNT_ISR in BANK6

    None.

Critical Paths under _DMA1_DMADCNT_ISR in BANK6

    None.

Critical Paths under _DMA1_DMAA_ISR in BANK6

    None.

Critical Paths under _DMA1_DMAOR_ISR in BANK6

    None.

Critical Paths under _main in BANK7

    None.

Critical Paths under _INT0_ISR in BANK7

    None.

Critical Paths under _INT1_ISR in BANK7

    None.

Critical Paths under _INT2_ISR in BANK7

    None.

Critical Paths under _Default_ISR in BANK7

    None.

Critical Paths under _ADCC_ISR in BANK7

    None.

Critical Paths under _UART1_tx_vect_isr in BANK7

    None.

Critical Paths under _UART1_rx_vect_isr in BANK7

    None.

Critical Paths under _UART2_tx_vect_isr in BANK7

    None.

Critical Paths under _UART2_rx_vect_isr in BANK7

    None.

Critical Paths under _TMR6_ISR in BANK7

    None.

Critical Paths under _DMA1_DMASCNT_ISR in BANK7

    None.

Critical Paths under _DMA1_DMADCNT_ISR in BANK7

    None.

Critical Paths under _DMA1_DMAA_ISR in BANK7

    None.

Critical Paths under _DMA1_DMAOR_ISR in BANK7

    None.

Critical Paths under _main in BANK8

    None.

Critical Paths under _INT0_ISR in BANK8

    None.

Critical Paths under _INT1_ISR in BANK8

    None.

Critical Paths under _INT2_ISR in BANK8

    None.

Critical Paths under _Default_ISR in BANK8

    None.

Critical Paths under _ADCC_ISR in BANK8

    None.

Critical Paths under _UART1_tx_vect_isr in BANK8

    None.

Critical Paths under _UART1_rx_vect_isr in BANK8

    None.

Critical Paths under _UART2_tx_vect_isr in BANK8

    None.

Critical Paths under _UART2_rx_vect_isr in BANK8

    None.

Critical Paths under _TMR6_ISR in BANK8

    None.

Critical Paths under _DMA1_DMASCNT_ISR in BANK8

    None.

Critical Paths under _DMA1_DMADCNT_ISR in BANK8

    None.

Critical Paths under _DMA1_DMAA_ISR in BANK8

    None.

Critical Paths under _DMA1_DMAOR_ISR in BANK8

    None.

Critical Paths under _main in BANK9

    None.

Critical Paths under _INT0_ISR in BANK9

    None.

Critical Paths under _INT1_ISR in BANK9

    None.

Critical Paths under _INT2_ISR in BANK9

    None.

Critical Paths under _Default_ISR in BANK9

    None.

Critical Paths under _ADCC_ISR in BANK9

    None.

Critical Paths under _UART1_tx_vect_isr in BANK9

    None.

Critical Paths under _UART1_rx_vect_isr in BANK9

    None.

Critical Paths under _UART2_tx_vect_isr in BANK9

    None.

Critical Paths under _UART2_rx_vect_isr in BANK9

    None.

Critical Paths under _TMR6_ISR in BANK9

    None.

Critical Paths under _DMA1_DMASCNT_ISR in BANK9

    None.

Critical Paths under _DMA1_DMADCNT_ISR in BANK9

    None.

Critical Paths under _DMA1_DMAA_ISR in BANK9

    None.

Critical Paths under _DMA1_DMAOR_ISR in BANK9

    None.

Critical Paths under _main in BANK10

    None.

Critical Paths under _INT0_ISR in BANK10

    None.

Critical Paths under _INT1_ISR in BANK10

    None.

Critical Paths under _INT2_ISR in BANK10

    None.

Critical Paths under _Default_ISR in BANK10

    None.

Critical Paths under _ADCC_ISR in BANK10

    None.

Critical Paths under _UART1_tx_vect_isr in BANK10

    None.

Critical Paths under _UART1_rx_vect_isr in BANK10

    None.

Critical Paths under _UART2_tx_vect_isr in BANK10

    None.

Critical Paths under _UART2_rx_vect_isr in BANK10

    None.

Critical Paths under _TMR6_ISR in BANK10

    None.

Critical Paths under _DMA1_DMASCNT_ISR in BANK10

    None.

Critical Paths under _DMA1_DMADCNT_ISR in BANK10

    None.

Critical Paths under _DMA1_DMAA_ISR in BANK10

    None.

Critical Paths under _DMA1_DMAOR_ISR in BANK10

    None.

Critical Paths under _main in BANK11

    None.

Critical Paths under _INT0_ISR in BANK11

    None.

Critical Paths under _INT1_ISR in BANK11

    None.

Critical Paths under _INT2_ISR in BANK11

    None.

Critical Paths under _Default_ISR in BANK11

    None.

Critical Paths under _ADCC_ISR in BANK11

    None.

Critical Paths under _UART1_tx_vect_isr in BANK11

    None.

Critical Paths under _UART1_rx_vect_isr in BANK11

    None.

Critical Paths under _UART2_tx_vect_isr in BANK11

    None.

Critical Paths under _UART2_rx_vect_isr in BANK11

    None.

Critical Paths under _TMR6_ISR in BANK11

    None.

Critical Paths under _DMA1_DMASCNT_ISR in BANK11

    None.

Critical Paths under _DMA1_DMADCNT_ISR in BANK11

    None.

Critical Paths under _DMA1_DMAA_ISR in BANK11

    None.

Critical Paths under _DMA1_DMAOR_ISR in BANK11

    None.

Critical Paths under _main in BANK12

    None.

Critical Paths under _INT0_ISR in BANK12

    None.

Critical Paths under _INT1_ISR in BANK12

    None.

Critical Paths under _INT2_ISR in BANK12

    None.

Critical Paths under _Default_ISR in BANK12

    None.

Critical Paths under _ADCC_ISR in BANK12

    None.

Critical Paths under _UART1_tx_vect_isr in BANK12

    None.

Critical Paths under _UART1_rx_vect_isr in BANK12

    None.

Critical Paths under _UART2_tx_vect_isr in BANK12

    None.

Critical Paths under _UART2_rx_vect_isr in BANK12

    None.

Critical Paths under _TMR6_ISR in BANK12

    None.

Critical Paths under _DMA1_DMASCNT_ISR in BANK12

    None.

Critical Paths under _DMA1_DMADCNT_ISR in BANK12

    None.

Critical Paths under _DMA1_DMAA_ISR in BANK12

    None.

Critical Paths under _DMA1_DMAOR_ISR in BANK12

    None.

Critical Paths under _main in BANK13

    None.

Critical Paths under _INT0_ISR in BANK13

    None.

Critical Paths under _INT1_ISR in BANK13

    None.

Critical Paths under _INT2_ISR in BANK13

    None.

Critical Paths under _Default_ISR in BANK13

    None.

Critical Paths under _ADCC_ISR in BANK13

    None.

Critical Paths under _UART1_tx_vect_isr in BANK13

    None.

Critical Paths under _UART1_rx_vect_isr in BANK13

    None.

Critical Paths under _UART2_tx_vect_isr in BANK13

    None.

Critical Paths under _UART2_rx_vect_isr in BANK13

    None.

Critical Paths under _TMR6_ISR in BANK13

    None.

Critical Paths under _DMA1_DMASCNT_ISR in BANK13

    None.

Critical Paths under _DMA1_DMADCNT_ISR in BANK13

    None.

Critical Paths under _DMA1_DMAA_ISR in BANK13

    None.

Critical Paths under _DMA1_DMAOR_ISR in BANK13

    None.

Critical Paths under _main in BANK14

    None.

Critical Paths under _INT0_ISR in BANK14

    None.

Critical Paths under _INT1_ISR in BANK14

    None.

Critical Paths under _INT2_ISR in BANK14

    None.

Critical Paths under _Default_ISR in BANK14

    None.

Critical Paths under _ADCC_ISR in BANK14

    None.

Critical Paths under _UART1_tx_vect_isr in BANK14

    None.

Critical Paths under _UART1_rx_vect_isr in BANK14

    None.

Critical Paths under _UART2_tx_vect_isr in BANK14

    None.

Critical Paths under _UART2_rx_vect_isr in BANK14

    None.

Critical Paths under _TMR6_ISR in BANK14

    None.

Critical Paths under _DMA1_DMASCNT_ISR in BANK14

    None.

Critical Paths under _DMA1_DMADCNT_ISR in BANK14

    None.

Critical Paths under _DMA1_DMAA_ISR in BANK14

    None.

Critical Paths under _DMA1_DMAOR_ISR in BANK14

    None.

Critical Paths under _main in BANK15

    None.

Critical Paths under _INT0_ISR in BANK15

    None.

Critical Paths under _INT1_ISR in BANK15

    None.

Critical Paths under _INT2_ISR in BANK15

    None.

Critical Paths under _Default_ISR in BANK15

    None.

Critical Paths under _ADCC_ISR in BANK15

    None.

Critical Paths under _UART1_tx_vect_isr in BANK15

    None.

Critical Paths under _UART1_rx_vect_isr in BANK15

    None.

Critical Paths under _UART2_tx_vect_isr in BANK15

    None.

Critical Paths under _UART2_rx_vect_isr in BANK15

    None.

Critical Paths under _TMR6_ISR in BANK15

    None.

Critical Paths under _DMA1_DMASCNT_ISR in BANK15

    None.

Critical Paths under _DMA1_DMADCNT_ISR in BANK15

    None.

Critical Paths under _DMA1_DMAA_ISR in BANK15

    None.

Critical Paths under _DMA1_DMAOR_ISR in BANK15

    None.

Critical Paths under _main in BANK16

    None.

Critical Paths under _INT0_ISR in BANK16

    None.

Critical Paths under _INT1_ISR in BANK16

    None.

Critical Paths under _INT2_ISR in BANK16

    None.

Critical Paths under _Default_ISR in BANK16

    None.

Critical Paths under _ADCC_ISR in BANK16

    None.

Critical Paths under _UART1_tx_vect_isr in BANK16

    None.

Critical Paths under _UART1_rx_vect_isr in BANK16

    None.

Critical Paths under _UART2_tx_vect_isr in BANK16

    None.

Critical Paths under _UART2_rx_vect_isr in BANK16

    None.

Critical Paths under _TMR6_ISR in BANK16

    None.

Critical Paths under _DMA1_DMASCNT_ISR in BANK16

    None.

Critical Paths under _DMA1_DMADCNT_ISR in BANK16

    None.

Critical Paths under _DMA1_DMAA_ISR in BANK16

    None.

Critical Paths under _DMA1_DMAOR_ISR in BANK16

    None.

Critical Paths under _main in BANK17

    None.

Critical Paths under _INT0_ISR in BANK17

    None.

Critical Paths under _INT1_ISR in BANK17

    None.

Critical Paths under _INT2_ISR in BANK17

    None.

Critical Paths under _Default_ISR in BANK17

    None.

Critical Paths under _ADCC_ISR in BANK17

    None.

Critical Paths under _UART1_tx_vect_isr in BANK17

    None.

Critical Paths under _UART1_rx_vect_isr in BANK17

    None.

Critical Paths under _UART2_tx_vect_isr in BANK17

    None.

Critical Paths under _UART2_rx_vect_isr in BANK17

    None.

Critical Paths under _TMR6_ISR in BANK17

    None.

Critical Paths under _DMA1_DMASCNT_ISR in BANK17

    None.

Critical Paths under _DMA1_DMADCNT_ISR in BANK17

    None.

Critical Paths under _DMA1_DMAA_ISR in BANK17

    None.

Critical Paths under _DMA1_DMAOR_ISR in BANK17

    None.

Critical Paths under _main in BANK18

    None.

Critical Paths under _INT0_ISR in BANK18

    None.

Critical Paths under _INT1_ISR in BANK18

    None.

Critical Paths under _INT2_ISR in BANK18

    None.

Critical Paths under _Default_ISR in BANK18

    None.

Critical Paths under _ADCC_ISR in BANK18

    None.

Critical Paths under _UART1_tx_vect_isr in BANK18

    None.

Critical Paths under _UART1_rx_vect_isr in BANK18

    None.

Critical Paths under _UART2_tx_vect_isr in BANK18

    None.

Critical Paths under _UART2_rx_vect_isr in BANK18

    None.

Critical Paths under _TMR6_ISR in BANK18

    None.

Critical Paths under _DMA1_DMASCNT_ISR in BANK18

    None.

Critical Paths under _DMA1_DMADCNT_ISR in BANK18

    None.

Critical Paths under _DMA1_DMAA_ISR in BANK18

    None.

Critical Paths under _DMA1_DMAOR_ISR in BANK18

    None.

Critical Paths under _main in BANK19

    None.

Critical Paths under _INT0_ISR in BANK19

    None.

Critical Paths under _INT1_ISR in BANK19

    None.

Critical Paths under _INT2_ISR in BANK19

    None.

Critical Paths under _Default_ISR in BANK19

    None.

Critical Paths under _ADCC_ISR in BANK19

    None.

Critical Paths under _UART1_tx_vect_isr in BANK19

    None.

Critical Paths under _UART1_rx_vect_isr in BANK19

    None.

Critical Paths under _UART2_tx_vect_isr in BANK19

    None.

Critical Paths under _UART2_rx_vect_isr in BANK19

    None.

Critical Paths under _TMR6_ISR in BANK19

    None.

Critical Paths under _DMA1_DMASCNT_ISR in BANK19

    None.

Critical Paths under _DMA1_DMADCNT_ISR in BANK19

    None.

Critical Paths under _DMA1_DMAA_ISR in BANK19

    None.

Critical Paths under _DMA1_DMAOR_ISR in BANK19

    None.

Critical Paths under _main in BANK20

    None.

Critical Paths under _INT0_ISR in BANK20

    None.

Critical Paths under _INT1_ISR in BANK20

    None.

Critical Paths under _INT2_ISR in BANK20

    None.

Critical Paths under _Default_ISR in BANK20

    None.

Critical Paths under _ADCC_ISR in BANK20

    None.

Critical Paths under _UART1_tx_vect_isr in BANK20

    None.

Critical Paths under _UART1_rx_vect_isr in BANK20

    None.

Critical Paths under _UART2_tx_vect_isr in BANK20

    None.

Critical Paths under _UART2_rx_vect_isr in BANK20

    None.

Critical Paths under _TMR6_ISR in BANK20

    None.

Critical Paths under _DMA1_DMASCNT_ISR in BANK20

    None.

Critical Paths under _DMA1_DMADCNT_ISR in BANK20

    None.

Critical Paths under _DMA1_DMAA_ISR in BANK20

    None.

Critical Paths under _DMA1_DMAOR_ISR in BANK20

    None.

Critical Paths under _main in BANK21

    None.

Critical Paths under _INT0_ISR in BANK21

    None.

Critical Paths under _INT1_ISR in BANK21

    None.

Critical Paths under _INT2_ISR in BANK21

    None.

Critical Paths under _Default_ISR in BANK21

    None.

Critical Paths under _ADCC_ISR in BANK21

    None.

Critical Paths under _UART1_tx_vect_isr in BANK21

    None.

Critical Paths under _UART1_rx_vect_isr in BANK21

    None.

Critical Paths under _UART2_tx_vect_isr in BANK21

    None.

Critical Paths under _UART2_rx_vect_isr in BANK21

    None.

Critical Paths under _TMR6_ISR in BANK21

    None.

Critical Paths under _DMA1_DMASCNT_ISR in BANK21

    None.

Critical Paths under _DMA1_DMADCNT_ISR in BANK21

    None.

Critical Paths under _DMA1_DMAA_ISR in BANK21

    None.

Critical Paths under _DMA1_DMAOR_ISR in BANK21

    None.

Critical Paths under _main in BANK22

    None.

Critical Paths under _INT0_ISR in BANK22

    None.

Critical Paths under _INT1_ISR in BANK22

    None.

Critical Paths under _INT2_ISR in BANK22

    None.

Critical Paths under _Default_ISR in BANK22

    None.

Critical Paths under _ADCC_ISR in BANK22

    None.

Critical Paths under _UART1_tx_vect_isr in BANK22

    None.

Critical Paths under _UART1_rx_vect_isr in BANK22

    None.

Critical Paths under _UART2_tx_vect_isr in BANK22

    None.

Critical Paths under _UART2_rx_vect_isr in BANK22

    None.

Critical Paths under _TMR6_ISR in BANK22

    None.

Critical Paths under _DMA1_DMASCNT_ISR in BANK22

    None.

Critical Paths under _DMA1_DMADCNT_ISR in BANK22

    None.

Critical Paths under _DMA1_DMAA_ISR in BANK22

    None.

Critical Paths under _DMA1_DMAOR_ISR in BANK22

    None.

Critical Paths under _main in BANK23

    None.

Critical Paths under _INT0_ISR in BANK23

    None.

Critical Paths under _INT1_ISR in BANK23

    None.

Critical Paths under _INT2_ISR in BANK23

    None.

Critical Paths under _Default_ISR in BANK23

    None.

Critical Paths under _ADCC_ISR in BANK23

    None.

Critical Paths under _UART1_tx_vect_isr in BANK23

    None.

Critical Paths under _UART1_rx_vect_isr in BANK23

    None.

Critical Paths under _UART2_tx_vect_isr in BANK23

    None.

Critical Paths under _UART2_rx_vect_isr in BANK23

    None.

Critical Paths under _TMR6_ISR in BANK23

    None.

Critical Paths under _DMA1_DMASCNT_ISR in BANK23

    None.

Critical Paths under _DMA1_DMADCNT_ISR in BANK23

    None.

Critical Paths under _DMA1_DMAA_ISR in BANK23

    None.

Critical Paths under _DMA1_DMAOR_ISR in BANK23

    None.

Critical Paths under _main in BANK24

    None.

Critical Paths under _INT0_ISR in BANK24

    None.

Critical Paths under _INT1_ISR in BANK24

    None.

Critical Paths under _INT2_ISR in BANK24

    None.

Critical Paths under _Default_ISR in BANK24

    None.

Critical Paths under _ADCC_ISR in BANK24

    None.

Critical Paths under _UART1_tx_vect_isr in BANK24

    None.

Critical Paths under _UART1_rx_vect_isr in BANK24

    None.

Critical Paths under _UART2_tx_vect_isr in BANK24

    None.

Critical Paths under _UART2_rx_vect_isr in BANK24

    None.

Critical Paths under _TMR6_ISR in BANK24

    None.

Critical Paths under _DMA1_DMASCNT_ISR in BANK24

    None.

Critical Paths under _DMA1_DMADCNT_ISR in BANK24

    None.

Critical Paths under _DMA1_DMAA_ISR in BANK24

    None.

Critical Paths under _DMA1_DMAOR_ISR in BANK24

    None.

Critical Paths under _main in BANK25

    None.

Critical Paths under _INT0_ISR in BANK25

    None.

Critical Paths under _INT1_ISR in BANK25

    None.

Critical Paths under _INT2_ISR in BANK25

    None.

Critical Paths under _Default_ISR in BANK25

    None.

Critical Paths under _ADCC_ISR in BANK25

    None.

Critical Paths under _UART1_tx_vect_isr in BANK25

    None.

Critical Paths under _UART1_rx_vect_isr in BANK25

    None.

Critical Paths under _UART2_tx_vect_isr in BANK25

    None.

Critical Paths under _UART2_rx_vect_isr in BANK25

    None.

Critical Paths under _TMR6_ISR in BANK25

    None.

Critical Paths under _DMA1_DMASCNT_ISR in BANK25

    None.

Critical Paths under _DMA1_DMADCNT_ISR in BANK25

    None.

Critical Paths under _DMA1_DMAA_ISR in BANK25

    None.

Critical Paths under _DMA1_DMAOR_ISR in BANK25

    None.

Critical Paths under _main in BANK26

    None.

Critical Paths under _INT0_ISR in BANK26

    None.

Critical Paths under _INT1_ISR in BANK26

    None.

Critical Paths under _INT2_ISR in BANK26

    None.

Critical Paths under _Default_ISR in BANK26

    None.

Critical Paths under _ADCC_ISR in BANK26

    None.

Critical Paths under _UART1_tx_vect_isr in BANK26

    None.

Critical Paths under _UART1_rx_vect_isr in BANK26

    None.

Critical Paths under _UART2_tx_vect_isr in BANK26

    None.

Critical Paths under _UART2_rx_vect_isr in BANK26

    None.

Critical Paths under _TMR6_ISR in BANK26

    None.

Critical Paths under _DMA1_DMASCNT_ISR in BANK26

    None.

Critical Paths under _DMA1_DMADCNT_ISR in BANK26

    None.

Critical Paths under _DMA1_DMAA_ISR in BANK26

    None.

Critical Paths under _DMA1_DMAOR_ISR in BANK26

    None.

Critical Paths under _main in BANK27

    None.

Critical Paths under _INT0_ISR in BANK27

    None.

Critical Paths under _INT1_ISR in BANK27

    None.

Critical Paths under _INT2_ISR in BANK27

    None.

Critical Paths under _Default_ISR in BANK27

    None.

Critical Paths under _ADCC_ISR in BANK27

    None.

Critical Paths under _UART1_tx_vect_isr in BANK27

    None.

Critical Paths under _UART1_rx_vect_isr in BANK27

    None.

Critical Paths under _UART2_tx_vect_isr in BANK27

    None.

Critical Paths under _UART2_rx_vect_isr in BANK27

    None.

Critical Paths under _TMR6_ISR in BANK27

    None.

Critical Paths under _DMA1_DMASCNT_ISR in BANK27

    None.

Critical Paths under _DMA1_DMADCNT_ISR in BANK27

    None.

Critical Paths under _DMA1_DMAA_ISR in BANK27

    None.

Critical Paths under _DMA1_DMAOR_ISR in BANK27

    None.

Critical Paths under _main in BANK28

    None.

Critical Paths under _INT0_ISR in BANK28

    None.

Critical Paths under _INT1_ISR in BANK28

    None.

Critical Paths under _INT2_ISR in BANK28

    None.

Critical Paths under _Default_ISR in BANK28

    None.

Critical Paths under _ADCC_ISR in BANK28

    None.

Critical Paths under _UART1_tx_vect_isr in BANK28

    None.

Critical Paths under _UART1_rx_vect_isr in BANK28

    None.

Critical Paths under _UART2_tx_vect_isr in BANK28

    None.

Critical Paths under _UART2_rx_vect_isr in BANK28

    None.

Critical Paths under _TMR6_ISR in BANK28

    None.

Critical Paths under _DMA1_DMASCNT_ISR in BANK28

    None.

Critical Paths under _DMA1_DMADCNT_ISR in BANK28

    None.

Critical Paths under _DMA1_DMAA_ISR in BANK28

    None.

Critical Paths under _DMA1_DMAOR_ISR in BANK28

    None.

Critical Paths under _main in BANK29

    None.

Critical Paths under _INT0_ISR in BANK29

    None.

Critical Paths under _INT1_ISR in BANK29

    None.

Critical Paths under _INT2_ISR in BANK29

    None.

Critical Paths under _Default_ISR in BANK29

    None.

Critical Paths under _ADCC_ISR in BANK29

    None.

Critical Paths under _UART1_tx_vect_isr in BANK29

    None.

Critical Paths under _UART1_rx_vect_isr in BANK29

    None.

Critical Paths under _UART2_tx_vect_isr in BANK29

    None.

Critical Paths under _UART2_rx_vect_isr in BANK29

    None.

Critical Paths under _TMR6_ISR in BANK29

    None.

Critical Paths under _DMA1_DMASCNT_ISR in BANK29

    None.

Critical Paths under _DMA1_DMADCNT_ISR in BANK29

    None.

Critical Paths under _DMA1_DMAA_ISR in BANK29

    None.

Critical Paths under _DMA1_DMAOR_ISR in BANK29

    None.

Critical Paths under _main in BANK30

    None.

Critical Paths under _INT0_ISR in BANK30

    None.

Critical Paths under _INT1_ISR in BANK30

    None.

Critical Paths under _INT2_ISR in BANK30

    None.

Critical Paths under _Default_ISR in BANK30

    None.

Critical Paths under _ADCC_ISR in BANK30

    None.

Critical Paths under _UART1_tx_vect_isr in BANK30

    None.

Critical Paths under _UART1_rx_vect_isr in BANK30

    None.

Critical Paths under _UART2_tx_vect_isr in BANK30

    None.

Critical Paths under _UART2_rx_vect_isr in BANK30

    None.

Critical Paths under _TMR6_ISR in BANK30

    None.

Critical Paths under _DMA1_DMASCNT_ISR in BANK30

    None.

Critical Paths under _DMA1_DMADCNT_ISR in BANK30

    None.

Critical Paths under _DMA1_DMAA_ISR in BANK30

    None.

Critical Paths under _DMA1_DMAOR_ISR in BANK30

    None.

Critical Paths under _main in BANK31

    None.

Critical Paths under _INT0_ISR in BANK31

    None.

Critical Paths under _INT1_ISR in BANK31

    None.

Critical Paths under _INT2_ISR in BANK31

    None.

Critical Paths under _Default_ISR in BANK31

    None.

Critical Paths under _ADCC_ISR in BANK31

    None.

Critical Paths under _UART1_tx_vect_isr in BANK31

    None.

Critical Paths under _UART1_rx_vect_isr in BANK31

    None.

Critical Paths under _UART2_tx_vect_isr in BANK31

    None.

Critical Paths under _UART2_rx_vect_isr in BANK31

    None.

Critical Paths under _TMR6_ISR in BANK31

    None.

Critical Paths under _DMA1_DMASCNT_ISR in BANK31

    None.

Critical Paths under _DMA1_DMADCNT_ISR in BANK31

    None.

Critical Paths under _DMA1_DMAA_ISR in BANK31

    None.

Critical Paths under _DMA1_DMAOR_ISR in BANK31

    None.

Call Graph Tables:

 ---------------------------------------------------------------------------------
 (Depth) Function   	        Calls       Base Space   Used Autos Params    Refs
 ---------------------------------------------------------------------------------
 (0) _main                                                 8     8      0   23933
                  _SYSTEM_Initialize
                        _UART1_Write
                     _block_checksum
                 _eaDogM_WriteString
                       _init_display
                         _r_protocol
                            _sprintf
                         _t_protocol
                     _wait_lcd_check
                      _wait_lcd_done
 ---------------------------------------------------------------------------------
 (1) _wait_lcd_done                                        0     0      0      22
                           _wdtdelay
 ---------------------------------------------------------------------------------
 (1) _wait_lcd_check                                       0     0      0       0
 ---------------------------------------------------------------------------------
 (1) _t_protocol                                           2     1      1     400
                         _StartTimer
                          _TimerDone
                         _UART1_Read
                        _UART1_Write
                  _UART1_is_rx_ready
 ---------------------------------------------------------------------------------
 (1) _sprintf                                             35     9     26    9866
                           _vfprintf
 ---------------------------------------------------------------------------------
 (1) _r_protocol                                           2     1      1     532
                         _StartTimer
                          _TimerDone
                         _UART1_Read
                        _UART1_Write
                  _UART1_is_rx_ready
                       _run_checksum
 ---------------------------------------------------------------------------------
 (2) _run_checksum                                         2     0      2      44
 ---------------------------------------------------------------------------------
 (2) _UART1_is_rx_ready                                    0     0      0       0
 ---------------------------------------------------------------------------------
 (2) _UART1_Write                                          1     0      1      44
 ---------------------------------------------------------------------------------
 (2) _UART1_Read                                           1     1      0      24
 ---------------------------------------------------------------------------------
 (2) _TimerDone                                            1     0      1      22
 ---------------------------------------------------------------------------------
 (2) _StartTimer                                           3     0      3      44
 ---------------------------------------------------------------------------------
 (1) _init_display                                         0     0      0    1202
                      _ringBufS_init
                       _send_lcd_cmd
                  _send_lcd_cmd_long
                           _wdtdelay
 ---------------------------------------------------------------------------------
 (2) _send_lcd_cmd_long                                    1     0      1      66
                  _SPI1_Exchange8bit
                           _wdtdelay
 ---------------------------------------------------------------------------------
 (2) _send_lcd_cmd                                         1     0      1      66
                  _SPI1_Exchange8bit
                           _wdtdelay
 ---------------------------------------------------------------------------------
 (2) _wdtdelay                                             4     0      4      22
 ---------------------------------------------------------------------------------
 (3) _SPI1_Exchange8bit                                    1     0      1      22
 ---------------------------------------------------------------------------------
 (2) _ringBufS_init                                        2     0      2    1048
                             _memset
 ---------------------------------------------------------------------------------
 (1) _eaDogM_WriteString                                   1     0      1   11027
                             _printf
                     _ringBufS_flush
                          _start_lcd
                             _strlen
                       _wait_lcd_set
 ---------------------------------------------------------------------------------
 (2) _wait_lcd_set                                         0     0      0       0
 ---------------------------------------------------------------------------------
 (2) _start_lcd                                            0     0      0       0
 ---------------------------------------------------------------------------------
 (2) _ringBufS_flush                                       3     0      3    1172
                             _memset
 ---------------------------------------------------------------------------------
 (3) _memset                                              10     4      6    1017
 ---------------------------------------------------------------------------------
 (2) _printf                                               7     4      3    9641
                           _vfprintf
 ---------------------------------------------------------------------------------
 (2) _vfprintf                                             6     1      5    9542
                          _vfpfcnvrt
 ---------------------------------------------------------------------------------
 (3) _vfpfcnvrt                                           41    35      6    9255
                               _atoi
                               _dtoa
                              _fputc
                            _isdigit
                               _stoa
                               _xtoa
 ---------------------------------------------------------------------------------
 (4) _xtoa                                                31    20     11    2664
                            _isalpha
                            _isupper
                                _pad
                            _toupper
 ---------------------------------------------------------------------------------
 (5) _toupper                                              4     2      2     134
                            _islower
 ---------------------------------------------------------------------------------
 (6) _islower                                              2     0      2      22
 ---------------------------------------------------------------------------------
 (5) _isupper                                              2     0      2      22
 ---------------------------------------------------------------------------------
 (5) _isalpha                                              2     0      2      22
 ---------------------------------------------------------------------------------
 (4) _stoa                                                21    17      4    1289
                              _fputc
                             _strlen
 ---------------------------------------------------------------------------------
 (4) _dtoa                                                28    18     10    2978
                            ___aodiv
                            ___aomod
                                _abs
                                _pad
 ---------------------------------------------------------------------------------
 (5) _pad                                                 10     4      6    1651
                              _fputc
                              _fputs
                             _strlen
 ---------------------------------------------------------------------------------
 (6) _strlen                                               4     2      2      90
 ---------------------------------------------------------------------------------
 (6) _fputs                                                7     3      4     674
                              _fputc
 ---------------------------------------------------------------------------------
 (7) _fputc                                                4     0      4     534
                              _putch
 ---------------------------------------------------------------------------------
 (8) _putch                                                1     0      1     217
                   _ringBufS_put_dma
 ---------------------------------------------------------------------------------
 (9) _ringBufS_put_dma                                     3     0      3     186
 ---------------------------------------------------------------------------------
 (5) _abs                                                  2     0      2      66
 ---------------------------------------------------------------------------------
 (5) ___aomod                                             18     2     16     296
 ---------------------------------------------------------------------------------
 (5) ___aodiv                                             26    10     16     300
 ---------------------------------------------------------------------------------
 (4) _atoi                                                10     9      1     411
                            _isdigit
                            _isspace
 ---------------------------------------------------------------------------------
 (5) _isspace                                              3     1      2      68
 ---------------------------------------------------------------------------------
 (4) _isdigit                                              2     0      2      22
 ---------------------------------------------------------------------------------
 (1) _block_checksum                                       7     4      3     114
 ---------------------------------------------------------------------------------
 (1) _SYSTEM_Initialize                                    0     0      0     221
                    _ADCC_Initialize
                    _CLC1_Initialize
                  _CLKREF_Initialize
                    _DMA1_Initialize
                     _DSM_Initialize
                 _EXT_INT_Initialize
               _INTERRUPT_Initialize
                    _NCO1_Initialize
              _OSCILLATOR_Initialize
             _PIN_MANAGER_Initialize
                     _PMD_Initialize
                    _SPI1_Initialize
                    _TMR6_Initialize
                   _UART1_Initialize
                   _UART2_Initialize
 ---------------------------------------------------------------------------------
 (2) _UART2_Initialize                                     0     0      0      44
        _UART2_SetRxInterruptHandler
        _UART2_SetTxInterruptHandler
 ---------------------------------------------------------------------------------
 (3) _UART2_SetTxInterruptHandler                          3     0      3      22
 ---------------------------------------------------------------------------------
 (3) _UART2_SetRxInterruptHandler                          3     0      3      22
 ---------------------------------------------------------------------------------
 (2) _UART1_Initialize                                     0     0      0      44
        _UART1_SetRxInterruptHandler
        _UART1_SetTxInterruptHandler
 ---------------------------------------------------------------------------------
 (3) _UART1_SetTxInterruptHandler                          3     0      3      22
 ---------------------------------------------------------------------------------
 (3) _UART1_SetRxInterruptHandler                          3     0      3      22
 ---------------------------------------------------------------------------------
 (2) _TMR6_Initialize                                      0     0      0      22
           _TMR6_SetInterruptHandler
 ---------------------------------------------------------------------------------
 (3) _TMR6_SetInterruptHandler                             3     0      3      22
 ---------------------------------------------------------------------------------
 (2) _SPI1_Initialize                                      0     0      0       0
 ---------------------------------------------------------------------------------
 (2) _PMD_Initialize                                       0     0      0       0
 ---------------------------------------------------------------------------------
 (2) _PIN_MANAGER_Initialize                               0     0      0       0
 ---------------------------------------------------------------------------------
 (2) _OSCILLATOR_Initialize                                0     0      0       0
 ---------------------------------------------------------------------------------
 (2) _NCO1_Initialize                                      0     0      0       0
 ---------------------------------------------------------------------------------
 (2) _INTERRUPT_Initialize                                 1     1      0      23
 ---------------------------------------------------------------------------------
 (2) _EXT_INT_Initialize                                   0     0      0      66
           _INT0_SetInterruptHandler
           _INT1_SetInterruptHandler
           _INT2_SetInterruptHandler
 ---------------------------------------------------------------------------------
 (3) _INT2_SetInterruptHandler                             3     0      3      22
 ---------------------------------------------------------------------------------
 (3) _INT1_SetInterruptHandler                             3     0      3      22
 ---------------------------------------------------------------------------------
 (3) _INT0_SetInterruptHandler                             3     0      3      22
 ---------------------------------------------------------------------------------
 (2) _DSM_Initialize                                       0     0      0       0
 ---------------------------------------------------------------------------------
 (2) _DMA1_Initialize                                      0     0      0       0
 ---------------------------------------------------------------------------------
 (2) _CLKREF_Initialize                                    0     0      0       0
 ---------------------------------------------------------------------------------
 (2) _CLC1_Initialize                                      0     0      0       0
 ---------------------------------------------------------------------------------
 (2) _ADCC_Initialize                                      0     0      0      22
        _ADCC_SetADIInterruptHandler
 ---------------------------------------------------------------------------------
 (3) _ADCC_SetADIInterruptHandler                          3     0      3      22
 ---------------------------------------------------------------------------------
 (Depth) Function   	        Calls       Base Space   Used Autos Params    Refs
 ---------------------------------------------------------------------------------
 (11) _INT0_ISR                                            0     0      0       0
                      _INT0_CallBack
 ---------------------------------------------------------------------------------
 (12) _INT0_CallBack                                       0     0      0       0
                   Absolute function *
       _INT0_DefaultInterruptHandler *
 ---------------------------------------------------------------------------------
 (13) _INT0_DefaultInterruptHandler                        0     0      0       0
 ---------------------------------------------------------------------------------
 (13) Absolute function(Fake)                              0     0      0       0
 ---------------------------------------------------------------------------------
 (Depth) Function   	        Calls       Base Space   Used Autos Params    Refs
 ---------------------------------------------------------------------------------
 (11) _INT1_ISR                                            0     0      0       0
                      _INT1_CallBack
 ---------------------------------------------------------------------------------
 (12) _INT1_CallBack                                       0     0      0       0
                   Absolute function *
       _INT1_DefaultInterruptHandler *
 ---------------------------------------------------------------------------------
 (13) _INT1_DefaultInterruptHandler                        0     0      0       0
 ---------------------------------------------------------------------------------
 (13) Absolute function(Fake)                              0     0      0       0
 ---------------------------------------------------------------------------------
 (Depth) Function   	        Calls       Base Space   Used Autos Params    Refs
 ---------------------------------------------------------------------------------
 (11) _INT2_ISR                                            0     0      0       0
                      _INT2_CallBack
 ---------------------------------------------------------------------------------
 (12) _INT2_CallBack                                       0     0      0       0
                   Absolute function *
       _INT2_DefaultInterruptHandler *
 ---------------------------------------------------------------------------------
 (13) _INT2_DefaultInterruptHandler                        0     0      0       0
 ---------------------------------------------------------------------------------
 (13) Absolute function(Fake)                              0     0      0       0
 ---------------------------------------------------------------------------------
 (Depth) Function   	        Calls       Base Space   Used Autos Params    Refs
 ---------------------------------------------------------------------------------
 (11) _Default_ISR                                         0     0      0       0
 ---------------------------------------------------------------------------------
 (Depth) Function   	        Calls       Base Space   Used Autos Params    Refs
 ---------------------------------------------------------------------------------
 (11) _ADCC_ISR                                            0     0      0       0
                   Absolute function *
       _ADCC_DefaultInterruptHandler *
 ---------------------------------------------------------------------------------
 (12) _ADCC_DefaultInterruptHandler                        0     0      0       0
 ---------------------------------------------------------------------------------
 (13) Absolute function(Fake)                              0     0      0       0
 ---------------------------------------------------------------------------------
 (Depth) Function   	        Calls       Base Space   Used Autos Params    Refs
 ---------------------------------------------------------------------------------
 (11) _UART1_tx_vect_isr                                   0     0      0       0
                   Absolute function *
                 _UART1_Transmit_ISR *
 ---------------------------------------------------------------------------------
 (12) _UART1_Transmit_ISR                                  0     0      0       0
 ---------------------------------------------------------------------------------
 (13) Absolute function(Fake)                              0     0      0       0
 ---------------------------------------------------------------------------------
 (Depth) Function   	        Calls       Base Space   Used Autos Params    Refs
 ---------------------------------------------------------------------------------
 (11) _UART1_rx_vect_isr                                   0     0      0       0
                   Absolute function *
                  _UART1_Receive_ISR *
 ---------------------------------------------------------------------------------
 (12) _UART1_Receive_ISR                                   0     0      0       0
 ---------------------------------------------------------------------------------
 (13) Absolute function(Fake)                              0     0      0       0
 ---------------------------------------------------------------------------------
 (Depth) Function   	        Calls       Base Space   Used Autos Params    Refs
 ---------------------------------------------------------------------------------
 (11) _UART2_tx_vect_isr                                   0     0      0       0
                   Absolute function *
                 _UART2_Transmit_ISR *
 ---------------------------------------------------------------------------------
 (12) _UART2_Transmit_ISR                                  0     0      0       0
 ---------------------------------------------------------------------------------
 (13) Absolute function(Fake)                              0     0      0       0
 ---------------------------------------------------------------------------------
 (Depth) Function   	        Calls       Base Space   Used Autos Params    Refs
 ---------------------------------------------------------------------------------
 (11) _UART2_rx_vect_isr                                   0     0      0       0
                   Absolute function *
                  _UART2_Receive_ISR *
 ---------------------------------------------------------------------------------
 (12) _UART2_Receive_ISR                                   0     0      0       0
 ---------------------------------------------------------------------------------
 (13) Absolute function(Fake)                              0     0      0       0
 ---------------------------------------------------------------------------------
 (Depth) Function   	        Calls       Base Space   Used Autos Params    Refs
 ---------------------------------------------------------------------------------
 (11) _TMR6_ISR                                            2     2      0      90
                                              0 COMRAM     2     2      0
                      _TMR6_CallBack
 ---------------------------------------------------------------------------------
 (12) _TMR6_CallBack                                       0     0      0      90
                   Absolute function *
       _TMR6_DefaultInterruptHandler *
 ---------------------------------------------------------------------------------
 (13) _TMR6_DefaultInterruptHandler                        1     1      0      90
 ---------------------------------------------------------------------------------
 (13) Absolute function(Fake)                              0     0      0       0
 ---------------------------------------------------------------------------------
 (Depth) Function   	        Calls       Base Space   Used Autos Params    Refs
 ---------------------------------------------------------------------------------
 (11) _DMA1_DMASCNT_ISR                                    0     0      0       0
 ---------------------------------------------------------------------------------
 (Depth) Function   	        Calls       Base Space   Used Autos Params    Refs
 ---------------------------------------------------------------------------------
 (11) _DMA1_DMADCNT_ISR                                    0     0      0       0
 ---------------------------------------------------------------------------------
 (Depth) Function   	        Calls       Base Space   Used Autos Params    Refs
 ---------------------------------------------------------------------------------
 (11) _DMA1_DMAA_ISR                                       0     0      0       0
 ---------------------------------------------------------------------------------
 (Depth) Function   	        Calls       Base Space   Used Autos Params    Refs
 ---------------------------------------------------------------------------------
 (11) _DMA1_DMAOR_ISR                                      0     0      0       0
 ---------------------------------------------------------------------------------
 Estimated maximum stack depth 11
 ---------------------------------------------------------------------------------

 Call Graph Graphs:

 _main (ROOT)
   _SYSTEM_Initialize
     _ADCC_Initialize
       _ADCC_SetADIInterruptHandler
     _CLC1_Initialize
     _CLKREF_Initialize
     _DMA1_Initialize
     _DSM_Initialize
     _EXT_INT_Initialize
       _INT0_SetInterruptHandler
       _INT1_SetInterruptHandler
       _INT2_SetInterruptHandler
     _INTERRUPT_Initialize
     _NCO1_Initialize
     _OSCILLATOR_Initialize
     _PIN_MANAGER_Initialize
     _PMD_Initialize
     _SPI1_Initialize
     _TMR6_Initialize
       _TMR6_SetInterruptHandler
     _UART1_Initialize
       _UART1_SetRxInterruptHandler
       _UART1_SetTxInterruptHandler
     _UART2_Initialize
       _UART2_SetRxInterruptHandler
       _UART2_SetTxInterruptHandler
   _UART1_Write
   _block_checksum
   _eaDogM_WriteString
     _printf
       _vfprintf
         _vfpfcnvrt
           _atoi
             _isdigit
             _isspace
           _dtoa
             ___aodiv
             ___aomod
             _abs
             _pad
               _fputc
                 _putch
                   _ringBufS_put_dma
               _fputs
                 _fputc
                   _putch
                     _ringBufS_put_dma
               _strlen
           _fputc
             _putch
               _ringBufS_put_dma
           _isdigit
           _stoa
             _fputc
               _putch
                 _ringBufS_put_dma
             _strlen
           _xtoa
             _isalpha
             _isupper
             _pad
               _fputc
                 _putch
                   _ringBufS_put_dma
               _fputs
                 _fputc
                   _putch
                     _ringBufS_put_dma
               _strlen
             _toupper
               _islower
     _ringBufS_flush
       _memset
     _start_lcd
     _strlen
     _wait_lcd_set
   _init_display
     _ringBufS_init
       _memset
     _send_lcd_cmd
       _SPI1_Exchange8bit
       _wdtdelay
     _send_lcd_cmd_long
       _SPI1_Exchange8bit
       _wdtdelay
     _wdtdelay
   _r_protocol
     _StartTimer
     _TimerDone
     _UART1_Read
     _UART1_Write
     _UART1_is_rx_ready
     _run_checksum
   _sprintf
     _vfprintf
       _vfpfcnvrt
         _atoi
           _isdigit
           _isspace
         _dtoa
           ___aodiv
           ___aomod
           _abs
           _pad
             _fputc
               _putch
                 _ringBufS_put_dma
             _fputs
               _fputc
                 _putch
                   _ringBufS_put_dma
             _strlen
         _fputc
           _putch
             _ringBufS_put_dma
         _isdigit
         _stoa
           _fputc
             _putch
               _ringBufS_put_dma
           _strlen
         _xtoa
           _isalpha
           _isupper
           _pad
             _fputc
               _putch
                 _ringBufS_put_dma
             _fputs
               _fputc
                 _putch
                   _ringBufS_put_dma
             _strlen
           _toupper
             _islower
   _t_protocol
     _StartTimer
     _TimerDone
     _UART1_Read
     _UART1_Write
     _UART1_is_rx_ready
   _wait_lcd_check
   _wait_lcd_done
     _wdtdelay

 _INT0_ISR (ROOT)
   _INT0_CallBack
     Absolute function(Fake) *
     _INT0_DefaultInterruptHandler *

 _INT1_ISR (ROOT)
   _INT1_CallBack
     Absolute function(Fake) *
     _INT1_DefaultInterruptHandler *

 _INT2_ISR (ROOT)
   _INT2_CallBack
     Absolute function(Fake) *
     _INT2_DefaultInterruptHandler *

 _Default_ISR (ROOT)

 _ADCC_ISR (ROOT)
   Absolute function(Fake) *
   _ADCC_DefaultInterruptHandler *

 _UART1_tx_vect_isr (ROOT)
   Absolute function(Fake) *
   _UART1_Transmit_ISR *

 _UART1_rx_vect_isr (ROOT)
   Absolute function(Fake) *
   _UART1_Receive_ISR *

 _UART2_tx_vect_isr (ROOT)
   Absolute function(Fake) *
   _UART2_Transmit_ISR *

 _UART2_rx_vect_isr (ROOT)
   Absolute function(Fake) *
   _UART2_Receive_ISR *

 _TMR6_ISR (ROOT)
   _TMR6_CallBack
     Absolute function(Fake) *
     _TMR6_DefaultInterruptHandler *

 _DMA1_DMASCNT_ISR (ROOT)

 _DMA1_DMADCNT_ISR (ROOT)

 _DMA1_DMAA_ISR (ROOT)

 _DMA1_DMAOR_ISR (ROOT)

 Address spaces:
Name               Size   Autos  Total    Cost      Usage
BIGRAM            1FFF      0       0      69        0.0%
EEDATA             400      0       0       0        0.0%
BITBANK31          100      0       0      67        0.0%
BANK31             100      0       0      68        0.0%
BITBANK30          100      0       0      65        0.0%
BANK30             100      0       0      66        0.0%
BITBANK29          100      0       0      63        0.0%
BANK29             100      0       0      64        0.0%
BITBANK28          100      0       0      61        0.0%
BANK28             100      0       0      62        0.0%
BITBANK27          100      0       0      59        0.0%
BANK27             100      0       0      60        0.0%
BITBANK26          100      0       0      56        0.0%
BANK26             100      0       0      57        0.0%
BITBANK25          100      0       0      54        0.0%
BANK25             100      0       0      55        0.0%
BITBANK24          100      0       0      52        0.0%
BANK24             100      0       0      53        0.0%
BITBANK23          100      0       0      50        0.0%
BANK23             100      0       0      51        0.0%
BITBANK22          100      0       0      48        0.0%
BANK22             100      0       0      49        0.0%
BITBANK21          100      0       0      46        0.0%
BANK21             100      0       0      47        0.0%
BITBANK20          100      0       0      44        0.0%
BANK20             100      0       0      45        0.0%
BITBANK19          100      0       0      42        0.0%
BANK19             100      0       0      43        0.0%
BITBANK18          100      0       0      40        0.0%
BANK18             100      0       0      41        0.0%
BITBANK17          100      0       0      38        0.0%
BANK17             100      0       0      39        0.0%
BITBANK16          100      0       0      36        0.0%
BANK16             100      0       0      37        0.0%
BITBANK15          100      0       0      34        0.0%
BANK15             100      0       0      35        0.0%
BITBANK14          100      0       0      32        0.0%
BANK14             100      0       0      33        0.0%
BITBANK13          100      0       0      30        0.0%
BANK13             100      0       0      31        0.0%
BITBANK12          100      0       0      28        0.0%
BANK12             100      0       0      29        0.0%
BITBANK11          100      0       0      26        0.0%
BANK11             100      0       0      27        0.0%
BITBANK10          100      0       0      24        0.0%
BANK10             100      0       0      25        0.0%
BITBANK9           100      0       0      22        0.0%
BANK9              100      0       0      23        0.0%
BITBANK8           100      0       0      20        0.0%
BANK8              100      0       0      21        0.0%
BITBANK7           100      0       0      18        0.0%
BANK7              100      0       0      19        0.0%
BITBANK6           100      0       0      16        0.0%
BANK6              100      0       0      17        0.0%
BITBANK5           100      0       0      14        0.0%
BANK5              100      0       0      15        0.0%
BITBANK4           100      0       0      12        0.0%
BANK4              100      0       0      13        0.0%
BITBANK3           100      0       0      10        0.0%
BANK3              100      0       0      11        0.0%
BITBANK2           100      0       0       8        0.0%
BANK2              100      0      C6       9       77.3%
BITBANK1           100      0       0       6        0.0%
BANK1              100      0      E0       7       87.5%
BITBANK0            A0      0       0       4        0.0%
BANK0               A0      0      9B       5       96.9%
BITCOMRAM           3F      0       0       0        0.0%
COMRAM              3F      2      3F       1      100.0%
BITSFR_8             0      0       0     200        0.0%
SFR_8                0      0       0     200        0.0%
BITSFR_7             0      0       0     200        0.0%
SFR_7                0      0       0     200        0.0%
BITSFR_6             0      0       0     200        0.0%
SFR_6                0      0       0     200        0.0%
BITSFR_5             0      0       0     200        0.0%
SFR_5                0      0       0     200        0.0%
BITSFR_4             0      0       0     200        0.0%
SFR_4                0      0       0     200        0.0%
BITSFR_3             0      0       0     200        0.0%
SFR_3                0      0       0     200        0.0%
BITSFR_2             0      0       0     200        0.0%
SFR_2                0      0       0     200        0.0%
BITSFR_1             0      0       0     200        0.0%
SFR_1                0      0       0     200        0.0%
BITSFR               0      0       0     200        0.0%
SFR                  0      0       0     200        0.0%
STACK                0      0       0       2        0.0%
NULL                 0      0       0       0        0.0%
ABS                  0      0     280      58        0.0%
DATA                 0      0     280       3        0.0%
CODE                 0      0       0       0        0.0%


Microchip Technology PIC18 Macro Assembler V2.05 build -831301201 
Symbol Table                                                                                   Wed Mar  6 18:01:57 2019

                    _SPI1_Exchange8bit 55E2                                      _V 0085  
                          __CFG_CP$OFF 000000                __size_of_ringBufS_flush 0092  
                          __CFG_LVP$ON 000000                                    _H10 00D4  
                                  l190 5694                                    l713 5186  
                                  l568 5016                                    l579 4FC4  
                                  l597 515A                                    l845 55F0  
                                  _GIE 01FE97                                    _abs 4F24  
                                  _pad 41CC                __size_of_PMD_Initialize 0014  
                                  tosl 003FFD                                    wreg 003FE8  
                        _INT0_CallBack 551A                           _run_checksum 51B6  
                   _UART1_Transmit_ISR 5134                          __CFG_BBEN$OFF 000000  
                        _INT1_CallBack 553C                           __CFG_ZCD$OFF 000000  
                                 l1130 3364                                   l1203 4DEE  
                                 l1125 3492                                   l1320 47A4  
                                 l1400 4076                                   l1139 33E6  
                                 l1324 49FC                                   l1512 359E  
                                 l2308 4068                                   l1372 3C50  
                                 l1533 2B70                                   l1472 4228  
                                 l4203 4F54                                   l2284 3E62  
                                 l2356 43E2                                   l4301 3B68  
                                 l2277 4F64                                   l1485 278A  
                                 l4321 4E7E                                   l4241 37B8  
                                 l4225 4AF4                                   l1585 26A2  
                                 l5121 4FE6                                   l2394 4B04  
                                 l5131 4DA4                                   l4253 3852  
                                 l4157 4B34                                   l6013 2C36  
                                 l6005 2BD6                                   l5135 4DCE  
                                 l5231 5156                                   l4247 380C  
                                 l4159 4B56                                   l6111 2222  
                                 l5119 4FE4                                   l5241 55BE  
                                 l4265 3924                                   l6201 303C  
                                 l5401 3C76                                   l5331 45B8  
                                 l4531 3EFE                                   l6107 21EA  
                                 l5253 5182                                   l4541 3FBE  
                                 l4533 3F16                                   l4525 3ED2  
                                 l4517 3E5E                                   l4293 3ABC  
                                 l4285 3A34                                   l6053 2E9C  
                                 l6029 2D2C                                   l6037 2DB2  
                                 l6109 2210                                   l5085 4FEE  
                                 l5173 51C2                                   l5501 4100  
                                 l5263 55DE                                   l5335 4610  
                                 l4551 4058                                   l4535 3F1C  
                                 l6071 20D4                                   l6215 3154  
                                 l6207 30A6                                   l5431 3D34  
                                 l5423 3CE4                                   l5407 3C96  
                                 l5503 410C                                   l4537 3F58  
                                 l6153 25E0                                   l6129 23C6  
                                 l4713 4DFE                                   l5521 4162  
                                 l6401 33D6                                   l6163 2638  
                                 l6139 246E                                   l6091 20FE  
                                 l6083 20E0                                   l6075 20D8  
                                 l6067 20BE                                   l6227 48F6  
                                 l5187 54F0                                   l5443 3DA4  
                                 l5435 3D60                                   l5427 3D08  
                                 l5419 3CCA                                   l5523 416A  
                                 l6411 3414                                   l6069 20C0  
                                 l6093 214E                                   l6229 4936  
                                 l6333 46A2                                   l5461 3DE2  
                                 l5517 4150                                   l5509 411E  
                                 l6421 345A                                   l6413 3418  
                                 l6159 2634                                   l6087 20E4  
                                 l6079 20DC                                   l5455 3DC8  
                                 l5447 3DA8                                   l5519 415E  
                                 l5527 4178                                   l6169 2654  
                                 l5457 3DD6                                   l5385 3C1A  
                                 l5465 3DF0                                   l5529 41BA  
                                 l6425 3460                                   l6195 2F7E  
                                 l5459 3DDA                                   l5467 3E32  
                                 l5491 40BE                                   l5485 409E  
                                 l6365 31EC                                   l6367 31F2  
                                 l5905 29F4                                   l6393 33B6  
                                 l6385 336C                                   l5843 4894  
                                 l5829 4310                                   l5853 4220  
                                 l5925 2AA6                                   l5941 3520  
                                 l6397 33BE                                   l5839 4856  
                                 l5863 42B8                                   l5855 4232  
                                 l5849 41F8                                   l5929 2AE2  
                                 l5961 3610                                   l5859 426E  
                                 l5891 27C4                                   l5883 277A  
                                 l5971 36AE                                   l5965 3640  
                                 l5957 35D4                                   l5895 27E2  
                                 l5975 36DA                                   l5993 2B60  
                                 l5979 3716                                   l5999 2B9A  
                                 STR_1 2001                                   STR_2 2051  
                                 STR_3 205B                                   STR_4 203E  
                                 STR_5 2061                                   u2100 5128  
                                 u2020 4F38                                   u2110 512A  
                                 u2030 50F8                                   u2200 395C  
                                 u2040 50FA                                   u2130 37B2  
                                 u2050 4FA2                                   u3100 4C70  
                                 u2220 39AE                                   u2060 4FA4  
                                 _LATA 003FBA                                   u2150 3808  
                                 u2310 3BA0                                   u2070 4AB2  
                                 _LATB 003FBB                                   _LATC 003FBC  
                                 u2080 4AB4                                   _LATD 003FBD  
                                 u2161 3812                                   _LATE 003FBE  
                                 u2170 384C                                   u2330 3BF2  
                                 u2250 3A2E                                   u4010 3636  
                                 _LATF 003FBF                                   u2180 387E  
                                 u4100 2C82                                   u3125 4CA4  
                                 u3126 4CA6                                   u3118 4C72  
                                 u2350 4E5A                                   u2270 3A84  
                                 u4110 2C84                                   u2360 4E7A  
                                 u2280 3AB6                                   u4040 373C  
                                 u4200 2E28                                   u2290 3AE8  
                                 u4210 2E2C                                   u4130 2CE2  
                                 u4140 2CE4                                   u4060 2B46  
                                 u4300 2290                                   u4160 2DAE  
                                 u4320 22E0                                   u4170 2DCE  
                                 u4090 2C2E                                   u4410 31C8  
                                 u2820 3ECE                                   u4181 2DFE  
                                 u4165 2D90                                   u3710 4304  
                                 u4190 2E14                                   u4350 24BE  
                                 u3550 56BA                                   u4191 2E12  
                                 u2840 4002                                   u3800 26DC  
                                 u1960 50C8                                   u4280 2268  
                                 u4440 4692                                   u2850 4004  
                                 u3730 4380                                   u3810 26DE  
                                 u1970 50CA                                   u4290 226A  
                                 _T6PR 003F93                                   u3900 2A4E  
                                 _PMD0 0039C0                                   u3901 2A4C  
                                 _PMD1 0039C1                                   u3910 2A62  
                                 u3830 274E                                   _PMD2 0039C2  
                                 _PMD3 0039C3                                   u3920 2A66  
                                 _PMD4 0039C4                                   _PMD5 0039C5  
                                 u3850 2760                                   _PMD6 0039C6  
                                 _PMD7 0039C7                                   u3940 2A7C  
                                 u3870 27B0                                   u3880 2A08  
                                 u3891 2A38                                   _PLLR 01CEE0  
                                 _WPUA 003A41                                   _WPUB 003A51  
                                 _WPUC 003A61                                   _WPUD 003A71  
                                 _WPUE 003A81                                   _WPUF 003A91  
                        _INT2_CallBack 555E                       __end_of_ADCC_ISR 51B6  
                        __CFG_FCMEN$ON 000000                                   _dbuf 01C0  
                                 _atoi 3E44                                   _main 31D2  
                                 _dtoa 26AC                                   _prec 0024  
                                 _nout 0020                                   fsr0h 003FEA  
                                 fsr1h 003FE2                                   fsr2h 003FDA  
                                 fsr0l 003FE9                                   indf1 003FE7  
                                 indf2 003FDF                                   fsr1l 003FE1  
                                 fsr2l 003FD9                                   _stoa 34B4  
                                 btemp 0037                                   _xtoa 2B2C  
    __size_of_INT2_SetInterruptHandler 0028                                   prodh 003FF4  
                                 prodl 003FF3                                   start 00AE  
            __end_of_SPI1_Exchange8bit 5600                          __CFG_CSWEN$ON 000000  
                    _UART1_rx_vect_isr 5438                           ___param_bank 000000  
           __size_of_UART1_is_rx_ready 0008                     ?_UART1_rx_vect_isr 005E  
                     __end_of_INT0_ISR 56CE                       __end_of_INT1_ISR 56DE  
                     __end_of_INT2_ISR 56EE         __size_of_OSCILLATOR_Initialize 0016  
             __end_of_ringBufS_put_dma 47AC          __end_of_OSCILLATOR_Initialize 569A  
                                PRLOCK 0039EF                        __end_of___aodiv 39D6  
                                _ADCAP 003EF5                                  _ADACT 003EFE  
                                _ADCLK 003EFF                        __end_of___aomod 3C16  
                                _ADPCH 003EF1                                  _ADREF 003EFD  
                        __CFG_WDTE$OFF 000000                                  _ADRPT 003EEC  
                                _U1P1H 003DED                                  _U1P2H 003DEF  
                                _U1P1L 003DEC                                  _U1P3H 003DF1  
                                _U1P2L 003DEE                                  _U1P3L 003DF0  
                                _U2P1L 003DD4                                  _U2P2L 003DD6  
                                _U2P3L 003DD8                                  _T6CON 003F94  
                       __CFG_DEBUG$OFF 000000                                  _T6HLT 003F95  
                                _U1UIR 003DF8                                  _U1RXB 003DE8  
                                _U2UIR 003DE0                                  _U1TXB 003DEA  
                                _U2RXB 003DD0                                  _U2TXB 003DD2  
                                _T6TMR 003F92                                  _T6RST 003F97  
                  ??_UART1_rx_vect_isr 005E                                  _ISRPR 0039F1  
                                _OSCEN 0039DD                                  _TRISA 003FC2  
                                _TRISB 003FC3                                  _TRISC 003FC4  
                                _TRISD 003FC5                                  _TRISE 003FC6  
                                _TRISF 003FC7                            _Default_ISR 574C  
    __size_of_TMR6_SetInterruptHandler 0028                      _UART1_tx_vect_isr 5410  
                        __CFG_WRTB$OFF 000000                          __CFG_WRTC$OFF 000000  
                        __CFG_WRTD$OFF 000000                           _DMA1CON0bits 003BFC  
                     __end_of_TMR6_ISR 54D6                           _DMA1CON1bits 003BFD  
                   r_protocol@rxData_l 002A                                  _flags 0026  
                                _fputc 42E0             __size_of_send_lcd_cmd_long 0028  
                      __end_of_isalpha 4FAE                                  _fputs 4846  
                      __end_of_isdigit 5134                     __CFG_MCLRE$EXTMCLR 000000  
                   ?_UART1_tx_vect_isr 005E                                  _width 0022  
                                _putch 5654                        __end_of_islower 50D4  
                      __end_of_isspace 4E8E               _INT1_SetInterruptHandler 536E  
                      __end_of_isupper 5104                                  pclath 003FFA  
                                tablat 003FF5                __size_of_DSM_Initialize 001C  
                                ltemp0 0037                                  ltemp1 003B  
                                ltemp2 003F               __size_of_DMA1_Initialize 006A  
                                plusw1 003FE3                                  ttemp0 0037  
                                ttemp1 003A                                  ttemp2 003D  
                                ttemp3 0040                                  ttemp5 0038  
                                ttemp6 003B                                  ttemp7 003F  
                                status 003FD8    __end_of_UART1_SetRxInterruptHandler 52F6  
          _UART1_SetRxInterruptHandler 52CE                                  wtemp0 0037  
                                wtemp1 0039                                  wtemp2 003B  
                                wtemp3 003D                                  wtemp4 003F  
                                wtemp5 0041                                  wtemp8 0038  
                      __end_of_sprintf 459E                        __end_of_toupper 4B0E  
                  ??_UART1_tx_vect_isr 005E              __size_of_DMA1_DMADCNT_ISR 000A  
            __end_of_UART1_rx_vect_isr 545E               __size_of_SPI1_Initialize 0016  
                __end_of_ringBufS_init 5256                        __initialization 4A04  
                    _UART2_rx_vect_isr 5488                           __end_of_atoi 4072  
                         __end_of_main 34B4                           __end_of_dtoa 2B2C  
                         __end_of_stoa 3756                           __end_of_xtoa 2EE6  
                       __CFG_SAFEN$OFF 000000                     ?_UART2_rx_vect_isr 005E  
                        __activetblptr 000003              __size_of_DMA1_DMASCNT_ISR 000E  
 __size_of_UART1_SetTxInterruptHandler 0028                    ??_UART2_rx_vect_isr 005E  
            __end_of_UART1_tx_vect_isr 5436                                 INTCON0 003FD2  
 __size_of_UART2_SetRxInterruptHandler 0028                         __CFG_MVECEN$ON 000000  
                      _TMR6_Initialize 52F6                       _UART1_Initialize 4BFC  
                    _UART2_tx_vect_isr 5460                     _UART2_Transmit_ISR 5160  
                               _ADACCU 003EEA                                 _ADACQH 003EF4  
                               _ADACQL 003EF3                                 _ADCON0 003EF8  
                               _ADCON1 003EF9                                 _ADCON2 003EFA  
                               _ADCON3 003EFB                                 _ADLTHH 003EDF  
                               _ADLTHL 003EDE                                 _ADPREH 003EF7  
                               _ADPREL 003EF6                                 _DMA1PR 0039F3  
                               _DMA2PR 0039F4                                 _ADSTAT 003EFC  
                               _ADUTHH 003EE1                                 _ADUTHL 003EE0  
                               _ANSELA 003A40                                 _ANSELB 003A50  
                               _ANSELC 003A60                                 _ANSELD 003A70  
                               _ANSELE 003A80                                 _ANSELF 003A90  
                   ?_UART2_tx_vect_isr 005E                                 _MD1SRC 003CFC  
                               _U1CON0 003DF2                                 _U1CON1 003DF3  
                               _U1CON2 003DF4                    __size_of_UART1_Read 003E  
                               _U1BRGH 003DF6                                 _U1FIFO 003DF7  
                               _U2CON0 003DDA                                 _U2CON1 003DDB  
                               _U1BRGL 003DF5                                 _U2CON2 003DDC  
                               _U2BRGH 003DDE                                 _U2FIFO 003DDF  
                               _U2BRGL 003DDD                                 _MAINPR 0039F2  
                               _RA4PPS 003A04                                 _RA5PPS 003A05  
                               _RA6PPS 003A06                                 _RC3PPS 003A13  
                               _RB6PPS 003A0E                                 _RC5PPS 003A15  
                               _ODCONA 003A42                                 _ODCONB 003A52  
                               _ODCONC 003A62                                 _RC6PPS 003A16  
                               _ODCOND 003A72                                 _ODCONE 003A82  
                               _ODCONF 003A92                         __CFG_WDTCCS$SC 000000  
                               u140_48 554A                                 u142_48 556C  
                               u138_48 5528                                 u332_48 558E  
                               _SCANPR 0039F7                                 u319_40 4D90  
                               u319_46 4D92                                 _IVTADH 00389E  
                               _IVTADL 00389D                                 _IVTADU 00389F  
                               _OSCFRQ 0039DF                    ??_UART2_tx_vect_isr 005E  
            __end_of_UART2_rx_vect_isr 54AE             __size_of_SPI1_Exchange8bit 001E  
               __size_of_DMA1_DMAA_ISR 000A                         __CFG_XINST$OFF 000000  
                    _CLKREF_Initialize 570C                       _UART2_Initialize 4D28  
 __size_of_ADCC_SetADIInterruptHandler 0028                         __CFG_STVREN$ON 000000  
                       _ringBufS_flush 4972                                 _memset 2EE6  
                               clear_0 4A4E                                 clear_1 4A5A  
                               clear_2 4A66                                 clear_3 4A72  
                               _printf 4CC6                     _eaDogM_WriteString 4656  
                            ?_ADCC_ISR 005E                                 _strlen 4B0E  
                   __size_of_TimerDone 0022                        _ADCC_Initialize 4EDA  
                       _PMD_Initialize 569A   __end_of_INT2_DefaultInterruptHandler 5758  
__size_of_INT2_DefaultInterruptHandler 0002           _INT2_DefaultInterruptHandler 5756  
                         __pdataCOMRAM 0057              __end_of_UART2_tx_vect_isr 5486  
                               lltemp0 0037                                 lltemp1 003F  
                               lltemp2 0047                                 lltemp3 004F  
                         __mediumconst 0000                                 tblptrh 003FF7  
                               tblptrl 003FF6                                 tblptru 003FF8  
                     __end_of_wdtdelay 4E3C                       __end_of_vfprintf 4972  
                           _StartTimer 5068                        _CLC1_Initialize 54F8  
        __size_of_INTERRUPT_Initialize 0064                      _SYSTEM_Initialize 502A  
                           __accesstop 0060                __end_of__initialization 4A84  
                            ?_INT0_ISR 005E                              ?_INT1_ISR 005E  
                            ?_INT2_ISR 005E              __end_of_CLKREF_Initialize 5716  
                        ___rparam_used 000000             __size_of_UART1_rx_vect_isr 0026  
               __end_of_ringBufS_flush 4A04                         __pcstackCOMRAM 005E  
                           ___inthi_sp 0C84                           __pidataBANK0 53E6  
                            ?_TMR6_ISR 005E                         ivt0x8_undefint 00AC  
                        __end_of_fputc 43EC                          __end_of_fputs 48DE  
                        __end_of_putch 566E                __end_of_TMR6_Initialize 531E  
               __end_of_PMD_Initialize 56AE                __size_of_block_checksum 00B8  
                           ??_ADCC_ISR 005E                  __end_of_TMR6_CallBack 55A2  
          __size_of_EXT_INT_Initialize 004C             __size_of_UART1_tx_vect_isr 0026  
                        _DMA1_DMAA_ISR 5724       __end_of_INT2_SetInterruptHandler 536E  
             _UART2_RxInterruptHandler 0014              __end_of_SYSTEM_Initialize 5068  
                      __CFG_PR1WAY$OFF 000000                        __CFG_IVT1WAY$ON 000000  
                       _DSM_Initialize 5638                             __pbssBANK0 0060  
                           __pbssBANK1 0100                             __pbssBANK2 0200  
                _INT0_InterruptHandler 001D                             ??_INT0_ISR 005E  
                           ??_INT1_ISR 005E                             ??_INT2_ISR 005E  
                    __end_of_TimerDone 54F8                       _DMA1_DMADCNT_ISR 5718  
           __size_of_UART2_rx_vect_isr 0026                                IVTBASEH 003FD6  
                              IVTBASEL 003FD5                                IVTBASEU 003FD7  
                __end_of_wait_lcd_done 561C                        __CFG_PPS1WAY$ON 000000  
     __end_of_TMR6_SetInterruptHandler 5346                __end_of_ADCC_Initialize 4F24  
                           ??_TMR6_ISR 005E                                _CLC1CON 003C74  
                              _CLC1POL 003C75                                _DMA1DSA 003BF0  
                              _DMA1DSZ 003BEE                                _DMA1SSA 003BF9  
                              _DMA1SSZ 003BF7                                _ADSTPTH 003EE5  
                              _ADSTPTL 003EE4                                _MD1CARH 003CFE  
                              _MD1CARL 003CFD                      _UART1_Receive_ISR 55A2  
                              _CLKRCLK 003CE6                                _CLKRCON 003CE5  
                              _NCO1CLK 003F3F                         ?_DMA1_DMAA_ISR 005E  
                     _DMA1_DMASCNT_ISR 56F0                                _NCO1CON 003F3E  
                              _U1ERRIE 003DFA                                _U1ERRIR 003DF9  
              __end_of_CLC1_Initialize 551A                                _U2ERRIE 003DE2  
                              _U2ERRIR 003DE1                                _INT0PPS 003AC0  
                  __CFG_PWRTS$PWRT_OFF 000000                                _INT1PPS 003AC1  
                              _INT2PPS 003AC2                           ?_Default_ISR 005E  
                 __size_of_UART1_Write 003E             __size_of_UART2_tx_vect_isr 0026  
                              _U1RXPPS 003AE5                                _U2RXPPS 003AE8  
                              _OSCCON1 0039D9                                _OSCCON3 0039DB  
                              _IVTLOCK 003FD4                     __size_of_vfpfcnvrt 0646  
                              _SPI1CLK 003D1C                                _SPI1RXB 003D10  
                              _SPI1TXB 003D11                                _OSCTUNE 0039DE  
               __end_of_DSM_Initialize 5654                                _SLRCONA 003A43  
                              _SLRCONB 003A53                                _SLRCONC 003A63  
                              _SLRCOND 003A73                                _SLRCONE 003A83  
                              _SLRCONF 003A93                     __size_of_start_lcd 0006  
                   __end_of_UART1_Read 502A      __size_of_INT0_SetInterruptHandler 0028  
           __size_of_CLKREF_Initialize 000A                __size_of_DMA1_DMAOR_ISR 000C  
                              __Hparam 0000                                __Lparam 0000  
             __end_of_UART1_Initialize 4C62                                ___aodiv 3756  
                              ___aomod 39D6              __end_of_UART1_Receive_ISR 55C2  
                         __psmallconst 2000                __size_of_wait_lcd_check 0010  
                 __end_of_init_display 44D6                                __pcinit 4A04  
                      __size_of_memset 02EC                                __ramtop 2000  
          __size_of_UART1_Transmit_ISR 002C               __size_of_NCO1_Initialize 001C  
                              __ptext0 31D2                                __ptext1 5600  
                              __ptext2 56AE                                __ptext3 4072  
                              __ptext4 44D6                                __ptext5 3C16  
                              __ptext6 51B6                                __ptext7 572E  
                              __ptext8 4FAE                                __ptext9 4FEC  
                    _UART2_Receive_ISR 55C2                        __size_of_printf 0062  
                      __CFG_WRTAPP$OFF 000000                        __size_of_strlen 0084  
                              us223999 39C0                                us234999 3C04  
                              us408999 2BAC                  _OSCILLATOR_Initialize 5684  
                         __size_of_abs 0046                                _r_block 0060  
                              us379999 26C6                                us396999 34C6  
                         __size_of_pad 0114                                _isalpha 4F6A  
                              _isdigit 5104                                _islower 50A4  
                              _isspace 4E3C                        __CFG_WRTSAF$OFF 000000  
             __end_of_UART2_Initialize 4D86                                _isupper 50D4  
           __size_of_SYSTEM_Initialize 003E                                _sprintf 44D6  
                              _toupper 4A8A                   end_of_initialization 4A84  
             _INT2_SetInterruptHandler 5346                             _r_protocol 3C16  
  __end_of_UART1_SetTxInterruptHandler 52CE            _UART1_SetTxInterruptHandler 52A6  
  __end_of_UART2_SetRxInterruptHandler 52A6            _UART2_SetRxInterruptHandler 527E  
                           _t_protocol 4072                      __end_of_vfpfcnvrt 26AC  
                            _SPI1TCNTL 003D12                                postdec0 003FED  
                              postdec1 003FE5                                postdec2 003FDD  
                              postinc0 003FEE                                postinc1 003FE6  
                              postinc2 003FDE                    __size_of_StartTimer 003C  
                    __end_of_start_lcd 574A              __end_of_UART2_Receive_ISR 55E2  
                       wdtdelay@dcount 0001                  __CFG_WDTCPS$WDTCPS_31 000000  
                      ??_DMA1_DMAA_ISR 0000                         _block_checksum 459E  
                _INT1_InterruptHandler 001A               _TMR6_SetInterruptHandler 531E  
 __size_of_UART2_SetTxInterruptHandler 0028                      __size_of_ADCC_ISR 002A  
  __end_of_ADCC_SetADIInterruptHandler 53E6            _ADCC_SetADIInterruptHandler 53BE  
               __size_of_ringBufS_init 0028                       __CFG_FEXTOSC$ECH 000000  
                      _DMA1_Initialize 4B92                        _SPI1_Initialize 566E  
                    __size_of_INT0_ISR 000E                      __size_of_INT1_ISR 000E  
                    __size_of_INT2_ISR 000E           __end_of_INTERRUPT_Initialize 4CC6  
               __end_of_block_checksum 4656   __end_of_INT0_DefaultInterruptHandler 5754  
__size_of_INT0_DefaultInterruptHandler 0002           _INT0_DefaultInterruptHandler 5752  
           __size_of_UART1_Receive_ISR 0020                          __pidataCOMRAM 5736  
                    __size_of_TMR6_ISR 0026            __size_of_UART2_Transmit_ISR 002C  
                       __end_of_memset 31D2                         __end_of_printf 4D28  
             __end_of_DMA1_DMADCNT_ISR 5722                  __end_of_INT0_CallBack 553C  
                       __end_of_strlen 4B92                    start_initialization 4A04  
      __size_of_PIN_MANAGER_Initialize 009A                            __end_of_abs 4F6A  
                __end_of_INT1_CallBack 555E                            __end_of_pad 42E0  
                 __size_of_Default_ISR 0006                   __end_of_send_lcd_cmd 522E  
                           ivt0x8_base 0008                  __end_of_INT2_CallBack 5580  
                        _uart1RxBuffer 0140                          _uart2RxBuffer 0200  
                        _uart1TxBuffer 0180               __end_of_DMA1_DMASCNT_ISR 56FE  
                        _uart2TxBuffer 0100                         _DMA1_DMAOR_ISR 5700  
                     __CFG_LPBOREN$OFF 000000                  __size_of_init_display 00EA  
          __size_of_eaDogM_WriteString 00AC                              _TimerDone 54D6  
                        _ringBufS_init 522E                            _MD1CON0bits 003CFA  
                          _MD1CON1bits 003CFB                            __pdataBANK0 00D4  
                       _wait_lcd_check 56AE             __size_of_UART2_Receive_ISR 0020  
           __end_of_EXT_INT_Initialize 4EDA                        run_checksum@sum 0028  
              __end_of_DMA1_Initialize 4BFC                            __pbssCOMRAM 0001  
     __end_of_INT0_SetInterruptHandler 53BE                          __pcstackBANK0 0000  
              __end_of_SPI1_Initialize 5684               _UART1_RxInterruptHandler 000E  
             _UART2_TxInterruptHandler 0011              __size_of_ringBufS_put_dma 00AA  
                         _init_display 43EC                 __end_of_DMA1_DMAOR_ISR 570C  
                _INT2_InterruptHandler 0017                  _TMR6_InterruptHandler 0005  
               __size_of_TMR6_CallBack 0022                 _PIN_MANAGER_Initialize 47AC  
                 __end_of_wait_lcd_set 5744                 __end_of_wait_lcd_check 56BE  
                   __end_of_StartTimer 50A4                      __size_of_wdtdelay 0058  
                    __size_of_vfprintf 0094                               _ADCC_ISR 518C  
                  __size_of_r_protocol 022E                 __CFG_BBSIZE$BBSIZE_512 000000  
                          __smallconst 2000                               _CLC1GLS0 003C7A  
                             _CLC1GLS1 003C7B                               _CLC1GLS2 003C7C  
                             _CLC1GLS3 003C7D                               _CLC1SEL0 003C76  
                             _CLC1SEL1 003C77                               _CLC1SEL2 003C78  
                             _CLC1SEL3 003C79                               _DMA1CON0 003BFC  
                             _DMA1CON1 003BFD                               _DMA1AIRQ 003BFE  
                             _DMA1SIRQ 003BFF                            _NCO1CONbits 003F3E  
                  __size_of_t_protocol 015A                 __size_of_wait_lcd_done 001C  
                       __size_of_fputc 010C                         __size_of_fputs 0098  
                             _NCO1ACCH 003F39                         __size_of_putch 001A  
                             _NCO1ACCL 003F38                               _NCO1ACCU 003F3A  
                 _INTERRUPT_Initialize 4C62                               _T6CLKCON 003F96  
                             _NCO1INCH 003F3C                               _NCO1INCL 003F3B  
                             _NCO1INCU 003F3D                        ?_DMA1_DMAOR_ISR 005E  
                             _INT0_ISR 56C0                               _INT1_ISR 56D0  
                             _INT2_ISR 56E0                               _LATCbits 003FBC  
                             _LATEbits 003FBE      __size_of_INT1_SetInterruptHandler 0028  
                             _IPR1bits 003981                               _IPR2bits 003982  
                             _PIE1bits 003991                               _IPR3bits 003983  
                             _PIE2bits 003992                               _IPR5bits 003985  
                             _PIE3bits 003993                              _tickCount 0079  
                             _IPR6bits 003986                               _PIE5bits 003995  
                             _IPR7bits 003987                               _PIE6bits 003996  
                             _PIE7bits 003997                               _IPR9bits 003989  
                  __CFG_BORV$VBOR_2P45 000000                               _PIE9bits 003999  
                            _ring_buf1 0283                              _ring_buf2 0240  
                             i2u175_48 51A2                               _PIR1bits 0039A1  
                             i2u361_48 5472                               _PIR2bits 0039A2  
                             _SPI1BAUD 003D19                               i2u363_48 549A  
                             i2u357_48 5422                               _SPI1CON0 003D14  
                             _SPI1CON1 003D15                               _SPI1CON2 003D16  
                             i2u359_48 544A                               _PIR5bits 0039A5  
                             _PIR7bits 0039A7                               _PIR9bits 0039A9  
           __end_of_UART1_Transmit_ISR 5160                               _TMR6_ISR 54B0  
                            _vfpfcnvrt 2066                           _SPI1INTFbits 003D1A  
                            _start_lcd 5744                          _TMR6_CallBack 5580  
                __size_of_send_lcd_cmd 0028                    __end_of_UART1_Write 4FEC  
             __size_of_TMR6_Initialize 0028                            _INTCON0bits 003FD2  
                            copy_data0 4A18                              copy_data1 4A3A  
             _INT0_SetInterruptHandler 5396                 _uart1TxBufferRemaining 0034  
  __end_of_UART2_SetTxInterruptHandler 527E            _UART2_SetTxInterruptHandler 5256  
                             __Hparam0 0000                           _uart1RxCount 0031  
                         _uart2RxCount 002B                               __Lparam0 0000  
              __CFG_RSTOSC$EXTOSC_4PLL 000000                   __end_of_run_checksum 51DE  
                   __CFG_BOREN$SBORDIS 000000                          _wait_lcd_done 5600  
                         _send_lcd_cmd 5206                       __size_of___aodiv 0280  
                     __size_of___aomod 0240                        _NCO1_Initialize 561C  
                __end_of_DMA1_DMAA_ISR 572E   __size_of_UART1_SetRxInterruptHandler 0028  
                    ?_DMA1_DMADCNT_ISR 005E               __size_of_ADCC_Initialize 004A  
                     __size_of_isalpha 0044                       __size_of_isdigit 0030  
                             __pivt0x8 0008                       __size_of_islower 0030  
                     __size_of_isspace 0052                     ??_DMA1_DMADCNT_ISR 0000  
                             __ptext10 54D6                               __ptext11 5068  
                             __ptext20 5744                               __ptext12 43EC  
                             __ptext21 4972                               __ptext13 51DE  
                             __ptext30 4F6A                               __ptext22 2EE6  
                             __ptext14 5206                               __ptext31 34B4  
                             __ptext23 4CC6                               __ptext15 4DE4  
                             __ptext40 39D6                               __ptext32 26AC  
                             __ptext24 48DE                               __ptext16 55E2  
                             __ptext41 3756                               __ptext33 41CC  
                             __ptext25 2066                               __ptext17 522E  
                             __ptext50 4BFC                               __ptext42 3E44  
                             __ptext34 4B0E                               __ptext26 2B2C  
                             __ptext18 4656                               __ptext51 52A6  
                             __ptext43 4E3C                               __ptext35 4846  
                             __ptext27 4A8A                               __ptext19 573E  
                             __ptext60 4C62                               __ptext52 52CE  
                             __ptext44 5104                               __ptext36 42E0  
                             __ptext28 50A4                               __ptext61 4E8E  
                             __ptext53 52F6                               __ptext45 459E  
                             __ptext37 5654                               __ptext29 50D4  
                             __ptext70 53BE                               __ptext62 5346  
                             __ptext54 531E                               __ptext46 502A  
                             __ptext38 4702                               __ptext71 56C0  
                             __ptext63 536E                               __ptext55 566E  
                             __ptext47 4D28                               __ptext39 4F24  
                             __ptext80 574C                               __ptext72 551A  
                             __ptext64 5396                               __ptext56 569A  
                             __ptext48 5256                               __ptext81 518C  
                             __ptext73 5752                               __ptext65 5638  
                             __ptext57 47AC                               __ptext49 527E  
                             __ptext90 55C2                               __ptext82 5758  
                             __ptext74 56D0                               __ptext66 4B92  
                             __ptext58 5684                               __ptext91 54B0  
                             __ptext83 5410                               __ptext75 553C  
                             __ptext67 570C                               __ptext59 561C  
                             __ptext92 5580                               __ptext84 5134  
                             __ptext76 5754                               __ptext68 54F8  
                             __ptext93 4D86                               __ptext85 5438  
                             __ptext77 56E0                               __ptext69 4EDA  
                             __ptext94 56F0                               __ptext86 55A2  
                             __ptext78 555E                               __ptext95 5718  
                             __ptext87 5460                               __ptext79 5756  
                             __ptext96 5724                               __ptext88 5160  
                             __ptext97 5700                               __ptext89 5488  
                             __ptext98 0000                       __size_of_isupper 0030  
             __size_of_CLC1_Initialize 0022                       __size_of_sprintf 00C8  
                     __size_of_toupper 0084                       _ringBufS_put_dma 4702  
                        __size_of_atoi 022E                          __size_of_main 02E2  
                        __size_of_dtoa 0480                  __size_of_wait_lcd_set 0006  
                        __size_of_stoa 02A2                          __size_of_xtoa 03BA  
                 __CFG_WDTCWS$WDTCWS_7 000000                      ?_DMA1_DMASCNT_ISR 005E  
                          _IVTLOCKbits 003FD4              _ADCC_ADI_InterruptHandler 0008  
                            stoa@F1139 0057                     ??_DMA1_DMASCNT_ISR 0000  
                             _spi_link 006D                               _wdtdelay 4DE4  
           __end_of_UART2_Transmit_ISR 518C                               _vfprintf 48DE  
                    _UART1_is_rx_ready 572E                            _UART1_Write 4FAE  
 __end_of_INT1_DefaultInterruptHandler 5756  __size_of_INT1_DefaultInterruptHandler 0002  
         _INT1_DefaultInterruptHandler 5754                          ??_Default_ISR 005E  
                   __end_of_r_protocol 3E44                            _uart1RxHead 0033  
                          _uart1TxHead 0036                            _uart2RxHead 002D  
                          _uart1RxTail 0032                            _uart2TxHead 0030  
                          _uart1TxTail 0035                            _uart2RxTail 002C  
                          _uart2TxTail 002F                           _wait_lcd_set 573E  
                   _EXT_INT_Initialize 4E8E   __end_of_TMR6_DefaultInterruptHandler 4DE4  
__size_of_TMR6_DefaultInterruptHandler 005E           _TMR6_DefaultInterruptHandler 4D86  
                   __end_of_t_protocol 41CC   __end_of_ADCC_DefaultInterruptHandler 575A  
__size_of_ADCC_DefaultInterruptHandler 0002           _ADCC_DefaultInterruptHandler 5758  
                             intlevel2 0000                      _send_lcd_cmd_long 51DE  
                    __CFG_CLKOUTEN$OFF 000000             __end_of_eaDogM_WriteString 4702  
              __end_of_NCO1_Initialize 5638                 __size_of_INT0_CallBack 0022  
                           _SPI1SCKPPS 003ADE                             _SPI1SDIPPS 003ADF  
            __end_of_UART1_is_rx_ready 5736                             _UART1_Read 4FEC  
               __size_of_INT1_CallBack 0022                 __size_of_INT2_CallBack 0022  
               _uart2TxBufferRemaining 002E       __end_of_INT1_SetInterruptHandler 5396  
            __size_of_UART1_Initialize 0066                       ??_DMA1_DMAOR_ISR 0000  
             _UART1_TxInterruptHandler 000B              __end_of_send_lcd_cmd_long 5206  
                  __end_of_Default_ISR 5752         __end_of_PIN_MANAGER_Initialize 4846  
                __size_of_run_checksum 0028              __size_of_UART2_Initialize 005E  
