

Microchip MPLAB XC8 Assembler V2.05 build -831301201 
                                                                                               Mon Mar  4 03:36:25 2019

Microchip MPLAB XC8 C Compiler v2.05 (Free license) build 20181220022703 Og9 
     1                           	processor	18F57K42
     2                           	fnconf	rparam,??,?,0
     3                           	opt	pw 120
     4                           	opt	flic
     5                           	psect	idataBANK0,global,class=CODE,delta=1,noexec
     6                           	psect	smallconst,global,reloc=2,class=SMALLCONST,delta=1,noexec
     7                           	psect	cinit,global,reloc=2,class=CODE,delta=1
     8                           	psect	bssCOMRAM,global,class=COMRAM,space=1,delta=1,noexec
     9                           	psect	bssBANK0,global,class=BANK0,space=1,delta=1,lowdata,noexec
    10                           	psect	dataBANK0,global,class=BANK0,space=1,delta=1,lowdata,noexec
    11                           	psect	bssBANK1,global,class=BANK1,space=1,delta=1,lowdata,noexec
    12                           	psect	bssBANK2,global,class=BANK2,space=1,delta=1,lowdata,noexec
    13                           	psect	cstackCOMRAM,global,class=COMRAM,space=1,delta=1,noexec
    14                           	psect	text0,global,reloc=2,class=CODE,delta=1
    15                           	psect	text1,global,reloc=2,class=CODE,delta=1
    16                           	psect	text2,global,reloc=2,class=CODE,delta=1
    17                           	psect	text3,global,reloc=2,class=CODE,delta=1,group=2
    18                           	psect	text4,global,reloc=2,class=CODE,delta=1,group=2
    19                           	psect	text5,global,reloc=2,class=CODE,delta=1
    20                           	psect	text6,global,reloc=2,class=CODE,delta=1
    21                           	psect	text7,global,reloc=2,class=CODE,delta=1
    22                           	psect	text8,global,reloc=2,class=CODE,delta=1
    23                           	psect	text9,global,reloc=2,class=CODE,delta=1
    24                           	psect	text10,global,reloc=2,class=CODE,delta=1
    25                           	psect	text11,global,reloc=2,class=CODE,delta=1
    26                           	psect	text12,global,reloc=2,class=CODE,delta=1
    27                           	psect	text13,global,reloc=2,class=CODE,delta=1
    28                           	psect	text14,global,reloc=2,class=CODE,delta=1
    29                           	psect	text15,global,reloc=2,class=CODE,delta=1,group=2
    30                           	psect	text16,global,reloc=2,class=CODE,delta=1,group=2
    31                           	psect	text17,global,reloc=2,class=CODE,delta=1
    32                           	psect	text18,global,reloc=2,class=CODE,delta=1
    33                           	psect	text19,global,reloc=2,class=CODE,delta=1
    34                           	psect	text20,global,reloc=2,class=CODE,delta=1,group=2
    35                           	psect	text21,global,reloc=2,class=CODE,delta=1,group=2
    36                           	psect	text22,global,reloc=2,class=CODE,delta=1,group=2
    37                           	psect	text23,global,reloc=2,class=CODE,delta=1,group=2
    38                           	psect	text24,global,reloc=2,class=CODE,delta=1
    39                           	psect	text25,global,reloc=2,class=CODE,delta=1
    40                           	psect	text26,global,reloc=2,class=CODE,delta=1
    41                           	psect	text27,global,reloc=2,class=CODE,delta=1,group=2
    42                           	psect	text28,global,reloc=2,class=CODE,delta=1,group=2
    43                           	psect	text29,global,reloc=2,class=CODE,delta=1,group=2
    44                           	psect	text30,global,reloc=2,class=CODE,delta=1
    45                           	psect	text31,global,reloc=2,class=CODE,delta=1
    46                           	psect	text32,global,reloc=2,class=CODE,delta=1,group=2
    47                           	psect	text33,global,reloc=2,class=CODE,delta=1,group=1
    48                           	psect	text34,global,reloc=2,class=CODE,delta=1,group=1
    49                           	psect	text35,global,reloc=2,class=CODE,delta=1
    50                           	psect	text36,global,reloc=2,class=CODE,delta=1
    51                           	psect	text37,global,reloc=2,class=CODE,delta=1
    52                           	psect	text38,global,reloc=2,class=CODE,delta=1
    53                           	psect	text39,global,reloc=2,class=CODE,delta=1
    54                           	psect	text40,global,reloc=2,class=CODE,delta=1
    55                           	psect	text41,global,reloc=2,class=CODE,delta=1
    56                           	psect	text42,global,reloc=2,class=CODE,delta=1
    57                           	psect	text43,global,reloc=2,class=CODE,delta=1
    58                           	psect	text44,global,reloc=2,class=CODE,delta=1
    59                           	psect	text45,global,reloc=2,class=CODE,delta=1
    60                           	psect	text46,global,reloc=2,class=CODE,delta=1
    61                           	psect	text47,global,reloc=2,class=CODE,delta=1
    62                           	psect	text48,global,reloc=2,class=CODE,delta=1
    63                           	psect	text49,global,reloc=2,class=CODE,delta=1
    64                           	psect	text50,global,reloc=2,class=CODE,delta=1
    65                           	psect	text51,global,reloc=2,class=CODE,delta=1
    66                           	psect	text52,global,reloc=2,class=CODE,delta=1
    67                           	psect	text53,global,reloc=2,class=CODE,delta=1
    68                           	psect	text54,global,reloc=2,class=CODE,delta=1
    69                           	psect	text55,global,reloc=2,class=CODE,delta=1
    70                           	psect	text56,global,reloc=2,class=CODE,delta=1
    71                           	psect	text57,global,reloc=2,class=CODE,delta=1
    72                           	psect	text58,global,reloc=2,class=CODE,delta=1
    73                           	psect	text59,global,reloc=2,class=CODE,delta=1
    74                           	psect	text60,global,reloc=2,class=CODE,delta=1
    75                           	psect	text61,global,reloc=2,class=CODE,delta=1
    76                           	psect	text62,global,reloc=2,class=CODE,delta=1
    77                           	psect	text63,global,reloc=4,class=CODE,delta=1
    78                           	psect	text64,global,reloc=2,class=CODE,delta=1
    79                           	psect	text65,global,reloc=2,class=CODE,delta=1
    80                           	psect	text66,global,reloc=4,class=CODE,delta=1
    81                           	psect	text67,global,reloc=2,class=CODE,delta=1
    82                           	psect	text68,global,reloc=2,class=CODE,delta=1
    83                           	psect	text69,global,reloc=4,class=CODE,delta=1
    84                           	psect	text70,global,reloc=2,class=CODE,delta=1
    85                           	psect	text71,global,reloc=2,class=CODE,delta=1
    86                           	psect	text72,global,reloc=4,class=CODE,delta=1
    87                           	psect	text73,global,reloc=4,class=CODE,delta=1
    88                           	psect	text74,global,reloc=2,class=CODE,delta=1
    89                           	psect	text75,global,reloc=4,class=CODE,delta=1
    90                           	psect	text76,global,reloc=2,class=CODE,delta=1
    91                           	psect	text77,global,reloc=4,class=CODE,delta=1
    92                           	psect	text78,global,reloc=2,class=CODE,delta=1
    93                           	psect	text79,global,reloc=4,class=CODE,delta=1
    94                           	psect	text80,global,reloc=2,class=CODE,delta=1
    95                           	psect	text81,global,reloc=4,class=CODE,delta=1
    96                           	psect	text82,global,reloc=2,class=CODE,delta=1
    97                           	psect	text83,global,reloc=4,class=CODE,delta=1
    98                           	psect	text84,global,reloc=2,class=CODE,delta=1
    99                           	psect	text85,global,reloc=2,class=CODE,delta=1
   100                           	psect	text86,global,reloc=4,class=CODE,delta=1
   101                           	psect	text87,global,reloc=4,class=CODE,delta=1
   102                           	psect	text88,global,reloc=4,class=CODE,delta=1
   103                           	psect	text89,global,reloc=4,class=CODE,delta=1
   104                           	psect	ivt0x8,global,reloc=2,class=CODE,delta=1,noexec,keep,optim=
   105                           	psect	intsave_regs,global,class=BIGRAM,space=1,delta=1,noexec
   106                           	psect	text90,global,reloc=4,class=CODE,delta=1
   107                           	psect	rparam,global,class=COMRAM,space=1,delta=1,noexec
   108                           	psect	temp,global,ovrld,common,class=COMRAM,space=1,delta=1
   109  0000                     
   110                           ; Version 2.05
   111                           ; Generated 20/12/2018 GMT
   112                           ; 
   113                           ; Copyright © 2018, Microchip Technology Inc. and its subsidiaries ("Microchip")
   114                           ; All rights reserved.
   115                           ; 
   116                           ; This software is developed by Microchip Technology Inc. and its subsidiaries ("Microch
      +                          ip").
   117                           ; 
   118                           ; Redistribution and use in source and binary forms, with or without modification, are
   119                           ; permitted provided that the following conditions are met:
   120                           ; 
   121                           ;     1. Redistributions of source code must retain the above copyright notice, this lis
      +                          t of
   122                           ;        conditions and the following disclaimer.
   123                           ; 
   124                           ;     2. Redistributions in binary form must reproduce the above copyright notice, this 
      +                          list
   125                           ;        of conditions and the following disclaimer in the documentation and/or other
   126                           ;        materials provided with the distribution.
   127                           ; 
   128                           ;     3. Microchip's name may not be used to endorse or promote products derived from th
      +                          is
   129                           ;        software without specific prior written permission.
   130                           ; 
   131                           ; THIS SOFTWARE IS PROVIDED BY MICROCHIP "AS IS" AND ANY EXPRESS OR IMPLIED WARRANTIES,
   132                           ; INCLUDING, BUT NOT LIMITED TO, THE IMPLIED WARRANTIES OF MERCHANTABILITY AND FITNESS F
      +                          OR
   133                           ; PURPOSE ARE DISCLAIMED.  IN NO EVENT SHALL MICROCHIP BE LIABLE FOR ANY DIRECT, INDIREC
      +                          T,
   134                           ; INCIDENTAL, SPECIAL, EXEMPLARY, OR CONSEQUENTIAL DAMAGES (INCLUDING BUT NOT LIMITED TO
   135                           ; PROCUREMENT OF SUBSTITUTE GOODS OR SERVICES; LOSS OF USE, DATA OR PROFITS; OR BUSINESS
   136                           ; INTERRUPTION) HOWSOEVER CAUSED AND ON ANY THEORY OF LIABILITY, WHETHER IN CONTRACT, ST
      +                          RICT
   137                           ; LIABILITY, OR TORT (INCLUDING NEGLIGENCE OR OTHERWISE) ARISING IN ANY WAY OUT OF THE U
      +                          SE OF
   138                           ; THIS SOFTWARE, EVEN IF ADVISED OF THE POSSIBILITY OF SUCH DAMAGE.
   139                           ; 
   140                           ; 
   141                           ; Code-generator required, PIC18F57K42 Definitions
   142                           ; 
   143                           ; SFR Addresses
   144  0000                     
   145 ;;_sum	offset	0
   146 ;;_i	offset	2
   147 ;;_d	offset	0
   148 ;;_s	offset	1
   149 ;;_dest	offset=-1 (param)
   150 ;;_src	offset=-2 (param)
   151 ;;_f	offset	0
   152 ;;_ap	offset	5
   153 ;;_s	offset=-2 (param)
   154 ;;_fmt	offset=-3 (param)
   155 ;;_cmd	offset=-1 (param)
   156 ;;_cmd	offset=-1 (param)
   157 ;;_delay	offset=-4 (param)
   158 ;;_data	offset=-1 (param)
   159 ;;__this	offset=-2 (param)
   160 ;;_strPtr	offset=-1 (param)
   161 ;;__this	offset=-2 (param)
   162 ;;_clearBuffer	offset=-3 (param)
   163 ;;_s	offset	0
   164 ;;_k	offset	2
   165 ;;_dest	offset=-2 (param)
   166 ;;_c	offset=-4 (param)
   167 ;;_n	offset=-6 (param)
   168 ;;_ap	offset	0
   169 ;;_fmt	offset=-2 (param)
   170 ;;_cfmt	offset	0
   171 ;;_fp	offset=-2 (param)
   172 ;;_fmt	offset=-3 (param)
   173 ;;_ap	offset=-5 (param)
   174 ;;_llu	offset	0
   175 ;;_ll	offset	8
   176 ;;_cp	offset	16
   177 ;;_c	offset	18
   178 ;;_fp	offset=-2 (param)
   179 ;;_fmt	offset=-4 (param)
   180 ;;_ap	offset=-6 (param)
   181 ;;_xtoa$2995	offset	0
   182 ;;_xtoa$2994	offset	2
   183 ;;_n	offset	4
   184 ;;_c	offset	12
   185 ;;_i	offset	14
   186 ;;_w	offset	16
   187 ;;_p	offset	18
   188 ;;_fp	offset=-2 (param)
   189 ;;_d	offset=-10 (param)
   190 ;;_x	offset=-11 (param)
   191 ;;_toupper$3557	offset	0
   192 ;;_c	offset=-2 (param)
   193 ;;_c	offset=-2 (param)
   194 ;;_c	offset=-2 (param)
   195 ;;_c	offset=-2 (param)
   196 ;;_nuls	offset	0
   197 ;;_l	offset	7
   198 ;;_p	offset	9
   199 ;;_cp	offset	11
   200 ;;_w	offset	13
   201 ;;_i	offset	15
   202 ;;_fp	offset=-2 (param)
   203 ;;_s	offset=-4 (param)
   204 ;;_dtoa$2973	offset	0
   205 ;;_n	offset	2
   206 ;;_i	offset	10
   207 ;;_s	offset	12
   208 ;;_w	offset	14
   209 ;;_p	offset	16
   210 ;;_fp	offset=-2 (param)
   211 ;;_d	offset=-10 (param)
   212 ;;_w	offset	0
   213 ;;_i	offset	2
   214 ;;_fp	offset=-2 (param)
   215 ;;_buf	offset=-3 (param)
   216 ;;_p	offset=-5 (param)
   217 ;;_a	offset	0
   218 ;;_s	offset=-2 (param)
   219 ;;_i	offset	0
   220 ;;_c	offset	2
   221 ;;_s	offset=-1 (param)
   222 ;;_fp	offset=-3 (param)
   223 ;;_c	offset=-2 (param)
   224 ;;_fp	offset=-4 (param)
   225 ;;_c	offset=-1 (param)
   226 ;;__this	offset=-2 (param)
   227 ;;_c	offset=-3 (param)
   228 ;;_a	offset=-2 (param)
   229 ;;_sign	offset	0
   230 ;;_counter	offset	1
   231 ;;_dividend	offset=-8 (param)
   232 ;;_divisor	offset=-16 (param)
   233 ;;_quotient	offset	0
   234 ;;_sign	offset	8
   235 ;;_counter	offset	9
   236 ;;_dividend	offset=-8 (param)
   237 ;;_divisor	offset=-16 (param)
   238 ;;_i	offset	0
   239 ;;_sum	offset	2
   240 ;;_byte_block	offset=-1 (param)
   241 ;;_byte_count	offset=-3 (param)
   242 ;;_txData	offset=-1 (param)
   243 ;;_InterruptHandler	offset=-3 (param)
   244 ;;_InterruptHandler	offset=-3 (param)
   245 ;;_InterruptHandler	offset=-3 (param)
   246 ;;_InterruptHandler	offset=-3 (param)
   247 ;;_InterruptHandler	offset=-3 (param)
   248 ;;_state	offset	0
   249 ;;_InterruptHandler	offset=-3 (param)
   250 ;;_InterruptHandler	offset=-3 (param)
   251 ;;_InterruptHandler	offset=-3 (param)
   252 ;;_InterruptHandler	offset=-3 (param)
   253                           
   254                           	psect	idataBANK0
   255  004AFE                     __pidataBANK0:
   256                           	opt callstack 0
   257                           
   258                           ;initializer for stoa@F1139
   259  004AFE  28                 	db	40
   260  004AFF  6E                 	db	110
   261  004B00  75                 	db	117
   262  004B01  6C                 	db	108
   263  004B02  6C                 	db	108
   264  004B03  29                 	db	41
   265  004B04  00                 	db	0
   266                           
   267                           ;initializer for _H10
   268  004B05  0A                 	db	10
   269  004B06  00                 	db	0
   270  004B07  00                 	db	0
   271  004B08  03                 	db	3
   272  004B09  01                 	db	1
   273  004B0A  00                 	db	0
   274  004B0B  00                 	db	0
   275  004B0C  9F75               	dw	40821
   276  004B0E  000C               	dw	12
   277  004B10  00                 	db	0
   278  004B11  00                 	db	0
   279  0000                     _IVTADL	set	14493
   280  0000                     _IVTADH	set	14494
   281  0000                     _IVTADU	set	14495
   282  0000                     _PRLOCKbits	set	14831
   283  0000                     _SCANPR	set	14839
   284  0000                     _DMA2PR	set	14836
   285  0000                     _DMA1PR	set	14835
   286  0000                     _MAINPR	set	14834
   287  0000                     _ISRPR	set	14833
   288  0000                     _PIE2bits	set	14738
   289  0000                     _PIR2bits	set	14754
   290  0000                     _PIE9bits	set	14745
   291  0000                     _PIR9bits	set	14761
   292  0000                     _PIE6bits	set	14742
   293  0000                     _PIE3bits	set	14739
   294  0000                     _PMD7	set	14791
   295  0000                     _PMD6	set	14790
   296  0000                     _PMD5	set	14789
   297  0000                     _PMD4	set	14788
   298  0000                     _PMD3	set	14787
   299  0000                     _PMD2	set	14786
   300  0000                     _PMD1	set	14785
   301  0000                     _PMD0	set	14784
   302  0000                     _OSCTUNE	set	14814
   303  0000                     _OSCFRQ	set	14815
   304  0000                     _OSCEN	set	14813
   305  0000                     _OSCCON3	set	14811
   306  0000                     _OSCCON1	set	14809
   307  0000                     _IPR9bits	set	14729
   308  0000                     _IPR7bits	set	14727
   309  0000                     _IPR5bits	set	14725
   310  0000                     _IPR1bits	set	14721
   311  0000                     _IPR3bits	set	14723
   312  0000                     _IPR6bits	set	14726
   313  0000                     _IPR2bits	set	14722
   314  0000                     _PIE7bits	set	14743
   315  0000                     _PIE5bits	set	14741
   316  0000                     _PIE1bits	set	14737
   317  0000                     _PIR7bits	set	14759
   318  0000                     _PIR5bits	set	14757
   319  0000                     _PIR1bits	set	14753
   320  0000                     _PLLR	set	118496
   321  0000                     _SPI1SDIPPS	set	15071
   322  0000                     _RC6PPS	set	14870
   323  0000                     _RC5PPS	set	14869
   324  0000                     _RA6PPS	set	14854
   325  0000                     _RA5PPS	set	14853
   326  0000                     _RA4PPS	set	14852
   327  0000                     _SPI1SCKPPS	set	15070
   328  0000                     _U1RXPPS	set	15077
   329  0000                     _INT1PPS	set	15041
   330  0000                     _INT2PPS	set	15042
   331  0000                     _INT0PPS	set	15040
   332  0000                     _RC3PPS	set	14867
   333  0000                     _RB6PPS	set	14862
   334  0000                     _U2RXPPS	set	15080
   335  0000                     _SLRCONF	set	14995
   336  0000                     _SLRCONE	set	14979
   337  0000                     _SLRCOND	set	14963
   338  0000                     _SLRCONC	set	14947
   339  0000                     _SLRCONB	set	14931
   340  0000                     _SLRCONA	set	14915
   341  0000                     _ODCOND	set	14962
   342  0000                     _ODCONC	set	14946
   343  0000                     _ODCONB	set	14930
   344  0000                     _ODCONA	set	14914
   345  0000                     _ODCONF	set	14994
   346  0000                     _ODCONE	set	14978
   347  0000                     _WPUC	set	14945
   348  0000                     _WPUA	set	14913
   349  0000                     _WPUB	set	14929
   350  0000                     _WPUE	set	14977
   351  0000                     _WPUF	set	14993
   352  0000                     _WPUD	set	14961
   353  0000                     _ANSELA	set	14912
   354  0000                     _ANSELF	set	14992
   355  0000                     _ANSELE	set	14976
   356  0000                     _ANSELB	set	14928
   357  0000                     _ANSELC	set	14944
   358  0000                     _ANSELD	set	14960
   359  0000                     _DMA1SSA	set	15353
   360  0000                     _DMA1DSZ	set	15342
   361  0000                     _DMA1SSZ	set	15351
   362  0000                     _DMA1DSA	set	15344
   363  0000                     _DMA1CON0bits	set	15356
   364  0000                     _DMA1CON1bits	set	15357
   365  0000                     _DMA1CON0	set	15356
   366  0000                     _DMA1AIRQ	set	15358
   367  0000                     _DMA1SIRQ	set	15359
   368  0000                     _DMA1CON1	set	15357
   369  0000                     _CLC1CON	set	15476
   370  0000                     _CLC1GLS3	set	15485
   371  0000                     _CLC1GLS2	set	15484
   372  0000                     _CLC1GLS1	set	15483
   373  0000                     _CLC1GLS0	set	15482
   374  0000                     _CLC1SEL3	set	15481
   375  0000                     _CLC1SEL2	set	15480
   376  0000                     _CLC1SEL1	set	15479
   377  0000                     _CLC1SEL0	set	15478
   378  0000                     _CLC1POL	set	15477
   379  0000                     _CLKRCON	set	15589
   380  0000                     _CLKRCLK	set	15590
   381  0000                     _MD1CARL	set	15613
   382  0000                     _MD1CARH	set	15614
   383  0000                     _MD1SRC	set	15612
   384  0000                     _MD1CON1bits	set	15611
   385  0000                     _MD1CON0bits	set	15610
   386  0000                     _SPI1INTFbits	set	15642
   387  0000                     _SPI1RXB	set	15632
   388  0000                     _SPI1TXB	set	15633
   389  0000                     _SPI1TCNTL	set	15634
   390  0000                     _SPI1CON0	set	15636
   391  0000                     _SPI1CLK	set	15644
   392  0000                     _SPI1BAUD	set	15641
   393  0000                     _SPI1CON2	set	15638
   394  0000                     _SPI1CON1	set	15637
   395  0000                     _U2RXB	set	15824
   396  0000                     _U2TXB	set	15826
   397  0000                     _U2ERRIE	set	15842
   398  0000                     _U2ERRIR	set	15841
   399  0000                     _U2UIR	set	15840
   400  0000                     _U2FIFO	set	15839
   401  0000                     _U2BRGH	set	15838
   402  0000                     _U2BRGL	set	15837
   403  0000                     _U2CON2	set	15836
   404  0000                     _U2CON1	set	15835
   405  0000                     _U2CON0	set	15834
   406  0000                     _U2P3L	set	15832
   407  0000                     _U2P2L	set	15830
   408  0000                     _U2P1L	set	15828
   409  0000                     _U1RXB	set	15848
   410  0000                     _U1TXB	set	15850
   411  0000                     _U1ERRIE	set	15866
   412  0000                     _U1ERRIR	set	15865
   413  0000                     _U1UIR	set	15864
   414  0000                     _U1FIFO	set	15863
   415  0000                     _U1BRGH	set	15862
   416  0000                     _U1BRGL	set	15861
   417  0000                     _U1CON2	set	15860
   418  0000                     _U1CON1	set	15859
   419  0000                     _U1CON0	set	15858
   420  0000                     _U1P3H	set	15857
   421  0000                     _U1P3L	set	15856
   422  0000                     _U1P2H	set	15855
   423  0000                     _U1P2L	set	15854
   424  0000                     _U1P1H	set	15853
   425  0000                     _U1P1L	set	15852
   426  0000                     _ADCON0	set	16120
   427  0000                     _ADCLK	set	16127
   428  0000                     _ADACT	set	16126
   429  0000                     _ADREF	set	16125
   430  0000                     _ADSTAT	set	16124
   431  0000                     _ADCON3	set	16123
   432  0000                     _ADCON2	set	16122
   433  0000                     _ADCON1	set	16121
   434  0000                     _ADPREH	set	16119
   435  0000                     _ADPREL	set	16118
   436  0000                     _ADCAP	set	16117
   437  0000                     _ADACQH	set	16116
   438  0000                     _ADACQL	set	16115
   439  0000                     _ADPCH	set	16113
   440  0000                     _ADRPT	set	16108
   441  0000                     _ADACCU	set	16106
   442  0000                     _ADSTPTH	set	16101
   443  0000                     _ADSTPTL	set	16100
   444  0000                     _ADUTHH	set	16097
   445  0000                     _ADUTHL	set	16096
   446  0000                     _ADLTHH	set	16095
   447  0000                     _ADLTHL	set	16094
   448  0000                     _NCO1CONbits	set	16190
   449  0000                     _NCO1INCL	set	16187
   450  0000                     _NCO1INCH	set	16188
   451  0000                     _NCO1INCU	set	16189
   452  0000                     _NCO1ACCL	set	16184
   453  0000                     _NCO1ACCH	set	16185
   454  0000                     _NCO1ACCU	set	16186
   455  0000                     _NCO1CLK	set	16191
   456  0000                     _NCO1CON	set	16190
   457  0000                     _LATCbits	set	16316
   458  0000                     _LATEbits	set	16318
   459  0000                     _T6CON	set	16276
   460  0000                     _T6TMR	set	16274
   461  0000                     _T6PR	set	16275
   462  0000                     _T6RST	set	16279
   463  0000                     _T6HLT	set	16277
   464  0000                     _T6CLKCON	set	16278
   465  0000                     _TRISD	set	16325
   466  0000                     _TRISC	set	16324
   467  0000                     _TRISB	set	16323
   468  0000                     _TRISA	set	16322
   469  0000                     _TRISF	set	16327
   470  0000                     _TRISE	set	16326
   471  0000                     _LATC	set	16316
   472  0000                     _LATB	set	16315
   473  0000                     _LATF	set	16319
   474  0000                     _LATA	set	16314
   475  0000                     _LATD	set	16317
   476  0000                     _LATE	set	16318
   477  0000                     _IVTLOCKbits	set	16340
   478  0000                     _IVTLOCK	set	16340
   479  0000                     _INTCON0bits	set	16338
   480  0000                     _GIE	set	130711
   481                           
   482                           	psect	smallconst
   483  002000                     __psmallconst:
   484                           	opt callstack 0
   485  002000  00                 	db	0
   486  002001                     STR_1:
   487                           
   488                           ; BSR set to: 57
   489  002001  43                 	db	67	;'C'
   490  002002  53                 	db	83	;'S'
   491  002003  20                 	db	32
   492  002004  25                 	db	37
   493  002005  64                 	db	100	;'d'
   494  002006  2C                 	db	44
   495  002007  20                 	db	32
   496  002008  25                 	db	37
   497  002009  78                 	db	120	;'x'
   498  00200A  00                 	db	0
   499  00200B                     STR_2:
   500                           
   501                           ; BSR set to: 57
   502  00200B  54                 	db	84	;'T'
   503  00200C  65                 	db	101	;'e'
   504  00200D  73                 	db	115	;'s'
   505  00200E  74                 	db	116	;'t'
   506  00200F  00                 	db	0
   507  002010                     STR_3:
   508                           
   509                           ; BSR set to: 57
   510  002010  25                 	db	37
   511  002011  73                 	db	115	;'s'
   512  002012  00                 	db	0
   513  0000                     
   514                           ; #config settings
   515  002013  00                 	db	0	; dummy byte at the end
   516  0000                     
   517                           	psect	cinit
   518  0040D0                     __pcinit:
   519                           	opt callstack 0
   520  0040D0                     start_initialization:
   521                           	opt callstack 0
   522  0040D0                     __initialization:
   523                           	opt callstack 0
   524                           
   525                           ; Initialize objects allocated to BANK0 (20 bytes)
   526                           ; load TBLPTR registers with __pidataBANK0
   527  0040D0  0EFE               	movlw	low __pidataBANK0
   528  0040D2  6EF6               	movwf	tblptrl,c
   529  0040D4  0E4A               	movlw	high __pidataBANK0
   530  0040D6  6EF7               	movwf	tblptrh,c
   531  0040D8  0E00               	movlw	low (__pidataBANK0 shr (0+16))
   532  0040DA  6EF8               	movwf	tblptru,c
   533  0040DC  EE00  F0C9         	lfsr	0,__pdataBANK0
   534  0040E0  EE20 F014          	lfsr	2,20
   535  0040E4                     copy_data0:
   536  0040E4  0009               	tblrd		*+
   537  0040E6  006F FFD7 FFEE     	movff	tablat,postinc0
   538  0040EC  50DD               	movf	postdec2,w,c
   539  0040EE  50D9               	movf	fsr2l,w,c
   540  0040F0  E1F9               	bnz	copy_data0
   541                           
   542                           ; Clear objects allocated to BANK2 (134 bytes)
   543  0040F2  EE00  F200         	lfsr	0,__pbssBANK2
   544  0040F6  0E86               	movlw	134
   545  0040F8                     clear_0:
   546  0040F8  6AEE               	clrf	postinc0,c
   547  0040FA  06E8               	decf	wreg,f,c
   548  0040FC  E1FD               	bnz	clear_0
   549                           
   550                           ; Clear objects allocated to BANK1 (256 bytes)
   551  0040FE  EE00  F100         	lfsr	0,__pbssBANK1
   552  004102  EE20 F100          	lfsr	2,256
   553  004106                     clear_1:
   554  004106  6AEE               	clrf	postinc0,c
   555  004108  50DD               	movf	postdec2,w,c
   556  00410A  50D9               	movf	fsr2l,w,c
   557  00410C  E1FC               	bnz	clear_1
   558  00410E  50DA               	movf	fsr2h,w,c
   559  004110  E1FA               	bnz	clear_1
   560                           
   561                           ; Clear objects allocated to BANK0 (105 bytes)
   562  004112  EE00  F060         	lfsr	0,__pbssBANK0
   563  004116  0E69               	movlw	105
   564  004118                     clear_2:
   565  004118  6AEE               	clrf	postinc0,c
   566  00411A  06E8               	decf	wreg,f,c
   567  00411C  E1FD               	bnz	clear_2
   568                           
   569                           ; Clear objects allocated to COMRAM (59 bytes)
   570  00411E  EE00  F001         	lfsr	0,__pbssCOMRAM
   571  004122  0E3B               	movlw	59
   572  004124                     clear_3:
   573  004124  6AEE               	clrf	postinc0,c
   574  004126  06E8               	decf	wreg,f,c
   575  004128  E1FD               	bnz	clear_3
   576                           
   577                           ;
   578                           ; Setup IVTBASE
   579                           ;
   580  00412A  0E08               	movlw	(ivt0x8_base shr 0)& (0+255)
   581  00412C  6ED5               	movwf	213,c
   582  00412E  0E00               	movlw	(ivt0x8_base shr (0+8))& (0+255)
   583  004130  6ED6               	movwf	214,c
   584  004132  0E00               	movlw	(ivt0x8_base shr (0+16))& (0+255)
   585  004134  6ED7               	movwf	215,c
   586  004136                     end_of_initialization:
   587                           	opt callstack 0
   588  004136                     __end_of__initialization:
   589                           	opt callstack 0
   590  004136  0100               	movlb	0
   591  004138  EF53  F01B         	goto	_main	;jump to C main() function
   592                           
   593                           	psect	bssCOMRAM
   594  000001                     __pbssCOMRAM:
   595                           	opt callstack 0
   596  000001                     _spi_link:
   597                           	opt callstack 0
   598  000001                     	ds	12
   599  00000D                     _TMR6_InterruptHandler:
   600                           	opt callstack 0
   601  00000D                     	ds	3
   602  000010                     _ADCC_ADI_InterruptHandler:
   603                           	opt callstack 0
   604  000010                     	ds	3
   605  000013                     _UART1_TxInterruptHandler:
   606                           	opt callstack 0
   607  000013                     	ds	3
   608  000016                     _UART1_RxInterruptHandler:
   609                           	opt callstack 0
   610  000016                     	ds	3
   611  000019                     _UART2_TxInterruptHandler:
   612                           	opt callstack 0
   613  000019                     	ds	3
   614  00001C                     _UART2_RxInterruptHandler:
   615                           	opt callstack 0
   616  00001C                     	ds	3
   617  00001F                     _INT2_InterruptHandler:
   618                           	opt callstack 0
   619  00001F                     	ds	3
   620  000022                     _INT1_InterruptHandler:
   621                           	opt callstack 0
   622  000022                     	ds	3
   623  000025                     _INT0_InterruptHandler:
   624                           	opt callstack 0
   625  000025                     	ds	3
   626  000028                     _nout:
   627                           	opt callstack 0
   628  000028                     	ds	2
   629  00002A                     _width:
   630                           	opt callstack 0
   631  00002A                     	ds	2
   632  00002C                     _prec:
   633                           	opt callstack 0
   634  00002C                     	ds	2
   635  00002E                     _flags:
   636                           	opt callstack 0
   637  00002E                     	ds	2
   638  000030                     _uart2RxCount:
   639                           	opt callstack 0
   640  000030                     	ds	1
   641  000031                     _uart2RxTail:
   642                           	opt callstack 0
   643  000031                     	ds	1
   644  000032                     _uart2RxHead:
   645                           	opt callstack 0
   646  000032                     	ds	1
   647  000033                     _uart2TxBufferRemaining:
   648                           	opt callstack 0
   649  000033                     	ds	1
   650  000034                     _uart2TxTail:
   651                           	opt callstack 0
   652  000034                     	ds	1
   653  000035                     _uart2TxHead:
   654                           	opt callstack 0
   655  000035                     	ds	1
   656  000036                     _uart1RxCount:
   657                           	opt callstack 0
   658  000036                     	ds	1
   659  000037                     _uart1RxTail:
   660                           	opt callstack 0
   661  000037                     	ds	1
   662  000038                     _uart1RxHead:
   663                           	opt callstack 0
   664  000038                     	ds	1
   665  000039                     _uart1TxBufferRemaining:
   666                           	opt callstack 0
   667  000039                     	ds	1
   668  00003A                     _uart1TxTail:
   669                           	opt callstack 0
   670  00003A                     	ds	1
   671  00003B                     _uart1TxHead:
   672                           	opt callstack 0
   673  00003B                     	ds	1
   674                           
   675                           	psect	bssBANK0
   676  000060                     __pbssBANK0:
   677                           	opt callstack 0
   678  000060                     wdtdelay@dcount:
   679                           	opt callstack 0
   680  000060                     	ds	4
   681  000064                     _V:
   682                           	opt callstack 0
   683  000064                     	ds	69
   684  0000A9                     _dbuf:
   685                           	opt callstack 0
   686  0000A9                     	ds	32
   687                           
   688                           	psect	dataBANK0
   689  0000C9                     __pdataBANK0:
   690                           	opt callstack 0
   691  0000C9                     stoa@F1139:
   692                           	opt callstack 0
   693  0000C9                     	ds	7
   694  0000D0                     _H10:
   695                           	opt callstack 0
   696  0000D0                     	ds	13
   697                           
   698                           	psect	bssBANK1
   699  000100                     __pbssBANK1:
   700                           	opt callstack 0
   701  000100                     _uart2RxBuffer:
   702                           	opt callstack 0
   703  000100                     	ds	64
   704  000140                     _uart2TxBuffer:
   705                           	opt callstack 0
   706  000140                     	ds	64
   707  000180                     _uart1RxBuffer:
   708                           	opt callstack 0
   709  000180                     	ds	64
   710  0001C0                     _uart1TxBuffer:
   711                           	opt callstack 0
   712  0001C0                     	ds	64
   713                           
   714                           	psect	bssBANK2
   715  000200                     __pbssBANK2:
   716                           	opt callstack 0
   717  000200                     _ring_buf2:
   718                           	opt callstack 0
   719  000200                     	ds	67
   720  000243                     _ring_buf1:
   721                           	opt callstack 0
   722  000243                     	ds	67
   723                           
   724                           	psect	cstackCOMRAM
   725  00005C                     __pcstackCOMRAM:
   726                           	opt callstack 0
   727  00005C                     ??_TMR6_ISR:
   728  00005C                     
   729                           ; 1 bytes @ 0x0
   730  00005C                     	ds	1
   731  00005D                     
   732                           ; 1 bytes @ 0x1
   733 ;;
   734 ;;Main: autosize = 3, tempsize = 0, incstack = 0, save=0
   735 ;;
   736 ;; *************** function _main *****************
   737 ;; Defined at:
   738 ;;		line 72 in file "main.c"
   739 ;; Parameters:    Size  Location     Type
   740 ;;		None
   741 ;; Auto vars:     Size  Location     Type
   742 ;;  sum             2  [STACK] unsigned short 
   743 ;;  i               1  [STACK] unsigned char 
   744 ;; Return value:  Size  Location     Type
   745 ;;                  1  [STACK] void 
   746 ;; Registers used:
   747 ;;		wreg, fsr0l, fsr0h, fsr1l, fsr1h, fsr2l, fsr2h, status,2, status,0, btemp, btemp+1, btemp+8, btemp+9, btemp+10, btem
      +p+11, btemp+16, btemp+17, btemp+18, btemp+19, btemp+20, btemp+21, btemp+22, btemp+23, tblptrl, tblptrh, tblptru, prodl
   748 ;; Tracked objects:
   749 ;;		On entry : 0/0
   750 ;;		On exit  : 3F/0
   751 ;;		Unchanged: 0/0
   752 ;; Data sizes:     COMRAM   BANK0   BANK1   BANK2   BANK3   BANK4   BANK5   BANK6   BANK7   BANK8   BANK9  BANK10  BANK1
      +1  BANK12  BANK13  BANK14  BANK15  BANK16  BANK17  BANK18  BANK19  BANK20  BANK21  BANK22  BANK23  BANK24  BANK25  BANK2
      +6  BANK27  BANK28  BANK29  BANK30  BANK31
   753 ;;      Params:         0       0       0       0       0       0       0       0       0       0       0       0       
      +0       0       0       0       0       0       0       0       0       0       0       0       0       0       0       
      +0       0       0       0       0       0
   754 ;;      Locals:         0       0       0       0       0       0       0       0       0       0       0       0       
      +0       0       0       0       0       0       0       0       0       0       0       0       0       0       0       
      +0       0       0       0       0       0
   755 ;;      Temps:          0       0       0       0       0       0       0       0       0       0       0       0       
      +0       0       0       0       0       0       0       0       0       0       0       0       0       0       0       
      +0       0       0       0       0       0
   756 ;;      Totals:         0       0       0       0       0       0       0       0       0       0       0       0       
      +0       0       0       0       0       0       0       0       0       0       0       0       0       0       0       
      +0       0       0       0       0       0
   757 ;;Total ram usage:        0 bytes
   758 ;; Hardware stack levels required when called:   13
   759 ;; This function calls:
   760 ;;		_SYSTEM_Initialize
   761 ;;		_UART1_Write
   762 ;;		_UART1_is_tx_ready
   763 ;;		_block_checkmark
   764 ;;		_eaDogM_WriteString
   765 ;;		_init_display
   766 ;;		_sprintf
   767 ;;		_strcpy
   768 ;;		_wait_lcd_check
   769 ;;		_wait_lcd_done
   770 ;; This function is called by:
   771 ;;		Startup code after reset
   772 ;; This function uses a reentrant model
   773 ;;
   774                           
   775                           	psect	text0
   776  0036A6                     __ptext0:
   777                           	opt callstack 0
   778  0036A6                     _main:
   779                           	opt callstack 0
   780                           
   781                           ; autosize = 3, savesize = 0, parsavesize = 0, tempsize = 0 parsize = 0, argsize = 0 var
      +                          gsize = 0, retsize = 0 argfudge = 0
   782  0036A6  52E6               	movf	postinc1,f,c
   783  0036A8  52E6               	movf	postinc1,f,c
   784  0036AA  52E6               	movf	postinc1,f,c
   785                           
   786                           ;main.c: 74:  uint8_t i;;main.c: 75:  uint16_t sum;;main.c: 78:  SYSTEM_Initialize();
   787                           
   788                           ;incstack = 0
   789  0036AC  ECA8  F022         	call	_SYSTEM_Initialize	;wreg free
   790                           
   791                           ; BSR set to: 60
   792                           ;main.c: 81:  (INTCON0bits.GIEH = 1);
   793  0036B0  8ED2               	bsf	16338,7,c	;volatile
   794                           
   795                           ; BSR set to: 60
   796                           ;main.c: 84:  (INTCON0bits.GIEL = 1);
   797  0036B2  8CD2               	bsf	16338,6,c	;volatile
   798                           
   799                           ; BSR set to: 60
   800                           ;main.c: 86:  init_display();
   801  0036B4  ECED  F01C         	call	_init_display	;wreg free
   802                           
   803                           ; BSR set to: 61
   804                           ;main.c: 87:  sum = block_checkmark((uint8_t*) & H10[0].block, sizeof(block10));
   805  0036B8  0E0A               	movlw	10
   806  0036BA  6EE6               	movwf	postinc1,c
   807  0036BC  0E00               	movlw	0
   808  0036BE  6EE6               	movwf	postinc1,c
   809  0036C0  0ED0               	movlw	_H10& (0+255)
   810  0036C2  6E47               	movwf	btemp+11,c
   811  0036C4  2847               	incf	btemp+11,w,c
   812  0036C6  6EE6               	movwf	postinc1,c
   813  0036C8  ECC5  F01D         	call	_block_checkmark	;wreg free
   814                           
   815                           ;stkvar	_sum @ sp[(-3)+0]
   816  0036CC  0EFD               	movlw	-3
   817  0036CE  0060  F0F3  FFE3   	movff	btemp,plusw1
   818  0036D4  0EFE               	movlw	-2
   819  0036D6  0060  F0F7  FFE3   	movff	btemp+1,plusw1
   820                           
   821                           ;main.c: 88:  sprintf(V.buf, "CS %d, %x", sizeof(block10), sum);
   822                           ;stkvar	_sum @ sp[(-3)+0]
   823  0036DC  0EFD               	movlw	-3
   824  0036DE  006F FF8F FFE6     	movff	plusw1,postinc1
   825  0036E4  006F FF8F FFE6     	movff	plusw1,postinc1
   826  0036EA  0E0A               	movlw	10
   827  0036EC  6EE6               	movwf	postinc1,c
   828  0036EE  0E00               	movlw	0
   829  0036F0  6EE6               	movwf	postinc1,c
   830  0036F2  0E01               	movlw	STR_1& (0+255)
   831  0036F4  6EE6               	movwf	postinc1,c
   832  0036F6  0E64               	movlw	_V& (0+255)
   833  0036F8  6E47               	movwf	btemp+11,c
   834  0036FA  2847               	incf	btemp+11,w,c
   835  0036FC  6EE6               	movwf	postinc1,c
   836  0036FE  0E06               	movlw	6
   837  003700  6EE6               	movwf	postinc1,c
   838  003702  EC61  F01D         	call	_sprintf	;wreg free
   839                           
   840                           ;main.c: 90:  eaDogM_WriteString(V.buf);
   841  003706  0E64               	movlw	_V& (0+255)
   842  003708  6E47               	movwf	btemp+11,c
   843  00370A  2847               	incf	btemp+11,w,c
   844  00370C  6EE6               	movwf	postinc1,c
   845  00370E  EC76  F01E         	call	_eaDogM_WriteString	;wreg free
   846                           
   847                           ; BSR set to: 59
   848                           ;main.c: 91:  wait_lcd_done();
   849  003712  EC41  F025         	call	_wait_lcd_done	;wreg free
   850  003716  D03C               	goto	l1126
   851  003718                     l5189:
   852                           
   853                           ; BSR set to: 0
   854                           ;main.c: 103:    if (UART1_is_tx_ready() > 30) {
   855  003718  ECCF  F025         	call	_UART1_is_tx_ready	;wreg free
   856  00371C  0E1E               	movlw	30
   857  00371E  643C               	cpfsgt	btemp,c
   858  003720  D00F               	goto	u3560
   859                           
   860                           ;main.c: 104:     for (i = 0; i <= 30; i++) {
   861                           ;stkvar	_i @ sp[(-3)+2]
   862  003722  0EFF               	movlw	-1
   863  003724  6AE3               	clrf	plusw1,c
   864  003726                     l5197:
   865                           
   866                           ;main.c: 105:      UART1_Write(0x4f);
   867  003726  0E4F               	movlw	79
   868  003728  6EE6               	movwf	postinc1,c
   869  00372A  EC89  F022         	call	_UART1_Write	;wreg free
   870                           
   871                           ; BSR set to: 57
   872                           ;main.c: 106:     }
   873                           ;stkvar	_i @ sp[(-3)+2]
   874  00372E  0EFF               	movlw	-1
   875  003730  2AE3               	incf	plusw1,f,c
   876                           
   877                           ; BSR set to: 57
   878                           ;stkvar	_i @ sp[(-3)+2]
   879  003732  0EFF               	movlw	-1
   880  003734  006F FF8C  F03C    	movff	plusw1,btemp
   881  00373A  0E1E               	movlw	30
   882  00373C  643C               	cpfsgt	btemp,c
   883  00373E  D7F3               	goto	l5197
   884  003740                     u3560:
   885                           
   886                           ;main.c: 109:    if (PRLOCKbits.PRLOCKED) {
   887                           
   888                           ;main.c: 107:    }
   889  003740  0139               	movlb	57	; () banked
   890  003742  B1EF               	btfsc	239,0,b	;volatile
   891  003744  D008               	goto	l5207
   892                           
   893                           ; BSR set to: 57
   894                           ;main.c: 112:     strcpy(V.buf, "Test");
   895  003746  0E0B               	movlw	STR_2& (0+255)
   896  003748  6EE6               	movwf	postinc1,c
   897  00374A  0E64               	movlw	_V& (0+255)
   898  00374C  6E47               	movwf	btemp+11,c
   899  00374E  2847               	incf	btemp+11,w,c
   900  003750  6EE6               	movwf	postinc1,c
   901  003752  ECD3  F020         	call	_strcpy	;wreg free
   902  003756                     l5207:
   903                           
   904                           ;main.c: 114:    V.s_state = SEQ_STATE_SET;
   905  003756  0E02               	movlw	2
   906  003758  D009               	goto	L2
   907  00375A                     L1:
   908  00375A  6F64               	movwf	_V& (0+255),b	;volatile
   909                           
   910                           ;main.c: 115:    break;
   911  00375C  D01A               	goto	l5227
   912  00375E                     l5209:
   913                           
   914                           ; BSR set to: 0
   915                           ;main.c: 117:    eaDogM_WriteString(V.buf);
   916  00375E  0E64               	movlw	_V& (0+255)
   917  003760  6E47               	movwf	btemp+11,c
   918  003762  2847               	incf	btemp+11,w,c
   919  003764  6EE6               	movwf	postinc1,c
   920  003766  EC76  F01E         	call	_eaDogM_WriteString	;wreg free
   921                           
   922                           ; BSR set to: 59
   923                           ;main.c: 118:    V.s_state = SEQ_STATE_TRIGGER;
   924  00376A  0E03               	movlw	3
   925  00376C                     L2:
   926  00376C  0100               	movlb	0	; () banked
   927  00376E  D7F5               	goto	L1
   928  003770                     l1117:
   929                           
   930                           ; BSR set to: 0
   931  003770  82BE               	bsf	16318,1,c	;volatile
   932                           
   933                           ; BSR set to: 0
   934                           ;main.c: 122:    if (wait_lcd_check())
   935  003772  EC93  F025         	call	_wait_lcd_check	;wreg free
   936  003776  503C               	movf	btemp,w,c
   937  003778  B4D8               	btfsc	status,2,c
   938  00377A  D003               	goto	l5217
   939                           
   940                           ;main.c: 123:     V.s_state = SEQ_STATE_DONE;
   941  00377C  0E04               	movlw	4
   942  00377E  0100               	movlb	0	; () banked
   943  003780  6F64               	movwf	_V& (0+255),b	;volatile
   944  003782                     l5217:
   945  003782  92BE               	bcf	16318,1,c	;volatile
   946  003784  D006               	goto	l5227
   947  003786                     l5219:
   948                           
   949                           ; BSR set to: 0
   950                           ;main.c: 127:    wait_lcd_done();
   951  003786  EC41  F025         	call	_wait_lcd_done	;wreg free
   952                           
   953                           ; BSR set to: 0
   954  00378A  84BE               	bsf	16318,2,c	;volatile
   955  00378C                     l5223:
   956                           
   957                           ; BSR set to: 0
   958                           ;main.c: 129:    V.s_state = SEQ_STATE_RUN;
   959  00378C  0E01               	movlw	1
   960  00378E  D7E5               	goto	L1
   961  003790                     l1126:
   962                           
   963                           ; BSR set to: 0
   964                           ;main.c: 133:    V.s_state = SEQ_STATE_INIT;
   965  003790  6B64               	clrf	_V& (0+255),b	;volatile
   966  003792                     l5227:
   967  003792  0100               	movlb	0	; () banked
   968  003794  5164               	movf	_V& (0+255),w,b	;volatile
   969  003796  6E46               	movwf	btemp+10,c
   970  003798  6A47               	clrf	btemp+11,c
   971                           
   972                           ; Switch on 2 bytes has been partitioned into a top level switch of size 1, and 1 sub-sw
      +                          itches
   973                           ; Switch size 1, requested type "simple"
   974                           ; Number of cases is 1, Range of values is 0 to 0
   975                           ; switch strategies available:
   976                           ; Name         Instructions Cycles
   977                           ; simple_byte            4     3 (average)
   978                           ;	Chosen strategy is simple_byte
   979  00379A  5047               	movf	btemp+11,w,c
   980  00379C  0A00               	xorlw	0	; case 0
   981  00379E  A4D8               	btfss	status,2,c
   982  0037A0  D7F7               	goto	l1126
   983                           
   984                           ; BSR set to: 0
   985                           ; Switch size 1, requested type "simple"
   986                           ; Number of cases is 6, Range of values is 0 to 5
   987                           ; switch strategies available:
   988                           ; Name         Instructions Cycles
   989                           ; simple_byte           19    10 (average)
   990                           ;	Chosen strategy is simple_byte
   991  0037A2  5046               	movf	btemp+10,w,c
   992  0037A4  0A00               	xorlw	0	; case 0
   993  0037A6  B4D8               	btfsc	status,2,c
   994  0037A8  D7F1               	goto	l5223
   995  0037AA  0A01               	xorlw	1	; case 1
   996  0037AC  B4D8               	btfsc	status,2,c
   997  0037AE  D7B4               	goto	l5189
   998  0037B0  0A03               	xorlw	3	; case 2
   999  0037B2  B4D8               	btfsc	status,2,c
  1000  0037B4  D7D4               	goto	l5209
  1001  0037B6  0A01               	xorlw	1	; case 3
  1002  0037B8  B4D8               	btfsc	status,2,c
  1003  0037BA  D7DA               	goto	l1117
  1004  0037BC  0A07               	xorlw	7	; case 4
  1005  0037BE  B4D8               	btfsc	status,2,c
  1006  0037C0  D7E2               	goto	l5219
  1007  0037C2  0A01               	xorlw	1	; case 5
  1008  0037C4  D7E5               	goto	l1126
  1009  0037C6                     __end_of_main:
  1010                           	opt callstack 0
  1011                           
  1012 ;; *************** function _wait_lcd_done *****************
  1013 ;; Defined at:
  1014 ;;		line 122 in file "eadog.c"
  1015 ;; Parameters:    Size  Location     Type
  1016 ;;		None
  1017 ;; Auto vars:     Size  Location     Type
  1018 ;;		None
  1019 ;; Return value:  Size  Location     Type
  1020 ;;                  1  [STACK] void 
  1021 ;; Registers used:
  1022 ;;		wreg, fsr1l, fsr1h, status,2, status,0, btemp
  1023 ;; Tracked objects:
  1024 ;;		On entry : 0/3B
  1025 ;;		On exit  : 3F/0
  1026 ;;		Unchanged: 0/0
  1027 ;; Data sizes:     COMRAM   BANK0   BANK1   BANK2   BANK3   BANK4   BANK5   BANK6   BANK7   BANK8   BANK9  BANK10  BANK1
      +1  BANK12  BANK13  BANK14  BANK15  BANK16  BANK17  BANK18  BANK19  BANK20  BANK21  BANK22  BANK23  BANK24  BANK25  BANK2
      +6  BANK27  BANK28  BANK29  BANK30  BANK31
  1028 ;;      Params:         0       0       0       0       0       0       0       0       0       0       0       0       
      +0       0       0       0       0       0       0       0       0       0       0       0       0       0       0       
      +0       0       0       0       0       0
  1029 ;;      Locals:         0       0       0       0       0       0       0       0       0       0       0       0       
      +0       0       0       0       0       0       0       0       0       0       0       0       0       0       0       
      +0       0       0       0       0       0
  1030 ;;      Temps:          0       0       0       0       0       0       0       0       0       0       0       0       
      +0       0       0       0       0       0       0       0       0       0       0       0       0       0       0       
      +0       0       0       0       0       0
  1031 ;;      Totals:         0       0       0       0       0       0       0       0       0       0       0       0       
      +0       0       0       0       0       0       0       0       0       0       0       0       0       0       0       
      +0       0       0       0       0       0
  1032 ;;Total ram usage:        0 bytes
  1033 ;; Hardware stack levels used:    1
  1034 ;; Hardware stack levels required when called:    4
  1035 ;; This function calls:
  1036 ;;		_wdtdelay
  1037 ;; This function is called by:
  1038 ;;		_main
  1039 ;; This function uses a reentrant model
  1040 ;;
  1041                           
  1042                           	psect	text1
  1043  004A82                     __ptext1:
  1044                           	opt callstack 0
  1045  004A82                     _wait_lcd_done:
  1046                           	opt callstack 26
  1047                           
  1048                           ;eadog.c: 124:  while (spi_link.LCD_DATA);
  1049                           
  1050                           ; BSR set to: 0
  1051                           ; autosize = 0, savesize = 0, parsavesize = 0, tempsize = 0 parsize = 0, argsize = 0 var
      +                          gsize = 0, retsize = 0 argfudge = 0
  1052                           ;incstack = 0
  1053  004A82  B601               	btfsc	_spi_link,3,c	;volatile
  1054  004A84  D7FE               	goto	_wait_lcd_done
  1055                           
  1056                           ;eadog.c: 125:  wdtdelay(50);
  1057  004A86  0E32               	movlw	50
  1058  004A88  6EE6               	movwf	postinc1,c
  1059  004A8A  0E00               	movlw	0
  1060  004A8C  6EE6               	movwf	postinc1,c
  1061  004A8E  0E00               	movlw	0
  1062  004A90  6EE6               	movwf	postinc1,c
  1063  004A92  0E00               	movlw	0
  1064  004A94  6EE6               	movwf	postinc1,c
  1065  004A96  ECCB  F021         	call	_wdtdelay	;wreg free
  1066                           
  1067                           ; BSR set to: 0
  1068                           ; _wait_lcd_done: autosize = 0, savesize = 0, parsavesize = 0, tempsize = 0 parsize = 0,
      +                           argsize = 0, vargsize = 0
  1069  004A9A  0012               	return		;funcret
  1070  004A9C                     __end_of_wait_lcd_done:
  1071                           	opt callstack 0
  1072                           
  1073 ;; *************** function _wait_lcd_check *****************
  1074 ;; Defined at:
  1075 ;;		line 117 in file "eadog.c"
  1076 ;; Parameters:    Size  Location     Type
  1077 ;;		None
  1078 ;; Auto vars:     Size  Location     Type
  1079 ;;		None
  1080 ;; Return value:  Size  Location     Type
  1081 ;;                  1  [STACK] _Bool 
  1082 ;; Registers used:
  1083 ;;		btemp
  1084 ;; Tracked objects:
  1085 ;;		On entry : 0/0
  1086 ;;		On exit  : 0/0
  1087 ;;		Unchanged: 0/0
  1088 ;; Data sizes:     COMRAM   BANK0   BANK1   BANK2   BANK3   BANK4   BANK5   BANK6   BANK7   BANK8   BANK9  BANK10  BANK1
      +1  BANK12  BANK13  BANK14  BANK15  BANK16  BANK17  BANK18  BANK19  BANK20  BANK21  BANK22  BANK23  BANK24  BANK25  BANK2
      +6  BANK27  BANK28  BANK29  BANK30  BANK31
  1089 ;;      Params:         0       0       0       0       0       0       0       0       0       0       0       0       
      +0       0       0       0       0       0       0       0       0       0       0       0       0       0       0       
      +0       0       0       0       0       0
  1090 ;;      Locals:         0       0       0       0       0       0       0       0       0       0       0       0       
      +0       0       0       0       0       0       0       0       0       0       0       0       0       0       0       
      +0       0       0       0       0       0
  1091 ;;      Temps:          0       0       0       0       0       0       0       0       0       0       0       0       
      +0       0       0       0       0       0       0       0       0       0       0       0       0       0       0       
      +0       0       0       0       0       0
  1092 ;;      Totals:         0       0       0       0       0       0       0       0       0       0       0       0       
      +0       0       0       0       0       0       0       0       0       0       0       0       0       0       0       
      +0       0       0       0       0       0
  1093 ;;Total ram usage:        0 bytes
  1094 ;; Hardware stack levels used:    1
  1095 ;; Hardware stack levels required when called:    3
  1096 ;; This function calls:
  1097 ;;		Nothing
  1098 ;; This function is called by:
  1099 ;;		_main
  1100 ;; This function uses a reentrant model
  1101 ;;
  1102                           
  1103                           	psect	text2
  1104  004B26                     __ptext2:
  1105                           	opt callstack 0
  1106  004B26                     _wait_lcd_check:
  1107                           	opt callstack 27
  1108                           
  1109                           ;eadog.c: 119:  return spi_link.LCD_DATA;
  1110                           
  1111                           ; BSR set to: 0
  1112                           ; autosize = 0, savesize = 0, parsavesize = 0, tempsize = 0 parsize = 0, argsize = 0 var
      +                          gsize = 0, retsize = 0 argfudge = 0
  1113                           ;incstack = 0
  1114  004B26  A601               	btfss	_spi_link,3,c	;volatile
  1115  004B28  D003               	goto	u2700
  1116  004B2A  6A3C               	clrf	btemp,c
  1117  004B2C  2A3C               	incf	btemp,f,c
  1118  004B2E  0012               	return	
  1119  004B30                     u2700:
  1120  004B30  6A3C               	clrf	btemp,c
  1121                           
  1122                           ; _wait_lcd_check: autosize = 0, savesize = 0, parsavesize = 0, tempsize = 0 parsize = 0
      +                          , argsize = 0, vargsize = 0
  1123  004B32  0012               	return		;funcret
  1124  004B34                     __end_of_wait_lcd_check:
  1125                           	opt callstack 0
  1126                           
  1127 ;; *************** function _strcpy *****************
  1128 ;; Defined at:
  1129 ;;		line 7 in file "/opt/microchip/xc8/v2.05/pic/sources/c99/common/strcpy.c"
  1130 ;; Parameters:    Size  Location     Type
  1131 ;;  dest            1  [STACK] PTR unsigned char 
  1132 ;;		 -> V(69), 
  1133 ;;  src             1  [STACK] PTR const unsigned char 
  1134 ;;		 -> STR_2(5), 
  1135 ;; Auto vars:     Size  Location     Type
  1136 ;;  d               1  [STACK] PTR unsigned char 
  1137 ;;		 -> V(69), 
  1138 ;;  s               1  [STACK] PTR const unsigned char 
  1139 ;;		 -> STR_2(5), 
  1140 ;; Return value:  Size  Location     Type
  1141 ;;                  1  [STACK] PTR unsigned char 
  1142 ;; Registers used:
  1143 ;;		wreg, fsr1l, fsr1h, fsr2l, fsr2h, status,2, status,0, btemp, btemp+11, tblptrl, tblptrh, tblptru
  1144 ;; Tracked objects:
  1145 ;;		On entry : 3F/39
  1146 ;;		On exit  : 0/0
  1147 ;;		Unchanged: 0/0
  1148 ;; Data sizes:     COMRAM   BANK0   BANK1   BANK2   BANK3   BANK4   BANK5   BANK6   BANK7   BANK8   BANK9  BANK10  BANK1
      +1  BANK12  BANK13  BANK14  BANK15  BANK16  BANK17  BANK18  BANK19  BANK20  BANK21  BANK22  BANK23  BANK24  BANK25  BANK2
      +6  BANK27  BANK28  BANK29  BANK30  BANK31
  1149 ;;      Params:         0       0       0       0       0       0       0       0       0       0       0       0       
      +0       0       0       0       0       0       0       0       0       0       0       0       0       0       0       
      +0       0       0       0       0       0
  1150 ;;      Locals:         0       0       0       0       0       0       0       0       0       0       0       0       
      +0       0       0       0       0       0       0       0       0       0       0       0       0       0       0       
      +0       0       0       0       0       0
  1151 ;;      Temps:          0       0       0       0       0       0       0       0       0       0       0       0       
      +0       0       0       0       0       0       0       0       0       0       0       0       0       0       0       
      +0       0       0       0       0       0
  1152 ;;      Totals:         0       0       0       0       0       0       0       0       0       0       0       0       
      +0       0       0       0       0       0       0       0       0       0       0       0       0       0       0       
      +0       0       0       0       0       0
  1153 ;;Total ram usage:        0 bytes
  1154 ;; Hardware stack levels used:    1
  1155 ;; Hardware stack levels required when called:    3
  1156 ;; This function calls:
  1157 ;;		Nothing
  1158 ;; This function is called by:
  1159 ;;		_main
  1160 ;; This function uses a reentrant model
  1161 ;;
  1162                           
  1163                           	psect	text3
  1164  0041A6                     __ptext3:
  1165                           	opt callstack 0
  1166  0041A6                     _strcpy:
  1167                           	opt callstack 0
  1168                           
  1169                           ; autosize = 2, savesize = 0, parsavesize = 0, tempsize = 0 parsize = 2, argsize = 2 var
      +                          gsize = 0, retsize = 0 argfudge = 0
  1170  0041A6  52E6               	movf	postinc1,f,c
  1171  0041A8  52E6               	movf	postinc1,f,c
  1172                           
  1173                           ;stkvar	_src @ sp[(-2)+-2]
  1174                           
  1175                           ;incstack = 0
  1176  0041AA  0EFC               	movlw	-4
  1177  0041AC  006F FF8C  F047    	movff	plusw1,btemp+11
  1178                           
  1179                           ;stkvar	_s @ sp[(-2)+1]
  1180  0041B2  0EFF               	movlw	-1
  1181  0041B4  0060  F11F  FFE3   	movff	btemp+11,plusw1
  1182                           
  1183                           ;stkvar	_dest @ sp[(-2)+-1]
  1184  0041BA  0EFD               	movlw	-3
  1185  0041BC  006F FF8C  F047    	movff	plusw1,btemp+11
  1186                           
  1187                           ;stkvar	_d @ sp[(-2)+0]
  1188  0041C2  0EFE               	movlw	-2
  1189  0041C4  0060  F11F  FFE3   	movff	btemp+11,plusw1
  1190  0041CA                     l5167:
  1191                           
  1192                           ;stkvar	_s @ sp[(-2)+1]
  1193  0041CA  0EFF               	movlw	-1
  1194  0041CC  006F FF8C  F047    	movff	plusw1,btemp+11
  1195  0041D2  2A47               	incf	btemp+11,f,c
  1196  0041D4  0060  F11F  FFE3   	movff	btemp+11,plusw1
  1197  0041DA  0647               	decf	btemp+11,f,c
  1198  0041DC  0060  F11F  FFF6   	movff	btemp+11,tblptrl
  1199  0041E2                     	if	1	;There is more than 1 active tblptr byte
  1200  0041E2  0E20               	movlw	high __smallconst
  1201  0041E4  6EF7               	movwf	tblptrh,c
  1202  0041E6                     	endif
  1203  0041E6                     	if	0	;tblptru may be non-zero
  1204  0041E6                     	endif
  1205  0041E6                     	if	1	;Program memory is > 0xFFFF, there are 3 active tblptr bytes
  1206  0041E6  0E00               	movlw	low (__smallconst shr (0+16))
  1207  0041E8  6EF8               	movwf	tblptru,c
  1208  0041EA                     	endif
  1209                           
  1210                           ;stkvar	_d @ sp[(-2)+0]
  1211  0041EA  0EFE               	movlw	-2
  1212  0041EC  2AE3               	incf	plusw1,f,c
  1213  0041EE  04E3               	decf	plusw1,w,c
  1214  0041F0  6ED9               	movwf	fsr2l,c
  1215  0041F2  6ADA               	clrf	fsr2h,c
  1216  0041F4  0008               	tblrd		*
  1217  0041F6  006F FFD7 FFDF     	movff	tablat,indf2
  1218  0041FC  50DF               	movf	indf2,w,c
  1219  0041FE  A4D8               	btfss	status,2,c
  1220  004200  D7E4               	goto	l5167
  1221                           
  1222                           ; _strcpy: autosize = 2, savesize = 0, parsavesize = 0, tempsize = 0 parsize = 2, argsiz
      +                          e = 2, vargsize = 0
  1223  004202  52E5               	movf	postdec1,f,c
  1224  004204  52E5               	movf	postdec1,f,c
  1225  004206  52E5               	movf	postdec1,f,c
  1226  004208  52E5               	movf	postdec1,f,c
  1227  00420A  0012               	return		;funcret
  1228  00420C                     __end_of_strcpy:
  1229                           	opt callstack 0
  1230                           
  1231 ;; *************** function _sprintf *****************
  1232 ;; Defined at:
  1233 ;;		line 9 in file "/opt/microchip/xc8/v2.05/pic/sources/c99/common/nf_sprintf.c"
  1234 ;; Parameters:    Size  Location     Type
  1235 ;;  s               1  [STACK] PTR unsigned char 
  1236 ;;		 -> V(69), 
  1237 ;;  fmt             1  [STACK] PTR const unsigned char 
  1238 ;;		 -> STR_1(10), 
  1239 ;; Auto vars:     Size  Location     Type
  1240 ;;  f               5  [STACK] struct _IO_FILE
  1241 ;;  ap              2  [STACK] PTR void [1]
  1242 ;;		 -> ?_printf(2), ?_sprintf(2), 
  1243 ;;  ret             2    0        int 
  1244 ;; Return value:  Size  Location     Type
  1245 ;;                  2  [STACK] int 
  1246 ;; Registers used:
  1247 ;;		wreg, fsr0l, fsr0h, fsr1l, fsr1h, fsr2l, fsr2h, status,2, status,0, btemp, btemp+1, btemp+8, btemp+9, btemp+10, btem
      +p+11, btemp+16, btemp+17, btemp+18, btemp+19, btemp+20, btemp+21, btemp+22, btemp+23, tblptrl, tblptrh, tblptru, prodl
  1248 ;; Tracked objects:
  1249 ;;		On entry : 0/3D
  1250 ;;		On exit  : 0/0
  1251 ;;		Unchanged: 0/0
  1252 ;; Data sizes:     COMRAM   BANK0   BANK1   BANK2   BANK3   BANK4   BANK5   BANK6   BANK7   BANK8   BANK9  BANK10  BANK1
      +1  BANK12  BANK13  BANK14  BANK15  BANK16  BANK17  BANK18  BANK19  BANK20  BANK21  BANK22  BANK23  BANK24  BANK25  BANK2
      +6  BANK27  BANK28  BANK29  BANK30  BANK31
  1253 ;;      Params:         0       0       0       0       0       0       0       0       0       0       0       0       
      +0       0       0       0       0       0       0       0       0       0       0       0       0       0       0       
      +0       0       0       0       0       0
  1254 ;;      Locals:         0       0       0       0       0       0       0       0       0       0       0       0       
      +0       0       0       0       0       0       0       0       0       0       0       0       0       0       0       
      +0       0       0       0       0       0
  1255 ;;      Temps:          0       0       0       0       0       0       0       0       0       0       0       0       
      +0       0       0       0       0       0       0       0       0       0       0       0       0       0       0       
      +0       0       0       0       0       0
  1256 ;;      Totals:         0       0       0       0       0       0       0       0       0       0       0       0       
      +0       0       0       0       0       0       0       0       0       0       0       0       0       0       0       
      +0       0       0       0       0       0
  1257 ;;Total ram usage:        0 bytes
  1258 ;; Hardware stack levels used:    1
  1259 ;; Hardware stack levels required when called:   11
  1260 ;; This function calls:
  1261 ;;		_vfprintf
  1262 ;; This function is called by:
  1263 ;;		_main
  1264 ;; This function uses a reentrant model
  1265 ;;
  1266                           
  1267                           	psect	text4
  1268  003AC2                     __ptext4:
  1269                           	opt callstack 0
  1270  003AC2                     _sprintf:
  1271                           	opt callstack 0
  1272                           
  1273                           ; autosize = 7, savesize = 0, parsavesize = 0, tempsize = 0 parsize = 6, argsize = 2 var
      +                          gsize = 0, retsize = 0 argfudge = 0
  1274  003AC2  0E07               	movlw	7
  1275  003AC4  26E1               	addwf	fsr1l,f,c
  1276  003AC6  0E00               	movlw	0
  1277  003AC8  22E2               	addwfc	fsr1h,f,c
  1278                           
  1279                           ;stkvar	?_sprintf @ sp[(-7)+-3]
  1280                           
  1281                           ;incstack = 0
  1282  003ACA  0EF6               	movlw	246
  1283  003ACC  24E1               	addwf	fsr1l,w,c
  1284  003ACE  6E46               	movwf	btemp+10,c
  1285  003AD0  0EFF               	movlw	255
  1286  003AD2  20E2               	addwfc	fsr1h,w,c
  1287  003AD4  6E47               	movwf	btemp+11,c
  1288                           
  1289                           ;stkvar	_ap @ sp[(-7)+5]
  1290  003AD6  0EFF               	movlw	-1
  1291  003AD8  0060  F11F  FFE3   	movff	btemp+11,plusw1
  1292  003ADE  0EFE               	movlw	-2
  1293  003AE0  0060  F11B  FFE3   	movff	btemp+10,plusw1
  1294                           
  1295                           ;stkvar	_s @ sp[(-7)+-2]
  1296  003AE6  0EF7               	movlw	-9
  1297  003AE8  006F FF8C  F047    	movff	plusw1,btemp+11
  1298                           
  1299                           ;stkvar	_f @ sp[(-7)+0]
  1300  003AEE  0EF9               	movlw	-7
  1301  003AF0  0060  F11F  FFE3   	movff	btemp+11,plusw1
  1302                           
  1303                           ;stkvar	_f @ sp[(-7)+0]
  1304  003AF6  0EFA               	movlw	250
  1305  003AF8  24E1               	addwf	fsr1l,w,c
  1306  003AFA  6ED9               	movwf	fsr2l,c
  1307  003AFC  0EFF               	movlw	255
  1308  003AFE  20E2               	addwfc	fsr1h,w,c
  1309  003B00  6EDA               	movwf	fsr2h,c
  1310  003B02  0E00               	movlw	0
  1311  003B04  6EDE               	movwf	postinc2,c
  1312  003B06  0E00               	movlw	0
  1313  003B08  6EDD               	movwf	postdec2,c
  1314                           
  1315                           ;stkvar	_f @ sp[(-7)+0]
  1316  003B0A  0EFC               	movlw	252
  1317  003B0C  24E1               	addwf	fsr1l,w,c
  1318  003B0E  6ED9               	movwf	fsr2l,c
  1319  003B10  0EFF               	movlw	255
  1320  003B12  20E2               	addwfc	fsr1h,w,c
  1321  003B14  6EDA               	movwf	fsr2h,c
  1322  003B16  0E00               	movlw	0
  1323  003B18  6EDE               	movwf	postinc2,c
  1324  003B1A  0E00               	movlw	0
  1325  003B1C  6EDD               	movwf	postdec2,c
  1326                           
  1327                           ;stkvar	_ap @ sp[(-7)+5]
  1328  003B1E  0EFE               	movlw	254
  1329  003B20  24E1               	addwf	fsr1l,w,c
  1330  003B22  6E3C               	movwf	btemp,c
  1331  003B24  0EFF               	movlw	255
  1332  003B26  20E2               	addwfc	fsr1h,w,c
  1333  003B28  6E3D               	movwf	btemp+1,c
  1334  003B2A  0060  F0F3  FFE6   	movff	btemp,postinc1
  1335  003B30  0060  F0F7  FFE6   	movff	btemp+1,postinc1
  1336                           
  1337                           ;stkvar	_fmt @ sp[(-9)+-3]
  1338  003B36  0EF4               	movlw	-12
  1339  003B38  50E3               	movf	plusw1,w,c
  1340  003B3A  6EE6               	movwf	postinc1,c
  1341                           
  1342                           ;stkvar	_f @ sp[(-10)+0]
  1343  003B3C  0EF6               	movlw	246
  1344  003B3E  24E1               	addwf	fsr1l,w,c
  1345  003B40  6E3C               	movwf	btemp,c
  1346  003B42  0EFF               	movlw	255
  1347  003B44  20E2               	addwfc	fsr1h,w,c
  1348  003B46  6E3D               	movwf	btemp+1,c
  1349  003B48  0060  F0F3  FFE6   	movff	btemp,postinc1
  1350  003B4E  0060  F0F7  FFE6   	movff	btemp+1,postinc1
  1351  003B54  EC12  F01F         	call	_vfprintf	;wreg free
  1352                           
  1353                           ;stkvar	_f @ sp[(-7)+0]
  1354  003B58  0EFA               	movlw	250
  1355  003B5A  24E1               	addwf	fsr1l,w,c
  1356  003B5C  6ED9               	movwf	fsr2l,c
  1357  003B5E  0EFF               	movlw	255
  1358  003B60  20E2               	addwfc	fsr1h,w,c
  1359  003B62  6EDA               	movwf	fsr2h,c
  1360  003B64  50DF               	movf	indf2,w,c
  1361  003B66  6E47               	movwf	btemp+11,c
  1362                           
  1363                           ;stkvar	_s @ sp[(-7)+-2]
  1364  003B68  0EF7               	movlw	-9
  1365  003B6A  50E3               	movf	plusw1,w,c
  1366  003B6C  2447               	addwf	btemp+11,w,c
  1367  003B6E  6ED9               	movwf	fsr2l,c
  1368  003B70  6ADA               	clrf	fsr2h,c
  1369  003B72  0E00               	movlw	0
  1370  003B74  6EDF               	movwf	indf2,c
  1371                           
  1372                           ; _sprintf: autosize = 7, savesize = 0, parsavesize = 0, tempsize = 0 parsize = 6, argsi
      +                          ze = 2, vargsize = 0
  1373  003B76  0EF9               	movlw	249
  1374  003B78  26E1               	addwf	fsr1l,f,c
  1375  003B7A  0EFF               	movlw	255
  1376  003B7C  22E2               	addwfc	fsr1h,f,c
  1377  003B7E  52E5               	movf	postdec1,f,c
  1378  003B80  50E7               	movf	indf1,w,c
  1379  003B82  5EE1               	subwf	fsr1l,f,c
  1380  003B84  0E00               	movlw	0
  1381  003B86  5AE2               	subwfb	fsr1h,f,c
  1382  003B88  0012               	return		;funcret
  1383  003B8A                     __end_of_sprintf:
  1384                           	opt callstack 0
  1385                           
  1386 ;; *************** function _init_display *****************
  1387 ;; Defined at:
  1388 ;;		line 33 in file "eadog.c"
  1389 ;; Parameters:    Size  Location     Type
  1390 ;;		None
  1391 ;; Auto vars:     Size  Location     Type
  1392 ;;		None
  1393 ;; Return value:  Size  Location     Type
  1394 ;;                  1  [STACK] void 
  1395 ;; Registers used:
  1396 ;;		wreg, fsr1l, fsr1h, fsr2l, fsr2h, status,2, status,0, btemp, btemp+10, btemp+11, prodl
  1397 ;; Tracked objects:
  1398 ;;		On entry : 3F/3C
  1399 ;;		On exit  : 3F/3D
  1400 ;;		Unchanged: 0/0
  1401 ;; Data sizes:     COMRAM   BANK0   BANK1   BANK2   BANK3   BANK4   BANK5   BANK6   BANK7   BANK8   BANK9  BANK10  BANK1
      +1  BANK12  BANK13  BANK14  BANK15  BANK16  BANK17  BANK18  BANK19  BANK20  BANK21  BANK22  BANK23  BANK24  BANK25  BANK2
      +6  BANK27  BANK28  BANK29  BANK30  BANK31
  1402 ;;      Params:         0       0       0       0       0       0       0       0       0       0       0       0       
      +0       0       0       0       0       0       0       0       0       0       0       0       0       0       0       
      +0       0       0       0       0       0
  1403 ;;      Locals:         0       0       0       0       0       0       0       0       0       0       0       0       
      +0       0       0       0       0       0       0       0       0       0       0       0       0       0       0       
      +0       0       0       0       0       0
  1404 ;;      Temps:          0       0       0       0       0       0       0       0       0       0       0       0       
      +0       0       0       0       0       0       0       0       0       0       0       0       0       0       0       
      +0       0       0       0       0       0
  1405 ;;      Totals:         0       0       0       0       0       0       0       0       0       0       0       0       
      +0       0       0       0       0       0       0       0       0       0       0       0       0       0       0       
      +0       0       0       0       0       0
  1406 ;;Total ram usage:        0 bytes
  1407 ;; Hardware stack levels used:    1
  1408 ;; Hardware stack levels required when called:    5
  1409 ;; This function calls:
  1410 ;;		_ringBufS_init
  1411 ;;		_send_lcd_cmd
  1412 ;;		_send_lcd_cmd_long
  1413 ;;		_wdtdelay
  1414 ;; This function is called by:
  1415 ;;		_main
  1416 ;; This function uses a reentrant model
  1417 ;;
  1418                           
  1419                           	psect	text5
  1420  0039DA                     __ptext5:
  1421                           	opt callstack 0
  1422  0039DA                     _init_display:
  1423                           	opt callstack 25
  1424                           
  1425                           ;eadog.c: 35:  spi_link.tx1a = &ring_buf1;
  1426                           
  1427                           ; autosize = 0, savesize = 0, parsavesize = 0, tempsize = 0 parsize = 0, argsize = 0 var
      +                          gsize = 0, retsize = 0 argfudge = 0
  1428                           ;incstack = 0
  1429  0039DA  0E43               	movlw	low _ring_buf1
  1430  0039DC  6E07               	movwf	_spi_link+6,c	;volatile
  1431  0039DE  0E02               	movlw	high _ring_buf1
  1432  0039E0  6E08               	movwf	_spi_link+7,c	;volatile
  1433                           
  1434                           ;eadog.c: 36:  spi_link.tx1b = &ring_buf2;
  1435  0039E2  0E00               	movlw	low _ring_buf2
  1436  0039E4  6E05               	movwf	_spi_link+4,c	;volatile
  1437  0039E6  0E02               	movlw	high _ring_buf2
  1438  0039E8  6E06               	movwf	_spi_link+5,c	;volatile
  1439                           
  1440                           ;eadog.c: 37:  ringBufS_init(spi_link.tx1a);
  1441  0039EA  0060  F01F  FFE6   	movff	_spi_link+6,postinc1
  1442  0039F0  0060  F023  FFE6   	movff	_spi_link+7,postinc1
  1443  0039F6  EC75  F023         	call	_ringBufS_init	;wreg free
  1444                           
  1445                           ;eadog.c: 38:  ringBufS_init(spi_link.tx1b);
  1446  0039FA  0060  F017  FFE6   	movff	_spi_link+4,postinc1
  1447  003A00  0060  F01B  FFE6   	movff	_spi_link+5,postinc1
  1448  003A06  EC75  F023         	call	_ringBufS_init	;wreg free
  1449                           
  1450                           ;eadog.c: 40:  LATEbits.LATE0 = 1;
  1451  003A0A  80BE               	bsf	16318,0,c	;volatile
  1452  003A0C  84BC               	bsf	16316,2,c	;volatile
  1453                           
  1454                           ;eadog.c: 42:  wdtdelay(350000);
  1455  003A0E  0E30               	movlw	48
  1456  003A10  6EE6               	movwf	postinc1,c
  1457  003A12  0E57               	movlw	87
  1458  003A14  6EE6               	movwf	postinc1,c
  1459  003A16  0E05               	movlw	5
  1460  003A18  6EE6               	movwf	postinc1,c
  1461  003A1A  0E00               	movlw	0
  1462  003A1C  6EE6               	movwf	postinc1,c
  1463  003A1E  ECCB  F021         	call	_wdtdelay	;wreg free
  1464                           
  1465                           ; BSR set to: 0
  1466                           ;eadog.c: 43:  send_lcd_cmd(0x39);
  1467  003A22  0E39               	movlw	57
  1468  003A24  6EE6               	movwf	postinc1,c
  1469  003A26  EC61  F023         	call	_send_lcd_cmd	;wreg free
  1470                           
  1471                           ; BSR set to: 0
  1472                           ;eadog.c: 44:  send_lcd_cmd(0x1d);
  1473  003A2A  0E1D               	movlw	29
  1474  003A2C  6EE6               	movwf	postinc1,c
  1475  003A2E  EC61  F023         	call	_send_lcd_cmd	;wreg free
  1476                           
  1477                           ; BSR set to: 0
  1478                           ;eadog.c: 45:  send_lcd_cmd(0x50);
  1479  003A32  0E50               	movlw	80
  1480  003A34  6EE6               	movwf	postinc1,c
  1481  003A36  EC61  F023         	call	_send_lcd_cmd	;wreg free
  1482                           
  1483                           ; BSR set to: 0
  1484                           ;eadog.c: 46:  send_lcd_cmd(0x6c);
  1485  003A3A  0E6C               	movlw	108
  1486  003A3C  6EE6               	movwf	postinc1,c
  1487  003A3E  EC61  F023         	call	_send_lcd_cmd	;wreg free
  1488                           
  1489                           ; BSR set to: 0
  1490                           ;eadog.c: 47:  send_lcd_cmd(0x76);
  1491  003A42  0E76               	movlw	118
  1492  003A44  6EE6               	movwf	postinc1,c
  1493  003A46  EC61  F023         	call	_send_lcd_cmd	;wreg free
  1494                           
  1495                           ; BSR set to: 0
  1496                           ;eadog.c: 48:  send_lcd_cmd_long(0x38);
  1497  003A4A  0E38               	movlw	56
  1498  003A4C  6EE6               	movwf	postinc1,c
  1499  003A4E  EC4D  F023         	call	_send_lcd_cmd_long	;wreg free
  1500                           
  1501                           ; BSR set to: 0
  1502                           ;eadog.c: 49:  send_lcd_cmd(0x0f);
  1503  003A52  0E0F               	movlw	15
  1504  003A54  6EE6               	movwf	postinc1,c
  1505  003A56  EC61  F023         	call	_send_lcd_cmd	;wreg free
  1506                           
  1507                           ; BSR set to: 0
  1508                           ;eadog.c: 50:  send_lcd_cmd_long(0x01);
  1509  003A5A  0E01               	movlw	1
  1510  003A5C  6EE6               	movwf	postinc1,c
  1511  003A5E  EC4D  F023         	call	_send_lcd_cmd_long	;wreg free
  1512                           
  1513                           ; BSR set to: 0
  1514                           ;eadog.c: 51:  send_lcd_cmd(0x02);
  1515  003A62  0E02               	movlw	2
  1516  003A64  6EE6               	movwf	postinc1,c
  1517  003A66  EC61  F023         	call	_send_lcd_cmd	;wreg free
  1518                           
  1519                           ; BSR set to: 0
  1520                           ;eadog.c: 52:  send_lcd_cmd(0x06);
  1521  003A6A  0E06               	movlw	6
  1522  003A6C  6EE6               	movwf	postinc1,c
  1523  003A6E  EC61  F023         	call	_send_lcd_cmd	;wreg free
  1524                           
  1525                           ; BSR set to: 0
  1526                           ;eadog.c: 53:  wdtdelay(30);
  1527  003A72  0E1E               	movlw	30
  1528  003A74  6EE6               	movwf	postinc1,c
  1529  003A76  0E00               	movlw	0
  1530  003A78  6EE6               	movwf	postinc1,c
  1531  003A7A  0E00               	movlw	0
  1532  003A7C  6EE6               	movwf	postinc1,c
  1533  003A7E  0E00               	movlw	0
  1534  003A80  6EE6               	movwf	postinc1,c
  1535  003A82  ECCB  F021         	call	_wdtdelay	;wreg free
  1536                           
  1537                           ; BSR set to: 0
  1538                           ;eadog.c: 54:  SPI1CON2 = 0x02;
  1539  003A86  0E02               	movlw	2
  1540  003A88  013D               	movlb	61	; () banked
  1541  003A8A  6F16               	movwf	22,b	;volatile
  1542                           
  1543                           ; BSR set to: 61
  1544                           ;eadog.c: 55:  SPI1CON1 = 0x40;
  1545  003A8C  0E40               	movlw	64
  1546  003A8E  6F15               	movwf	21,b	;volatile
  1547                           
  1548                           ; BSR set to: 61
  1549                           ;eadog.c: 56:  SPI1CON0 = 0x83;
  1550  003A90  0E83               	movlw	131
  1551  003A92  6F14               	movwf	20,b	;volatile
  1552                           
  1553                           ; BSR set to: 61
  1554                           ;eadog.c: 57:  SPI1INTFbits.SPI1TXUIF = 0;
  1555  003A94  931A               	bcf	26,1,b	;volatile
  1556                           
  1557                           ; BSR set to: 61
  1558                           ;eadog.c: 58:  DMA1CON1bits.DMODE = 0;
  1559  003A96  0E3F               	movlw	-193
  1560  003A98  013B               	movlb	59	; () banked
  1561  003A9A  17FD               	andwf	253,f,b	;volatile
  1562                           
  1563                           ; BSR set to: 59
  1564                           ;eadog.c: 59:  DMA1CON1bits.DSTP = 0;
  1565  003A9C  9BFD               	bcf	253,5,b	;volatile
  1566                           
  1567                           ; BSR set to: 59
  1568                           ;eadog.c: 60:  DMA1CON1bits.SMODE = 1;
  1569  003A9E  51FD               	movf	253,w,b	;volatile
  1570  003AA0  0BF9               	andlw	-7
  1571  003AA2  0902               	iorlw	2
  1572  003AA4  6FFD               	movwf	253,b	;volatile
  1573                           
  1574                           ; BSR set to: 59
  1575                           ;eadog.c: 61:  DMA1CON1bits.SMR = 0;
  1576  003AA6  0EE7               	movlw	-25
  1577  003AA8  17FD               	andwf	253,f,b	;volatile
  1578                           
  1579                           ; BSR set to: 59
  1580                           ;eadog.c: 62:  DMA1CON1bits.SSTP = 1;
  1581  003AAA  81FD               	bsf	253,0,b	;volatile
  1582                           
  1583                           ; BSR set to: 59
  1584                           ;eadog.c: 63:  DMA1SSA = (uint32_t) &ring_buf1;
  1585  003AAC  0E43               	movlw	low _ring_buf1
  1586  003AAE  6FF9               	movwf	249,b	;volatile
  1587  003AB0  0E02               	movlw	high _ring_buf1
  1588  003AB2  6FFA               	movwf	250,b	;volatile
  1589  003AB4  0E00               	movlw	low (_ring_buf1 shr (0+16))
  1590  003AB6  6FFB               	movwf	251,b	;volatile
  1591                           
  1592                           ; BSR set to: 59
  1593                           ;eadog.c: 64:  DMA1CON0bits.DGO = 0;
  1594  003AB8  9BFC               	bcf	252,5,b	;volatile
  1595                           
  1596                           ; BSR set to: 59
  1597                           ;eadog.c: 65:  SPI1INTFbits.SPI1TXUIF = 1;
  1598  003ABA  013D               	movlb	61	; () banked
  1599  003ABC  831A               	bsf	26,1,b	;volatile
  1600                           
  1601                           ; BSR set to: 61
  1602                           ;eadog.c: 66:  LATEbits.LATE0 = 0;
  1603  003ABE  90BE               	bcf	16318,0,c	;volatile
  1604                           
  1605                           ; BSR set to: 61
  1606                           ; _init_display: autosize = 0, savesize = 0, parsavesize = 0, tempsize = 0 parsize = 0, 
      +                          argsize = 0, vargsize = 0
  1607  003AC0  0012               	return		;funcret
  1608  003AC2                     __end_of_init_display:
  1609                           	opt callstack 0
  1610                           
  1611 ;; *************** function _send_lcd_cmd_long *****************
  1612 ;; Defined at:
  1613 ;;		line 95 in file "eadog.c"
  1614 ;; Parameters:    Size  Location     Type
  1615 ;;  cmd             1  [STACK] unsigned char 
  1616 ;; Auto vars:     Size  Location     Type
  1617 ;;		None
  1618 ;; Return value:  Size  Location     Type
  1619 ;;                  1  [STACK] void 
  1620 ;; Registers used:
  1621 ;;		wreg, fsr1l, fsr1h, status,2, status,0, btemp
  1622 ;; Tracked objects:
  1623 ;;		On entry : 3F/0
  1624 ;;		On exit  : 3F/0
  1625 ;;		Unchanged: 0/0
  1626 ;; Data sizes:     COMRAM   BANK0   BANK1   BANK2   BANK3   BANK4   BANK5   BANK6   BANK7   BANK8   BANK9  BANK10  BANK1
      +1  BANK12  BANK13  BANK14  BANK15  BANK16  BANK17  BANK18  BANK19  BANK20  BANK21  BANK22  BANK23  BANK24  BANK25  BANK2
      +6  BANK27  BANK28  BANK29  BANK30  BANK31
  1627 ;;      Params:         0       0       0       0       0       0       0       0       0       0       0       0       
      +0       0       0       0       0       0       0       0       0       0       0       0       0       0       0       
      +0       0       0       0       0       0
  1628 ;;      Locals:         0       0       0       0       0       0       0       0       0       0       0       0       
      +0       0       0       0       0       0       0       0       0       0       0       0       0       0       0       
      +0       0       0       0       0       0
  1629 ;;      Temps:          0       0       0       0       0       0       0       0       0       0       0       0       
      +0       0       0       0       0       0       0       0       0       0       0       0       0       0       0       
      +0       0       0       0       0       0
  1630 ;;      Totals:         0       0       0       0       0       0       0       0       0       0       0       0       
      +0       0       0       0       0       0       0       0       0       0       0       0       0       0       0       
      +0       0       0       0       0       0
  1631 ;;Total ram usage:        0 bytes
  1632 ;; Hardware stack levels used:    1
  1633 ;; Hardware stack levels required when called:    4
  1634 ;; This function calls:
  1635 ;;		_SPI1_Exchange8bit
  1636 ;;		_wdtdelay
  1637 ;; This function is called by:
  1638 ;;		_init_display
  1639 ;; This function uses a reentrant model
  1640 ;;
  1641                           
  1642                           	psect	text6
  1643  00469A                     __ptext6:
  1644                           	opt callstack 0
  1645  00469A                     _send_lcd_cmd_long:
  1646                           	opt callstack 25
  1647                           
  1648                           ; BSR set to: 61
  1649                           ; autosize = 0, savesize = 0, parsavesize = 0, tempsize = 0 parsize = 1, argsize = 1 var
      +                          gsize = 0, retsize = 0 argfudge = 0
  1650                           ;incstack = 0
  1651                           ;eadog.c: 95: void send_lcd_cmd_long(uint8_t cmd);eadog.c: 96: {;eadog.c: 97:  do { LATC
      +                          bits.LATC1 = 0; } while(0);
  1652  00469A  92BC               	bcf	16316,1,c	;volatile
  1653                           
  1654                           ;eadog.c: 98:  do { LATCbits.LATC2 = 0; } while(0);
  1655  00469C  94BC               	bcf	16316,2,c	;volatile
  1656                           
  1657                           ;eadog.c: 99:  SPI1_Exchange8bit(cmd);
  1658                           ;stkvar	_cmd @ sp[(0)+-1]
  1659  00469E  0EFF               	movlw	-1
  1660  0046A0  50E3               	movf	plusw1,w,c
  1661  0046A2  6EE6               	movwf	postinc1,c
  1662  0046A4  EC16  F025         	call	_SPI1_Exchange8bit	;wreg free
  1663                           
  1664                           ; BSR set to: 57
  1665                           ;eadog.c: 100:  wdtdelay(800);
  1666  0046A8  0E20               	movlw	32
  1667  0046AA  6EE6               	movwf	postinc1,c
  1668  0046AC  0E03               	movlw	3
  1669  0046AE  6EE6               	movwf	postinc1,c
  1670  0046B0  0E00               	movlw	0
  1671  0046B2  6EE6               	movwf	postinc1,c
  1672  0046B4  0E00               	movlw	0
  1673  0046B6  6EE6               	movwf	postinc1,c
  1674  0046B8  ECCB  F021         	call	_wdtdelay	;wreg free
  1675                           
  1676                           ; BSR set to: 0
  1677  0046BC  82BC               	bsf	16316,1,c	;volatile
  1678                           
  1679                           ; BSR set to: 0
  1680                           ; _send_lcd_cmd_long: autosize = 0, savesize = 0, parsavesize = 0, tempsize = 0 parsize 
      +                          = 1, argsize = 1, vargsize = 0
  1681  0046BE  52E5               	movf	postdec1,f,c
  1682  0046C0  0012               	return		;funcret
  1683  0046C2                     __end_of_send_lcd_cmd_long:
  1684                           	opt callstack 0
  1685                           
  1686 ;; *************** function _send_lcd_cmd *****************
  1687 ;; Defined at:
  1688 ;;		line 83 in file "eadog.c"
  1689 ;; Parameters:    Size  Location     Type
  1690 ;;  cmd             1  [STACK] unsigned char 
  1691 ;; Auto vars:     Size  Location     Type
  1692 ;;		None
  1693 ;; Return value:  Size  Location     Type
  1694 ;;                  1  [STACK] void 
  1695 ;; Registers used:
  1696 ;;		wreg, fsr1l, fsr1h, status,2, status,0, btemp
  1697 ;; Tracked objects:
  1698 ;;		On entry : 3F/0
  1699 ;;		On exit  : 3F/0
  1700 ;;		Unchanged: 0/0
  1701 ;; Data sizes:     COMRAM   BANK0   BANK1   BANK2   BANK3   BANK4   BANK5   BANK6   BANK7   BANK8   BANK9  BANK10  BANK1
      +1  BANK12  BANK13  BANK14  BANK15  BANK16  BANK17  BANK18  BANK19  BANK20  BANK21  BANK22  BANK23  BANK24  BANK25  BANK2
      +6  BANK27  BANK28  BANK29  BANK30  BANK31
  1702 ;;      Params:         0       0       0       0       0       0       0       0       0       0       0       0       
      +0       0       0       0       0       0       0       0       0       0       0       0       0       0       0       
      +0       0       0       0       0       0
  1703 ;;      Locals:         0       0       0       0       0       0       0       0       0       0       0       0       
      +0       0       0       0       0       0       0       0       0       0       0       0       0       0       0       
      +0       0       0       0       0       0
  1704 ;;      Temps:          0       0       0       0       0       0       0       0       0       0       0       0       
      +0       0       0       0       0       0       0       0       0       0       0       0       0       0       0       
      +0       0       0       0       0       0
  1705 ;;      Totals:         0       0       0       0       0       0       0       0       0       0       0       0       
      +0       0       0       0       0       0       0       0       0       0       0       0       0       0       0       
      +0       0       0       0       0       0
  1706 ;;Total ram usage:        0 bytes
  1707 ;; Hardware stack levels used:    1
  1708 ;; Hardware stack levels required when called:    4
  1709 ;; This function calls:
  1710 ;;		_SPI1_Exchange8bit
  1711 ;;		_wdtdelay
  1712 ;; This function is called by:
  1713 ;;		_init_display
  1714 ;; This function uses a reentrant model
  1715 ;;
  1716                           
  1717                           	psect	text7
  1718  0046C2                     __ptext7:
  1719                           	opt callstack 0
  1720  0046C2                     _send_lcd_cmd:
  1721                           	opt callstack 25
  1722                           
  1723                           ; BSR set to: 0
  1724                           ; autosize = 0, savesize = 0, parsavesize = 0, tempsize = 0 parsize = 1, argsize = 1 var
      +                          gsize = 0, retsize = 0 argfudge = 0
  1725                           ;incstack = 0
  1726                           ;eadog.c: 83: void send_lcd_cmd(uint8_t cmd);eadog.c: 84: {;eadog.c: 85:  do { LATCbits.
      +                          LATC1 = 0; } while(0);
  1727  0046C2  92BC               	bcf	16316,1,c	;volatile
  1728                           
  1729                           ;eadog.c: 86:  do { LATCbits.LATC2 = 0; } while(0);
  1730  0046C4  94BC               	bcf	16316,2,c	;volatile
  1731                           
  1732                           ;eadog.c: 87:  SPI1_Exchange8bit(cmd);
  1733                           ;stkvar	_cmd @ sp[(0)+-1]
  1734  0046C6  0EFF               	movlw	-1
  1735  0046C8  50E3               	movf	plusw1,w,c
  1736  0046CA  6EE6               	movwf	postinc1,c
  1737  0046CC  EC16  F025         	call	_SPI1_Exchange8bit	;wreg free
  1738                           
  1739                           ; BSR set to: 57
  1740                           ;eadog.c: 88:  wdtdelay(30);
  1741  0046D0  0E1E               	movlw	30
  1742  0046D2  6EE6               	movwf	postinc1,c
  1743  0046D4  0E00               	movlw	0
  1744  0046D6  6EE6               	movwf	postinc1,c
  1745  0046D8  0E00               	movlw	0
  1746  0046DA  6EE6               	movwf	postinc1,c
  1747  0046DC  0E00               	movlw	0
  1748  0046DE  6EE6               	movwf	postinc1,c
  1749  0046E0  ECCB  F021         	call	_wdtdelay	;wreg free
  1750                           
  1751                           ; BSR set to: 0
  1752  0046E4  82BC               	bsf	16316,1,c	;volatile
  1753                           
  1754                           ; BSR set to: 0
  1755                           ; _send_lcd_cmd: autosize = 0, savesize = 0, parsavesize = 0, tempsize = 0 parsize = 1, 
      +                          argsize = 1, vargsize = 0
  1756  0046E6  52E5               	movf	postdec1,f,c
  1757  0046E8  0012               	return		;funcret
  1758  0046EA                     __end_of_send_lcd_cmd:
  1759                           	opt callstack 0
  1760                           
  1761 ;; *************** function _wdtdelay *****************
  1762 ;; Defined at:
  1763 ;;		line 19 in file "eadog.c"
  1764 ;; Parameters:    Size  Location     Type
  1765 ;;  delay           4  [STACK] unsigned long 
  1766 ;; Auto vars:     Size  Location     Type
  1767 ;;		None
  1768 ;; Return value:  Size  Location     Type
  1769 ;;                  1  [STACK] void 
  1770 ;; Registers used:
  1771 ;;		wreg, fsr1l, fsr1h, status,2, status,0, btemp
  1772 ;; Tracked objects:
  1773 ;;		On entry : 0/3B
  1774 ;;		On exit  : 3F/0
  1775 ;;		Unchanged: 0/0
  1776 ;; Data sizes:     COMRAM   BANK0   BANK1   BANK2   BANK3   BANK4   BANK5   BANK6   BANK7   BANK8   BANK9  BANK10  BANK1
      +1  BANK12  BANK13  BANK14  BANK15  BANK16  BANK17  BANK18  BANK19  BANK20  BANK21  BANK22  BANK23  BANK24  BANK25  BANK2
      +6  BANK27  BANK28  BANK29  BANK30  BANK31
  1777 ;;      Params:         0       0       0       0       0       0       0       0       0       0       0       0       
      +0       0       0       0       0       0       0       0       0       0       0       0       0       0       0       
      +0       0       0       0       0       0
  1778 ;;      Locals:         0       0       0       0       0       0       0       0       0       0       0       0       
      +0       0       0       0       0       0       0       0       0       0       0       0       0       0       0       
      +0       0       0       0       0       0
  1779 ;;      Temps:          0       0       0       0       0       0       0       0       0       0       0       0       
      +0       0       0       0       0       0       0       0       0       0       0       0       0       0       0       
      +0       0       0       0       0       0
  1780 ;;      Totals:         0       0       0       0       0       0       0       0       0       0       0       0       
      +0       0       0       0       0       0       0       0       0       0       0       0       0       0       0       
      +0       0       0       0       0       0
  1781 ;;Total ram usage:        0 bytes
  1782 ;; Hardware stack levels used:    1
  1783 ;; Hardware stack levels required when called:    3
  1784 ;; This function calls:
  1785 ;;		Nothing
  1786 ;; This function is called by:
  1787 ;;		_init_display
  1788 ;;		_send_lcd_cmd
  1789 ;;		_send_lcd_cmd_long
  1790 ;;		_wait_lcd_done
  1791 ;; This function uses a reentrant model
  1792 ;;
  1793                           
  1794                           	psect	text8
  1795  004396                     __ptext8:
  1796                           	opt callstack 0
  1797  004396                     _wdtdelay:
  1798                           	opt callstack 26
  1799                           
  1800                           ;eadog.c: 19: void wdtdelay(uint32_t delay);eadog.c: 20: {;eadog.c: 21:  static uint32_t
      +                           dcount;;eadog.c: 23:  for (dcount = 0; dcount <= delay; dcount++) {
  1801                           
  1802                           ; BSR set to: 0
  1803                           ; autosize = 0, savesize = 0, parsavesize = 0, tempsize = 0 parsize = 4, argsize = 4 var
      +                          gsize = 0, retsize = 0 argfudge = 0
  1804                           ;incstack = 0
  1805  004396  0100               	movlb	0	; () banked
  1806  004398  6B60               	clrf	wdtdelay@dcount& (0+255),b
  1807  00439A  6B61               	clrf	(wdtdelay@dcount+1)& (0+255),b
  1808  00439C  6B62               	clrf	(wdtdelay@dcount+2)& (0+255),b
  1809  00439E  6B63               	clrf	(wdtdelay@dcount+3)& (0+255),b
  1810  0043A0  D009               	goto	l4983
  1811  0043A2                     l1179:
  1812                           
  1813                           ; BSR set to: 0
  1814                           ;eadog.c: 24:   __nop();
  1815  0043A2  F000               	nop	
  1816  0043A4  0004               	clrwdt		;# 
  1817                           
  1818                           ;eadog.c: 26:  };
  1819  0043A6  0E01               	movlw	1
  1820  0043A8  0100               	movlb	0	; () banked
  1821  0043AA  2760               	addwf	wdtdelay@dcount& (0+255),f,b
  1822  0043AC  0E00               	movlw	0
  1823  0043AE  2361               	addwfc	(wdtdelay@dcount+1)& (0+255),f,b
  1824  0043B0  2362               	addwfc	(wdtdelay@dcount+2)& (0+255),f,b
  1825  0043B2  2363               	addwfc	(wdtdelay@dcount+3)& (0+255),f,b
  1826  0043B4                     l4983:
  1827                           
  1828                           ; BSR set to: 0
  1829                           ;stkvar	_delay @ sp[(0)+-4]
  1830  0043B4  0EFC               	movlw	-4
  1831  0043B6  006F FF8C  F03C    	movff	plusw1,btemp
  1832  0043BC  5160               	movf	wdtdelay@dcount& (0+255),w,b
  1833  0043BE  5C3C               	subwf	btemp,w,c
  1834  0043C0  0EFD               	movlw	-3
  1835  0043C2  006F FF8C  F03C    	movff	plusw1,btemp
  1836  0043C8  5161               	movf	(wdtdelay@dcount+1)& (0+255),w,b
  1837  0043CA  583C               	subwfb	btemp,w,c
  1838  0043CC  0EFE               	movlw	-2
  1839  0043CE  006F FF8C  F03C    	movff	plusw1,btemp
  1840  0043D4  5162               	movf	(wdtdelay@dcount+2)& (0+255),w,b
  1841  0043D6  583C               	subwfb	btemp,w,c
  1842  0043D8  0EFF               	movlw	-1
  1843  0043DA  006F FF8C  F03C    	movff	plusw1,btemp
  1844  0043E0  5163               	movf	(wdtdelay@dcount+3)& (0+255),w,b
  1845  0043E2  583C               	subwfb	btemp,w,c
  1846  0043E4  B0D8               	btfsc	status,0,c
  1847  0043E6  D7DD               	goto	l1179
  1848                           
  1849                           ; BSR set to: 0
  1850                           ; _wdtdelay: autosize = 0, savesize = 0, parsavesize = 0, tempsize = 0 parsize = 4, args
      +                          ize = 4, vargsize = 0
  1851  0043E8  52E5               	movf	postdec1,f,c
  1852  0043EA  52E5               	movf	postdec1,f,c
  1853  0043EC  52E5               	movf	postdec1,f,c
  1854  0043EE  52E5               	movf	postdec1,f,c
  1855  0043F0  0012               	return		;funcret
  1856  0043F2                     __end_of_wdtdelay:
  1857                           	opt callstack 0
  1858                           
  1859 ;; *************** function _SPI1_Exchange8bit *****************
  1860 ;; Defined at:
  1861 ;;		line 79 in file "mcc_generated_files/spi1.c"
  1862 ;; Parameters:    Size  Location     Type
  1863 ;;  data            1  [STACK] unsigned char 
  1864 ;; Auto vars:     Size  Location     Type
  1865 ;;		None
  1866 ;; Return value:  Size  Location     Type
  1867 ;;                  1  [STACK] unsigned char 
  1868 ;; Registers used:
  1869 ;;		wreg, fsr1l, fsr1h, status,2, btemp
  1870 ;; Tracked objects:
  1871 ;;		On entry : 0/0
  1872 ;;		On exit  : 3F/39
  1873 ;;		Unchanged: 0/0
  1874 ;; Data sizes:     COMRAM   BANK0   BANK1   BANK2   BANK3   BANK4   BANK5   BANK6   BANK7   BANK8   BANK9  BANK10  BANK1
      +1  BANK12  BANK13  BANK14  BANK15  BANK16  BANK17  BANK18  BANK19  BANK20  BANK21  BANK22  BANK23  BANK24  BANK25  BANK2
      +6  BANK27  BANK28  BANK29  BANK30  BANK31
  1875 ;;      Params:         0       0       0       0       0       0       0       0       0       0       0       0       
      +0       0       0       0       0       0       0       0       0       0       0       0       0       0       0       
      +0       0       0       0       0       0
  1876 ;;      Locals:         0       0       0       0       0       0       0       0       0       0       0       0       
      +0       0       0       0       0       0       0       0       0       0       0       0       0       0       0       
      +0       0       0       0       0       0
  1877 ;;      Temps:          0       0       0       0       0       0       0       0       0       0       0       0       
      +0       0       0       0       0       0       0       0       0       0       0       0       0       0       0       
      +0       0       0       0       0       0
  1878 ;;      Totals:         0       0       0       0       0       0       0       0       0       0       0       0       
      +0       0       0       0       0       0       0       0       0       0       0       0       0       0       0       
      +0       0       0       0       0       0
  1879 ;;Total ram usage:        0 bytes
  1880 ;; Hardware stack levels used:    1
  1881 ;; Hardware stack levels required when called:    3
  1882 ;; This function calls:
  1883 ;;		Nothing
  1884 ;; This function is called by:
  1885 ;;		_send_lcd_cmd
  1886 ;;		_send_lcd_cmd_long
  1887 ;; This function uses a reentrant model
  1888 ;;
  1889                           
  1890                           	psect	text9
  1891  004A2C                     __ptext9:
  1892                           	opt callstack 0
  1893  004A2C                     _SPI1_Exchange8bit:
  1894                           	opt callstack 25
  1895                           
  1896                           ;mcc_generated_files/spi1.c: 79: uint8_t SPI1_Exchange8bit(uint8_t data);mcc_generated_f
      +                          iles/spi1.c: 80: {;mcc_generated_files/spi1.c: 82:     SPI1TCNTL = 1;
  1897                           
  1898                           ; BSR set to: 0
  1899                           ; autosize = 0, savesize = 0, parsavesize = 0, tempsize = 0 parsize = 1, argsize = 1 var
      +                          gsize = 0, retsize = 0 argfudge = 0
  1900                           ;incstack = 0
  1901  004A2C  0E01               	movlw	1
  1902  004A2E  013D               	movlb	61	; () banked
  1903  004A30  6F12               	movwf	18,b	;volatile
  1904                           
  1905                           ; BSR set to: 61
  1906                           ;mcc_generated_files/spi1.c: 83:     SPI1TXB = data;
  1907                           ;stkvar	_data @ sp[(0)+-1]
  1908  004A32  0EFF               	movlw	-1
  1909  004A34  006F FF8F FD11     	movff	plusw1,15633	;volatile
  1910  004A3A                     l838:
  1911                           
  1912                           ;mcc_generated_files/spi1.c: 85:     while(PIR2bits.SPI1RXIF == 0x0)
  1913  004A3A  0139               	movlb	57	; () banked
  1914  004A3C  A9A2               	btfss	162,4,b	;volatile
  1915  004A3E  D7FD               	goto	l838
  1916                           
  1917                           ; BSR set to: 57
  1918                           ;mcc_generated_files/spi1.c: 89:     return (SPI1RXB);
  1919  004A40  006F F440  F03C    	movff	15632,btemp	;volatile
  1920                           
  1921                           ; BSR set to: 57
  1922                           ; _SPI1_Exchange8bit: autosize = 0, savesize = 0, parsavesize = 0, tempsize = 0 parsize 
      +                          = 1, argsize = 1, vargsize = 0
  1923  004A46  52E5               	movf	postdec1,f,c
  1924  004A48  0012               	return		;funcret
  1925  004A4A                     __end_of_SPI1_Exchange8bit:
  1926                           	opt callstack 0
  1927                           
  1928 ;; *************** function _ringBufS_init *****************
  1929 ;; Defined at:
  1930 ;;		line 22 in file "ringbufs.c"
  1931 ;; Parameters:    Size  Location     Type
  1932 ;;  _this           2  [STACK] PTR volatile struct ring
  1933 ;;		 -> ring_buf2(67), ring_buf1(67), 
  1934 ;; Auto vars:     Size  Location     Type
  1935 ;;		None
  1936 ;; Return value:  Size  Location     Type
  1937 ;;                  1  [STACK] void 
  1938 ;; Registers used:
  1939 ;;		wreg, fsr1l, fsr1h, fsr2l, fsr2h, status,2, status,0, btemp, btemp+10, btemp+11, prodl
  1940 ;; Tracked objects:
  1941 ;;		On entry : 0/3C
  1942 ;;		On exit  : 0/0
  1943 ;;		Unchanged: 0/0
  1944 ;; Data sizes:     COMRAM   BANK0   BANK1   BANK2   BANK3   BANK4   BANK5   BANK6   BANK7   BANK8   BANK9  BANK10  BANK1
      +1  BANK12  BANK13  BANK14  BANK15  BANK16  BANK17  BANK18  BANK19  BANK20  BANK21  BANK22  BANK23  BANK24  BANK25  BANK2
      +6  BANK27  BANK28  BANK29  BANK30  BANK31
  1945 ;;      Params:         0       0       0       0       0       0       0       0       0       0       0       0       
      +0       0       0       0       0       0       0       0       0       0       0       0       0       0       0       
      +0       0       0       0       0       0
  1946 ;;      Locals:         0       0       0       0       0       0       0       0       0       0       0       0       
      +0       0       0       0       0       0       0       0       0       0       0       0       0       0       0       
      +0       0       0       0       0       0
  1947 ;;      Temps:          0       0       0       0       0       0       0       0       0       0       0       0       
      +0       0       0       0       0       0       0       0       0       0       0       0       0       0       0       
      +0       0       0       0       0       0
  1948 ;;      Totals:         0       0       0       0       0       0       0       0       0       0       0       0       
      +0       0       0       0       0       0       0       0       0       0       0       0       0       0       0       
      +0       0       0       0       0       0
  1949 ;;Total ram usage:        0 bytes
  1950 ;; Hardware stack levels used:    1
  1951 ;; Hardware stack levels required when called:    4
  1952 ;; This function calls:
  1953 ;;		_memset
  1954 ;; This function is called by:
  1955 ;;		_init_display
  1956 ;; This function uses a reentrant model
  1957 ;;
  1958                           
  1959                           	psect	text10
  1960  0046EA                     __ptext10:
  1961                           	opt callstack 0
  1962  0046EA                     _ringBufS_init:
  1963                           	opt callstack 25
  1964                           
  1965                           ;ringbufs.c: 22: void ringBufS_init(volatile ringBufS_t *_this);ringbufs.c: 23: {;ringbu
      +                          fs.c: 32:  memset((void*)_this, 0, sizeof(*_this));
  1966                           
  1967                           ; BSR set to: 57
  1968                           ; autosize = 0, savesize = 0, parsavesize = 0, tempsize = 0 parsize = 2, argsize = 2 var
      +                          gsize = 0, retsize = 0 argfudge = 0
  1969                           ;incstack = 0
  1970  0046EA  0E43               	movlw	67
  1971  0046EC  6EE6               	movwf	postinc1,c
  1972  0046EE  0E00               	movlw	0
  1973  0046F0  6EE6               	movwf	postinc1,c
  1974  0046F2  0E00               	movlw	0
  1975  0046F4  6EE6               	movwf	postinc1,c
  1976  0046F6  0E00               	movlw	0
  1977  0046F8  6EE6               	movwf	postinc1,c
  1978                           
  1979                           ;stkvar	__this @ sp[(-4)+-2]
  1980  0046FA  0EFA               	movlw	-6
  1981  0046FC  006F FF8F FFE6     	movff	plusw1,postinc1
  1982  004702  006F FF8F FFE6     	movff	plusw1,postinc1
  1983  004708  EC2C  F016         	call	_memset	;wreg free
  1984                           
  1985                           ; _ringBufS_init: autosize = 0, savesize = 0, parsavesize = 0, tempsize = 0 parsize = 2,
      +                           argsize = 2, vargsize = 0
  1986  00470C  52E5               	movf	postdec1,f,c
  1987  00470E  52E5               	movf	postdec1,f,c
  1988  004710  0012               	return		;funcret
  1989  004712                     __end_of_ringBufS_init:
  1990                           	opt callstack 0
  1991                           
  1992 ;; *************** function _eaDogM_WriteString *****************
  1993 ;; Defined at:
  1994 ;;		line 165 in file "eadog.c"
  1995 ;; Parameters:    Size  Location     Type
  1996 ;;  strPtr          1  [STACK] PTR unsigned char 
  1997 ;;		 -> V(69), 
  1998 ;; Auto vars:     Size  Location     Type
  1999 ;;		None
  2000 ;; Return value:  Size  Location     Type
  2001 ;;                  1  [STACK] void 
  2002 ;; Registers used:
  2003 ;;		wreg, fsr0l, fsr0h, fsr1l, fsr1h, fsr2l, fsr2h, status,2, status,0, btemp, btemp+1, btemp+8, btemp+9, btemp+10, btem
      +p+11, btemp+16, btemp+17, btemp+18, btemp+19, btemp+20, btemp+21, btemp+22, btemp+23, tblptrl, tblptrh, tblptru, prodl
  2004 ;; Tracked objects:
  2005 ;;		On entry : 0/3D
  2006 ;;		On exit  : 3F/3B
  2007 ;;		Unchanged: 0/0
  2008 ;; Data sizes:     COMRAM   BANK0   BANK1   BANK2   BANK3   BANK4   BANK5   BANK6   BANK7   BANK8   BANK9  BANK10  BANK1
      +1  BANK12  BANK13  BANK14  BANK15  BANK16  BANK17  BANK18  BANK19  BANK20  BANK21  BANK22  BANK23  BANK24  BANK25  BANK2
      +6  BANK27  BANK28  BANK29  BANK30  BANK31
  2009 ;;      Params:         0       0       0       0       0       0       0       0       0       0       0       0       
      +0       0       0       0       0       0       0       0       0       0       0       0       0       0       0       
      +0       0       0       0       0       0
  2010 ;;      Locals:         0       0       0       0       0       0       0       0       0       0       0       0       
      +0       0       0       0       0       0       0       0       0       0       0       0       0       0       0       
      +0       0       0       0       0       0
  2011 ;;      Temps:          0       0       0       0       0       0       0       0       0       0       0       0       
      +0       0       0       0       0       0       0       0       0       0       0       0       0       0       0       
      +0       0       0       0       0       0
  2012 ;;      Totals:         0       0       0       0       0       0       0       0       0       0       0       0       
      +0       0       0       0       0       0       0       0       0       0       0       0       0       0       0       
      +0       0       0       0       0       0
  2013 ;;Total ram usage:        0 bytes
  2014 ;; Hardware stack levels used:    1
  2015 ;; Hardware stack levels required when called:   12
  2016 ;; This function calls:
  2017 ;;		_printf
  2018 ;;		_ringBufS_flush
  2019 ;;		_start_lcd
  2020 ;;		_strlen
  2021 ;;		_wait_lcd_set
  2022 ;; This function is called by:
  2023 ;;		_main
  2024 ;; This function uses a reentrant model
  2025 ;;
  2026                           
  2027                           	psect	text11
  2028  003CEC                     __ptext11:
  2029                           	opt callstack 0
  2030  003CEC                     _eaDogM_WriteString:
  2031                           	opt callstack 18
  2032                           
  2033                           ;eadog.c: 165: void eaDogM_WriteString(char *strPtr);eadog.c: 166: {;eadog.c: 167:  wait
      +                          _lcd_set();
  2034                           
  2035                           ; autosize = 0, savesize = 0, parsavesize = 0, tempsize = 0 parsize = 1, argsize = 1 var
      +                          gsize = 0, retsize = 0 argfudge = 0
  2036                           ;incstack = 0
  2037  003CEC  ECD9  F025         	call	_wait_lcd_set	;wreg free
  2038                           
  2039                           ;eadog.c: 169:  ringBufS_flush(spi_link.tx1a, 0);
  2040  003CF0  0E00               	movlw	0
  2041  003CF2  6EE6               	movwf	postinc1,c
  2042  003CF4  0060  F01F  FFE6   	movff	_spi_link+6,postinc1
  2043  003CFA  0060  F023  FFE6   	movff	_spi_link+7,postinc1
  2044  003D00  EC5C  F01F         	call	_ringBufS_flush	;wreg free
  2045  003D04  94BC               	bcf	16316,2,c	;volatile
  2046                           
  2047                           ;eadog.c: 171:  if (strlen(strPtr) > 64) strPtr[64] = 0;
  2048                           ;stkvar	_strPtr @ sp[(0)+-1]
  2049  003D06  0EFF               	movlw	-1
  2050  003D08  006F FF8C  F047    	movff	plusw1,btemp+11
  2051  003D0E  0060  F11F  FFE6   	movff	btemp+11,postinc1
  2052  003D14  0E00               	movlw	0
  2053  003D16  6EE6               	movwf	postinc1,c
  2054  003D18  ECE7  F01F         	call	_strlen	;wreg free
  2055  003D1C  503D               	movf	btemp+1,w,c
  2056  003D1E  E104               	bnz	u3520
  2057  003D20  0E41               	movlw	65
  2058  003D22  5C3C               	subwf	btemp,w,c
  2059  003D24  A0D8               	btfss	status,0,c
  2060  003D26  D008               	goto	l5149
  2061  003D28                     u3520:
  2062                           
  2063                           ;stkvar	_strPtr @ sp[(0)+-1]
  2064  003D28  0EFF               	movlw	-1
  2065  003D2A  50E3               	movf	plusw1,w,c
  2066  003D2C  6ED9               	movwf	fsr2l,c
  2067  003D2E  6ADA               	clrf	fsr2h,c
  2068  003D30  0E40               	movlw	64
  2069  003D32  26D9               	addwf	fsr2l,f,c
  2070  003D34  0E00               	movlw	0
  2071  003D36  6EDF               	movwf	indf2,c
  2072  003D38                     l5149:
  2073                           
  2074                           ;eadog.c: 172:  DMA1CON0bits.EN = 0;
  2075  003D38  013B               	movlb	59	; () banked
  2076  003D3A  9FFC               	bcf	252,7,b	;volatile
  2077                           
  2078                           ; BSR set to: 59
  2079                           ;eadog.c: 173:  DMA1SSZ = strlen(strPtr);
  2080                           ;stkvar	_strPtr @ sp[(0)+-1]
  2081  003D3C  0EFF               	movlw	-1
  2082  003D3E  006F FF8C  F047    	movff	plusw1,btemp+11
  2083  003D44  0060  F11F  FFE6   	movff	btemp+11,postinc1
  2084  003D4A  0E00               	movlw	0
  2085  003D4C  6EE6               	movwf	postinc1,c
  2086  003D4E  ECE7  F01F         	call	_strlen	;wreg free
  2087  003D52  0060  F0F3  FBF7   	movff	btemp,15351	;volatile
  2088  003D58  0060  F0F7  FBF8   	movff	btemp+1,15352	;volatile
  2089                           
  2090                           ;eadog.c: 174:  DMA1CON0bits.EN = 1;
  2091  003D5E  013B               	movlb	59	; () banked
  2092  003D60  8FFC               	bsf	252,7,b	;volatile
  2093                           
  2094                           ; BSR set to: 59
  2095                           ;eadog.c: 175:  printf("%s", strPtr);
  2096                           ;stkvar	_strPtr @ sp[(0)+-1]
  2097  003D62  0EFF               	movlw	-1
  2098  003D64  006F FF8C  F047    	movff	plusw1,btemp+11
  2099  003D6A  0060  F11F  FFE6   	movff	btemp+11,postinc1
  2100  003D70  0E00               	movlw	0
  2101  003D72  6EE6               	movwf	postinc1,c
  2102  003D74  0E10               	movlw	STR_3& (0+255)
  2103  003D76  6EE6               	movwf	postinc1,c
  2104  003D78  0E03               	movlw	3
  2105  003D7A  6EE6               	movwf	postinc1,c
  2106  003D7C  EC6B  F021         	call	_printf	;wreg free
  2107  003D80  94BE               	bcf	16318,2,c	;volatile
  2108                           
  2109                           ;eadog.c: 177:  start_lcd();
  2110  003D82  ECD3  F025         	call	_start_lcd	;wreg free
  2111                           
  2112                           ; BSR set to: 59
  2113                           ; _eaDogM_WriteString: autosize = 0, savesize = 0, parsavesize = 0, tempsize = 0 parsize
      +                           = 1, argsize = 1, vargsize = 0
  2114  003D86  52E5               	movf	postdec1,f,c
  2115  003D88  0012               	return		;funcret
  2116  003D8A                     __end_of_eaDogM_WriteString:
  2117                           	opt callstack 0
  2118                           
  2119 ;; *************** function _wait_lcd_set *****************
  2120 ;; Defined at:
  2121 ;;		line 112 in file "eadog.c"
  2122 ;; Parameters:    Size  Location     Type
  2123 ;;		None
  2124 ;; Auto vars:     Size  Location     Type
  2125 ;;		None
  2126 ;; Return value:  Size  Location     Type
  2127 ;;                  1  [STACK] void 
  2128 ;; Registers used:
  2129 ;;		None
  2130 ;; Tracked objects:
  2131 ;;		On entry : 0/3D
  2132 ;;		On exit  : 0/0
  2133 ;;		Unchanged: 0/0
  2134 ;; Data sizes:     COMRAM   BANK0   BANK1   BANK2   BANK3   BANK4   BANK5   BANK6   BANK7   BANK8   BANK9  BANK10  BANK1
      +1  BANK12  BANK13  BANK14  BANK15  BANK16  BANK17  BANK18  BANK19  BANK20  BANK21  BANK22  BANK23  BANK24  BANK25  BANK2
      +6  BANK27  BANK28  BANK29  BANK30  BANK31
  2135 ;;      Params:         0       0       0       0       0       0       0       0       0       0       0       0       
      +0       0       0       0       0       0       0       0       0       0       0       0       0       0       0       
      +0       0       0       0       0       0
  2136 ;;      Locals:         0       0       0       0       0       0       0       0       0       0       0       0       
      +0       0       0       0       0       0       0       0       0       0       0       0       0       0       0       
      +0       0       0       0       0       0
  2137 ;;      Temps:          0       0       0       0       0       0       0       0       0       0       0       0       
      +0       0       0       0       0       0       0       0       0       0       0       0       0       0       0       
      +0       0       0       0       0       0
  2138 ;;      Totals:         0       0       0       0       0       0       0       0       0       0       0       0       
      +0       0       0       0       0       0       0       0       0       0       0       0       0       0       0       
      +0       0       0       0       0       0
  2139 ;;Total ram usage:        0 bytes
  2140 ;; Hardware stack levels used:    1
  2141 ;; Hardware stack levels required when called:    3
  2142 ;; This function calls:
  2143 ;;		Nothing
  2144 ;; This function is called by:
  2145 ;;		_eaDogM_WriteString
  2146 ;; This function uses a reentrant model
  2147 ;;
  2148                           
  2149                           	psect	text12
  2150  004BB2                     __ptext12:
  2151                           	opt callstack 0
  2152  004BB2                     _wait_lcd_set:
  2153                           	opt callstack 26
  2154                           
  2155                           ;eadog.c: 114:  spi_link.LCD_DATA = 1;
  2156                           
  2157                           ; BSR set to: 59
  2158                           ; autosize = 0, savesize = 0, parsavesize = 0, tempsize = 0 parsize = 0, argsize = 0 var
      +                          gsize = 0, retsize = 0 argfudge = 0
  2159                           ;incstack = 0
  2160  004BB2  8601               	bsf	_spi_link,3,c	;volatile
  2161                           
  2162                           ; _wait_lcd_set: autosize = 0, savesize = 0, parsavesize = 0, tempsize = 0 parsize = 0, 
      +                          argsize = 0, vargsize = 0
  2163  004BB4  0012               	return		;funcret
  2164  004BB6                     __end_of_wait_lcd_set:
  2165                           	opt callstack 0
  2166                           
  2167 ;; *************** function _start_lcd *****************
  2168 ;; Defined at:
  2169 ;;		line 107 in file "eadog.c"
  2170 ;; Parameters:    Size  Location     Type
  2171 ;;		None
  2172 ;; Auto vars:     Size  Location     Type
  2173 ;;		None
  2174 ;; Return value:  Size  Location     Type
  2175 ;;                  1  [STACK] void 
  2176 ;; Registers used:
  2177 ;;		None
  2178 ;; Tracked objects:
  2179 ;;		On entry : 0/3B
  2180 ;;		On exit  : 3F/3B
  2181 ;;		Unchanged: 0/0
  2182 ;; Data sizes:     COMRAM   BANK0   BANK1   BANK2   BANK3   BANK4   BANK5   BANK6   BANK7   BANK8   BANK9  BANK10  BANK1
      +1  BANK12  BANK13  BANK14  BANK15  BANK16  BANK17  BANK18  BANK19  BANK20  BANK21  BANK22  BANK23  BANK24  BANK25  BANK2
      +6  BANK27  BANK28  BANK29  BANK30  BANK31
  2183 ;;      Params:         0       0       0       0       0       0       0       0       0       0       0       0       
      +0       0       0       0       0       0       0       0       0       0       0       0       0       0       0       
      +0       0       0       0       0       0
  2184 ;;      Locals:         0       0       0       0       0       0       0       0       0       0       0       0       
      +0       0       0       0       0       0       0       0       0       0       0       0       0       0       0       
      +0       0       0       0       0       0
  2185 ;;      Temps:          0       0       0       0       0       0       0       0       0       0       0       0       
      +0       0       0       0       0       0       0       0       0       0       0       0       0       0       0       
      +0       0       0       0       0       0
  2186 ;;      Totals:         0       0       0       0       0       0       0       0       0       0       0       0       
      +0       0       0       0       0       0       0       0       0       0       0       0       0       0       0       
      +0       0       0       0       0       0
  2187 ;;Total ram usage:        0 bytes
  2188 ;; Hardware stack levels used:    1
  2189 ;; Hardware stack levels required when called:    3
  2190 ;; This function calls:
  2191 ;;		Nothing
  2192 ;; This function is called by:
  2193 ;;		_eaDogM_WriteString
  2194 ;; This function uses a reentrant model
  2195 ;;
  2196                           
  2197                           	psect	text13
  2198  004BA6                     __ptext13:
  2199                           	opt callstack 0
  2200  004BA6                     _start_lcd:
  2201                           	opt callstack 26
  2202                           
  2203                           ;eadog.c: 109:  DMA1CON0bits.DMA1SIRQEN = 1;
  2204                           
  2205                           ; autosize = 0, savesize = 0, parsavesize = 0, tempsize = 0 parsize = 0, argsize = 0 var
      +                          gsize = 0, retsize = 0 argfudge = 0
  2206                           ;incstack = 0
  2207  004BA6  013B               	movlb	59	; () banked
  2208  004BA8  8DFC               	bsf	252,6,b	;volatile
  2209                           
  2210                           ; BSR set to: 59
  2211                           ; _start_lcd: autosize = 0, savesize = 0, parsavesize = 0, tempsize = 0 parsize = 0, arg
      +                          size = 0, vargsize = 0
  2212  004BAA  0012               	return		;funcret
  2213  004BAC                     __end_of_start_lcd:
  2214                           	opt callstack 0
  2215                           
  2216 ;; *************** function _ringBufS_flush *****************
  2217 ;; Defined at:
  2218 ;;		line 76 in file "ringbufs.c"
  2219 ;; Parameters:    Size  Location     Type
  2220 ;;  _this           2  [STACK] PTR struct ringBufS_t
  2221 ;;		 -> ring_buf1(67), 
  2222 ;;  clearBuffer     1  [STACK] const char 
  2223 ;; Auto vars:     Size  Location     Type
  2224 ;;		None
  2225 ;; Return value:  Size  Location     Type
  2226 ;;                  1  [STACK] void 
  2227 ;; Registers used:
  2228 ;;		wreg, fsr1l, fsr1h, fsr2l, fsr2h, status,2, status,0, btemp, btemp+10, btemp+11, prodl
  2229 ;; Tracked objects:
  2230 ;;		On entry : 0/3D
  2231 ;;		On exit  : 0/0
  2232 ;;		Unchanged: 0/0
  2233 ;; Data sizes:     COMRAM   BANK0   BANK1   BANK2   BANK3   BANK4   BANK5   BANK6   BANK7   BANK8   BANK9  BANK10  BANK1
      +1  BANK12  BANK13  BANK14  BANK15  BANK16  BANK17  BANK18  BANK19  BANK20  BANK21  BANK22  BANK23  BANK24  BANK25  BANK2
      +6  BANK27  BANK28  BANK29  BANK30  BANK31
  2234 ;;      Params:         0       0       0       0       0       0       0       0       0       0       0       0       
      +0       0       0       0       0       0       0       0       0       0       0       0       0       0       0       
      +0       0       0       0       0       0
  2235 ;;      Locals:         0       0       0       0       0       0       0       0       0       0       0       0       
      +0       0       0       0       0       0       0       0       0       0       0       0       0       0       0       
      +0       0       0       0       0       0
  2236 ;;      Temps:          0       0       0       0       0       0       0       0       0       0       0       0       
      +0       0       0       0       0       0       0       0       0       0       0       0       0       0       0       
      +0       0       0       0       0       0
  2237 ;;      Totals:         0       0       0       0       0       0       0       0       0       0       0       0       
      +0       0       0       0       0       0       0       0       0       0       0       0       0       0       0       
      +0       0       0       0       0       0
  2238 ;;Total ram usage:        0 bytes
  2239 ;; Hardware stack levels used:    1
  2240 ;; Hardware stack levels required when called:    4
  2241 ;; This function calls:
  2242 ;;		_memset
  2243 ;; This function is called by:
  2244 ;;		_eaDogM_WriteString
  2245 ;; This function uses a reentrant model
  2246 ;;
  2247                           
  2248                           	psect	text14
  2249  003EB8                     __ptext14:
  2250                           	opt callstack 0
  2251  003EB8                     _ringBufS_flush:
  2252                           	opt callstack 25
  2253                           
  2254                           ;ringbufs.c: 76: void ringBufS_flush(ringBufS_t *_this, const int8_t clearBuffer);ringbu
      +                          fs.c: 77: {;ringbufs.c: 78:  _this->count = 0;
  2255                           ;stkvar	__this @ sp[(0)+-2]
  2256                           
  2257                           ; BSR set to: 59
  2258                           ; autosize = 0, savesize = 0, parsavesize = 0, tempsize = 0 parsize = 3, argsize = 3 var
      +                          gsize = 0, retsize = 0 argfudge = 0
  2259                           ;incstack = 0
  2260  003EB8  0EFE               	movlw	-2
  2261  003EBA  006F FF8C  F046    	movff	plusw1,btemp+10
  2262  003EC0  0EFF               	movlw	-1
  2263  003EC2  006F FF8C  F047    	movff	plusw1,btemp+11
  2264  003EC8  0E42               	movlw	66
  2265  003ECA  2446               	addwf	btemp+10,w,c
  2266  003ECC  6ED9               	movwf	fsr2l,c
  2267  003ECE  0E00               	movlw	0
  2268  003ED0  2047               	addwfc	btemp+11,w,c
  2269  003ED2  6EDA               	movwf	fsr2h,c
  2270  003ED4  0E00               	movlw	0
  2271  003ED6  6EDF               	movwf	indf2,c
  2272                           
  2273                           ;ringbufs.c: 79:  _this->head = 0;
  2274                           ;stkvar	__this @ sp[(0)+-2]
  2275  003ED8  0EFE               	movlw	-2
  2276  003EDA  006F FF8C  F046    	movff	plusw1,btemp+10
  2277  003EE0  0EFF               	movlw	-1
  2278  003EE2  006F FF8C  F047    	movff	plusw1,btemp+11
  2279  003EE8  0E40               	movlw	64
  2280  003EEA  2446               	addwf	btemp+10,w,c
  2281  003EEC  6ED9               	movwf	fsr2l,c
  2282  003EEE  0E00               	movlw	0
  2283  003EF0  2047               	addwfc	btemp+11,w,c
  2284  003EF2  6EDA               	movwf	fsr2h,c
  2285  003EF4  0E00               	movlw	0
  2286  003EF6  6EDF               	movwf	indf2,c
  2287                           
  2288                           ;ringbufs.c: 80:  _this->tail = 0;
  2289                           ;stkvar	__this @ sp[(0)+-2]
  2290  003EF8  0EFE               	movlw	-2
  2291  003EFA  006F FF8C  F046    	movff	plusw1,btemp+10
  2292  003F00  0EFF               	movlw	-1
  2293  003F02  006F FF8C  F047    	movff	plusw1,btemp+11
  2294  003F08  0E41               	movlw	65
  2295  003F0A  2446               	addwf	btemp+10,w,c
  2296  003F0C  6ED9               	movwf	fsr2l,c
  2297  003F0E  0E00               	movlw	0
  2298  003F10  2047               	addwfc	btemp+11,w,c
  2299  003F12  6EDA               	movwf	fsr2h,c
  2300  003F14  0E00               	movlw	0
  2301  003F16  6EDF               	movwf	indf2,c
  2302                           
  2303                           ;ringbufs.c: 81:  if (clearBuffer) {
  2304                           ;stkvar	_clearBuffer @ sp[(0)+-3]
  2305  003F18  0EFD               	movlw	-3
  2306  003F1A  50E3               	movf	plusw1,w,c
  2307  003F1C  B4D8               	btfsc	status,2,c
  2308  003F1E  D011               	goto	l1300
  2309                           
  2310                           ;ringbufs.c: 82:   memset(_this->buf, 0, sizeof(_this->buf));
  2311  003F20  0E40               	movlw	64
  2312  003F22  6EE6               	movwf	postinc1,c
  2313  003F24  0E00               	movlw	0
  2314  003F26  6EE6               	movwf	postinc1,c
  2315  003F28  0E00               	movlw	0
  2316  003F2A  6EE6               	movwf	postinc1,c
  2317  003F2C  0E00               	movlw	0
  2318  003F2E  6EE6               	movwf	postinc1,c
  2319                           
  2320                           ;stkvar	__this @ sp[(-4)+-2]
  2321  003F30  0EFA               	movlw	-6
  2322  003F32  006F FF8F FFE6     	movff	plusw1,postinc1
  2323  003F38  006F FF8F FFE6     	movff	plusw1,postinc1
  2324  003F3E  EC2C  F016         	call	_memset	;wreg free
  2325  003F42                     l1300:
  2326                           
  2327                           ; _ringBufS_flush: autosize = 0, savesize = 0, parsavesize = 0, tempsize = 0 parsize = 3
      +                          , argsize = 3, vargsize = 0
  2328  003F42  52E5               	movf	postdec1,f,c
  2329  003F44  52E5               	movf	postdec1,f,c
  2330  003F46  52E5               	movf	postdec1,f,c
  2331  003F48  0012               	return		;funcret
  2332  003F4A                     __end_of_ringBufS_flush:
  2333                           	opt callstack 0
  2334                           
  2335 ;; *************** function _memset *****************
  2336 ;; Defined at:
  2337 ;;		line 4 in file "/opt/microchip/xc8/v2.05/pic/sources/c99/common/memset.c"
  2338 ;; Parameters:    Size  Location     Type
  2339 ;;  dest            2  [STACK] PTR void 
  2340 ;;		 -> ring_buf2(67), ring_buf1(67), 
  2341 ;;  c               2  [STACK] int 
  2342 ;;  n               2  [STACK] unsigned int 
  2343 ;; Auto vars:     Size  Location     Type
  2344 ;;  s               2  [STACK] PTR unsigned char 
  2345 ;;		 -> ring_buf2(67), ring_buf1(67), 
  2346 ;;  k               2  [STACK] unsigned int 
  2347 ;; Return value:  Size  Location     Type
  2348 ;;                  2  [STACK] PTR void 
  2349 ;; Registers used:
  2350 ;;		wreg, fsr1l, fsr1h, fsr2l, fsr2h, status,2, status,0, btemp, btemp+10, btemp+11, prodl
  2351 ;; Tracked objects:
  2352 ;;		On entry : 0/3C
  2353 ;;		On exit  : 0/0
  2354 ;;		Unchanged: 0/0
  2355 ;; Data sizes:     COMRAM   BANK0   BANK1   BANK2   BANK3   BANK4   BANK5   BANK6   BANK7   BANK8   BANK9  BANK10  BANK1
      +1  BANK12  BANK13  BANK14  BANK15  BANK16  BANK17  BANK18  BANK19  BANK20  BANK21  BANK22  BANK23  BANK24  BANK25  BANK2
      +6  BANK27  BANK28  BANK29  BANK30  BANK31
  2356 ;;      Params:         0       0       0       0       0       0       0       0       0       0       0       0       
      +0       0       0       0       0       0       0       0       0       0       0       0       0       0       0       
      +0       0       0       0       0       0
  2357 ;;      Locals:         0       0       0       0       0       0       0       0       0       0       0       0       
      +0       0       0       0       0       0       0       0       0       0       0       0       0       0       0       
      +0       0       0       0       0       0
  2358 ;;      Temps:          0       0       0       0       0       0       0       0       0       0       0       0       
      +0       0       0       0       0       0       0       0       0       0       0       0       0       0       0       
      +0       0       0       0       0       0
  2359 ;;      Totals:         0       0       0       0       0       0       0       0       0       0       0       0       
      +0       0       0       0       0       0       0       0       0       0       0       0       0       0       0       
      +0       0       0       0       0       0
  2360 ;;Total ram usage:        0 bytes
  2361 ;; Hardware stack levels used:    1
  2362 ;; Hardware stack levels required when called:    3
  2363 ;; This function calls:
  2364 ;;		Nothing
  2365 ;; This function is called by:
  2366 ;;		_ringBufS_init
  2367 ;;		_ringBufS_flush
  2368 ;; This function uses a reentrant model
  2369 ;;
  2370                           
  2371                           	psect	text15
  2372  002C58                     __ptext15:
  2373                           	opt callstack 0
  2374  002C58                     _memset:
  2375                           	opt callstack 0
  2376                           
  2377                           ; autosize = 4, savesize = 0, parsavesize = 0, tempsize = 0 parsize = 6, argsize = 6 var
      +                          gsize = 0, retsize = 0 argfudge = 0
  2378  002C58  52E6               	movf	postinc1,f,c
  2379  002C5A  52E6               	movf	postinc1,f,c
  2380  002C5C  52E6               	movf	postinc1,f,c
  2381  002C5E  52E6               	movf	postinc1,f,c
  2382                           
  2383                           ;stkvar	_dest @ sp[(-4)+-2]
  2384                           
  2385                           ;incstack = 0
  2386  002C60  0EFA               	movlw	-6
  2387  002C62  006F FF8C  F046    	movff	plusw1,btemp+10
  2388  002C68  0EFB               	movlw	-5
  2389  002C6A  006F FF8C  F047    	movff	plusw1,btemp+11
  2390                           
  2391                           ;stkvar	_s @ sp[(-4)+0]
  2392  002C70  0EFD               	movlw	-3
  2393  002C72  0060  F11F  FFE3   	movff	btemp+11,plusw1
  2394  002C78  0EFC               	movlw	-4
  2395  002C7A  0060  F11B  FFE3   	movff	btemp+10,plusw1
  2396                           
  2397                           ;stkvar	_n @ sp[(-4)+-6]
  2398  002C80  0EF6               	movlw	-10
  2399  002C82  006F FF8C  F03C    	movff	plusw1,btemp
  2400  002C88  0EF7               	movlw	-9
  2401  002C8A  50E3               	movf	plusw1,w,c
  2402  002C8C  103C               	iorwf	btemp,w,c
  2403  002C8E  B4D8               	btfsc	status,2,c
  2404  002C90  D154               	goto	u3490
  2405                           
  2406                           ;stkvar	_c @ sp[(-4)+-4]
  2407                           ;stkvar	_s @ sp[(-4)+0]
  2408  002C92  0EFC               	movlw	-4
  2409  002C94  006F FF8F FFD9     	movff	plusw1,fsr2l
  2410  002C9A  0EFD               	movlw	-3
  2411  002C9C  006F FF8F FFDA     	movff	plusw1,fsr2h
  2412  002CA2  0EF8               	movlw	-8
  2413  002CA4  006F FF8F FFDF     	movff	plusw1,indf2
  2414                           
  2415                           ;stkvar	_c @ sp[(-4)+-4]
  2416                           ;stkvar	_n @ sp[(-4)+-6]
  2417                           ;stkvar	_s @ sp[(-4)+0]
  2418  002CAA  0EFC               	movlw	-4
  2419  002CAC  006F FF8C  F046    	movff	plusw1,btemp+10
  2420  002CB2  0EFD               	movlw	-3
  2421  002CB4  006F FF8C  F047    	movff	plusw1,btemp+11
  2422  002CBA  0EF6               	movlw	-10
  2423  002CBC  50E3               	movf	plusw1,w,c
  2424  002CBE  2646               	addwf	btemp+10,f,c
  2425  002CC0  0EF7               	movlw	-9
  2426  002CC2  50E3               	movf	plusw1,w,c
  2427  002CC4  2247               	addwfc	btemp+11,f,c
  2428  002CC6  0EFF               	movlw	255
  2429  002CC8  2446               	addwf	btemp+10,w,c
  2430  002CCA  6ED9               	movwf	fsr2l,c
  2431  002CCC  0EFF               	movlw	255
  2432  002CCE  2047               	addwfc	btemp+11,w,c
  2433  002CD0  6EDA               	movwf	fsr2h,c
  2434  002CD2  0EF8               	movlw	-8
  2435  002CD4  006F FF8F FFDF     	movff	plusw1,indf2
  2436                           
  2437                           ;stkvar	_n @ sp[(-4)+-6]
  2438  002CDA  0EF7               	movlw	-9
  2439  002CDC  50E3               	movf	plusw1,w,c
  2440  002CDE  E108               	bnz	l4999
  2441  002CE0  0EF6               	movlw	-10
  2442  002CE2  006F FF8C  F03C    	movff	plusw1,btemp
  2443  002CE8  0E03               	movlw	3
  2444  002CEA  5E3C               	subwf	btemp,f,c
  2445  002CEC  A0D8               	btfss	status,0,c
  2446  002CEE  D125               	goto	u3490
  2447  002CF0                     l4999:
  2448                           
  2449                           ;stkvar	_c @ sp[(-4)+-4]
  2450                           ;stkvar	_s @ sp[(-4)+0]
  2451  002CF0  0EFC               	movlw	-4
  2452  002CF2  006F FF8C  F046    	movff	plusw1,btemp+10
  2453  002CF8  0EFD               	movlw	-3
  2454  002CFA  006F FF8C  F047    	movff	plusw1,btemp+11
  2455  002D00  0E01               	movlw	1
  2456  002D02  2446               	addwf	btemp+10,w,c
  2457  002D04  6ED9               	movwf	fsr2l,c
  2458  002D06  0E00               	movlw	0
  2459  002D08  2047               	addwfc	btemp+11,w,c
  2460  002D0A  6EDA               	movwf	fsr2h,c
  2461  002D0C  0EF8               	movlw	-8
  2462  002D0E  006F FF8F FFDF     	movff	plusw1,indf2
  2463                           
  2464                           ;stkvar	_c @ sp[(-4)+-4]
  2465                           ;stkvar	_s @ sp[(-4)+0]
  2466  002D14  0EFC               	movlw	-4
  2467  002D16  006F FF8C  F046    	movff	plusw1,btemp+10
  2468  002D1C  0EFD               	movlw	-3
  2469  002D1E  006F FF8C  F047    	movff	plusw1,btemp+11
  2470  002D24  0E02               	movlw	2
  2471  002D26  2446               	addwf	btemp+10,w,c
  2472  002D28  6ED9               	movwf	fsr2l,c
  2473  002D2A  0E00               	movlw	0
  2474  002D2C  2047               	addwfc	btemp+11,w,c
  2475  002D2E  6EDA               	movwf	fsr2h,c
  2476  002D30  0EF8               	movlw	-8
  2477  002D32  006F FF8F FFDF     	movff	plusw1,indf2
  2478                           
  2479                           ;stkvar	_c @ sp[(-4)+-4]
  2480                           ;stkvar	_n @ sp[(-4)+-6]
  2481                           ;stkvar	_s @ sp[(-4)+0]
  2482  002D38  0EFC               	movlw	-4
  2483  002D3A  006F FF8C  F046    	movff	plusw1,btemp+10
  2484  002D40  0EFD               	movlw	-3
  2485  002D42  006F FF8C  F047    	movff	plusw1,btemp+11
  2486  002D48  0EF6               	movlw	-10
  2487  002D4A  50E3               	movf	plusw1,w,c
  2488  002D4C  2646               	addwf	btemp+10,f,c
  2489  002D4E  0EF7               	movlw	-9
  2490  002D50  50E3               	movf	plusw1,w,c
  2491  002D52  2247               	addwfc	btemp+11,f,c
  2492  002D54  0EFE               	movlw	254
  2493  002D56  2446               	addwf	btemp+10,w,c
  2494  002D58  6ED9               	movwf	fsr2l,c
  2495  002D5A  0EFF               	movlw	255
  2496  002D5C  2047               	addwfc	btemp+11,w,c
  2497  002D5E  6EDA               	movwf	fsr2h,c
  2498  002D60  0EF8               	movlw	-8
  2499  002D62  006F FF8F FFDF     	movff	plusw1,indf2
  2500                           
  2501                           ;stkvar	_c @ sp[(-4)+-4]
  2502                           ;stkvar	_n @ sp[(-4)+-6]
  2503                           ;stkvar	_s @ sp[(-4)+0]
  2504  002D68  0EFC               	movlw	-4
  2505  002D6A  006F FF8C  F046    	movff	plusw1,btemp+10
  2506  002D70  0EFD               	movlw	-3
  2507  002D72  006F FF8C  F047    	movff	plusw1,btemp+11
  2508  002D78  0EF6               	movlw	-10
  2509  002D7A  50E3               	movf	plusw1,w,c
  2510  002D7C  2646               	addwf	btemp+10,f,c
  2511  002D7E  0EF7               	movlw	-9
  2512  002D80  50E3               	movf	plusw1,w,c
  2513  002D82  2247               	addwfc	btemp+11,f,c
  2514  002D84  0EFD               	movlw	253
  2515  002D86  2446               	addwf	btemp+10,w,c
  2516  002D88  6ED9               	movwf	fsr2l,c
  2517  002D8A  0EFF               	movlw	255
  2518  002D8C  2047               	addwfc	btemp+11,w,c
  2519  002D8E  6EDA               	movwf	fsr2h,c
  2520  002D90  0EF8               	movlw	-8
  2521  002D92  006F FF8F FFDF     	movff	plusw1,indf2
  2522                           
  2523                           ;stkvar	_n @ sp[(-4)+-6]
  2524  002D98  0EF7               	movlw	-9
  2525  002D9A  50E3               	movf	plusw1,w,c
  2526  002D9C  E108               	bnz	l5005
  2527  002D9E  0EF6               	movlw	-10
  2528  002DA0  006F FF8C  F03C    	movff	plusw1,btemp
  2529  002DA6  0E07               	movlw	7
  2530  002DA8  5E3C               	subwf	btemp,f,c
  2531  002DAA  A0D8               	btfss	status,0,c
  2532  002DAC  D0C6               	goto	u3490
  2533  002DAE                     l5005:
  2534                           
  2535                           ;stkvar	_c @ sp[(-4)+-4]
  2536                           ;stkvar	_s @ sp[(-4)+0]
  2537  002DAE  0EFC               	movlw	-4
  2538  002DB0  006F FF8C  F046    	movff	plusw1,btemp+10
  2539  002DB6  0EFD               	movlw	-3
  2540  002DB8  006F FF8C  F047    	movff	plusw1,btemp+11
  2541  002DBE  0E03               	movlw	3
  2542  002DC0  2446               	addwf	btemp+10,w,c
  2543  002DC2  6ED9               	movwf	fsr2l,c
  2544  002DC4  0E00               	movlw	0
  2545  002DC6  2047               	addwfc	btemp+11,w,c
  2546  002DC8  6EDA               	movwf	fsr2h,c
  2547  002DCA  0EF8               	movlw	-8
  2548  002DCC  006F FF8F FFDF     	movff	plusw1,indf2
  2549                           
  2550                           ;stkvar	_c @ sp[(-4)+-4]
  2551                           ;stkvar	_n @ sp[(-4)+-6]
  2552                           ;stkvar	_s @ sp[(-4)+0]
  2553  002DD2  0EFC               	movlw	-4
  2554  002DD4  006F FF8C  F046    	movff	plusw1,btemp+10
  2555  002DDA  0EFD               	movlw	-3
  2556  002DDC  006F FF8C  F047    	movff	plusw1,btemp+11
  2557  002DE2  0EF6               	movlw	-10
  2558  002DE4  50E3               	movf	plusw1,w,c
  2559  002DE6  2646               	addwf	btemp+10,f,c
  2560  002DE8  0EF7               	movlw	-9
  2561  002DEA  50E3               	movf	plusw1,w,c
  2562  002DEC  2247               	addwfc	btemp+11,f,c
  2563  002DEE  0EFC               	movlw	252
  2564  002DF0  2446               	addwf	btemp+10,w,c
  2565  002DF2  6ED9               	movwf	fsr2l,c
  2566  002DF4  0EFF               	movlw	255
  2567  002DF6  2047               	addwfc	btemp+11,w,c
  2568  002DF8  6EDA               	movwf	fsr2h,c
  2569  002DFA  0EF8               	movlw	-8
  2570  002DFC  006F FF8F FFDF     	movff	plusw1,indf2
  2571                           
  2572                           ;stkvar	_n @ sp[(-4)+-6]
  2573  002E02  0EF7               	movlw	-9
  2574  002E04  50E3               	movf	plusw1,w,c
  2575  002E06  E108               	bnz	l5011
  2576  002E08  0EF6               	movlw	-10
  2577  002E0A  006F FF8C  F03C    	movff	plusw1,btemp
  2578  002E10  0E09               	movlw	9
  2579  002E12  5E3C               	subwf	btemp,f,c
  2580  002E14  A0D8               	btfss	status,0,c
  2581  002E16  D091               	goto	u3490
  2582  002E18                     l5011:
  2583                           
  2584                           ;stkvar	_s @ sp[(-4)+0]
  2585  002E18  0EFC               	movlw	-4
  2586  002E1A  006F FF8C  F046    	movff	plusw1,btemp+10
  2587  002E20  1E46               	comf	btemp+10,f,c
  2588  002E22  0EFD               	movlw	-3
  2589  002E24  006F FF8C  F047    	movff	plusw1,btemp+11
  2590  002E2A  1E47               	comf	btemp+11,f,c
  2591  002E2C  2A46               	incf	btemp+10,f,c
  2592  002E2E  B4D8               	btfsc	status,2,c
  2593  002E30  2A47               	incf	btemp+11,f,c
  2594  002E32  0E03               	movlw	3
  2595  002E34  1646               	andwf	btemp+10,f,c
  2596  002E36  0E00               	movlw	0
  2597  002E38  1647               	andwf	btemp+11,f,c
  2598                           
  2599                           ;stkvar	_k @ sp[(-4)+2]
  2600  002E3A  0EFE               	movlw	-2
  2601  002E3C  0060  F11B  FFE3   	movff	btemp+10,plusw1
  2602  002E42  0EFF               	movlw	-1
  2603  002E44  0060  F11F  FFE3   	movff	btemp+11,plusw1
  2604                           
  2605                           ;stkvar	_k @ sp[(-4)+2]
  2606                           ;stkvar	_s @ sp[(-4)+0]
  2607  002E4A  0EFC               	movlw	-4
  2608  002E4C  50E3               	movf	plusw1,w,c
  2609  002E4E  6E3C               	movwf	btemp,c
  2610  002E50  0EFE               	movlw	-2
  2611  002E52  50E3               	movf	plusw1,w,c
  2612  002E54  263C               	addwf	btemp,f,c
  2613  002E56  0EFC               	movlw	-4
  2614  002E58  0060  F0F3  FFE3   	movff	btemp,plusw1
  2615  002E5E  0EFD               	movlw	-3
  2616  002E60  50E3               	movf	plusw1,w,c
  2617  002E62  6E3C               	movwf	btemp,c
  2618  002E64  0EFF               	movlw	-1
  2619  002E66  50E3               	movf	plusw1,w,c
  2620  002E68  223C               	addwfc	btemp,f,c
  2621  002E6A  0EFD               	movlw	-3
  2622  002E6C  0060  F0F3  FFE3   	movff	btemp,plusw1
  2623                           
  2624                           ;stkvar	_k @ sp[(-4)+2]
  2625                           ;stkvar	_n @ sp[(-4)+-6]
  2626  002E72  0EF6               	movlw	-10
  2627  002E74  50E3               	movf	plusw1,w,c
  2628  002E76  6E3C               	movwf	btemp,c
  2629  002E78  0EFE               	movlw	-2
  2630  002E7A  50E3               	movf	plusw1,w,c
  2631  002E7C  5E3C               	subwf	btemp,f,c
  2632  002E7E  0EF6               	movlw	-10
  2633  002E80  0060  F0F3  FFE3   	movff	btemp,plusw1
  2634  002E86  0EF7               	movlw	-9
  2635  002E88  50E3               	movf	plusw1,w,c
  2636  002E8A  6E3C               	movwf	btemp,c
  2637  002E8C  0EFF               	movlw	-1
  2638  002E8E  50E3               	movf	plusw1,w,c
  2639  002E90  5A3C               	subwfb	btemp,f,c
  2640  002E92  0EF7               	movlw	-9
  2641  002E94  0060  F0F3  FFE3   	movff	btemp,plusw1
  2642  002E9A  0EFC               	movlw	252
  2643  002E9C  6E46               	movwf	btemp+10,c
  2644  002E9E  0EFF               	movlw	255
  2645  002EA0  6E47               	movwf	btemp+11,c
  2646                           
  2647                           ;stkvar	_n @ sp[(-4)+-6]
  2648  002EA2  0EF6               	movlw	-10
  2649  002EA4  006F FF8C  F03C    	movff	plusw1,btemp
  2650  002EAA  5046               	movf	btemp+10,w,c
  2651  002EAC  163C               	andwf	btemp,f,c
  2652  002EAE  0EF6               	movlw	-10
  2653  002EB0  0060  F0F3  FFE3   	movff	btemp,plusw1
  2654  002EB6  0EF7               	movlw	-9
  2655  002EB8  006F FF8C  F03C    	movff	plusw1,btemp
  2656  002EBE  5047               	movf	btemp+11,w,c
  2657  002EC0  163C               	andwf	btemp,f,c
  2658  002EC2  0EF7               	movlw	-9
  2659  002EC4  D02E               	goto	L3
  2660  002EC6                     l5019:
  2661                           
  2662                           ;stkvar	_c @ sp[(-4)+-4]
  2663                           ;stkvar	_s @ sp[(-4)+0]
  2664  002EC6  0EFC               	movlw	-4
  2665  002EC8  006F FF8F FFD9     	movff	plusw1,fsr2l
  2666  002ECE  0EFD               	movlw	-3
  2667  002ED0  006F FF8F FFDA     	movff	plusw1,fsr2h
  2668  002ED6  0EF8               	movlw	-8
  2669  002ED8  006F FF8F FFDF     	movff	plusw1,indf2
  2670                           
  2671                           ;stkvar	_n @ sp[(-4)+-6]
  2672  002EDE  0EF6               	movlw	-10
  2673  002EE0  006F FF8C  F03C    	movff	plusw1,btemp
  2674  002EE6  0E01               	movlw	1
  2675  002EE8  5E3C               	subwf	btemp,f,c
  2676  002EEA  0EF6               	movlw	-10
  2677  002EEC  0060  F0F3  FFE3   	movff	btemp,plusw1
  2678  002EF2  0EF7               	movlw	-9
  2679  002EF4  006F FF8C  F03C    	movff	plusw1,btemp
  2680  002EFA  0E00               	movlw	0
  2681  002EFC  5A3C               	subwfb	btemp,f,c
  2682  002EFE  0EF7               	movlw	-9
  2683  002F00  0060  F0F3  FFE3   	movff	btemp,plusw1
  2684                           
  2685                           ;stkvar	_s @ sp[(-4)+0]
  2686  002F06  0EFC               	movlw	-4
  2687  002F08  50E3               	movf	plusw1,w,c
  2688  002F0A  0F01               	addlw	1
  2689  002F0C  6E3C               	movwf	btemp,c
  2690  002F0E  0EFC               	movlw	-4
  2691  002F10  0060  F0F3  FFE3   	movff	btemp,plusw1
  2692  002F16  6A3C               	clrf	btemp,c
  2693  002F18  0EFD               	movlw	-3
  2694  002F1A  50E3               	movf	plusw1,w,c
  2695  002F1C  203C               	addwfc	btemp,w,c
  2696  002F1E  6E3C               	movwf	btemp,c
  2697  002F20  0EFD               	movlw	-3
  2698  002F22                     L3:
  2699  002F22  0060  F0F3  FFE3   	movff	btemp,plusw1
  2700                           
  2701                           ;stkvar	_n @ sp[(-4)+-6]
  2702  002F28  0EF6               	movlw	-10
  2703  002F2A  006F FF8C  F03C    	movff	plusw1,btemp
  2704  002F30  0EF7               	movlw	-9
  2705  002F32  50E3               	movf	plusw1,w,c
  2706  002F34  103C               	iorwf	btemp,w,c
  2707  002F36  A4D8               	btfss	status,2,c
  2708  002F38  D7C6               	goto	l5019
  2709  002F3A                     u3490:
  2710                           
  2711                           ; _memset: autosize = 4, savesize = 0, parsavesize = 0, tempsize = 0 parsize = 6, argsiz
      +                          e = 6, vargsize = 0
  2712  002F3A  0EF6               	movlw	246
  2713  002F3C  26E1               	addwf	fsr1l,f,c
  2714  002F3E  0EFF               	movlw	255
  2715  002F40  22E2               	addwfc	fsr1h,f,c
  2716  002F42  0012               	return		;funcret
  2717  002F44                     __end_of_memset:
  2718                           	opt callstack 0
  2719                           
  2720 ;; *************** function _printf *****************
  2721 ;; Defined at:
  2722 ;;		line 5 in file "/opt/microchip/xc8/v2.05/pic/sources/c99/common/printf.c"
  2723 ;; Parameters:    Size  Location     Type
  2724 ;;  fmt             1  [STACK] PTR const unsigned char 
  2725 ;;		 -> STR_4(3), STR_3(3), 
  2726 ;; Auto vars:     Size  Location     Type
  2727 ;;  ap              2  [STACK] PTR void [1]
  2728 ;;		 -> ?_printf(2), ?_sprintf(2), 
  2729 ;;  ret             2    0        int 
  2730 ;; Return value:  Size  Location     Type
  2731 ;;                  2  [STACK] int 
  2732 ;; Registers used:
  2733 ;;		wreg, fsr0l, fsr0h, fsr1l, fsr1h, fsr2l, fsr2h, status,2, status,0, btemp, btemp+1, btemp+8, btemp+9, btemp+10, btem
      +p+11, btemp+16, btemp+17, btemp+18, btemp+19, btemp+20, btemp+21, btemp+22, btemp+23, tblptrl, tblptrh, tblptru, prodl
  2734 ;; Tracked objects:
  2735 ;;		On entry : 3F/3B
  2736 ;;		On exit  : 0/0
  2737 ;;		Unchanged: 0/0
  2738 ;; Data sizes:     COMRAM   BANK0   BANK1   BANK2   BANK3   BANK4   BANK5   BANK6   BANK7   BANK8   BANK9  BANK10  BANK1
      +1  BANK12  BANK13  BANK14  BANK15  BANK16  BANK17  BANK18  BANK19  BANK20  BANK21  BANK22  BANK23  BANK24  BANK25  BANK2
      +6  BANK27  BANK28  BANK29  BANK30  BANK31
  2739 ;;      Params:         0       0       0       0       0       0       0       0       0       0       0       0       
      +0       0       0       0       0       0       0       0       0       0       0       0       0       0       0       
      +0       0       0       0       0       0
  2740 ;;      Locals:         0       0       0       0       0       0       0       0       0       0       0       0       
      +0       0       0       0       0       0       0       0       0       0       0       0       0       0       0       
      +0       0       0       0       0       0
  2741 ;;      Temps:          0       0       0       0       0       0       0       0       0       0       0       0       
      +0       0       0       0       0       0       0       0       0       0       0       0       0       0       0       
      +0       0       0       0       0       0
  2742 ;;      Totals:         0       0       0       0       0       0       0       0       0       0       0       0       
      +0       0       0       0       0       0       0       0       0       0       0       0       0       0       0       
      +0       0       0       0       0       0
  2743 ;;Total ram usage:        0 bytes
  2744 ;; Hardware stack levels used:    1
  2745 ;; Hardware stack levels required when called:   11
  2746 ;; This function calls:
  2747 ;;		_vfprintf
  2748 ;; This function is called by:
  2749 ;;		_eaDogM_WriteString
  2750 ;; This function uses a reentrant model
  2751 ;;
  2752                           
  2753                           	psect	text16
  2754  0042D6                     __ptext16:
  2755                           	opt callstack 0
  2756  0042D6                     _printf:
  2757                           	opt callstack 0
  2758                           
  2759                           ; autosize = 2, savesize = 0, parsavesize = 0, tempsize = 0 parsize = 3, argsize = 1 var
      +                          gsize = 0, retsize = 0 argfudge = 0
  2760  0042D6  52E6               	movf	postinc1,f,c
  2761  0042D8  52E6               	movf	postinc1,f,c
  2762                           
  2763                           ;stkvar	?_printf @ sp[(-2)+-3]
  2764                           
  2765                           ;incstack = 0
  2766  0042DA  0EFB               	movlw	251
  2767  0042DC  24E1               	addwf	fsr1l,w,c
  2768  0042DE  6E46               	movwf	btemp+10,c
  2769  0042E0  0EFF               	movlw	255
  2770  0042E2  20E2               	addwfc	fsr1h,w,c
  2771  0042E4  6E47               	movwf	btemp+11,c
  2772  0042E6  0E01               	movlw	1
  2773  0042E8  2646               	addwf	btemp+10,f,c
  2774  0042EA  0E00               	movlw	0
  2775  0042EC  2247               	addwfc	btemp+11,f,c
  2776                           
  2777                           ;stkvar	_ap @ sp[(-2)+0]
  2778  0042EE  0EFF               	movlw	-1
  2779  0042F0  0060  F11F  FFE3   	movff	btemp+11,plusw1
  2780  0042F6  0EFE               	movlw	-2
  2781  0042F8  0060  F11B  FFE3   	movff	btemp+10,plusw1
  2782                           
  2783                           ;stkvar	_ap @ sp[(-2)+0]
  2784  0042FE  0EFE               	movlw	254
  2785  004300  24E1               	addwf	fsr1l,w,c
  2786  004302  6E3C               	movwf	btemp,c
  2787  004304  0EFF               	movlw	255
  2788  004306  20E2               	addwfc	fsr1h,w,c
  2789  004308  6E3D               	movwf	btemp+1,c
  2790  00430A  0060  F0F3  FFE6   	movff	btemp,postinc1
  2791  004310  0060  F0F7  FFE6   	movff	btemp+1,postinc1
  2792                           
  2793                           ;stkvar	_fmt @ sp[(-4)+-2]
  2794  004316  0EFA               	movlw	-6
  2795  004318  50E3               	movf	plusw1,w,c
  2796  00431A  6EE6               	movwf	postinc1,c
  2797  00431C  0E00               	movlw	0
  2798  00431E  6EE6               	movwf	postinc1,c
  2799  004320  0E00               	movlw	0
  2800  004322  6EE6               	movwf	postinc1,c
  2801  004324  EC12  F01F         	call	_vfprintf	;wreg free
  2802                           
  2803                           ; _printf: autosize = 2, savesize = 0, parsavesize = 0, tempsize = 0 parsize = 3, argsiz
      +                          e = 1, vargsize = 0
  2804  004328  52E5               	movf	postdec1,f,c
  2805  00432A  52E5               	movf	postdec1,f,c
  2806  00432C  52E5               	movf	postdec1,f,c
  2807  00432E  50E7               	movf	indf1,w,c
  2808  004330  5EE1               	subwf	fsr1l,f,c
  2809  004332  0E00               	movlw	0
  2810  004334  5AE2               	subwfb	fsr1h,f,c
  2811  004336  0012               	return		;funcret
  2812  004338                     __end_of_printf:
  2813                           	opt callstack 0
  2814                           
  2815 ;; *************** function _vfprintf *****************
  2816 ;; Defined at:
  2817 ;;		line 1368 in file "/opt/microchip/xc8/v2.05/pic/sources/c99/common/doprnt.c"
  2818 ;; Parameters:    Size  Location     Type
  2819 ;;  fp              2  [STACK] PTR struct _IO_FILE
  2820 ;;		 -> f(5), NULL(0), 
  2821 ;;  fmt             1  [STACK] PTR const unsigned char 
  2822 ;;		 -> STR_4(3), STR_3(3), STR_1(10), 
  2823 ;;  ap              2  [STACK] PTR PTR void 
  2824 ;;		 -> ap(2), ap(2), 
  2825 ;; Auto vars:     Size  Location     Type
  2826 ;;  cfmt            1  [STACK] PTR unsigned char 
  2827 ;;		 -> STR_4(3), STR_3(3), STR_1(10), 
  2828 ;; Return value:  Size  Location     Type
  2829 ;;                  2  [STACK] int 
  2830 ;; Registers used:
  2831 ;;		wreg, fsr0l, fsr0h, fsr1l, fsr1h, fsr2l, fsr2h, status,2, status,0, btemp, btemp+1, btemp+8, btemp+9, btemp+10, btem
      +p+11, btemp+16, btemp+17, btemp+18, btemp+19, btemp+20, btemp+21, btemp+22, btemp+23, tblptrl, tblptrh, tblptru, prodl
  2832 ;; Tracked objects:
  2833 ;;		On entry : 0/3D
  2834 ;;		On exit  : 0/0
  2835 ;;		Unchanged: 0/0
  2836 ;; Data sizes:     COMRAM   BANK0   BANK1   BANK2   BANK3   BANK4   BANK5   BANK6   BANK7   BANK8   BANK9  BANK10  BANK1
      +1  BANK12  BANK13  BANK14  BANK15  BANK16  BANK17  BANK18  BANK19  BANK20  BANK21  BANK22  BANK23  BANK24  BANK25  BANK2
      +6  BANK27  BANK28  BANK29  BANK30  BANK31
  2837 ;;      Params:         0       0       0       0       0       0       0       0       0       0       0       0       
      +0       0       0       0       0       0       0       0       0       0       0       0       0       0       0       
      +0       0       0       0       0       0
  2838 ;;      Locals:         0       0       0       0       0       0       0       0       0       0       0       0       
      +0       0       0       0       0       0       0       0       0       0       0       0       0       0       0       
      +0       0       0       0       0       0
  2839 ;;      Temps:          0       0       0       0       0       0       0       0       0       0       0       0       
      +0       0       0       0       0       0       0       0       0       0       0       0       0       0       0       
      +0       0       0       0       0       0
  2840 ;;      Totals:         0       0       0       0       0       0       0       0       0       0       0       0       
      +0       0       0       0       0       0       0       0       0       0       0       0       0       0       0       
      +0       0       0       0       0       0
  2841 ;;Total ram usage:        0 bytes
  2842 ;; Hardware stack levels used:    1
  2843 ;; Hardware stack levels required when called:   10
  2844 ;; This function calls:
  2845 ;;		_vfpfcnvrt
  2846 ;; This function is called by:
  2847 ;;		_sprintf
  2848 ;;		_printf
  2849 ;; This function uses a reentrant model
  2850 ;;
  2851                           
  2852                           	psect	text17
  2853  003E24                     __ptext17:
  2854                           	opt callstack 0
  2855  003E24                     _vfprintf:
  2856                           	opt callstack 0
  2857                           
  2858                           ; autosize = 1, savesize = 0, parsavesize = 0, tempsize = 0 parsize = 5, argsize = 5 var
      +                          gsize = 0, retsize = 0 argfudge = 0
  2859  003E24  52E6               	movf	postinc1,f,c
  2860                           
  2861                           ;/opt/microchip/xc8/v2.05/pic/sources/c99/common/doprnt.c: 1368: int vfprintf(FILE *fp, 
      +                          const char *fmt, va_list ap);/opt/microchip/xc8/v2.05/pic/sources/c99/common/doprnt.c: 1
      +                          369: {;/opt/microchip/xc8/v2.05/pic/sources/c99/common/doprnt.c: 1371:     char *cfmt;;/
      +                          opt/microchip/xc8/v2.05/pic/sources/c99/common/doprnt.c: 1373:     cfmt = (char *)fmt;
  2862                           ;stkvar	_fmt @ sp[(-1)+-3]
  2863                           
  2864                           ;incstack = 0
  2865  003E26  0EFC               	movlw	-4
  2866  003E28  006F FF8C  F047    	movff	plusw1,btemp+11
  2867                           
  2868                           ;stkvar	_cfmt @ sp[(-1)+0]
  2869  003E2E  0EFF               	movlw	-1
  2870  003E30  0060  F11F  FFE3   	movff	btemp+11,plusw1
  2871                           
  2872                           ;/opt/microchip/xc8/v2.05/pic/sources/c99/common/doprnt.c: 1374:     nout = 0;
  2873  003E36  6A28               	clrf	_nout,c
  2874  003E38  6A29               	clrf	_nout+1,c
  2875                           
  2876                           ;/opt/microchip/xc8/v2.05/pic/sources/c99/common/doprnt.c: 1375:     while (*cfmt) {
  2877  003E3A  D020               	goto	l5033
  2878  003E3C                     l5031:
  2879                           
  2880                           ;/opt/microchip/xc8/v2.05/pic/sources/c99/common/doprnt.c: 1376:         nout += vfpfcnv
      +                          rt(fp, &cfmt, ap);
  2881                           ;stkvar	_ap @ sp[(-1)+-5]
  2882  003E3C  0EFA               	movlw	-6
  2883  003E3E  006F FF8F FFE6     	movff	plusw1,postinc1
  2884  003E44  006F FF8F FFE6     	movff	plusw1,postinc1
  2885                           
  2886                           ;stkvar	_cfmt @ sp[(-3)+0]
  2887  003E4A  0EFD               	movlw	253
  2888  003E4C  24E1               	addwf	fsr1l,w,c
  2889  003E4E  6E3C               	movwf	btemp,c
  2890  003E50  0EFF               	movlw	255
  2891  003E52  20E2               	addwfc	fsr1h,w,c
  2892  003E54  6E3D               	movwf	btemp+1,c
  2893  003E56  0060  F0F3  FFE6   	movff	btemp,postinc1
  2894  003E5C  0060  F0F7  FFE6   	movff	btemp+1,postinc1
  2895                           
  2896                           ;stkvar	_fp @ sp[(-5)+-2]
  2897  003E62  0EF9               	movlw	-7
  2898  003E64  006F FF8F FFE6     	movff	plusw1,postinc1
  2899  003E6A  006F FF8F FFE6     	movff	plusw1,postinc1
  2900  003E70  EC0A  F010         	call	_vfpfcnvrt	;wreg free
  2901  003E74  503C               	movf	btemp,w,c
  2902  003E76  2628               	addwf	_nout,f,c
  2903  003E78  503D               	movf	btemp+1,w,c
  2904  003E7A  2229               	addwfc	_nout+1,f,c
  2905  003E7C                     l5033:
  2906                           
  2907                           ;/opt/microchip/xc8/v2.05/pic/sources/c99/common/doprnt.c: 1375:     while (*cfmt) {
  2908                           ;stkvar	_cfmt @ sp[(-1)+0]
  2909  003E7C  50E1               	movf	fsr1l,w,c
  2910  003E7E  0FFF               	addlw	-1
  2911  003E80  6ED9               	movwf	fsr2l,c
  2912  003E82  50E2               	movf	fsr1h,w,c
  2913  003E84  6EDA               	movwf	fsr2h,c
  2914  003E86  0EFF               	movlw	255
  2915  003E88  22DA               	addwfc	fsr2h,f,c
  2916  003E8A  006F FF7F FFF6     	movff	indf2,tblptrl
  2917  003E90                     	if	1	;There is more than 1 active tblptr byte
  2918  003E90  0E20               	movlw	high __smallconst
  2919  003E92  6EF7               	movwf	tblptrh,c
  2920  003E94                     	endif
  2921  003E94                     	if	0	;tblptru may be non-zero
  2922  003E94                     	endif
  2923  003E94                     	if	1	;Program memory is > 0xFFFF, there are 3 active tblptr bytes
  2924  003E94  0E00               	movlw	low (__smallconst shr (0+16))
  2925  003E96  6EF8               	movwf	tblptru,c
  2926  003E98                     	endif
  2927  003E98  0008               	tblrd		*
  2928  003E9A  50F5               	movf	tablat,w,c
  2929  003E9C  0900               	iorlw	0
  2930  003E9E  A4D8               	btfss	status,2,c
  2931  003EA0  D7CD               	goto	l5031
  2932                           
  2933                           ;/opt/microchip/xc8/v2.05/pic/sources/c99/common/doprnt.c: 1378:     return nout;
  2934  003EA2  0060  F0A0  F03C   	movff	_nout,btemp
  2935  003EA8  0060  F0A4  F03D   	movff	_nout+1,btemp+1
  2936                           
  2937                           ; _vfprintf: autosize = 1, savesize = 0, parsavesize = 0, tempsize = 0 parsize = 5, args
      +                          ize = 5, vargsize = 0
  2938  003EAE  0EFA               	movlw	250
  2939  003EB0  26E1               	addwf	fsr1l,f,c
  2940  003EB2  0EFF               	movlw	255
  2941  003EB4  22E2               	addwfc	fsr1h,f,c
  2942  003EB6  0012               	return		;funcret
  2943  003EB8                     __end_of_vfprintf:
  2944                           	opt callstack 0
  2945                           
  2946 ;; *************** function _vfpfcnvrt *****************
  2947 ;; Defined at:
  2948 ;;		line 670 in file "/opt/microchip/xc8/v2.05/pic/sources/c99/common/doprnt.c"
  2949 ;; Parameters:    Size  Location     Type
  2950 ;;  fp              2  [STACK] PTR struct _IO_FILE
  2951 ;;		 -> f(5), NULL(0), 
  2952 ;;  fmt             2  [STACK] PTR PTR unsigned char 
  2953 ;;		 -> cfmt(1), 
  2954 ;;  ap              2  [STACK] PTR PTR void 
  2955 ;;		 -> ap(2), ap(2), 
  2956 ;; Auto vars:     Size  Location     Type
  2957 ;;  llu             8  [STACK] unsigned long long 
  2958 ;;  ll              8  [STACK] long long 
  2959 ;;  f               4    0        long long 
  2960 ;;  vp              3    0        PTR void 
  2961 ;;  ct              3    0        unsigned char [3]
  2962 ;;  cp              2  [STACK] PTR unsigned char 
  2963 ;;		 -> ?_printf(2), ?_sprintf(2), V(69), 
  2964 ;;  i               2    0        int 
  2965 ;;  done            2    0        int 
  2966 ;;  c               1  [STACK] unsigned char 
  2967 ;; Return value:  Size  Location     Type
  2968 ;;                  2  [STACK] int 
  2969 ;; Registers used:
  2970 ;;		wreg, fsr0l, fsr0h, fsr1l, fsr1h, fsr2l, fsr2h, status,2, status,0, btemp, btemp+1, btemp+8, btemp+9, btemp+10, btem
      +p+11, btemp+16, btemp+17, btemp+18, btemp+19, btemp+20, btemp+21, btemp+22, btemp+23, tblptrl, tblptrh, tblptru, prodl
  2971 ;; Tracked objects:
  2972 ;;		On entry : 0/3D
  2973 ;;		On exit  : 0/0
  2974 ;;		Unchanged: 0/0
  2975 ;; Data sizes:     COMRAM   BANK0   BANK1   BANK2   BANK3   BANK4   BANK5   BANK6   BANK7   BANK8   BANK9  BANK10  BANK1
      +1  BANK12  BANK13  BANK14  BANK15  BANK16  BANK17  BANK18  BANK19  BANK20  BANK21  BANK22  BANK23  BANK24  BANK25  BANK2
      +6  BANK27  BANK28  BANK29  BANK30  BANK31
  2976 ;;      Params:         0       0       0       0       0       0       0       0       0       0       0       0       
      +0       0       0       0       0       0       0       0       0       0       0       0       0       0       0       
      +0       0       0       0       0       0
  2977 ;;      Locals:         0       0       0       0       0       0       0       0       0       0       0       0       
      +0       0       0       0       0       0       0       0       0       0       0       0       0       0       0       
      +0       0       0       0       0       0
  2978 ;;      Temps:          0       0       0       0       0       0       0       0       0       0       0       0       
      +0       0       0       0       0       0       0       0       0       0       0       0       0       0       0       
      +0       0       0       0       0       0
  2979 ;;      Totals:         0       0       0       0       0       0       0       0       0       0       0       0       
      +0       0       0       0       0       0       0       0       0       0       0       0       0       0       0       
      +0       0       0       0       0       0
  2980 ;;Total ram usage:        0 bytes
  2981 ;; Hardware stack levels used:    1
  2982 ;; Hardware stack levels required when called:    9
  2983 ;; This function calls:
  2984 ;;		_dtoa
  2985 ;;		_fputc
  2986 ;;		_stoa
  2987 ;;		_xtoa
  2988 ;; This function is called by:
  2989 ;;		_vfprintf
  2990 ;; This function uses a reentrant model
  2991 ;;
  2992                           
  2993                           	psect	text18
  2994  002014                     __ptext18:
  2995                           	opt callstack 0
  2996  002014                     _vfpfcnvrt:
  2997                           	opt callstack 0
  2998                           
  2999                           ; autosize = 19, savesize = 0, parsavesize = 0, tempsize = 0 parsize = 6, argsize = 6 va
      +                          rgsize = 0, retsize = 0 argfudge = 0
  3000  002014  0E13               	movlw	19
  3001  002016  26E1               	addwf	fsr1l,f,c
  3002  002018  0E00               	movlw	0
  3003  00201A  22E2               	addwfc	fsr1h,f,c
  3004                           
  3005                           ;/opt/microchip/xc8/v2.05/pic/sources/c99/common/doprnt.c: 670: static int vfpfcnvrt(FIL
      +                          E *fp, char *fmt[], va_list ap);/opt/microchip/xc8/v2.05/pic/sources/c99/common/doprnt.c
      +                          : 671: {;/opt/microchip/xc8/v2.05/pic/sources/c99/common/doprnt.c: 672:     char c, *cp,
      +                           ct[3];;/opt/microchip/xc8/v2.05/pic/sources/c99/common/doprnt.c: 673:     int done, i;;
      +                          /opt/microchip/xc8/v2.05/pic/sources/c99/common/doprnt.c: 674:     long long ll;;/opt/mi
      +                          crochip/xc8/v2.05/pic/sources/c99/common/doprnt.c: 675:     unsigned long long llu;
  3006                           ;stkvar	_fmt @ sp[(-19)+-4]
  3007                           
  3008                           ;incstack = 0
  3009  00201C  0EE9               	movlw	-23
  3010  00201E  006F FF8F FFD9     	movff	plusw1,fsr2l
  3011  002024  0EEA               	movlw	-22
  3012  002026  006F FF8F FFDA     	movff	plusw1,fsr2h
  3013  00202C  006F FF7F FFF6     	movff	indf2,tblptrl
  3014  002032                     	if	1	;There is more than 1 active tblptr byte
  3015  002032  0E20               	movlw	high __smallconst
  3016  002034  6EF7               	movwf	tblptrh,c
  3017  002036                     	endif
  3018  002036                     	if	0	;tblptru may be non-zero
  3019  002036                     	endif
  3020  002036                     	if	1	;Program memory is > 0xFFFF, there are 3 active tblptr bytes
  3021  002036  0E00               	movlw	low (__smallconst shr (0+16))
  3022  002038  6EF8               	movwf	tblptru,c
  3023  00203A                     	endif
  3024  00203A  0008               	tblrd		*
  3025  00203C  50F5               	movf	tablat,w,c
  3026  00203E  0A25               	xorlw	37
  3027  002040  A4D8               	btfss	status,2,c
  3028  002042  D1F1               	goto	l4971
  3029                           
  3030                           ;/opt/microchip/xc8/v2.05/pic/sources/c99/common/doprnt.c: 681:         ++*fmt;
  3031                           ;stkvar	_fmt @ sp[(-19)+-4]
  3032  002044  0EE9               	movlw	-23
  3033  002046  006F FF8F FFD9     	movff	plusw1,fsr2l
  3034  00204C  0EEA               	movlw	-22
  3035  00204E  006F FF8F FFDA     	movff	plusw1,fsr2h
  3036  002054  2ADF               	incf	indf2,f,c
  3037                           
  3038                           ;/opt/microchip/xc8/v2.05/pic/sources/c99/common/doprnt.c: 683:         flags = width = 
      +                          0;
  3039  002056  6A2A               	clrf	_width,c
  3040  002058  6A2B               	clrf	_width+1,c
  3041  00205A  6A2E               	clrf	_flags,c
  3042  00205C  6A2F               	clrf	_flags+1,c
  3043                           
  3044                           ;/opt/microchip/xc8/v2.05/pic/sources/c99/common/doprnt.c: 684:         prec = -1;
  3045  00205E  682C               	setf	_prec,c
  3046  002060  682D               	setf	_prec+1,c
  3047                           
  3048                           ;/opt/microchip/xc8/v2.05/pic/sources/c99/common/doprnt.c: 825:         if ((*fmt[0] == 
      +                          'd') || (*fmt[0] == 'i')) {
  3049                           ;stkvar	_fmt @ sp[(-19)+-4]
  3050  002062  0EE9               	movlw	-23
  3051  002064  006F FF8F FFD9     	movff	plusw1,fsr2l
  3052  00206A  0EEA               	movlw	-22
  3053  00206C  006F FF8F FFDA     	movff	plusw1,fsr2h
  3054  002072  006F FF7F FFF6     	movff	indf2,tblptrl
  3055  002078                     	if	1	;There is more than 1 active tblptr byte
  3056  002078  0E20               	movlw	high __smallconst
  3057  00207A  6EF7               	movwf	tblptrh,c
  3058  00207C                     	endif
  3059  00207C                     	if	0	;tblptru may be non-zero
  3060  00207C                     	endif
  3061  00207C                     	if	1	;Program memory is > 0xFFFF, there are 3 active tblptr bytes
  3062  00207C  0E00               	movlw	low (__smallconst shr (0+16))
  3063  00207E  6EF8               	movwf	tblptru,c
  3064  002080                     	endif
  3065  002080  0008               	tblrd		*
  3066  002082  50F5               	movf	tablat,w,c
  3067  002084  0A64               	xorlw	100
  3068  002086  B4D8               	btfsc	status,2,c
  3069  002088  D014               	goto	u3390
  3070                           
  3071                           ;stkvar	_fmt @ sp[(-19)+-4]
  3072  00208A  0EE9               	movlw	-23
  3073  00208C  006F FF8F FFD9     	movff	plusw1,fsr2l
  3074  002092  0EEA               	movlw	-22
  3075  002094  006F FF8F FFDA     	movff	plusw1,fsr2h
  3076  00209A  006F FF7F FFF6     	movff	indf2,tblptrl
  3077  0020A0                     	if	1	;There is more than 1 active tblptr byte
  3078  0020A0  0E20               	movlw	high __smallconst
  3079  0020A2  6EF7               	movwf	tblptrh,c
  3080  0020A4                     	endif
  3081  0020A4                     	if	0	;tblptru may be non-zero
  3082  0020A4                     	endif
  3083  0020A4                     	if	1	;Program memory is > 0xFFFF, there are 3 active tblptr bytes
  3084  0020A4  0E00               	movlw	low (__smallconst shr (0+16))
  3085  0020A6  6EF8               	movwf	tblptru,c
  3086  0020A8                     	endif
  3087  0020A8  0008               	tblrd		*
  3088  0020AA  50F5               	movf	tablat,w,c
  3089  0020AC  0A69               	xorlw	105
  3090  0020AE  A4D8               	btfss	status,2,c
  3091  0020B0  D073               	goto	l4931
  3092  0020B2                     u3390:
  3093                           
  3094                           ;/opt/microchip/xc8/v2.05/pic/sources/c99/common/doprnt.c: 827:             ++*fmt;
  3095                           ;stkvar	_fmt @ sp[(-19)+-4]
  3096  0020B2  0EE9               	movlw	-23
  3097  0020B4  006F FF8F FFD9     	movff	plusw1,fsr2l
  3098  0020BA  0EEA               	movlw	-22
  3099  0020BC  006F FF8F FFDA     	movff	plusw1,fsr2h
  3100  0020C2  2ADF               	incf	indf2,f,c
  3101                           
  3102                           ;/opt/microchip/xc8/v2.05/pic/sources/c99/common/doprnt.c: 828:             ll = (long l
      +                          ong)(*(int *)__va_arg(*(int **)ap, (int)0));
  3103                           ;stkvar	_ap @ sp[(-19)+-6]
  3104  0020C4  0EE7               	movlw	-25
  3105  0020C6  006F FF8F FFD9     	movff	plusw1,fsr2l
  3106  0020CC  0EE8               	movlw	-24
  3107  0020CE  006F FF8F FFDA     	movff	plusw1,fsr2h
  3108  0020D4  0E02               	movlw	2
  3109  0020D6  5EDE               	subwf	postinc2,f,c
  3110  0020D8  0E00               	movlw	0
  3111  0020DA  5ADD               	subwfb	postdec2,f,c
  3112  0020DC  006F FF78  F046    	movff	postinc2,btemp+10
  3113  0020E2  006F FF74  F047    	movff	postdec2,btemp+11
  3114  0020E8  0060  F11B  FFD9   	movff	btemp+10,fsr2l
  3115  0020EE  0060  F11F  FFDA   	movff	btemp+11,fsr2h
  3116  0020F4  006F FF78  F046    	movff	postinc2,btemp+10
  3117  0020FA  006F FF74  F047    	movff	postdec2,btemp+11
  3118                           
  3119                           ;stkvar	_ll @ sp[(-19)+8]
  3120  002100  0EF5               	movlw	-11
  3121  002102  0060  F11B  FFE3   	movff	btemp+10,plusw1
  3122  002108  0EF6               	movlw	-10
  3123  00210A  0060  F11F  FFE3   	movff	btemp+11,plusw1
  3124  002110  6A3C               	clrf	btemp,c
  3125  002112  BEE3               	btfsc	plusw1,7,c
  3126  002114  683C               	setf	btemp,c
  3127  002116  0EF7               	movlw	-9
  3128  002118  0060  F0F3  FFE3   	movff	btemp,plusw1
  3129  00211E  0EF8               	movlw	-8
  3130  002120  0060  F0F3  FFE3   	movff	btemp,plusw1
  3131  002126  0EF9               	movlw	-7
  3132  002128  0060  F0F3  FFE3   	movff	btemp,plusw1
  3133  00212E  0EFA               	movlw	-6
  3134  002130  0060  F0F3  FFE3   	movff	btemp,plusw1
  3135  002136  0EFB               	movlw	-5
  3136  002138  0060  F0F3  FFE3   	movff	btemp,plusw1
  3137  00213E  0EFC               	movlw	-4
  3138  002140  0060  F0F3  FFE3   	movff	btemp,plusw1
  3139                           
  3140                           ;/opt/microchip/xc8/v2.05/pic/sources/c99/common/doprnt.c: 830:             return dtoa(
      +                          fp, ll);
  3141                           ;stkvar	_ll @ sp[(-19)+8]
  3142  002146  50E1               	movf	fsr1l,w,c
  3143  002148  0FF5               	addlw	-11
  3144  00214A  6ED9               	movwf	fsr2l,c
  3145  00214C  50E2               	movf	fsr1h,w,c
  3146  00214E  6EDA               	movwf	fsr2h,c
  3147  002150  0EFF               	movlw	255
  3148  002152  22DA               	addwfc	fsr2h,f,c
  3149  002154  006F FF7B FFE6     	movff	postinc2,postinc1
  3150  00215A  006F FF7B FFE6     	movff	postinc2,postinc1
  3151  002160  006F FF7B FFE6     	movff	postinc2,postinc1
  3152  002166  006F FF7B FFE6     	movff	postinc2,postinc1
  3153  00216C  006F FF7B FFE6     	movff	postinc2,postinc1
  3154  002172  006F FF7B FFE6     	movff	postinc2,postinc1
  3155  002178  006F FF7B FFE6     	movff	postinc2,postinc1
  3156  00217E  006F FF7B FFE6     	movff	postinc2,postinc1
  3157                           
  3158                           ;stkvar	_fp @ sp[(-27)+-2]
  3159  002184  0EE3               	movlw	-29
  3160  002186  006F FF8F FFE6     	movff	plusw1,postinc1
  3161  00218C  006F FF8F FFE6     	movff	plusw1,postinc1
  3162  002192  EC3F  F012         	call	_dtoa	;wreg free
  3163  002196  D16E               	goto	l1430
  3164  002198                     l4931:
  3165                           
  3166                           ;/opt/microchip/xc8/v2.05/pic/sources/c99/common/doprnt.c: 1149:         if (*fmt[0] == 
      +                          's') {
  3167                           ;stkvar	_fmt @ sp[(-19)+-4]
  3168  002198  0EE9               	movlw	-23
  3169  00219A  006F FF8F FFD9     	movff	plusw1,fsr2l
  3170  0021A0  0EEA               	movlw	-22
  3171  0021A2  006F FF8F FFDA     	movff	plusw1,fsr2h
  3172  0021A8  006F FF7F FFF6     	movff	indf2,tblptrl
  3173  0021AE                     	if	1	;There is more than 1 active tblptr byte
  3174  0021AE  0E20               	movlw	high __smallconst
  3175  0021B0  6EF7               	movwf	tblptrh,c
  3176  0021B2                     	endif
  3177  0021B2                     	if	0	;tblptru may be non-zero
  3178  0021B2                     	endif
  3179  0021B2                     	if	1	;Program memory is > 0xFFFF, there are 3 active tblptr bytes
  3180  0021B2  0E00               	movlw	low (__smallconst shr (0+16))
  3181  0021B4  6EF8               	movwf	tblptru,c
  3182  0021B6                     	endif
  3183  0021B6  0008               	tblrd		*
  3184  0021B8  50F5               	movf	tablat,w,c
  3185  0021BA  0A73               	xorlw	115
  3186  0021BC  A4D8               	btfss	status,2,c
  3187  0021BE  D040               	goto	l4941
  3188                           
  3189                           ;/opt/microchip/xc8/v2.05/pic/sources/c99/common/doprnt.c: 1151:             ++*fmt;
  3190                           ;stkvar	_fmt @ sp[(-19)+-4]
  3191  0021C0  0EE9               	movlw	-23
  3192  0021C2  006F FF8F FFD9     	movff	plusw1,fsr2l
  3193  0021C8  0EEA               	movlw	-22
  3194  0021CA  006F FF8F FFDA     	movff	plusw1,fsr2h
  3195  0021D0  2ADF               	incf	indf2,f,c
  3196                           
  3197                           ;/opt/microchip/xc8/v2.05/pic/sources/c99/common/doprnt.c: 1152:             cp = (*(cha
      +                          r * *)__va_arg(*(char * **)ap, (char *)0));
  3198                           ;stkvar	_ap @ sp[(-19)+-6]
  3199  0021D2  0EE7               	movlw	-25
  3200  0021D4  006F FF8F FFD9     	movff	plusw1,fsr2l
  3201  0021DA  0EE8               	movlw	-24
  3202  0021DC  006F FF8F FFDA     	movff	plusw1,fsr2h
  3203  0021E2  0E02               	movlw	2
  3204  0021E4  5EDE               	subwf	postinc2,f,c
  3205  0021E6  0E00               	movlw	0
  3206  0021E8  5ADD               	subwfb	postdec2,f,c
  3207  0021EA  006F FF78  F046    	movff	postinc2,btemp+10
  3208  0021F0  006F FF74  F047    	movff	postdec2,btemp+11
  3209  0021F6  0060  F11B  FFD9   	movff	btemp+10,fsr2l
  3210  0021FC  0060  F11F  FFDA   	movff	btemp+11,fsr2h
  3211  002202  006F FF78  F046    	movff	postinc2,btemp+10
  3212  002208  006F FF74  F047    	movff	postdec2,btemp+11
  3213                           
  3214                           ;stkvar	_cp @ sp[(-19)+16]
  3215  00220E  0EFE               	movlw	-2
  3216  002210  0060  F11F  FFE3   	movff	btemp+11,plusw1
  3217  002216  0EFD               	movlw	-3
  3218  002218  0060  F11B  FFE3   	movff	btemp+10,plusw1
  3219                           
  3220                           ;/opt/microchip/xc8/v2.05/pic/sources/c99/common/doprnt.c: 1154:             return stoa
      +                          (fp, cp);
  3221                           ;stkvar	_cp @ sp[(-19)+16]
  3222  00221E  0EFD               	movlw	-3
  3223  002220  006F FF8F FFE6     	movff	plusw1,postinc1
  3224  002226  006F FF8F FFE6     	movff	plusw1,postinc1
  3225                           
  3226                           ;stkvar	_fp @ sp[(-21)+-2]
  3227  00222C  0EE9               	movlw	-23
  3228  00222E  006F FF8F FFE6     	movff	plusw1,postinc1
  3229  002234  006F FF8F FFE6     	movff	plusw1,postinc1
  3230  00223A  ECA2  F017         	call	_stoa	;wreg free
  3231  00223E  D11A               	goto	l1430
  3232  002240                     l4941:
  3233                           
  3234                           ;/opt/microchip/xc8/v2.05/pic/sources/c99/common/doprnt.c: 1274:         if ((*fmt[0] ==
      +                           'x') || (*fmt[0] == 'X')) {
  3235                           ;stkvar	_fmt @ sp[(-19)+-4]
  3236  002240  0EE9               	movlw	-23
  3237  002242  006F FF8F FFD9     	movff	plusw1,fsr2l
  3238  002248  0EEA               	movlw	-22
  3239  00224A  006F FF8F FFDA     	movff	plusw1,fsr2h
  3240  002250  006F FF7F FFF6     	movff	indf2,tblptrl
  3241  002256                     	if	1	;There is more than 1 active tblptr byte
  3242  002256  0E20               	movlw	high __smallconst
  3243  002258  6EF7               	movwf	tblptrh,c
  3244  00225A                     	endif
  3245  00225A                     	if	0	;tblptru may be non-zero
  3246  00225A                     	endif
  3247  00225A                     	if	1	;Program memory is > 0xFFFF, there are 3 active tblptr bytes
  3248  00225A  0E00               	movlw	low (__smallconst shr (0+16))
  3249  00225C  6EF8               	movwf	tblptru,c
  3250  00225E                     	endif
  3251  00225E  0008               	tblrd		*
  3252  002260  50F5               	movf	tablat,w,c
  3253  002262  0A78               	xorlw	120
  3254  002264  B4D8               	btfsc	status,2,c
  3255  002266  D014               	goto	u3420
  3256                           
  3257                           ;stkvar	_fmt @ sp[(-19)+-4]
  3258  002268  0EE9               	movlw	-23
  3259  00226A  006F FF8F FFD9     	movff	plusw1,fsr2l
  3260  002270  0EEA               	movlw	-22
  3261  002272  006F FF8F FFDA     	movff	plusw1,fsr2h
  3262  002278  006F FF7F FFF6     	movff	indf2,tblptrl
  3263  00227E                     	if	1	;There is more than 1 active tblptr byte
  3264  00227E  0E20               	movlw	high __smallconst
  3265  002280  6EF7               	movwf	tblptrh,c
  3266  002282                     	endif
  3267  002282                     	if	0	;tblptru may be non-zero
  3268  002282                     	endif
  3269  002282                     	if	1	;Program memory is > 0xFFFF, there are 3 active tblptr bytes
  3270  002282  0E00               	movlw	low (__smallconst shr (0+16))
  3271  002284  6EF8               	movwf	tblptru,c
  3272  002286                     	endif
  3273  002286  0008               	tblrd		*
  3274  002288  50F5               	movf	tablat,w,c
  3275  00228A  0A58               	xorlw	88
  3276  00228C  A4D8               	btfss	status,2,c
  3277  00228E  D091               	goto	l4955
  3278  002290                     u3420:
  3279                           
  3280                           ;/opt/microchip/xc8/v2.05/pic/sources/c99/common/doprnt.c: 1276:             c = (*fmt)[
      +                          0];
  3281                           ;stkvar	_fmt @ sp[(-19)+-4]
  3282  002290  0EE9               	movlw	-23
  3283  002292  006F FF8F FFD9     	movff	plusw1,fsr2l
  3284  002298  0EEA               	movlw	-22
  3285  00229A  006F FF8F FFDA     	movff	plusw1,fsr2h
  3286  0022A0  006F FF7F FFF6     	movff	indf2,tblptrl
  3287  0022A6                     	if	1	;There is more than 1 active tblptr byte
  3288  0022A6  0E20               	movlw	high __smallconst
  3289  0022A8  6EF7               	movwf	tblptrh,c
  3290  0022AA                     	endif
  3291  0022AA                     	if	0	;tblptru may be non-zero
  3292  0022AA                     	endif
  3293  0022AA                     	if	1	;Program memory is > 0xFFFF, there are 3 active tblptr bytes
  3294  0022AA  0E00               	movlw	low (__smallconst shr (0+16))
  3295  0022AC  6EF8               	movwf	tblptru,c
  3296  0022AE                     	endif
  3297                           
  3298                           ;stkvar	_c @ sp[(-19)+18]
  3299  0022AE  0008               	tblrd		*
  3300  0022B0  0EFF               	movlw	-1
  3301  0022B2  006F FFD7 FFE3     	movff	tablat,plusw1
  3302                           
  3303                           ;/opt/microchip/xc8/v2.05/pic/sources/c99/common/doprnt.c: 1277:             ++*fmt;
  3304                           ;stkvar	_fmt @ sp[(-19)+-4]
  3305  0022B8  0EE9               	movlw	-23
  3306  0022BA  006F FF8F FFD9     	movff	plusw1,fsr2l
  3307  0022C0  0EEA               	movlw	-22
  3308  0022C2  006F FF8F FFDA     	movff	plusw1,fsr2h
  3309  0022C8  2ADF               	incf	indf2,f,c
  3310                           
  3311                           ;/opt/microchip/xc8/v2.05/pic/sources/c99/common/doprnt.c: 1278:             llu = (unsi
      +                          gned long long)(*(unsigned int *)__va_arg(*(unsigned int **)ap, (unsigned int)0));
  3312                           ;stkvar	_ap @ sp[(-19)+-6]
  3313  0022CA  0EE7               	movlw	-25
  3314  0022CC  006F FF8F FFD9     	movff	plusw1,fsr2l
  3315  0022D2  0EE8               	movlw	-24
  3316  0022D4  006F FF8F FFDA     	movff	plusw1,fsr2h
  3317  0022DA  0E02               	movlw	2
  3318  0022DC  5EDE               	subwf	postinc2,f,c
  3319  0022DE  0E00               	movlw	0
  3320  0022E0  5ADD               	subwfb	postdec2,f,c
  3321  0022E2  006F FF78  F046    	movff	postinc2,btemp+10
  3322  0022E8  006F FF74  F047    	movff	postdec2,btemp+11
  3323  0022EE  0060  F11B  FFD9   	movff	btemp+10,fsr2l
  3324  0022F4  0060  F11F  FFDA   	movff	btemp+11,fsr2h
  3325  0022FA  006F FF78  F046    	movff	postinc2,btemp+10
  3326  002300  006F FF74  F047    	movff	postdec2,btemp+11
  3327  002306  5046               	movf	btemp+10,w,c
  3328  002308  6E4C               	movwf	btemp+16,c
  3329  00230A  5047               	movf	btemp+11,w,c
  3330  00230C  6E4D               	movwf	btemp+17,c
  3331  00230E  6A4E               	clrf	btemp+18,c
  3332  002310  6A4F               	clrf	btemp+19,c
  3333  002312  6A50               	clrf	btemp+20,c
  3334  002314  6A51               	clrf	btemp+21,c
  3335  002316  6A52               	clrf	btemp+22,c
  3336  002318  6A53               	clrf	btemp+23,c
  3337                           
  3338                           ;stkvar	_llu @ sp[(-19)+0]
  3339  00231A  0EED               	movlw	-19
  3340  00231C  0060  F133  FFE3   	movff	btemp+16,plusw1
  3341  002322  0EEE               	movlw	-18
  3342  002324  0060  F137  FFE3   	movff	btemp+17,plusw1
  3343  00232A  0EEF               	movlw	-17
  3344  00232C  0060  F13B  FFE3   	movff	btemp+18,plusw1
  3345  002332  0EF0               	movlw	-16
  3346  002334  0060  F13F  FFE3   	movff	btemp+19,plusw1
  3347  00233A  0EF1               	movlw	-15
  3348  00233C  0060  F143  FFE3   	movff	btemp+20,plusw1
  3349  002342  0EF2               	movlw	-14
  3350  002344  0060  F147  FFE3   	movff	btemp+21,plusw1
  3351  00234A  0EF3               	movlw	-13
  3352  00234C  0060  F14B  FFE3   	movff	btemp+22,plusw1
  3353  002352  0EF4               	movlw	-12
  3354  002354  0060  F14F  FFE3   	movff	btemp+23,plusw1
  3355                           
  3356                           ;/opt/microchip/xc8/v2.05/pic/sources/c99/common/doprnt.c: 1280:             return xtoa
      +                          (fp, llu, c);
  3357                           ;stkvar	_c @ sp[(-19)+18]
  3358  00235A  0EFF               	movlw	-1
  3359  00235C  50E3               	movf	plusw1,w,c
  3360  00235E  6EE6               	movwf	postinc1,c
  3361                           
  3362                           ;stkvar	_llu @ sp[(-20)+0]
  3363  002360  50E1               	movf	fsr1l,w,c
  3364  002362  0FEC               	addlw	-20
  3365  002364  6ED9               	movwf	fsr2l,c
  3366  002366  50E2               	movf	fsr1h,w,c
  3367  002368  6EDA               	movwf	fsr2h,c
  3368  00236A  0EFF               	movlw	255
  3369  00236C  22DA               	addwfc	fsr2h,f,c
  3370  00236E  006F FF7B FFE6     	movff	postinc2,postinc1
  3371  002374  006F FF7B FFE6     	movff	postinc2,postinc1
  3372  00237A  006F FF7B FFE6     	movff	postinc2,postinc1
  3373  002380  006F FF7B FFE6     	movff	postinc2,postinc1
  3374  002386  006F FF7B FFE6     	movff	postinc2,postinc1
  3375  00238C  006F FF7B FFE6     	movff	postinc2,postinc1
  3376  002392  006F FF7B FFE6     	movff	postinc2,postinc1
  3377  002398  006F FF7B FFE6     	movff	postinc2,postinc1
  3378                           
  3379                           ;stkvar	_fp @ sp[(-28)+-2]
  3380  00239E  0EE2               	movlw	-30
  3381  0023A0  006F FF8F FFE6     	movff	plusw1,postinc1
  3382  0023A6  006F FF8F FFE6     	movff	plusw1,postinc1
  3383  0023AC  EC6A  F014         	call	_xtoa	;wreg free
  3384  0023B0  D061               	goto	l1430
  3385  0023B2                     l4955:
  3386                           
  3387                           ;/opt/microchip/xc8/v2.05/pic/sources/c99/common/doprnt.c: 1350:         if ((*fmt)[0] =
      +                          = '%') {
  3388                           ;stkvar	_fmt @ sp[(-19)+-4]
  3389  0023B2  0EE9               	movlw	-23
  3390  0023B4  006F FF8F FFD9     	movff	plusw1,fsr2l
  3391  0023BA  0EEA               	movlw	-22
  3392  0023BC  006F FF8F FFDA     	movff	plusw1,fsr2h
  3393  0023C2  006F FF7F FFF6     	movff	indf2,tblptrl
  3394  0023C8                     	if	1	;There is more than 1 active tblptr byte
  3395  0023C8  0E20               	movlw	high __smallconst
  3396  0023CA  6EF7               	movwf	tblptrh,c
  3397  0023CC                     	endif
  3398  0023CC                     	if	0	;tblptru may be non-zero
  3399  0023CC                     	endif
  3400  0023CC                     	if	1	;Program memory is > 0xFFFF, there are 3 active tblptr bytes
  3401  0023CC  0E00               	movlw	low (__smallconst shr (0+16))
  3402  0023CE  6EF8               	movwf	tblptru,c
  3403  0023D0                     	endif
  3404  0023D0  0008               	tblrd		*
  3405  0023D2  50F5               	movf	tablat,w,c
  3406  0023D4  0A25               	xorlw	37
  3407  0023D6  A4D8               	btfss	status,2,c
  3408  0023D8  D018               	goto	l4965
  3409                           
  3410                           ;/opt/microchip/xc8/v2.05/pic/sources/c99/common/doprnt.c: 1351:             ++*fmt;
  3411                           ;stkvar	_fmt @ sp[(-19)+-4]
  3412  0023DA  0EE9               	movlw	-23
  3413  0023DC  006F FF8F FFD9     	movff	plusw1,fsr2l
  3414  0023E2  0EEA               	movlw	-22
  3415  0023E4  006F FF8F FFDA     	movff	plusw1,fsr2h
  3416  0023EA  2ADF               	incf	indf2,f,c
  3417                           
  3418                           ;/opt/microchip/xc8/v2.05/pic/sources/c99/common/doprnt.c: 1352:             fputc((int)
      +                          '%', fp);
  3419                           ;stkvar	_fp @ sp[(-19)+-2]
  3420  0023EC  0EEB               	movlw	-21
  3421  0023EE  006F FF8F FFE6     	movff	plusw1,postinc1
  3422  0023F4  006F FF8F FFE6     	movff	plusw1,postinc1
  3423  0023FA  0E25               	movlw	37
  3424  0023FC  6EE6               	movwf	postinc1,c
  3425  0023FE  0E00               	movlw	0
  3426  002400  6EE6               	movwf	postinc1,c
  3427  002402  ECE3  F01B         	call	_fputc	;wreg free
  3428  002406                     l4961:
  3429                           
  3430                           ;/opt/microchip/xc8/v2.05/pic/sources/c99/common/doprnt.c: 1353:             return 1;
  3431  002406  0E01               	movlw	1
  3432  002408  D00A               	goto	L4
  3433  00240A                     l4965:
  3434                           
  3435                           ;/opt/microchip/xc8/v2.05/pic/sources/c99/common/doprnt.c: 1357:         ++*fmt;
  3436                           ;stkvar	_fmt @ sp[(-19)+-4]
  3437  00240A  0EE9               	movlw	-23
  3438  00240C  006F FF8F FFD9     	movff	plusw1,fsr2l
  3439  002412  0EEA               	movlw	-22
  3440  002414  006F FF8F FFDA     	movff	plusw1,fsr2h
  3441  00241A  2ADF               	incf	indf2,f,c
  3442                           
  3443                           ;/opt/microchip/xc8/v2.05/pic/sources/c99/common/doprnt.c: 1358:         return 0;
  3444  00241C  0E00               	movlw	0
  3445  00241E                     L4:
  3446  00241E  6E3C               	movwf	btemp,c
  3447  002420  0E00               	movlw	0
  3448  002422  6E3D               	movwf	btemp+1,c
  3449  002424  D027               	goto	l1430
  3450  002426                     l4971:
  3451                           
  3452                           ;/opt/microchip/xc8/v2.05/pic/sources/c99/common/doprnt.c: 1362:     fputc((int)(*fmt)[0
      +                          ], fp);
  3453                           ;stkvar	_fp @ sp[(-19)+-2]
  3454  002426  0EEB               	movlw	-21
  3455  002428  006F FF8F FFE6     	movff	plusw1,postinc1
  3456  00242E  006F FF8F FFE6     	movff	plusw1,postinc1
  3457                           
  3458                           ;stkvar	_fmt @ sp[(-21)+-4]
  3459  002434  0EE7               	movlw	-25
  3460  002436  006F FF8F FFD9     	movff	plusw1,fsr2l
  3461  00243C  0EE8               	movlw	-24
  3462  00243E  006F FF8F FFDA     	movff	plusw1,fsr2h
  3463  002444  006F FF7F FFF6     	movff	indf2,tblptrl
  3464  00244A                     	if	1	;There is more than 1 active tblptr byte
  3465  00244A  0E20               	movlw	high __smallconst
  3466  00244C  6EF7               	movwf	tblptrh,c
  3467  00244E                     	endif
  3468  00244E                     	if	0	;tblptru may be non-zero
  3469  00244E                     	endif
  3470  00244E                     	if	1	;Program memory is > 0xFFFF, there are 3 active tblptr bytes
  3471  00244E  0E00               	movlw	low (__smallconst shr (0+16))
  3472  002450  6EF8               	movwf	tblptru,c
  3473  002452                     	endif
  3474  002452  0008               	tblrd		*
  3475  002454  50F5               	movf	tablat,w,c
  3476  002456  6EE6               	movwf	postinc1,c
  3477  002458  0E00               	movlw	0
  3478  00245A  6EE6               	movwf	postinc1,c
  3479  00245C  ECE3  F01B         	call	_fputc	;wreg free
  3480                           
  3481                           ;/opt/microchip/xc8/v2.05/pic/sources/c99/common/doprnt.c: 1363:     ++*fmt;
  3482                           ;stkvar	_fmt @ sp[(-19)+-4]
  3483  002460  0EE9               	movlw	-23
  3484  002462  006F FF8F FFD9     	movff	plusw1,fsr2l
  3485  002468  0EEA               	movlw	-22
  3486  00246A  006F FF8F FFDA     	movff	plusw1,fsr2h
  3487  002470  2ADF               	incf	indf2,f,c
  3488  002472  D7C9               	goto	l4961
  3489  002474                     l1430:
  3490                           
  3491                           ; _vfpfcnvrt: autosize = 19, savesize = 0, parsavesize = 0, tempsize = 0 parsize = 6, ar
      +                          gsize = 6, vargsize = 0
  3492  002474  0EE7               	movlw	231
  3493  002476  26E1               	addwf	fsr1l,f,c
  3494  002478  0EFF               	movlw	255
  3495  00247A  22E2               	addwfc	fsr1h,f,c
  3496  00247C  0012               	return		;funcret
  3497  00247E                     __end_of_vfpfcnvrt:
  3498                           	opt callstack 0
  3499                           
  3500 ;; *************** function _xtoa *****************
  3501 ;; Defined at:
  3502 ;;		line 623 in file "/opt/microchip/xc8/v2.05/pic/sources/c99/common/doprnt.c"
  3503 ;; Parameters:    Size  Location     Type
  3504 ;;  fp              2  [STACK] PTR struct _IO_FILE
  3505 ;;		 -> f(5), NULL(0), 
  3506 ;;  d               8  [STACK] unsigned long long 
  3507 ;;  x               1  [STACK] unsigned char 
  3508 ;; Auto vars:     Size  Location     Type
  3509 ;;  n               8  [STACK] unsigned long long 
  3510 ;;  c               2  [STACK] int 
  3511 ;;  i               2  [STACK] int 
  3512 ;;  w               2  [STACK] int 
  3513 ;;  p               2  [STACK] int 
  3514 ;; Return value:  Size  Location     Type
  3515 ;;                  2  [STACK] int 
  3516 ;; Registers used:
  3517 ;;		wreg, fsr0l, fsr0h, fsr1l, fsr1h, fsr2l, fsr2h, status,2, status,0, btemp, btemp+1, btemp+8, btemp+9, btemp+10, btem
      +p+11, prodl
  3518 ;; Tracked objects:
  3519 ;;		On entry : 0/3D
  3520 ;;		On exit  : 0/0
  3521 ;;		Unchanged: 0/0
  3522 ;; Data sizes:     COMRAM   BANK0   BANK1   BANK2   BANK3   BANK4   BANK5   BANK6   BANK7   BANK8   BANK9  BANK10  BANK1
      +1  BANK12  BANK13  BANK14  BANK15  BANK16  BANK17  BANK18  BANK19  BANK20  BANK21  BANK22  BANK23  BANK24  BANK25  BANK2
      +6  BANK27  BANK28  BANK29  BANK30  BANK31
  3523 ;;      Params:         0       0       0       0       0       0       0       0       0       0       0       0       
      +0       0       0       0       0       0       0       0       0       0       0       0       0       0       0       
      +0       0       0       0       0       0
  3524 ;;      Locals:         0       0       0       0       0       0       0       0       0       0       0       0       
      +0       0       0       0       0       0       0       0       0       0       0       0       0       0       0       
      +0       0       0       0       0       0
  3525 ;;      Temps:          0       0       0       0       0       0       0       0       0       0       0       0       
      +0       0       0       0       0       0       0       0       0       0       0       0       0       0       0       
      +0       0       0       0       0       0
  3526 ;;      Totals:         0       0       0       0       0       0       0       0       0       0       0       0       
      +0       0       0       0       0       0       0       0       0       0       0       0       0       0       0       
      +0       0       0       0       0       0
  3527 ;;Total ram usage:        0 bytes
  3528 ;; Hardware stack levels used:    1
  3529 ;; Hardware stack levels required when called:    8
  3530 ;; This function calls:
  3531 ;;		_isalpha
  3532 ;;		_isupper
  3533 ;;		_pad
  3534 ;;		_toupper
  3535 ;; This function is called by:
  3536 ;;		_vfpfcnvrt
  3537 ;; This function uses a reentrant model
  3538 ;;
  3539                           
  3540                           	psect	text19
  3541  0028D4                     __ptext19:
  3542                           	opt callstack 0
  3543  0028D4                     _xtoa:
  3544                           	opt callstack 0
  3545                           
  3546                           ; autosize = 20, savesize = 0, parsavesize = 0, tempsize = 0 parsize = 11, argsize = 11 
      +                          vargsize = 0, retsize = 0 argfudge = 0
  3547  0028D4  0E14               	movlw	20
  3548  0028D6  26E1               	addwf	fsr1l,f,c
  3549  0028D8  0E00               	movlw	0
  3550  0028DA  22E2               	addwfc	fsr1h,f,c
  3551                           
  3552                           ;/opt/microchip/xc8/v2.05/pic/sources/c99/common/doprnt.c: 623: static int xtoa(FILE *fp
      +                          , unsigned long long d, char x);/opt/microchip/xc8/v2.05/pic/sources/c99/common/doprnt.c
      +                          : 624: {;/opt/microchip/xc8/v2.05/pic/sources/c99/common/doprnt.c: 625:     int c, i, p,
      +                           w;;/opt/microchip/xc8/v2.05/pic/sources/c99/common/doprnt.c: 626:     unsigned long lon
      +                          g n;;/opt/microchip/xc8/v2.05/pic/sources/c99/common/doprnt.c: 629:     if (!(prec < 0))
      +                           {
  3553                           
  3554                           ;incstack = 0
  3555  0028DC  AE2D               	btfss	_prec+1,7,c
  3556                           
  3557                           ;/opt/microchip/xc8/v2.05/pic/sources/c99/common/doprnt.c: 630:         flags &= ~(1 << 
      +                          1);
  3558  0028DE  922E               	bcf	_flags,1,c
  3559                           
  3560                           ;/opt/microchip/xc8/v2.05/pic/sources/c99/common/doprnt.c: 632:     p = (0 < prec) ? pre
      +                          c : 1;
  3561  0028E0  BE2D               	btfsc	_prec+1,7,c
  3562  0028E2  D005               	goto	u3200
  3563  0028E4  502D               	movf	_prec+1,w,c
  3564  0028E6  E110               	bnz	l4847
  3565  0028E8  042C               	decf	_prec,w,c
  3566  0028EA  B0D8               	btfsc	status,0,c
  3567  0028EC  D00D               	goto	l4847
  3568  0028EE                     u3200:
  3569  0028EE  0E01               	movlw	1
  3570  0028F0  6E46               	movwf	btemp+10,c
  3571  0028F2  0E00               	movlw	0
  3572  0028F4  6E47               	movwf	btemp+11,c
  3573                           
  3574                           ;stkvar	_p @ sp[(-20)+18]
  3575  0028F6  0EFE               	movlw	-2
  3576  0028F8  0060  F11B  FFE3   	movff	btemp+10,plusw1
  3577  0028FE  0EFF               	movlw	-1
  3578  002900  0060  F11F  FFE3   	movff	btemp+11,plusw1
  3579  002906  D008               	goto	l1400
  3580  002908                     l4847:
  3581                           
  3582                           ;stkvar	_p @ sp[(-20)+18]
  3583  002908  0EFE               	movlw	-2
  3584  00290A  0060  F0B3  FFE3   	movff	_prec,plusw1
  3585  002910  0EFF               	movlw	-1
  3586  002912  0060  F0B7  FFE3   	movff	_prec+1,plusw1
  3587  002918                     l1400:
  3588                           
  3589                           ;/opt/microchip/xc8/v2.05/pic/sources/c99/common/doprnt.c: 633:     w = width;
  3590                           ;stkvar	_w @ sp[(-20)+16]
  3591  002918  0EFC               	movlw	-4
  3592  00291A  0060  F0AB  FFE3   	movff	_width,plusw1
  3593  002920  0EFD               	movlw	-3
  3594  002922  0060  F0AF  FFE3   	movff	_width+1,plusw1
  3595                           
  3596                           ;/opt/microchip/xc8/v2.05/pic/sources/c99/common/doprnt.c: 634:     if (flags & (1 << 4)
      +                          ) {
  3597  002928  A82E               	btfss	_flags,4,c
  3598  00292A  D00B               	goto	l4853
  3599                           
  3600                           ;/opt/microchip/xc8/v2.05/pic/sources/c99/common/doprnt.c: 635:         w -= 2;
  3601                           ;stkvar	_w @ sp[(-20)+16]
  3602  00292C  50E1               	movf	fsr1l,w,c
  3603  00292E  0FFC               	addlw	-4
  3604  002930  6ED9               	movwf	fsr2l,c
  3605  002932  50E2               	movf	fsr1h,w,c
  3606  002934  6EDA               	movwf	fsr2h,c
  3607  002936  0EFF               	movlw	255
  3608  002938  22DA               	addwfc	fsr2h,f,c
  3609  00293A  0EFE               	movlw	254
  3610  00293C  26DE               	addwf	postinc2,f,c
  3611  00293E  0EFF               	movlw	255
  3612  002940  22DD               	addwfc	postdec2,f,c
  3613  002942                     l4853:
  3614                           
  3615                           ;/opt/microchip/xc8/v2.05/pic/sources/c99/common/doprnt.c: 639:     n = d;
  3616                           ;stkvar	_d @ sp[(-20)+-10]
  3617  002942  0EE2               	movlw	226
  3618  002944  24E1               	addwf	fsr1l,w,c
  3619  002946  6ED9               	movwf	fsr2l,c
  3620  002948  0EFF               	movlw	255
  3621  00294A  20E2               	addwfc	fsr1h,w,c
  3622  00294C  6EDA               	movwf	fsr2h,c
  3623                           
  3624                           ;stkvar	_n @ sp[(-20)+4]
  3625  00294E  0E08               	movlw	8
  3626  002950  6E3C               	movwf	btemp,c
  3627  002952  0EF0               	movlw	-16
  3628  002954                     us322999:
  3629  002954  006F FF7B FFE3     	movff	postinc2,plusw1
  3630  00295A  28E8               	incf	wreg,w,c
  3631  00295C  2E3C               	decfsz	btemp,f,c
  3632  00295E  D7FA               	bra	us322999
  3633                           
  3634                           ;/opt/microchip/xc8/v2.05/pic/sources/c99/common/doprnt.c: 640:     i = sizeof(dbuf) - 1
      +                          ;
  3635  002960  0E1F               	movlw	31
  3636  002962  6E46               	movwf	btemp+10,c
  3637  002964  0E00               	movlw	0
  3638  002966  6E47               	movwf	btemp+11,c
  3639                           
  3640                           ;stkvar	_i @ sp[(-20)+14]
  3641  002968  0EFA               	movlw	-6
  3642  00296A  0060  F11B  FFE3   	movff	btemp+10,plusw1
  3643  002970  0EFB               	movlw	-5
  3644  002972  0060  F11F  FFE3   	movff	btemp+11,plusw1
  3645                           
  3646                           ;/opt/microchip/xc8/v2.05/pic/sources/c99/common/doprnt.c: 641:     dbuf[i] = '\0';
  3647  002978  0100               	movlb	0	; () banked
  3648  00297A  6BC8               	clrf	(_dbuf+31)& (0+255),b
  3649                           
  3650                           ;/opt/microchip/xc8/v2.05/pic/sources/c99/common/doprnt.c: 642:     while (!(i < 2) && (
      +                          n || (0 < p) || ((0 < w) && (flags & (1 << 1))))) {
  3651  00297C  D0E8               	goto	l4891
  3652  00297E                     l4859:
  3653                           
  3654                           ;/opt/microchip/xc8/v2.05/pic/sources/c99/common/doprnt.c: 643:         --i;
  3655                           ;stkvar	_i @ sp[(-20)+14]
  3656  00297E  50E1               	movf	fsr1l,w,c
  3657  002980  0FFA               	addlw	-6
  3658  002982  6ED9               	movwf	fsr2l,c
  3659  002984  50E2               	movf	fsr1h,w,c
  3660  002986  6EDA               	movwf	fsr2h,c
  3661  002988  0EFF               	movlw	255
  3662  00298A  22DA               	addwfc	fsr2h,f,c
  3663  00298C  06DE               	decf	postinc2,f,c
  3664  00298E  0E00               	movlw	0
  3665  002990  5ADD               	subwfb	postdec2,f,c
  3666                           
  3667                           ;/opt/microchip/xc8/v2.05/pic/sources/c99/common/doprnt.c: 644:         c = n & 0x0f;
  3668                           ;stkvar	_n @ sp[(-20)+4]
  3669  002992  0EF0               	movlw	-16
  3670  002994  006F FF8C  F046    	movff	plusw1,btemp+10
  3671  00299A  0EF1               	movlw	-15
  3672  00299C  006F FF8C  F047    	movff	plusw1,btemp+11
  3673  0029A2  0E0F               	movlw	15
  3674  0029A4  1646               	andwf	btemp+10,f,c
  3675  0029A6  0E00               	movlw	0
  3676  0029A8  1647               	andwf	btemp+11,f,c
  3677                           
  3678                           ;stkvar	_c @ sp[(-20)+12]
  3679  0029AA  0EF8               	movlw	-8
  3680  0029AC  0060  F11B  FFE3   	movff	btemp+10,plusw1
  3681  0029B2  0EF9               	movlw	-7
  3682  0029B4  0060  F11F  FFE3   	movff	btemp+11,plusw1
  3683                           
  3684                           ;/opt/microchip/xc8/v2.05/pic/sources/c99/common/doprnt.c: 645:         c = (c < 10) ? '
      +                          0' + c : 'a' + (c - 10);
  3685                           ;stkvar	_c @ sp[(-20)+12]
  3686  0029BA  0EF9               	movlw	-7
  3687  0029BC  BEE3               	btfsc	plusw1,7,c
  3688  0029BE  D00F               	goto	l4867
  3689  0029C0  0EF9               	movlw	-7
  3690  0029C2  50E3               	movf	plusw1,w,c
  3691  0029C4  E108               	bnz	u3230
  3692  0029C6  0EF8               	movlw	-8
  3693  0029C8  006F FF8C  F03C    	movff	plusw1,btemp
  3694  0029CE  0E0A               	movlw	10
  3695  0029D0  5E3C               	subwf	btemp,f,c
  3696  0029D2  A0D8               	btfss	status,0,c
  3697  0029D4  D004               	goto	l4867
  3698  0029D6                     u3230:
  3699                           
  3700                           ;stkvar	_c @ sp[(-20)+12]
  3701  0029D6  0EF8               	movlw	-8
  3702  0029D8  50E3               	movf	plusw1,w,c
  3703  0029DA  0F57               	addlw	87
  3704  0029DC  D003               	goto	L5
  3705  0029DE                     l4867:
  3706                           
  3707                           ;stkvar	_c @ sp[(-20)+12]
  3708  0029DE  0EF8               	movlw	-8
  3709  0029E0  50E3               	movf	plusw1,w,c
  3710  0029E2  0F30               	addlw	48
  3711  0029E4                     L5:
  3712  0029E4  6E46               	movwf	btemp+10,c
  3713  0029E6  0EF9               	movlw	-7
  3714  0029E8  006F FF8C  F047    	movff	plusw1,btemp+11
  3715  0029EE  0E00               	movlw	0
  3716  0029F0  2247               	addwfc	btemp+11,f,c
  3717                           
  3718                           ;stkvar	_c @ sp[(-20)+12]
  3719  0029F2  0EF8               	movlw	-8
  3720  0029F4  0060  F11B  FFE3   	movff	btemp+10,plusw1
  3721  0029FA  0EF9               	movlw	-7
  3722  0029FC  0060  F11F  FFE3   	movff	btemp+11,plusw1
  3723  002A02  0EBF               	movlw	191
  3724  002A04  6E46               	movwf	btemp+10,c
  3725  002A06  0EFF               	movlw	255
  3726  002A08  6E47               	movwf	btemp+11,c
  3727                           
  3728                           ;stkvar	_x @ sp[(-20)+-11]
  3729  002A0A  0EE1               	movlw	-31
  3730  002A0C  50E3               	movf	plusw1,w,c
  3731  002A0E  6E44               	movwf	btemp+8,c
  3732  002A10  6A45               	clrf	btemp+9,c
  3733  002A12  5046               	movf	btemp+10,w,c
  3734  002A14  2644               	addwf	btemp+8,f,c
  3735  002A16  5047               	movf	btemp+11,w,c
  3736  002A18  2245               	addwfc	btemp+9,f,c
  3737  002A1A  5045               	movf	btemp+9,w,c
  3738  002A1C  E106               	bnz	u3240
  3739  002A1E  0E1A               	movlw	26
  3740  002A20  5C44               	subwf	btemp+8,w,c
  3741  002A22  B0D8               	btfsc	status,0,c
  3742  002A24  D002               	goto	u3240
  3743  002A26  0E01               	movlw	1
  3744  002A28  D001               	goto	u3250
  3745  002A2A                     u3240:
  3746  002A2A  0E00               	movlw	0
  3747  002A2C                     u3250:
  3748  002A2C  6E46               	movwf	btemp+10,c
  3749  002A2E  6A47               	clrf	btemp+11,c
  3750                           
  3751                           ;stkvar	_xtoa$2994 @ sp[(-20)+2]
  3752  002A30  0EEE               	movlw	-18
  3753  002A32  0060  F11B  FFE3   	movff	btemp+10,plusw1
  3754  002A38  0EEF               	movlw	-17
  3755  002A3A  0060  F11F  FFE3   	movff	btemp+11,plusw1
  3756                           
  3757                           ;stkvar	_xtoa$2994 @ sp[(-20)+2]
  3758  002A40  0EEE               	movlw	-18
  3759  002A42  006F FF8C  F03C    	movff	plusw1,btemp
  3760  002A48  0EEF               	movlw	-17
  3761  002A4A  50E3               	movf	plusw1,w,c
  3762  002A4C  103C               	iorwf	btemp,w,c
  3763  002A4E  B4D8               	btfsc	status,2,c
  3764  002A50  D041               	goto	l4883
  3765  002A52  0E9F               	movlw	159
  3766  002A54  6E46               	movwf	btemp+10,c
  3767  002A56  0EFF               	movlw	255
  3768  002A58  6E47               	movwf	btemp+11,c
  3769                           
  3770                           ;stkvar	_c @ sp[(-20)+12]
  3771  002A5A  0EF8               	movlw	-8
  3772  002A5C  006F FF8C  F044    	movff	plusw1,btemp+8
  3773  002A62  0EF9               	movlw	-7
  3774  002A64  006F FF8C  F045    	movff	plusw1,btemp+9
  3775  002A6A  0E20               	movlw	32
  3776  002A6C  1244               	iorwf	btemp+8,f,c
  3777  002A6E  0E00               	movlw	0
  3778  002A70  1245               	iorwf	btemp+9,f,c
  3779  002A72  5046               	movf	btemp+10,w,c
  3780  002A74  2644               	addwf	btemp+8,f,c
  3781  002A76  5047               	movf	btemp+11,w,c
  3782  002A78  2245               	addwfc	btemp+9,f,c
  3783  002A7A  5045               	movf	btemp+9,w,c
  3784  002A7C  E106               	bnz	u3270
  3785  002A7E  0E1A               	movlw	26
  3786  002A80  5C44               	subwf	btemp+8,w,c
  3787  002A82  B0D8               	btfsc	status,0,c
  3788  002A84  D002               	goto	u3270
  3789  002A86  0E01               	movlw	1
  3790  002A88  D001               	goto	u3280
  3791  002A8A                     u3270:
  3792  002A8A  0E00               	movlw	0
  3793  002A8C                     u3280:
  3794  002A8C  6E46               	movwf	btemp+10,c
  3795  002A8E  6A47               	clrf	btemp+11,c
  3796                           
  3797                           ;stkvar	_xtoa$2995 @ sp[(-20)+0]
  3798  002A90  0EEC               	movlw	-20
  3799  002A92  0060  F11B  FFE3   	movff	btemp+10,plusw1
  3800  002A98  0EED               	movlw	-19
  3801  002A9A  0060  F11F  FFE3   	movff	btemp+11,plusw1
  3802                           
  3803                           ;stkvar	_xtoa$2995 @ sp[(-20)+0]
  3804  002AA0  0EEC               	movlw	-20
  3805  002AA2  006F FF8C  F03C    	movff	plusw1,btemp
  3806  002AA8  0EED               	movlw	-19
  3807  002AAA  50E3               	movf	plusw1,w,c
  3808  002AAC  103C               	iorwf	btemp,w,c
  3809  002AAE  B4D8               	btfsc	status,2,c
  3810  002AB0  D011               	goto	l4883
  3811                           
  3812                           ;/opt/microchip/xc8/v2.05/pic/sources/c99/common/doprnt.c: 647:             c = toupper(
      +                          c);
  3813                           ;stkvar	_c @ sp[(-20)+12]
  3814  002AB2  0EF8               	movlw	-8
  3815  002AB4  006F FF8F FFE6     	movff	plusw1,postinc1
  3816  002ABA  006F FF8F FFE6     	movff	plusw1,postinc1
  3817  002AC0  ECA5  F01F         	call	_toupper	;wreg free
  3818                           
  3819                           ;stkvar	_c @ sp[(-20)+12]
  3820  002AC4  0EF8               	movlw	-8
  3821  002AC6  0060  F0F3  FFE3   	movff	btemp,plusw1
  3822  002ACC  0EF9               	movlw	-7
  3823  002ACE  0060  F0F7  FFE3   	movff	btemp+1,plusw1
  3824  002AD4                     l4883:
  3825                           
  3826                           ;/opt/microchip/xc8/v2.05/pic/sources/c99/common/doprnt.c: 649:         dbuf[i] = (char)
      +                          c;
  3827                           ;stkvar	_c @ sp[(-20)+12]
  3828                           ;stkvar	_i @ sp[(-20)+14]
  3829  002AD4  0EFA               	movlw	-6
  3830  002AD6  006F FF8C  F047    	movff	plusw1,btemp+11
  3831  002ADC  5047               	movf	btemp+11,w,c
  3832  002ADE  0FA9               	addlw	low _dbuf
  3833  002AE0  6ED9               	movwf	fsr2l,c
  3834  002AE2  6ADA               	clrf	fsr2h,c
  3835  002AE4  0EF8               	movlw	-8
  3836  002AE6  006F FF8F FFDF     	movff	plusw1,indf2
  3837                           
  3838                           ;/opt/microchip/xc8/v2.05/pic/sources/c99/common/doprnt.c: 650:         --p;
  3839                           ;stkvar	_p @ sp[(-20)+18]
  3840  002AEC  50E1               	movf	fsr1l,w,c
  3841  002AEE  0FFE               	addlw	-2
  3842  002AF0  6ED9               	movwf	fsr2l,c
  3843  002AF2  50E2               	movf	fsr1h,w,c
  3844  002AF4  6EDA               	movwf	fsr2h,c
  3845  002AF6  0EFF               	movlw	255
  3846  002AF8  22DA               	addwfc	fsr2h,f,c
  3847  002AFA  06DE               	decf	postinc2,f,c
  3848  002AFC  0E00               	movlw	0
  3849  002AFE  5ADD               	subwfb	postdec2,f,c
  3850                           
  3851                           ;/opt/microchip/xc8/v2.05/pic/sources/c99/common/doprnt.c: 651:         --w;
  3852                           ;stkvar	_w @ sp[(-20)+16]
  3853  002B00  50E1               	movf	fsr1l,w,c
  3854  002B02  0FFC               	addlw	-4
  3855  002B04  6ED9               	movwf	fsr2l,c
  3856  002B06  50E2               	movf	fsr1h,w,c
  3857  002B08  6EDA               	movwf	fsr2h,c
  3858  002B0A  0EFF               	movlw	255
  3859  002B0C  22DA               	addwfc	fsr2h,f,c
  3860  002B0E  06DE               	decf	postinc2,f,c
  3861  002B10  0E00               	movlw	0
  3862  002B12  5ADD               	subwfb	postdec2,f,c
  3863                           
  3864                           ;/opt/microchip/xc8/v2.05/pic/sources/c99/common/doprnt.c: 652:         n = n >> 4;
  3865  002B14  0E04               	movlw	4
  3866  002B16  6E47               	movwf	btemp+11,c
  3867                           
  3868                           ;stkvar	_n @ sp[(-20)+4]
  3869  002B18  50E1               	movf	fsr1l,w,c
  3870  002B1A  0FF0               	addlw	-16
  3871  002B1C  6ED9               	movwf	fsr2l,c
  3872  002B1E  50E2               	movf	fsr1h,w,c
  3873  002B20  6EDA               	movwf	fsr2h,c
  3874  002B22  0EFF               	movlw	255
  3875  002B24  22DA               	addwfc	fsr2h,f,c
  3876  002B26  2847               	incf	btemp+11,w,c
  3877  002B28  52DE               	movf	postinc2,f,c
  3878  002B2A  D00F               	goto	u3300
  3879  002B2C                     u3305:
  3880  002B2C  52DE               	movf	postinc2,f,c
  3881  002B2E  52DE               	movf	postinc2,f,c
  3882  002B30  52DE               	movf	postinc2,f,c
  3883  002B32  52DE               	movf	postinc2,f,c
  3884  002B34  52DE               	movf	postinc2,f,c
  3885  002B36  52DE               	movf	postinc2,f,c
  3886  002B38  90D8               	bcf	status,0,c
  3887  002B3A  32DD               	rrcf	postdec2,f,c
  3888  002B3C  32DD               	rrcf	postdec2,f,c
  3889  002B3E  32DD               	rrcf	postdec2,f,c
  3890  002B40  32DD               	rrcf	postdec2,f,c
  3891  002B42  32DD               	rrcf	postdec2,f,c
  3892  002B44  32DD               	rrcf	postdec2,f,c
  3893  002B46  32DD               	rrcf	postdec2,f,c
  3894  002B48  32DE               	rrcf	postinc2,f,c
  3895  002B4A                     u3300:
  3896  002B4A  2EE8               	decfsz	wreg,f,c
  3897  002B4C  D7EF               	goto	u3305
  3898  002B4E                     l4891:
  3899                           
  3900                           ;/opt/microchip/xc8/v2.05/pic/sources/c99/common/doprnt.c: 642:     while (!(i < 2) && (
      +                          n || (0 < p) || ((0 < w) && (flags & (1 << 1))))) {
  3901                           ;stkvar	_i @ sp[(-20)+14]
  3902  002B4E  0EFB               	movlw	-5
  3903  002B50  BEE3               	btfsc	plusw1,7,c
  3904  002B52  D03A               	goto	u3350
  3905  002B54  0EFB               	movlw	-5
  3906  002B56  50E3               	movf	plusw1,w,c
  3907  002B58  E108               	bnz	u3310
  3908  002B5A  0EFA               	movlw	-6
  3909  002B5C  006F FF8C  F03C    	movff	plusw1,btemp
  3910  002B62  0E02               	movlw	2
  3911  002B64  5E3C               	subwf	btemp,f,c
  3912  002B66  A0D8               	btfss	status,0,c
  3913  002B68  D02F               	goto	u3350
  3914  002B6A                     u3310:
  3915                           
  3916                           ;stkvar	_n @ sp[(-20)+4]
  3917  002B6A  0EF0               	movlw	-16
  3918  002B6C  50E3               	movf	plusw1,w,c
  3919  002B6E  E115               	bnz	u3321
  3920  002B70  0EF1               	movlw	-15
  3921  002B72  50E3               	movf	plusw1,w,c
  3922  002B74  E112               	bnz	u3321
  3923  002B76  0EF2               	movlw	-14
  3924  002B78  50E3               	movf	plusw1,w,c
  3925  002B7A  E10F               	bnz	u3321
  3926  002B7C  0EF3               	movlw	-13
  3927  002B7E  50E3               	movf	plusw1,w,c
  3928  002B80  E10C               	bnz	u3321
  3929  002B82  0EF4               	movlw	-12
  3930  002B84  50E3               	movf	plusw1,w,c
  3931  002B86  E109               	bnz	u3321
  3932  002B88  0EF5               	movlw	-11
  3933  002B8A  50E3               	movf	plusw1,w,c
  3934  002B8C  E106               	bnz	u3321
  3935  002B8E  0EF6               	movlw	-10
  3936  002B90  50E3               	movf	plusw1,w,c
  3937  002B92  E103               	bnz	u3321
  3938  002B94  0EF7               	movlw	-9
  3939  002B96  50E3               	movf	plusw1,w,c
  3940  002B98  A4D8               	btfss	status,2,c
  3941  002B9A                     u3321:
  3942  002B9A  D6F1               	goto	l4859
  3943                           
  3944                           ;stkvar	_p @ sp[(-20)+18]
  3945  002B9C  0EFF               	movlw	-1
  3946  002B9E  BEE3               	btfsc	plusw1,7,c
  3947  002BA0  D007               	goto	u3330
  3948  002BA2  0EFF               	movlw	-1
  3949  002BA4  50E3               	movf	plusw1,w,c
  3950  002BA6  E103               	bnz	u3331
  3951  002BA8  0EFE               	movlw	-2
  3952  002BAA  04E3               	decf	plusw1,w,c
  3953  002BAC  B0D8               	btfsc	status,0,c
  3954  002BAE                     u3331:
  3955  002BAE  D6E7               	goto	l4859
  3956  002BB0                     u3330:
  3957                           
  3958                           ;stkvar	_w @ sp[(-20)+16]
  3959  002BB0  0EFD               	movlw	-3
  3960  002BB2  BEE3               	btfsc	plusw1,7,c
  3961  002BB4  D009               	goto	u3350
  3962  002BB6  0EFD               	movlw	-3
  3963  002BB8  50E3               	movf	plusw1,w,c
  3964  002BBA  E104               	bnz	u3340
  3965  002BBC  0EFC               	movlw	-4
  3966  002BBE  04E3               	decf	plusw1,w,c
  3967  002BC0  A0D8               	btfss	status,0,c
  3968  002BC2  D002               	goto	u3350
  3969  002BC4                     u3340:
  3970  002BC4  B22E               	btfsc	_flags,1,c
  3971  002BC6  D6DB               	goto	l4859
  3972  002BC8                     u3350:
  3973                           
  3974                           ;/opt/microchip/xc8/v2.05/pic/sources/c99/common/doprnt.c: 656:     if (flags & (1 << 4)
      +                          ) {
  3975  002BC8  A82E               	btfss	_flags,4,c
  3976  002BCA  D02A               	goto	l4907
  3977                           
  3978                           ;/opt/microchip/xc8/v2.05/pic/sources/c99/common/doprnt.c: 657:         --i;
  3979                           ;stkvar	_i @ sp[(-20)+14]
  3980  002BCC  50E1               	movf	fsr1l,w,c
  3981  002BCE  0FFA               	addlw	-6
  3982  002BD0  6ED9               	movwf	fsr2l,c
  3983  002BD2  50E2               	movf	fsr1h,w,c
  3984  002BD4  6EDA               	movwf	fsr2h,c
  3985  002BD6  0EFF               	movlw	255
  3986  002BD8  22DA               	addwfc	fsr2h,f,c
  3987  002BDA  06DE               	decf	postinc2,f,c
  3988  002BDC  0E00               	movlw	0
  3989  002BDE  5ADD               	subwfb	postdec2,f,c
  3990                           
  3991                           ;/opt/microchip/xc8/v2.05/pic/sources/c99/common/doprnt.c: 658:         dbuf[i] = x;
  3992                           ;stkvar	_x @ sp[(-20)+-11]
  3993                           ;stkvar	_i @ sp[(-20)+14]
  3994  002BE0  0EFA               	movlw	-6
  3995  002BE2  006F FF8C  F047    	movff	plusw1,btemp+11
  3996  002BE8  5047               	movf	btemp+11,w,c
  3997  002BEA  0FA9               	addlw	low _dbuf
  3998  002BEC  6ED9               	movwf	fsr2l,c
  3999  002BEE  6ADA               	clrf	fsr2h,c
  4000  002BF0  0EE1               	movlw	-31
  4001  002BF2  006F FF8F FFDF     	movff	plusw1,indf2
  4002                           
  4003                           ;/opt/microchip/xc8/v2.05/pic/sources/c99/common/doprnt.c: 659:         --i;
  4004                           ;stkvar	_i @ sp[(-20)+14]
  4005  002BF8  50E1               	movf	fsr1l,w,c
  4006  002BFA  0FFA               	addlw	-6
  4007  002BFC  6ED9               	movwf	fsr2l,c
  4008  002BFE  50E2               	movf	fsr1h,w,c
  4009  002C00  6EDA               	movwf	fsr2h,c
  4010  002C02  0EFF               	movlw	255
  4011  002C04  22DA               	addwfc	fsr2h,f,c
  4012  002C06  06DE               	decf	postinc2,f,c
  4013  002C08  0E00               	movlw	0
  4014  002C0A  5ADD               	subwfb	postdec2,f,c
  4015                           
  4016                           ;/opt/microchip/xc8/v2.05/pic/sources/c99/common/doprnt.c: 660:         dbuf[i] = '0';
  4017                           ;stkvar	_i @ sp[(-20)+14]
  4018  002C0C  0EFA               	movlw	-6
  4019  002C0E  006F FF8C  F047    	movff	plusw1,btemp+11
  4020  002C14  5047               	movf	btemp+11,w,c
  4021  002C16  0FA9               	addlw	low _dbuf
  4022  002C18  6ED9               	movwf	fsr2l,c
  4023  002C1A  6ADA               	clrf	fsr2h,c
  4024  002C1C  0E30               	movlw	48
  4025  002C1E  6EDF               	movwf	indf2,c
  4026  002C20                     l4907:
  4027                           
  4028                           ;/opt/microchip/xc8/v2.05/pic/sources/c99/common/doprnt.c: 664:     return pad(fp, &dbuf
      +                          [i], w);
  4029                           ;stkvar	_w @ sp[(-20)+16]
  4030  002C20  0EFC               	movlw	-4
  4031  002C22  006F FF8F FFE6     	movff	plusw1,postinc1
  4032  002C28  006F FF8F FFE6     	movff	plusw1,postinc1
  4033                           
  4034                           ;stkvar	_i @ sp[(-22)+14]
  4035  002C2E  0EF8               	movlw	-8
  4036  002C30  006F FF8C  F047    	movff	plusw1,btemp+11
  4037  002C36  5047               	movf	btemp+11,w,c
  4038  002C38  0FA9               	addlw	low _dbuf
  4039  002C3A  6EE6               	movwf	postinc1,c
  4040                           
  4041                           ;stkvar	_fp @ sp[(-23)+-2]
  4042  002C3C  0EE7               	movlw	-25
  4043  002C3E  006F FF8F FFE6     	movff	plusw1,postinc1
  4044  002C44  006F FF8F FFE6     	movff	plusw1,postinc1
  4045  002C4A  EC69  F01C         	call	_pad	;wreg free
  4046                           
  4047                           ; _xtoa: autosize = 20, savesize = 0, parsavesize = 0, tempsize = 0 parsize = 11, argsiz
      +                          e = 11, vargsize = 0
  4048  002C4E  0EE1               	movlw	225
  4049  002C50  26E1               	addwf	fsr1l,f,c
  4050  002C52  0EFF               	movlw	255
  4051  002C54  22E2               	addwfc	fsr1h,f,c
  4052  002C56  0012               	return		;funcret
  4053  002C58                     __end_of_xtoa:
  4054                           	opt callstack 0
  4055                           
  4056 ;; *************** function _toupper *****************
  4057 ;; Defined at:
  4058 ;;		line 4 in file "/opt/microchip/xc8/v2.05/pic/sources/c99/common/toupper.c"
  4059 ;; Parameters:    Size  Location     Type
  4060 ;;  c               2  [STACK] int 
  4061 ;; Auto vars:     Size  Location     Type
  4062 ;;		None
  4063 ;; Return value:  Size  Location     Type
  4064 ;;                  2  [STACK] int 
  4065 ;; Registers used:
  4066 ;;		wreg, fsr1l, fsr1h, status,2, status,0, btemp, btemp+1, btemp+10, btemp+11, prodl
  4067 ;; Tracked objects:
  4068 ;;		On entry : 0/0
  4069 ;;		On exit  : 0/0
  4070 ;;		Unchanged: 0/0
  4071 ;; Data sizes:     COMRAM   BANK0   BANK1   BANK2   BANK3   BANK4   BANK5   BANK6   BANK7   BANK8   BANK9  BANK10  BANK1
      +1  BANK12  BANK13  BANK14  BANK15  BANK16  BANK17  BANK18  BANK19  BANK20  BANK21  BANK22  BANK23  BANK24  BANK25  BANK2
      +6  BANK27  BANK28  BANK29  BANK30  BANK31
  4072 ;;      Params:         0       0       0       0       0       0       0       0       0       0       0       0       
      +0       0       0       0       0       0       0       0       0       0       0       0       0       0       0       
      +0       0       0       0       0       0
  4073 ;;      Locals:         0       0       0       0       0       0       0       0       0       0       0       0       
      +0       0       0       0       0       0       0       0       0       0       0       0       0       0       0       
      +0       0       0       0       0       0
  4074 ;;      Temps:          0       0       0       0       0       0       0       0       0       0       0       0       
      +0       0       0       0       0       0       0       0       0       0       0       0       0       0       0       
      +0       0       0       0       0       0
  4075 ;;      Totals:         0       0       0       0       0       0       0       0       0       0       0       0       
      +0       0       0       0       0       0       0       0       0       0       0       0       0       0       0       
      +0       0       0       0       0       0
  4076 ;;Total ram usage:        0 bytes
  4077 ;; Hardware stack levels used:    1
  4078 ;; Hardware stack levels required when called:    4
  4079 ;; This function calls:
  4080 ;;		_islower
  4081 ;; This function is called by:
  4082 ;;		_xtoa
  4083 ;; This function uses a reentrant model
  4084 ;;
  4085                           
  4086                           	psect	text20
  4087  003F4A                     __ptext20:
  4088                           	opt callstack 0
  4089  003F4A                     _toupper:
  4090                           	opt callstack 0
  4091                           
  4092                           ; autosize = 2, savesize = 0, parsavesize = 0, tempsize = 0 parsize = 2, argsize = 2 var
      +                          gsize = 0, retsize = 0 argfudge = 0
  4093  003F4A  52E6               	movf	postinc1,f,c
  4094  003F4C  52E6               	movf	postinc1,f,c
  4095                           
  4096                           ;stkvar	_c @ sp[(-2)+-2]
  4097                           
  4098                           ;incstack = 0
  4099  003F4E  0EFC               	movlw	-4
  4100  003F50  50E3               	movf	plusw1,w,c
  4101  003F52  0F9F               	addlw	159
  4102  003F54  6E46               	movwf	btemp+10,c
  4103  003F56  0EFD               	movlw	-3
  4104  003F58  006F FF8C  F047    	movff	plusw1,btemp+11
  4105  003F5E  0EFF               	movlw	255
  4106  003F60  2247               	addwfc	btemp+11,f,c
  4107  003F62  5047               	movf	btemp+11,w,c
  4108  003F64  E106               	bnz	u1640
  4109  003F66  0E1A               	movlw	26
  4110  003F68  5C46               	subwf	btemp+10,w,c
  4111  003F6A  B0D8               	btfsc	status,0,c
  4112  003F6C  D002               	goto	u1640
  4113  003F6E  0E01               	movlw	1
  4114  003F70  D001               	goto	u1650
  4115  003F72                     u1640:
  4116  003F72  0E00               	movlw	0
  4117  003F74                     u1650:
  4118  003F74  6E46               	movwf	btemp+10,c
  4119  003F76  6A47               	clrf	btemp+11,c
  4120                           
  4121                           ;stkvar	_toupper$3557 @ sp[(-2)+0]
  4122  003F78  0EFE               	movlw	-2
  4123  003F7A  0060  F11B  FFE3   	movff	btemp+10,plusw1
  4124  003F80  0EFF               	movlw	-1
  4125  003F82  0060  F11F  FFE3   	movff	btemp+11,plusw1
  4126                           
  4127                           ;stkvar	_toupper$3557 @ sp[(-2)+0]
  4128  003F88  0EFE               	movlw	-2
  4129  003F8A  006F FF8C  F03C    	movff	plusw1,btemp
  4130  003F90  0EFF               	movlw	-1
  4131  003F92  50E3               	movf	plusw1,w,c
  4132  003F94  103C               	iorwf	btemp,w,c
  4133  003F96  B4D8               	btfsc	status,2,c
  4134  003F98  D00D               	goto	l3555
  4135                           
  4136                           ;stkvar	_c @ sp[(-2)+-2]
  4137  003F9A  0EFC               	movlw	-4
  4138  003F9C  006F FF8C  F03C    	movff	plusw1,btemp
  4139  003FA2  0EFD               	movlw	-3
  4140  003FA4  006F FF8C  F03D    	movff	plusw1,btemp+1
  4141  003FAA  0E5F               	movlw	95
  4142  003FAC  163C               	andwf	btemp,f,c
  4143  003FAE  0E00               	movlw	0
  4144  003FB0  163D               	andwf	btemp+1,f,c
  4145  003FB2  D008               	goto	l2200
  4146  003FB4                     l3555:
  4147                           
  4148                           ;stkvar	_c @ sp[(-2)+-2]
  4149  003FB4  0EFC               	movlw	-4
  4150  003FB6  006F FF8C  F03C    	movff	plusw1,btemp
  4151  003FBC  0EFD               	movlw	-3
  4152  003FBE  006F FF8C  F03D    	movff	plusw1,btemp+1
  4153  003FC4                     l2200:
  4154                           
  4155                           ; _toupper: autosize = 2, savesize = 0, parsavesize = 0, tempsize = 0 parsize = 2, argsi
      +                          ze = 2, vargsize = 0
  4156  003FC4  52E5               	movf	postdec1,f,c
  4157  003FC6  52E5               	movf	postdec1,f,c
  4158  003FC8  52E5               	movf	postdec1,f,c
  4159  003FCA  52E5               	movf	postdec1,f,c
  4160  003FCC  0012               	return		;funcret
  4161  003FCE                     __end_of_toupper:
  4162                           	opt callstack 0
  4163                           
  4164 ;; *************** function _islower *****************
  4165 ;; Defined at:
  4166 ;;		line 5 in file "/opt/microchip/xc8/v2.05/pic/sources/c99/common/islower.c"
  4167 ;; Parameters:    Size  Location     Type
  4168 ;;  c               2  [STACK] int 
  4169 ;; Auto vars:     Size  Location     Type
  4170 ;;		None
  4171 ;; Return value:  Size  Location     Type
  4172 ;;                  2  [STACK] int 
  4173 ;; Registers used:
  4174 ;;		wreg, fsr1l, fsr1h, status,2, status,0, btemp, btemp+1, btemp+10, btemp+11
  4175 ;; Tracked objects:
  4176 ;;		On entry : 0/0
  4177 ;;		On exit  : 0/0
  4178 ;;		Unchanged: 0/0
  4179 ;; Data sizes:     COMRAM   BANK0   BANK1   BANK2   BANK3   BANK4   BANK5   BANK6   BANK7   BANK8   BANK9  BANK10  BANK1
      +1  BANK12  BANK13  BANK14  BANK15  BANK16  BANK17  BANK18  BANK19  BANK20  BANK21  BANK22  BANK23  BANK24  BANK25  BANK2
      +6  BANK27  BANK28  BANK29  BANK30  BANK31
  4180 ;;      Params:         0       0       0       0       0       0       0       0       0       0       0       0       
      +0       0       0       0       0       0       0       0       0       0       0       0       0       0       0       
      +0       0       0       0       0       0
  4181 ;;      Locals:         0       0       0       0       0       0       0       0       0       0       0       0       
      +0       0       0       0       0       0       0       0       0       0       0       0       0       0       0       
      +0       0       0       0       0       0
  4182 ;;      Temps:          0       0       0       0       0       0       0       0       0       0       0       0       
      +0       0       0       0       0       0       0       0       0       0       0       0       0       0       0       
      +0       0       0       0       0       0
  4183 ;;      Totals:         0       0       0       0       0       0       0       0       0       0       0       0       
      +0       0       0       0       0       0       0       0       0       0       0       0       0       0       0       
      +0       0       0       0       0       0
  4184 ;;Total ram usage:        0 bytes
  4185 ;; Hardware stack levels used:    1
  4186 ;; Hardware stack levels required when called:    3
  4187 ;; This function calls:
  4188 ;;		Nothing
  4189 ;; This function is called by:
  4190 ;;		_toupper
  4191 ;; This function uses a reentrant model
  4192 ;;
  4193                           
  4194                           	psect	text21
  4195  00458E                     __ptext21:
  4196                           	opt callstack 0
  4197  00458E                     _islower:
  4198                           	opt callstack 22
  4199                           
  4200                           ;stkvar	_c @ sp[(0)+-2]
  4201                           
  4202                           ; autosize = 0, savesize = 0, parsavesize = 0, tempsize = 0 parsize = 2, argsize = 2 var
      +                          gsize = 0, retsize = 0 argfudge = 0
  4203                           ;incstack = 0
  4204  00458E  0EFE               	movlw	-2
  4205  004590  50E3               	movf	plusw1,w,c
  4206  004592  0F9F               	addlw	159
  4207  004594  6E46               	movwf	btemp+10,c
  4208  004596  0EFF               	movlw	-1
  4209  004598  006F FF8C  F047    	movff	plusw1,btemp+11
  4210  00459E  0EFF               	movlw	255
  4211  0045A0  2247               	addwfc	btemp+11,f,c
  4212  0045A2  5047               	movf	btemp+11,w,c
  4213  0045A4  E106               	bnz	u1530
  4214  0045A6  0E1A               	movlw	26
  4215  0045A8  5C46               	subwf	btemp+10,w,c
  4216  0045AA  B0D8               	btfsc	status,0,c
  4217  0045AC  D002               	goto	u1530
  4218  0045AE  0E01               	movlw	1
  4219  0045B0  D001               	goto	u1540
  4220  0045B2                     u1530:
  4221  0045B2  0E00               	movlw	0
  4222  0045B4                     u1540:
  4223  0045B4  6E3C               	movwf	btemp,c
  4224  0045B6  6A3D               	clrf	btemp+1,c
  4225                           
  4226                           ; _islower: autosize = 0, savesize = 0, parsavesize = 0, tempsize = 0 parsize = 2, argsi
      +                          ze = 2, vargsize = 0
  4227  0045B8  52E5               	movf	postdec1,f,c
  4228  0045BA  52E5               	movf	postdec1,f,c
  4229  0045BC  0012               	return		;funcret
  4230  0045BE                     __end_of_islower:
  4231                           	opt callstack 0
  4232                           
  4233 ;; *************** function _isupper *****************
  4234 ;; Defined at:
  4235 ;;		line 5 in file "/opt/microchip/xc8/v2.05/pic/sources/c99/common/isupper.c"
  4236 ;; Parameters:    Size  Location     Type
  4237 ;;  c               2  [STACK] int 
  4238 ;; Auto vars:     Size  Location     Type
  4239 ;;		None
  4240 ;; Return value:  Size  Location     Type
  4241 ;;                  2  [STACK] int 
  4242 ;; Registers used:
  4243 ;;		wreg, fsr1l, fsr1h, status,2, status,0, btemp, btemp+1, btemp+10, btemp+11
  4244 ;; Tracked objects:
  4245 ;;		On entry : 0/0
  4246 ;;		On exit  : 0/0
  4247 ;;		Unchanged: 0/0
  4248 ;; Data sizes:     COMRAM   BANK0   BANK1   BANK2   BANK3   BANK4   BANK5   BANK6   BANK7   BANK8   BANK9  BANK10  BANK1
      +1  BANK12  BANK13  BANK14  BANK15  BANK16  BANK17  BANK18  BANK19  BANK20  BANK21  BANK22  BANK23  BANK24  BANK25  BANK2
      +6  BANK27  BANK28  BANK29  BANK30  BANK31
  4249 ;;      Params:         0       0       0       0       0       0       0       0       0       0       0       0       
      +0       0       0       0       0       0       0       0       0       0       0       0       0       0       0       
      +0       0       0       0       0       0
  4250 ;;      Locals:         0       0       0       0       0       0       0       0       0       0       0       0       
      +0       0       0       0       0       0       0       0       0       0       0       0       0       0       0       
      +0       0       0       0       0       0
  4251 ;;      Temps:          0       0       0       0       0       0       0       0       0       0       0       0       
      +0       0       0       0       0       0       0       0       0       0       0       0       0       0       0       
      +0       0       0       0       0       0
  4252 ;;      Totals:         0       0       0       0       0       0       0       0       0       0       0       0       
      +0       0       0       0       0       0       0       0       0       0       0       0       0       0       0       
      +0       0       0       0       0       0
  4253 ;;Total ram usage:        0 bytes
  4254 ;; Hardware stack levels used:    1
  4255 ;; Hardware stack levels required when called:    3
  4256 ;; This function calls:
  4257 ;;		Nothing
  4258 ;; This function is called by:
  4259 ;;		_xtoa
  4260 ;; This function uses a reentrant model
  4261 ;;
  4262                           
  4263                           	psect	text22
  4264  0045BE                     __ptext22:
  4265                           	opt callstack 0
  4266  0045BE                     _isupper:
  4267                           	opt callstack 23
  4268                           
  4269                           ;stkvar	_c @ sp[(0)+-2]
  4270                           
  4271                           ; autosize = 0, savesize = 0, parsavesize = 0, tempsize = 0 parsize = 2, argsize = 2 var
      +                          gsize = 0, retsize = 0 argfudge = 0
  4272                           ;incstack = 0
  4273  0045BE  0EFE               	movlw	-2
  4274  0045C0  50E3               	movf	plusw1,w,c
  4275  0045C2  0FBF               	addlw	191
  4276  0045C4  6E46               	movwf	btemp+10,c
  4277  0045C6  0EFF               	movlw	-1
  4278  0045C8  006F FF8C  F047    	movff	plusw1,btemp+11
  4279  0045CE  0EFF               	movlw	255
  4280  0045D0  2247               	addwfc	btemp+11,f,c
  4281  0045D2  5047               	movf	btemp+11,w,c
  4282  0045D4  E106               	bnz	u1600
  4283  0045D6  0E1A               	movlw	26
  4284  0045D8  5C46               	subwf	btemp+10,w,c
  4285  0045DA  B0D8               	btfsc	status,0,c
  4286  0045DC  D002               	goto	u1600
  4287  0045DE  0E01               	movlw	1
  4288  0045E0  D001               	goto	u1610
  4289  0045E2                     u1600:
  4290  0045E2  0E00               	movlw	0
  4291  0045E4                     u1610:
  4292  0045E4  6E3C               	movwf	btemp,c
  4293  0045E6  6A3D               	clrf	btemp+1,c
  4294                           
  4295                           ; _isupper: autosize = 0, savesize = 0, parsavesize = 0, tempsize = 0 parsize = 2, argsi
      +                          ze = 2, vargsize = 0
  4296  0045E8  52E5               	movf	postdec1,f,c
  4297  0045EA  52E5               	movf	postdec1,f,c
  4298  0045EC  0012               	return		;funcret
  4299  0045EE                     __end_of_isupper:
  4300                           	opt callstack 0
  4301                           
  4302 ;; *************** function _isalpha *****************
  4303 ;; Defined at:
  4304 ;;		line 5 in file "/opt/microchip/xc8/v2.05/pic/sources/c99/common/isalpha.c"
  4305 ;; Parameters:    Size  Location     Type
  4306 ;;  c               2  [STACK] int 
  4307 ;; Auto vars:     Size  Location     Type
  4308 ;;		None
  4309 ;; Return value:  Size  Location     Type
  4310 ;;                  2  [STACK] int 
  4311 ;; Registers used:
  4312 ;;		wreg, fsr1l, fsr1h, status,2, status,0, btemp, btemp+1, btemp+8, btemp+9, btemp+10, btemp+11
  4313 ;; Tracked objects:
  4314 ;;		On entry : 0/0
  4315 ;;		On exit  : 0/0
  4316 ;;		Unchanged: 0/0
  4317 ;; Data sizes:     COMRAM   BANK0   BANK1   BANK2   BANK3   BANK4   BANK5   BANK6   BANK7   BANK8   BANK9  BANK10  BANK1
      +1  BANK12  BANK13  BANK14  BANK15  BANK16  BANK17  BANK18  BANK19  BANK20  BANK21  BANK22  BANK23  BANK24  BANK25  BANK2
      +6  BANK27  BANK28  BANK29  BANK30  BANK31
  4318 ;;      Params:         0       0       0       0       0       0       0       0       0       0       0       0       
      +0       0       0       0       0       0       0       0       0       0       0       0       0       0       0       
      +0       0       0       0       0       0
  4319 ;;      Locals:         0       0       0       0       0       0       0       0       0       0       0       0       
      +0       0       0       0       0       0       0       0       0       0       0       0       0       0       0       
      +0       0       0       0       0       0
  4320 ;;      Temps:          0       0       0       0       0       0       0       0       0       0       0       0       
      +0       0       0       0       0       0       0       0       0       0       0       0       0       0       0       
      +0       0       0       0       0       0
  4321 ;;      Totals:         0       0       0       0       0       0       0       0       0       0       0       0       
      +0       0       0       0       0       0       0       0       0       0       0       0       0       0       0       
      +0       0       0       0       0       0
  4322 ;;Total ram usage:        0 bytes
  4323 ;; Hardware stack levels used:    1
  4324 ;; Hardware stack levels required when called:    3
  4325 ;; This function calls:
  4326 ;;		Nothing
  4327 ;; This function is called by:
  4328 ;;		_xtoa
  4329 ;; This function uses a reentrant model
  4330 ;;
  4331                           
  4332                           	psect	text23
  4333  0044CE                     __ptext23:
  4334                           	opt callstack 0
  4335  0044CE                     _isalpha:
  4336                           	opt callstack 23
  4337                           
  4338                           ; autosize = 0, savesize = 0, parsavesize = 0, tempsize = 0 parsize = 2, argsize = 2 var
      +                          gsize = 0, retsize = 0 argfudge = 0
  4339                           ;incstack = 0
  4340  0044CE  0E9F               	movlw	159
  4341  0044D0  6E46               	movwf	btemp+10,c
  4342  0044D2  0EFF               	movlw	255
  4343  0044D4  6E47               	movwf	btemp+11,c
  4344                           
  4345                           ;stkvar	_c @ sp[(0)+-2]
  4346  0044D6  0EFE               	movlw	-2
  4347  0044D8  006F FF8C  F044    	movff	plusw1,btemp+8
  4348  0044DE  0EFF               	movlw	-1
  4349  0044E0  006F FF8C  F045    	movff	plusw1,btemp+9
  4350  0044E6  0E20               	movlw	32
  4351  0044E8  1244               	iorwf	btemp+8,f,c
  4352  0044EA  0E00               	movlw	0
  4353  0044EC  1245               	iorwf	btemp+9,f,c
  4354  0044EE  5046               	movf	btemp+10,w,c
  4355  0044F0  2644               	addwf	btemp+8,f,c
  4356  0044F2  5047               	movf	btemp+11,w,c
  4357  0044F4  2245               	addwfc	btemp+9,f,c
  4358  0044F6  5045               	movf	btemp+9,w,c
  4359  0044F8  E106               	bnz	u1620
  4360  0044FA  0E1A               	movlw	26
  4361  0044FC  5C44               	subwf	btemp+8,w,c
  4362  0044FE  B0D8               	btfsc	status,0,c
  4363  004500  D002               	goto	u1620
  4364  004502  0E01               	movlw	1
  4365  004504  D001               	goto	u1630
  4366  004506                     u1620:
  4367  004506  0E00               	movlw	0
  4368  004508                     u1630:
  4369  004508  6E3C               	movwf	btemp,c
  4370  00450A  6A3D               	clrf	btemp+1,c
  4371                           
  4372                           ; _isalpha: autosize = 0, savesize = 0, parsavesize = 0, tempsize = 0 parsize = 2, argsi
      +                          ze = 2, vargsize = 0
  4373  00450C  52E5               	movf	postdec1,f,c
  4374  00450E  52E5               	movf	postdec1,f,c
  4375  004510  0012               	return		;funcret
  4376  004512                     __end_of_isalpha:
  4377                           	opt callstack 0
  4378                           
  4379 ;; *************** function _stoa *****************
  4380 ;; Defined at:
  4381 ;;		line 546 in file "/opt/microchip/xc8/v2.05/pic/sources/c99/common/doprnt.c"
  4382 ;; Parameters:    Size  Location     Type
  4383 ;;  fp              2  [STACK] PTR struct _IO_FILE
  4384 ;;		 -> f(5), NULL(0), 
  4385 ;;  s               2  [STACK] PTR unsigned char 
  4386 ;;		 -> ?_printf(2), ?_sprintf(2), V(69), 
  4387 ;; Auto vars:     Size  Location     Type
  4388 ;;  nuls            7  [STACK] unsigned char [7]
  4389 ;;  l               2  [STACK] int 
  4390 ;;  p               2  [STACK] int 
  4391 ;;  cp              2  [STACK] PTR unsigned char 
  4392 ;;		 -> ?_printf(2), ?_sprintf(2), nuls(7), V(69), 
  4393 ;;  w               2  [STACK] int 
  4394 ;;  i               2  [STACK] int 
  4395 ;; Return value:  Size  Location     Type
  4396 ;;                  2  [STACK] int 
  4397 ;; Registers used:
  4398 ;;		wreg, fsr0l, fsr0h, fsr1l, fsr1h, fsr2l, fsr2h, status,2, status,0, btemp, btemp+1, btemp+8, btemp+9, btemp+10, btem
      +p+11, prodl
  4399 ;; Tracked objects:
  4400 ;;		On entry : 0/3D
  4401 ;;		On exit  : 0/0
  4402 ;;		Unchanged: 0/0
  4403 ;; Data sizes:     COMRAM   BANK0   BANK1   BANK2   BANK3   BANK4   BANK5   BANK6   BANK7   BANK8   BANK9  BANK10  BANK1
      +1  BANK12  BANK13  BANK14  BANK15  BANK16  BANK17  BANK18  BANK19  BANK20  BANK21  BANK22  BANK23  BANK24  BANK25  BANK2
      +6  BANK27  BANK28  BANK29  BANK30  BANK31
  4404 ;;      Params:         0       0       0       0       0       0       0       0       0       0       0       0       
      +0       0       0       0       0       0       0       0       0       0       0       0       0       0       0       
      +0       0       0       0       0       0
  4405 ;;      Locals:         0       0       0       0       0       0       0       0       0       0       0       0       
      +0       0       0       0       0       0       0       0       0       0       0       0       0       0       0       
      +0       0       0       0       0       0
  4406 ;;      Temps:          0       0       0       0       0       0       0       0       0       0       0       0       
      +0       0       0       0       0       0       0       0       0       0       0       0       0       0       0       
      +0       0       0       0       0       0
  4407 ;;      Totals:         0       0       0       0       0       0       0       0       0       0       0       0       
      +0       0       0       0       0       0       0       0       0       0       0       0       0       0       0       
      +0       0       0       0       0       0
  4408 ;;Total ram usage:        0 bytes
  4409 ;; Hardware stack levels used:    1
  4410 ;; Hardware stack levels required when called:    6
  4411 ;; This function calls:
  4412 ;;		_fputc
  4413 ;;		_strlen
  4414 ;; This function is called by:
  4415 ;;		_vfpfcnvrt
  4416 ;; This function uses a reentrant model
  4417 ;;
  4418                           
  4419                           	psect	text24
  4420  002F44                     __ptext24:
  4421                           	opt callstack 0
  4422  002F44                     _stoa:
  4423                           	opt callstack 0
  4424                           
  4425                           ; autosize = 17, savesize = 0, parsavesize = 0, tempsize = 0 parsize = 4, argsize = 4 va
      +                          rgsize = 0, retsize = 0 argfudge = 0
  4426  002F44  0E11               	movlw	17
  4427  002F46  26E1               	addwf	fsr1l,f,c
  4428  002F48  0E00               	movlw	0
  4429  002F4A  22E2               	addwfc	fsr1h,f,c
  4430                           
  4431                           ;/opt/microchip/xc8/v2.05/pic/sources/c99/common/doprnt.c: 546: static int stoa(FILE *fp
      +                          , char *s);/opt/microchip/xc8/v2.05/pic/sources/c99/common/doprnt.c: 547: {;/opt/microch
      +                          ip/xc8/v2.05/pic/sources/c99/common/doprnt.c: 548:     char *cp, nuls[] = "(null)";
  4432                           
  4433                           ;incstack = 0
  4434  002F4C  EE20  F0C9         	lfsr	2,stoa@F1139
  4435                           
  4436                           ;stkvar	_nuls @ sp[(-17)+0]
  4437  002F50  0E07               	movlw	7
  4438  002F52  6E3C               	movwf	btemp,c
  4439  002F54  0EEF               	movlw	-17
  4440  002F56                     us310999:
  4441  002F56  006F FF7B FFE3     	movff	postinc2,plusw1
  4442  002F5C  28E8               	incf	wreg,w,c
  4443  002F5E  2E3C               	decfsz	btemp,f,c
  4444  002F60  D7FA               	bra	us310999
  4445                           
  4446                           ;/opt/microchip/xc8/v2.05/pic/sources/c99/common/doprnt.c: 549:     int i, l, p, w;;/opt
      +                          /microchip/xc8/v2.05/pic/sources/c99/common/doprnt.c: 552:     cp = s;
  4447                           ;stkvar	_s @ sp[(-17)+-4]
  4448  002F62  0EEB               	movlw	-21
  4449  002F64  006F FF8C  F046    	movff	plusw1,btemp+10
  4450  002F6A  0EEC               	movlw	-20
  4451  002F6C  006F FF8C  F047    	movff	plusw1,btemp+11
  4452                           
  4453                           ;stkvar	_cp @ sp[(-17)+11]
  4454  002F72  0EFB               	movlw	-5
  4455  002F74  0060  F11F  FFE3   	movff	btemp+11,plusw1
  4456  002F7A  0EFA               	movlw	-6
  4457  002F7C  0060  F11B  FFE3   	movff	btemp+10,plusw1
  4458                           
  4459                           ;/opt/microchip/xc8/v2.05/pic/sources/c99/common/doprnt.c: 553:     if (!cp) {
  4460                           ;stkvar	_cp @ sp[(-17)+11]
  4461  002F82  0EFA               	movlw	-6
  4462  002F84  006F FF8C  F03C    	movff	plusw1,btemp
  4463  002F8A  0EFB               	movlw	-5
  4464  002F8C  50E3               	movf	plusw1,w,c
  4465  002F8E  103C               	iorwf	btemp,w,c
  4466  002F90  A4D8               	btfss	status,2,c
  4467  002F92  D00E               	goto	l4795
  4468                           
  4469                           ;/opt/microchip/xc8/v2.05/pic/sources/c99/common/doprnt.c: 554:         cp = nuls;
  4470                           ;stkvar	_nuls @ sp[(-17)+0]
  4471  002F94  0EEF               	movlw	239
  4472  002F96  24E1               	addwf	fsr1l,w,c
  4473  002F98  6E46               	movwf	btemp+10,c
  4474  002F9A  0EFF               	movlw	255
  4475  002F9C  20E2               	addwfc	fsr1h,w,c
  4476  002F9E  6E47               	movwf	btemp+11,c
  4477                           
  4478                           ;stkvar	_cp @ sp[(-17)+11]
  4479  002FA0  0EFB               	movlw	-5
  4480  002FA2  0060  F11F  FFE3   	movff	btemp+11,plusw1
  4481  002FA8  0EFA               	movlw	-6
  4482  002FAA  0060  F11B  FFE3   	movff	btemp+10,plusw1
  4483  002FB0                     l4795:
  4484                           
  4485                           ;/opt/microchip/xc8/v2.05/pic/sources/c99/common/doprnt.c: 558:     l = strlen(cp);
  4486                           ;stkvar	_cp @ sp[(-17)+11]
  4487  002FB0  0EFA               	movlw	-6
  4488  002FB2  006F FF8F FFE6     	movff	plusw1,postinc1
  4489  002FB8  006F FF8F FFE6     	movff	plusw1,postinc1
  4490  002FBE  ECE7  F01F         	call	_strlen	;wreg free
  4491                           
  4492                           ;stkvar	_l @ sp[(-17)+7]
  4493  002FC2  0EF6               	movlw	-10
  4494  002FC4  0060  F0F3  FFE3   	movff	btemp,plusw1
  4495  002FCA  0EF7               	movlw	-9
  4496  002FCC  0060  F0F7  FFE3   	movff	btemp+1,plusw1
  4497                           
  4498                           ;/opt/microchip/xc8/v2.05/pic/sources/c99/common/doprnt.c: 559:     p = prec;
  4499                           ;stkvar	_p @ sp[(-17)+9]
  4500  002FD2  0EF8               	movlw	-8
  4501  002FD4  0060  F0B3  FFE3   	movff	_prec,plusw1
  4502  002FDA  0EF9               	movlw	-7
  4503  002FDC  0060  F0B7  FFE3   	movff	_prec+1,plusw1
  4504                           
  4505                           ;/opt/microchip/xc8/v2.05/pic/sources/c99/common/doprnt.c: 560:     l = (!(p < 0) && (p 
      +                          < l)) ? p : l;
  4506                           ;stkvar	_p @ sp[(-17)+9]
  4507  002FE2  0EF9               	movlw	-7
  4508  002FE4  BEE3               	btfsc	plusw1,7,c
  4509  002FE6  D023               	goto	l1379
  4510                           
  4511                           ;stkvar	_l @ sp[(-17)+7]
  4512                           ;stkvar	_p @ sp[(-17)+9]
  4513  002FE8  50E1               	movf	fsr1l,w,c
  4514  002FEA  0FF8               	addlw	-8
  4515  002FEC  6ED9               	movwf	fsr2l,c
  4516  002FEE  50E2               	movf	fsr1h,w,c
  4517  002FF0  6EDA               	movwf	fsr2h,c
  4518  002FF2  0EFF               	movlw	255
  4519  002FF4  22DA               	addwfc	fsr2h,f,c
  4520  002FF6  0EF6               	movlw	-10
  4521  002FF8  50E3               	movf	plusw1,w,c
  4522  002FFA  5CDE               	subwf	postinc2,w,c
  4523  002FFC  50DE               	movf	postinc2,w,c
  4524  002FFE  0A80               	xorlw	128
  4525  003000  6E3C               	movwf	btemp,c
  4526  003002  0EF7               	movlw	-9
  4527  003004  50E3               	movf	plusw1,w,c
  4528  003006  0A80               	xorlw	128
  4529  003008  583C               	subwfb	btemp,w,c
  4530  00300A  B0D8               	btfsc	status,0,c
  4531  00300C  D010               	goto	l1379
  4532                           
  4533                           ;stkvar	_p @ sp[(-17)+9]
  4534                           ;stkvar	_l @ sp[(-17)+7]
  4535  00300E  0EF8               	movlw	-8
  4536  003010  006F FF8C  F03C    	movff	plusw1,btemp
  4537  003016  0EF6               	movlw	-10
  4538  003018  0060  F0F3  FFE3   	movff	btemp,plusw1
  4539  00301E  0EF9               	movlw	-7
  4540  003020  006F FF8C  F03C    	movff	plusw1,btemp
  4541  003026  0EF7               	movlw	-9
  4542  003028  0060  F0F3  FFE3   	movff	btemp,plusw1
  4543  00302E                     l1379:
  4544                           
  4545                           ;/opt/microchip/xc8/v2.05/pic/sources/c99/common/doprnt.c: 561:     p = l;
  4546                           ;stkvar	_l @ sp[(-17)+7]
  4547                           ;stkvar	_p @ sp[(-17)+9]
  4548  00302E  0EF6               	movlw	-10
  4549  003030  006F FF8C  F03C    	movff	plusw1,btemp
  4550  003036  0EF8               	movlw	-8
  4551  003038  0060  F0F3  FFE3   	movff	btemp,plusw1
  4552  00303E  0EF7               	movlw	-9
  4553  003040  006F FF8C  F03C    	movff	plusw1,btemp
  4554  003046  0EF9               	movlw	-7
  4555  003048  0060  F0F3  FFE3   	movff	btemp,plusw1
  4556                           
  4557                           ;/opt/microchip/xc8/v2.05/pic/sources/c99/common/doprnt.c: 562:     w = width;
  4558                           ;stkvar	_w @ sp[(-17)+13]
  4559  00304E  0EFC               	movlw	-4
  4560  003050  0060  F0AB  FFE3   	movff	_width,plusw1
  4561  003056  0EFD               	movlw	-3
  4562  003058  0060  F0AF  FFE3   	movff	_width+1,plusw1
  4563                           
  4564                           ;/opt/microchip/xc8/v2.05/pic/sources/c99/common/doprnt.c: 565:     if (!(flags & (1 << 
      +                          0))) {
  4565  00305E  A02E               	btfss	_flags,0,c
  4566  003060  D01F               	goto	l4815
  4567  003062  D031               	goto	u3150
  4568  003064                     l4811:
  4569                           
  4570                           ;/opt/microchip/xc8/v2.05/pic/sources/c99/common/doprnt.c: 567:             fputc(' ', f
      +                          p);
  4571                           ;stkvar	_fp @ sp[(-17)+-2]
  4572  003064  0EED               	movlw	-19
  4573  003066  006F FF8F FFE6     	movff	plusw1,postinc1
  4574  00306C  006F FF8F FFE6     	movff	plusw1,postinc1
  4575  003072  0E20               	movlw	32
  4576  003074  6EE6               	movwf	postinc1,c
  4577  003076  0E00               	movlw	0
  4578  003078  6EE6               	movwf	postinc1,c
  4579  00307A  ECE3  F01B         	call	_fputc	;wreg free
  4580                           
  4581                           ;/opt/microchip/xc8/v2.05/pic/sources/c99/common/doprnt.c: 568:             ++l;
  4582                           ;stkvar	_l @ sp[(-17)+7]
  4583  00307E  0EF6               	movlw	-10
  4584  003080  50E3               	movf	plusw1,w,c
  4585  003082  0F01               	addlw	1
  4586  003084  6E3C               	movwf	btemp,c
  4587  003086  0EF6               	movlw	-10
  4588  003088  0060  F0F3  FFE3   	movff	btemp,plusw1
  4589  00308E  6A3C               	clrf	btemp,c
  4590  003090  0EF7               	movlw	-9
  4591  003092  50E3               	movf	plusw1,w,c
  4592  003094  203C               	addwfc	btemp,w,c
  4593  003096  6E3C               	movwf	btemp,c
  4594  003098  0EF7               	movlw	-9
  4595  00309A  0060  F0F3  FFE3   	movff	btemp,plusw1
  4596  0030A0                     l4815:
  4597                           
  4598                           ;/opt/microchip/xc8/v2.05/pic/sources/c99/common/doprnt.c: 566:         while (l < w) {
  4599                           ;stkvar	_w @ sp[(-17)+13]
  4600                           ;stkvar	_l @ sp[(-17)+7]
  4601  0030A0  50E1               	movf	fsr1l,w,c
  4602  0030A2  0FF6               	addlw	-10
  4603  0030A4  6ED9               	movwf	fsr2l,c
  4604  0030A6  50E2               	movf	fsr1h,w,c
  4605  0030A8  6EDA               	movwf	fsr2h,c
  4606  0030AA  0EFF               	movlw	255
  4607  0030AC  22DA               	addwfc	fsr2h,f,c
  4608  0030AE  0EFC               	movlw	-4
  4609  0030B0  50E3               	movf	plusw1,w,c
  4610  0030B2  5CDE               	subwf	postinc2,w,c
  4611  0030B4  50DE               	movf	postinc2,w,c
  4612  0030B6  0A80               	xorlw	128
  4613  0030B8  6E3C               	movwf	btemp,c
  4614  0030BA  0EFD               	movlw	-3
  4615  0030BC  50E3               	movf	plusw1,w,c
  4616  0030BE  0A80               	xorlw	128
  4617  0030C0  583C               	subwfb	btemp,w,c
  4618  0030C2  A0D8               	btfss	status,0,c
  4619  0030C4  D7CF               	goto	l4811
  4620  0030C6                     u3150:
  4621                           
  4622                           ;/opt/microchip/xc8/v2.05/pic/sources/c99/common/doprnt.c: 573:     i = 0;
  4623                           ;stkvar	_i @ sp[(-17)+15]
  4624  0030C6  0EFE               	movlw	-2
  4625  0030C8  6AE3               	clrf	plusw1,c
  4626  0030CA  0EFF               	movlw	-1
  4627  0030CC  6AE3               	clrf	plusw1,c
  4628                           
  4629                           ;/opt/microchip/xc8/v2.05/pic/sources/c99/common/doprnt.c: 574:     while (i < p) {
  4630  0030CE  D037               	goto	l4825
  4631  0030D0                     l4819:
  4632                           
  4633                           ;/opt/microchip/xc8/v2.05/pic/sources/c99/common/doprnt.c: 575:         fputc(*cp, fp);
  4634                           ;stkvar	_fp @ sp[(-17)+-2]
  4635  0030D0  0EED               	movlw	-19
  4636  0030D2  006F FF8F FFE6     	movff	plusw1,postinc1
  4637  0030D8  006F FF8F FFE6     	movff	plusw1,postinc1
  4638                           
  4639                           ;stkvar	_cp @ sp[(-19)+11]
  4640  0030DE  0EF8               	movlw	-8
  4641  0030E0  006F FF8F FFD9     	movff	plusw1,fsr2l
  4642  0030E6  0EF9               	movlw	-7
  4643  0030E8  006F FF8F FFDA     	movff	plusw1,fsr2h
  4644  0030EE  50DF               	movf	indf2,w,c
  4645  0030F0  6EE6               	movwf	postinc1,c
  4646  0030F2  0E00               	movlw	0
  4647  0030F4  6EE6               	movwf	postinc1,c
  4648  0030F6  ECE3  F01B         	call	_fputc	;wreg free
  4649                           
  4650                           ;/opt/microchip/xc8/v2.05/pic/sources/c99/common/doprnt.c: 576:         ++cp;
  4651                           ;stkvar	_cp @ sp[(-17)+11]
  4652  0030FA  0EFA               	movlw	-6
  4653  0030FC  50E3               	movf	plusw1,w,c
  4654  0030FE  0F01               	addlw	1
  4655  003100  6E3C               	movwf	btemp,c
  4656  003102  0EFA               	movlw	-6
  4657  003104  0060  F0F3  FFE3   	movff	btemp,plusw1
  4658  00310A  6A3C               	clrf	btemp,c
  4659  00310C  0EFB               	movlw	-5
  4660  00310E  50E3               	movf	plusw1,w,c
  4661  003110  203C               	addwfc	btemp,w,c
  4662  003112  6E3C               	movwf	btemp,c
  4663  003114  0EFB               	movlw	-5
  4664  003116  0060  F0F3  FFE3   	movff	btemp,plusw1
  4665                           
  4666                           ;/opt/microchip/xc8/v2.05/pic/sources/c99/common/doprnt.c: 577:         ++i;
  4667                           ;stkvar	_i @ sp[(-17)+15]
  4668  00311C  0EFE               	movlw	-2
  4669  00311E  50E3               	movf	plusw1,w,c
  4670  003120  0F01               	addlw	1
  4671  003122  6E3C               	movwf	btemp,c
  4672  003124  0EFE               	movlw	-2
  4673  003126  0060  F0F3  FFE3   	movff	btemp,plusw1
  4674  00312C  6A3C               	clrf	btemp,c
  4675  00312E  0EFF               	movlw	-1
  4676  003130  50E3               	movf	plusw1,w,c
  4677  003132  203C               	addwfc	btemp,w,c
  4678  003134  6E3C               	movwf	btemp,c
  4679  003136  0EFF               	movlw	-1
  4680  003138  0060  F0F3  FFE3   	movff	btemp,plusw1
  4681  00313E                     l4825:
  4682                           
  4683                           ;/opt/microchip/xc8/v2.05/pic/sources/c99/common/doprnt.c: 574:     while (i < p) {
  4684                           ;stkvar	_p @ sp[(-17)+9]
  4685                           ;stkvar	_i @ sp[(-17)+15]
  4686  00313E  50E1               	movf	fsr1l,w,c
  4687  003140  0FFE               	addlw	-2
  4688  003142  6ED9               	movwf	fsr2l,c
  4689  003144  50E2               	movf	fsr1h,w,c
  4690  003146  6EDA               	movwf	fsr2h,c
  4691  003148  0EFF               	movlw	255
  4692  00314A  22DA               	addwfc	fsr2h,f,c
  4693  00314C  0EF8               	movlw	-8
  4694  00314E  50E3               	movf	plusw1,w,c
  4695  003150  5CDE               	subwf	postinc2,w,c
  4696  003152  50DE               	movf	postinc2,w,c
  4697  003154  0A80               	xorlw	128
  4698  003156  6E3C               	movwf	btemp,c
  4699  003158  0EF9               	movlw	-7
  4700  00315A  50E3               	movf	plusw1,w,c
  4701  00315C  0A80               	xorlw	128
  4702  00315E  583C               	subwfb	btemp,w,c
  4703  003160  A0D8               	btfss	status,0,c
  4704  003162  D7B6               	goto	l4819
  4705                           
  4706                           ;/opt/microchip/xc8/v2.05/pic/sources/c99/common/doprnt.c: 581:     if (flags & (1 << 0)
      +                          ) {
  4707  003164  B02E               	btfsc	_flags,0,c
  4708  003166  D01F               	goto	l4833
  4709  003168  D031               	goto	u3180
  4710  00316A                     l4829:
  4711                           
  4712                           ;/opt/microchip/xc8/v2.05/pic/sources/c99/common/doprnt.c: 583:             fputc(' ', f
      +                          p);
  4713                           ;stkvar	_fp @ sp[(-17)+-2]
  4714  00316A  0EED               	movlw	-19
  4715  00316C  006F FF8F FFE6     	movff	plusw1,postinc1
  4716  003172  006F FF8F FFE6     	movff	plusw1,postinc1
  4717  003178  0E20               	movlw	32
  4718  00317A  6EE6               	movwf	postinc1,c
  4719  00317C  0E00               	movlw	0
  4720  00317E  6EE6               	movwf	postinc1,c
  4721  003180  ECE3  F01B         	call	_fputc	;wreg free
  4722                           
  4723                           ;/opt/microchip/xc8/v2.05/pic/sources/c99/common/doprnt.c: 584:             ++l;
  4724                           ;stkvar	_l @ sp[(-17)+7]
  4725  003184  0EF6               	movlw	-10
  4726  003186  50E3               	movf	plusw1,w,c
  4727  003188  0F01               	addlw	1
  4728  00318A  6E3C               	movwf	btemp,c
  4729  00318C  0EF6               	movlw	-10
  4730  00318E  0060  F0F3  FFE3   	movff	btemp,plusw1
  4731  003194  6A3C               	clrf	btemp,c
  4732  003196  0EF7               	movlw	-9
  4733  003198  50E3               	movf	plusw1,w,c
  4734  00319A  203C               	addwfc	btemp,w,c
  4735  00319C  6E3C               	movwf	btemp,c
  4736  00319E  0EF7               	movlw	-9
  4737  0031A0  0060  F0F3  FFE3   	movff	btemp,plusw1
  4738  0031A6                     l4833:
  4739                           
  4740                           ;/opt/microchip/xc8/v2.05/pic/sources/c99/common/doprnt.c: 582:         while (l < w) {
  4741                           ;stkvar	_w @ sp[(-17)+13]
  4742                           ;stkvar	_l @ sp[(-17)+7]
  4743  0031A6  50E1               	movf	fsr1l,w,c
  4744  0031A8  0FF6               	addlw	-10
  4745  0031AA  6ED9               	movwf	fsr2l,c
  4746  0031AC  50E2               	movf	fsr1h,w,c
  4747  0031AE  6EDA               	movwf	fsr2h,c
  4748  0031B0  0EFF               	movlw	255
  4749  0031B2  22DA               	addwfc	fsr2h,f,c
  4750  0031B4  0EFC               	movlw	-4
  4751  0031B6  50E3               	movf	plusw1,w,c
  4752  0031B8  5CDE               	subwf	postinc2,w,c
  4753  0031BA  50DE               	movf	postinc2,w,c
  4754  0031BC  0A80               	xorlw	128
  4755  0031BE  6E3C               	movwf	btemp,c
  4756  0031C0  0EFD               	movlw	-3
  4757  0031C2  50E3               	movf	plusw1,w,c
  4758  0031C4  0A80               	xorlw	128
  4759  0031C6  583C               	subwfb	btemp,w,c
  4760  0031C8  A0D8               	btfss	status,0,c
  4761  0031CA  D7CF               	goto	l4829
  4762  0031CC                     u3180:
  4763                           
  4764                           ;/opt/microchip/xc8/v2.05/pic/sources/c99/common/doprnt.c: 588:     return l;
  4765                           ;stkvar	_l @ sp[(-17)+7]
  4766  0031CC  0EF6               	movlw	-10
  4767  0031CE  006F FF8C  F03C    	movff	plusw1,btemp
  4768  0031D4  0EF7               	movlw	-9
  4769  0031D6  006F FF8C  F03D    	movff	plusw1,btemp+1
  4770                           
  4771                           ; _stoa: autosize = 17, savesize = 0, parsavesize = 0, tempsize = 0 parsize = 4, argsize
      +                           = 4, vargsize = 0
  4772  0031DC  0EEB               	movlw	235
  4773  0031DE  26E1               	addwf	fsr1l,f,c
  4774  0031E0  0EFF               	movlw	255
  4775  0031E2  22E2               	addwfc	fsr1h,f,c
  4776  0031E4  0012               	return		;funcret
  4777  0031E6                     __end_of_stoa:
  4778                           	opt callstack 0
  4779                           
  4780 ;; *************** function _dtoa *****************
  4781 ;; Defined at:
  4782 ;;		line 274 in file "/opt/microchip/xc8/v2.05/pic/sources/c99/common/doprnt.c"
  4783 ;; Parameters:    Size  Location     Type
  4784 ;;  fp              2  [STACK] PTR struct _IO_FILE
  4785 ;;		 -> f(5), NULL(0), 
  4786 ;;  d               8  [STACK] long long 
  4787 ;; Auto vars:     Size  Location     Type
  4788 ;;  n               8  [STACK] long long 
  4789 ;;  i               2  [STACK] int 
  4790 ;;  s               2  [STACK] int 
  4791 ;;  w               2  [STACK] int 
  4792 ;;  p               2  [STACK] int 
  4793 ;; Return value:  Size  Location     Type
  4794 ;;                  2  [STACK] int 
  4795 ;; Registers used:
  4796 ;;		wreg, fsr0l, fsr0h, fsr1l, fsr1h, fsr2l, fsr2h, status,2, status,0, btemp, btemp+1, btemp+8, btemp+9, btemp+10, btem
      +p+11, btemp+16, btemp+17, btemp+18, btemp+19, btemp+20, btemp+21, btemp+22, btemp+23, prodl
  4797 ;; Tracked objects:
  4798 ;;		On entry : 0/3D
  4799 ;;		On exit  : 0/0
  4800 ;;		Unchanged: 0/0
  4801 ;; Data sizes:     COMRAM   BANK0   BANK1   BANK2   BANK3   BANK4   BANK5   BANK6   BANK7   BANK8   BANK9  BANK10  BANK1
      +1  BANK12  BANK13  BANK14  BANK15  BANK16  BANK17  BANK18  BANK19  BANK20  BANK21  BANK22  BANK23  BANK24  BANK25  BANK2
      +6  BANK27  BANK28  BANK29  BANK30  BANK31
  4802 ;;      Params:         0       0       0       0       0       0       0       0       0       0       0       0       
      +0       0       0       0       0       0       0       0       0       0       0       0       0       0       0       
      +0       0       0       0       0       0
  4803 ;;      Locals:         0       0       0       0       0       0       0       0       0       0       0       0       
      +0       0       0       0       0       0       0       0       0       0       0       0       0       0       0       
      +0       0       0       0       0       0
  4804 ;;      Temps:          0       0       0       0       0       0       0       0       0       0       0       0       
      +0       0       0       0       0       0       0       0       0       0       0       0       0       0       0       
      +0       0       0       0       0       0
  4805 ;;      Totals:         0       0       0       0       0       0       0       0       0       0       0       0       
      +0       0       0       0       0       0       0       0       0       0       0       0       0       0       0       
      +0       0       0       0       0       0
  4806 ;;Total ram usage:        0 bytes
  4807 ;; Hardware stack levels used:    1
  4808 ;; Hardware stack levels required when called:    8
  4809 ;; This function calls:
  4810 ;;		___aodiv
  4811 ;;		___aomod
  4812 ;;		_abs
  4813 ;;		_pad
  4814 ;; This function is called by:
  4815 ;;		_vfpfcnvrt
  4816 ;; This function uses a reentrant model
  4817 ;;
  4818                           
  4819                           	psect	text25
  4820  00247E                     __ptext25:
  4821                           	opt callstack 0
  4822  00247E                     _dtoa:
  4823                           	opt callstack 0
  4824                           
  4825                           ; autosize = 18, savesize = 0, parsavesize = 0, tempsize = 0 parsize = 10, argsize = 10 
      +                          vargsize = 0, retsize = 0 argfudge = 0
  4826  00247E  0E12               	movlw	18
  4827  002480  26E1               	addwf	fsr1l,f,c
  4828  002482  0E00               	movlw	0
  4829  002484  22E2               	addwfc	fsr1h,f,c
  4830                           
  4831                           ;/opt/microchip/xc8/v2.05/pic/sources/c99/common/doprnt.c: 274: static int dtoa(FILE *fp
      +                          , long long d);/opt/microchip/xc8/v2.05/pic/sources/c99/common/doprnt.c: 275: {;/opt/mic
      +                          rochip/xc8/v2.05/pic/sources/c99/common/doprnt.c: 276:     int i, p, s, w;;/opt/microchi
      +                          p/xc8/v2.05/pic/sources/c99/common/doprnt.c: 277:     long long n;;/opt/microchip/xc8/v2
      +                          .05/pic/sources/c99/common/doprnt.c: 280:     n = d;
  4832                           ;stkvar	_d @ sp[(-18)+-10]
  4833                           
  4834                           ;incstack = 0
  4835  002486  0EE4               	movlw	228
  4836  002488  24E1               	addwf	fsr1l,w,c
  4837  00248A  6ED9               	movwf	fsr2l,c
  4838  00248C  0EFF               	movlw	255
  4839  00248E  20E2               	addwfc	fsr1h,w,c
  4840  002490  6EDA               	movwf	fsr2h,c
  4841                           
  4842                           ;stkvar	_n @ sp[(-18)+2]
  4843  002492  0E08               	movlw	8
  4844  002494  6E3C               	movwf	btemp,c
  4845  002496  0EF0               	movlw	-16
  4846  002498                     us293999:
  4847  002498  006F FF7B FFE3     	movff	postinc2,plusw1
  4848  00249E  28E8               	incf	wreg,w,c
  4849  0024A0  2E3C               	decfsz	btemp,f,c
  4850  0024A2  D7FA               	bra	us293999
  4851                           
  4852                           ;/opt/microchip/xc8/v2.05/pic/sources/c99/common/doprnt.c: 281:     s = n < 0 ? 1 : 0;
  4853                           ;stkvar	_n @ sp[(-18)+2]
  4854  0024A4  0EF7               	movlw	-9
  4855  0024A6  AEE3               	btfss	plusw1,7,c
  4856  0024A8  D002               	goto	u2940
  4857  0024AA  0E01               	movlw	1
  4858  0024AC  D001               	goto	u2950
  4859  0024AE                     u2940:
  4860  0024AE  0E00               	movlw	0
  4861  0024B0                     u2950:
  4862  0024B0  6E46               	movwf	btemp+10,c
  4863  0024B2  6A47               	clrf	btemp+11,c
  4864                           
  4865                           ;stkvar	_s @ sp[(-18)+12]
  4866  0024B4  0EFA               	movlw	-6
  4867  0024B6  0060  F11B  FFE3   	movff	btemp+10,plusw1
  4868  0024BC  0EFB               	movlw	-5
  4869  0024BE  0060  F11F  FFE3   	movff	btemp+11,plusw1
  4870                           
  4871                           ;/opt/microchip/xc8/v2.05/pic/sources/c99/common/doprnt.c: 282:     if (s) {
  4872                           ;stkvar	_s @ sp[(-18)+12]
  4873  0024C4  0EFA               	movlw	-6
  4874  0024C6  006F FF8C  F03C    	movff	plusw1,btemp
  4875  0024CC  0EFB               	movlw	-5
  4876  0024CE  50E3               	movf	plusw1,w,c
  4877  0024D0  103C               	iorwf	btemp,w,c
  4878  0024D2  B4D8               	btfsc	status,2,c
  4879  0024D4  D025               	goto	u2970
  4880                           
  4881                           ;/opt/microchip/xc8/v2.05/pic/sources/c99/common/doprnt.c: 283:         n = -n;
  4882                           ;stkvar	_n @ sp[(-18)+2]
  4883                           ;stkvar	_n @ sp[(-18)+2]
  4884  0024D6  0EF0               	movlw	-16
  4885  0024D8  6CE3               	negf	plusw1,c
  4886  0024DA  0EF1               	movlw	-15
  4887  0024DC  1EE3               	comf	plusw1,f,c
  4888  0024DE  0EF2               	movlw	-14
  4889  0024E0  1EE3               	comf	plusw1,f,c
  4890  0024E2  0EF3               	movlw	-13
  4891  0024E4  1EE3               	comf	plusw1,f,c
  4892  0024E6  0EF4               	movlw	-12
  4893  0024E8  1EE3               	comf	plusw1,f,c
  4894  0024EA  0EF5               	movlw	-11
  4895  0024EC  1EE3               	comf	plusw1,f,c
  4896  0024EE  0EF6               	movlw	-10
  4897  0024F0  1EE3               	comf	plusw1,f,c
  4898  0024F2  0EF7               	movlw	-9
  4899  0024F4  1EE3               	comf	plusw1,f,c
  4900  0024F6  E314               	bnc	u2970
  4901  0024F8  0EF1               	movlw	-15
  4902  0024FA  2AE3               	incf	plusw1,f,c
  4903  0024FC  E311               	bnc	u2970
  4904  0024FE  0EF2               	movlw	-14
  4905  002500  2AE3               	incf	plusw1,f,c
  4906  002502  E30E               	bnc	u2970
  4907  002504  0EF3               	movlw	-13
  4908  002506  2AE3               	incf	plusw1,f,c
  4909  002508  E30B               	bnc	u2970
  4910  00250A  0EF4               	movlw	-12
  4911  00250C  2AE3               	incf	plusw1,f,c
  4912  00250E  E308               	bnc	u2970
  4913  002510  0EF5               	movlw	-11
  4914  002512  2AE3               	incf	plusw1,f,c
  4915  002514  E305               	bnc	u2970
  4916  002516  0EF6               	movlw	-10
  4917  002518  2AE3               	incf	plusw1,f,c
  4918  00251A  E302               	bnc	u2970
  4919  00251C  0EF7               	movlw	-9
  4920  00251E  2AE3               	incf	plusw1,f,c
  4921  002520                     u2970:
  4922                           
  4923                           ;/opt/microchip/xc8/v2.05/pic/sources/c99/common/doprnt.c: 287:     if (!(prec < 0)) {
  4924  002520  AE2D               	btfss	_prec+1,7,c
  4925                           
  4926                           ;/opt/microchip/xc8/v2.05/pic/sources/c99/common/doprnt.c: 288:         flags &= ~(1 << 
      +                          1);
  4927  002522  922E               	bcf	_flags,1,c
  4928                           
  4929                           ;/opt/microchip/xc8/v2.05/pic/sources/c99/common/doprnt.c: 290:     p = (0 < prec) ? pre
      +                          c : 1;
  4930  002524  BE2D               	btfsc	_prec+1,7,c
  4931  002526  D005               	goto	u2990
  4932  002528  502D               	movf	_prec+1,w,c
  4933  00252A  E110               	bnz	l4737
  4934  00252C  042C               	decf	_prec,w,c
  4935  00252E  B0D8               	btfsc	status,0,c
  4936  002530  D00D               	goto	l4737
  4937  002532                     u2990:
  4938  002532  0E01               	movlw	1
  4939  002534  6E46               	movwf	btemp+10,c
  4940  002536  0E00               	movlw	0
  4941  002538  6E47               	movwf	btemp+11,c
  4942                           
  4943                           ;stkvar	_p @ sp[(-18)+16]
  4944  00253A  0EFE               	movlw	-2
  4945  00253C  0060  F11B  FFE3   	movff	btemp+10,plusw1
  4946  002542  0EFF               	movlw	-1
  4947  002544  0060  F11F  FFE3   	movff	btemp+11,plusw1
  4948  00254A  D008               	goto	l1352
  4949  00254C                     l4737:
  4950                           
  4951                           ;stkvar	_p @ sp[(-18)+16]
  4952  00254C  0EFE               	movlw	-2
  4953  00254E  0060  F0B3  FFE3   	movff	_prec,plusw1
  4954  002554  0EFF               	movlw	-1
  4955  002556  0060  F0B7  FFE3   	movff	_prec+1,plusw1
  4956  00255C                     l1352:
  4957                           
  4958                           ;/opt/microchip/xc8/v2.05/pic/sources/c99/common/doprnt.c: 291:     w = width;
  4959                           ;stkvar	_w @ sp[(-18)+14]
  4960  00255C  0EFC               	movlw	-4
  4961  00255E  0060  F0AB  FFE3   	movff	_width,plusw1
  4962  002564  0EFD               	movlw	-3
  4963  002566  0060  F0AF  FFE3   	movff	_width+1,plusw1
  4964                           
  4965                           ;/opt/microchip/xc8/v2.05/pic/sources/c99/common/doprnt.c: 292:     if (s || (flags & (1
      +                           << 2))) {
  4966                           ;stkvar	_s @ sp[(-18)+12]
  4967  00256C  0EFA               	movlw	-6
  4968  00256E  006F FF8C  F03C    	movff	plusw1,btemp
  4969  002574  0EFB               	movlw	-5
  4970  002576  50E3               	movf	plusw1,w,c
  4971  002578  103C               	iorwf	btemp,w,c
  4972  00257A  A4D8               	btfss	status,2,c
  4973  00257C  D002               	goto	u3010
  4974  00257E  A42E               	btfss	_flags,2,c
  4975  002580  D00A               	goto	l4745
  4976  002582                     u3010:
  4977                           
  4978                           ;/opt/microchip/xc8/v2.05/pic/sources/c99/common/doprnt.c: 293:         --w;
  4979                           ;stkvar	_w @ sp[(-18)+14]
  4980  002582  50E1               	movf	fsr1l,w,c
  4981  002584  0FFC               	addlw	-4
  4982  002586  6ED9               	movwf	fsr2l,c
  4983  002588  50E2               	movf	fsr1h,w,c
  4984  00258A  6EDA               	movwf	fsr2h,c
  4985  00258C  0EFF               	movlw	255
  4986  00258E  22DA               	addwfc	fsr2h,f,c
  4987  002590  06DE               	decf	postinc2,f,c
  4988  002592  0E00               	movlw	0
  4989  002594  5ADD               	subwfb	postdec2,f,c
  4990  002596                     l4745:
  4991                           
  4992                           ;/opt/microchip/xc8/v2.05/pic/sources/c99/common/doprnt.c: 297:     i = sizeof(dbuf) - 1
      +                          ;
  4993  002596  0E1F               	movlw	31
  4994  002598  6E46               	movwf	btemp+10,c
  4995  00259A  0E00               	movlw	0
  4996  00259C  6E47               	movwf	btemp+11,c
  4997                           
  4998                           ;stkvar	_i @ sp[(-18)+10]
  4999  00259E  0EF8               	movlw	-8
  5000  0025A0  0060  F11B  FFE3   	movff	btemp+10,plusw1
  5001  0025A6  0EF9               	movlw	-7
  5002  0025A8  0060  F11F  FFE3   	movff	btemp+11,plusw1
  5003                           
  5004                           ;/opt/microchip/xc8/v2.05/pic/sources/c99/common/doprnt.c: 298:     dbuf[i] = '\0';
  5005  0025AE  0100               	movlb	0	; () banked
  5006  0025B0  6BC8               	clrf	(_dbuf+31)& (0+255),b
  5007                           
  5008                           ;/opt/microchip/xc8/v2.05/pic/sources/c99/common/doprnt.c: 299:     while (!(i < 1) && (
      +                          n || (0 < p) || ((0 < w) && (flags & (1 << 1))))) {
  5009  0025B2  D103               	goto	l4759
  5010  0025B4                     l4749:
  5011                           
  5012                           ;/opt/microchip/xc8/v2.05/pic/sources/c99/common/doprnt.c: 300:         --i;
  5013                           ;stkvar	_i @ sp[(-18)+10]
  5014  0025B4  50E1               	movf	fsr1l,w,c
  5015  0025B6  0FF8               	addlw	-8
  5016  0025B8  6ED9               	movwf	fsr2l,c
  5017  0025BA  50E2               	movf	fsr1h,w,c
  5018  0025BC  6EDA               	movwf	fsr2h,c
  5019  0025BE  0EFF               	movlw	255
  5020  0025C0  22DA               	addwfc	fsr2h,f,c
  5021  0025C2  06DE               	decf	postinc2,f,c
  5022  0025C4  0E00               	movlw	0
  5023  0025C6  5ADD               	subwfb	postdec2,f,c
  5024                           
  5025                           ;/opt/microchip/xc8/v2.05/pic/sources/c99/common/doprnt.c: 301:         dbuf[i] = '0' + 
      +                          abs(n % 10);
  5026  0025C8  0E0A               	movlw	10
  5027  0025CA  6EE6               	movwf	postinc1,c
  5028  0025CC  0E00               	movlw	0
  5029  0025CE  6EE6               	movwf	postinc1,c
  5030  0025D0  0E00               	movlw	0
  5031  0025D2  6EE6               	movwf	postinc1,c
  5032  0025D4  0E00               	movlw	0
  5033  0025D6  6EE6               	movwf	postinc1,c
  5034  0025D8  0E00               	movlw	0
  5035  0025DA  6EE6               	movwf	postinc1,c
  5036  0025DC  0E00               	movlw	0
  5037  0025DE  6EE6               	movwf	postinc1,c
  5038  0025E0  0E00               	movlw	0
  5039  0025E2  6EE6               	movwf	postinc1,c
  5040  0025E4  0E00               	movlw	0
  5041  0025E6  6EE6               	movwf	postinc1,c
  5042                           
  5043                           ;stkvar	_n @ sp[(-26)+2]
  5044  0025E8  50E1               	movf	fsr1l,w,c
  5045  0025EA  0FE8               	addlw	-24
  5046  0025EC  6ED9               	movwf	fsr2l,c
  5047  0025EE  50E2               	movf	fsr1h,w,c
  5048  0025F0  6EDA               	movwf	fsr2h,c
  5049  0025F2  0EFF               	movlw	255
  5050  0025F4  22DA               	addwfc	fsr2h,f,c
  5051  0025F6  006F FF7B FFE6     	movff	postinc2,postinc1
  5052  0025FC  006F FF7B FFE6     	movff	postinc2,postinc1
  5053  002602  006F FF7B FFE6     	movff	postinc2,postinc1
  5054  002608  006F FF7B FFE6     	movff	postinc2,postinc1
  5055  00260E  006F FF7B FFE6     	movff	postinc2,postinc1
  5056  002614  006F FF7B FFE6     	movff	postinc2,postinc1
  5057  00261A  006F FF7B FFE6     	movff	postinc2,postinc1
  5058  002620  006F FF7B FFE6     	movff	postinc2,postinc1
  5059  002626  EC33  F01A         	call	___aomod	;wreg free
  5060  00262A  52E5               	movf	postdec1,f,c
  5061  00262C  006F FF9C  F053    	movff	indf1,btemp+23
  5062  002632  52E5               	movf	postdec1,f,c
  5063  002634  006F FF9C  F052    	movff	indf1,btemp+22
  5064  00263A  52E5               	movf	postdec1,f,c
  5065  00263C  006F FF9C  F051    	movff	indf1,btemp+21
  5066  002642  52E5               	movf	postdec1,f,c
  5067  002644  006F FF9C  F050    	movff	indf1,btemp+20
  5068  00264A  52E5               	movf	postdec1,f,c
  5069  00264C  006F FF9C  F04F    	movff	indf1,btemp+19
  5070  002652  52E5               	movf	postdec1,f,c
  5071  002654  006F FF9C  F04E    	movff	indf1,btemp+18
  5072  00265A  52E5               	movf	postdec1,f,c
  5073  00265C  006F FF9C  F04D    	movff	indf1,btemp+17
  5074  002662  52E5               	movf	postdec1,f,c
  5075  002664  006F FF9C  F04C    	movff	indf1,btemp+16
  5076  00266A  0EF8               	movlw	248
  5077  00266C  26E1               	addwf	fsr1l,f,c
  5078  00266E  0EFF               	movlw	255
  5079  002670  22E2               	addwfc	fsr1h,f,c
  5080  002672  0060  F130  F046   	movff	btemp+16,btemp+10
  5081  002678  0060  F134  F047   	movff	btemp+17,btemp+11
  5082  00267E  0060  F11B  FFE6   	movff	btemp+10,postinc1
  5083  002684  0060  F11F  FFE6   	movff	btemp+11,postinc1
  5084  00268A  EC44  F022         	call	_abs	;wreg free
  5085  00268E  0E30               	movlw	48
  5086  002690  263C               	addwf	btemp,f,c
  5087                           
  5088                           ;stkvar	_i @ sp[(-18)+10]
  5089  002692  0EF8               	movlw	-8
  5090  002694  006F FF8C  F047    	movff	plusw1,btemp+11
  5091  00269A  5047               	movf	btemp+11,w,c
  5092  00269C  0FA9               	addlw	low _dbuf
  5093  00269E  6ED9               	movwf	fsr2l,c
  5094  0026A0  6ADA               	clrf	fsr2h,c
  5095  0026A2  0060  F0F3  FFDF   	movff	btemp,indf2
  5096                           
  5097                           ;/opt/microchip/xc8/v2.05/pic/sources/c99/common/doprnt.c: 302:         --p;
  5098                           ;stkvar	_p @ sp[(-18)+16]
  5099  0026A8  50E1               	movf	fsr1l,w,c
  5100  0026AA  0FFE               	addlw	-2
  5101  0026AC  6ED9               	movwf	fsr2l,c
  5102  0026AE  50E2               	movf	fsr1h,w,c
  5103  0026B0  6EDA               	movwf	fsr2h,c
  5104  0026B2  0EFF               	movlw	255
  5105  0026B4  22DA               	addwfc	fsr2h,f,c
  5106  0026B6  06DE               	decf	postinc2,f,c
  5107  0026B8  0E00               	movlw	0
  5108  0026BA  5ADD               	subwfb	postdec2,f,c
  5109                           
  5110                           ;/opt/microchip/xc8/v2.05/pic/sources/c99/common/doprnt.c: 303:         --w;
  5111                           ;stkvar	_w @ sp[(-18)+14]
  5112  0026BC  50E1               	movf	fsr1l,w,c
  5113  0026BE  0FFC               	addlw	-4
  5114  0026C0  6ED9               	movwf	fsr2l,c
  5115  0026C2  50E2               	movf	fsr1h,w,c
  5116  0026C4  6EDA               	movwf	fsr2h,c
  5117  0026C6  0EFF               	movlw	255
  5118  0026C8  22DA               	addwfc	fsr2h,f,c
  5119  0026CA  06DE               	decf	postinc2,f,c
  5120  0026CC  0E00               	movlw	0
  5121  0026CE  5ADD               	subwfb	postdec2,f,c
  5122                           
  5123                           ;/opt/microchip/xc8/v2.05/pic/sources/c99/common/doprnt.c: 304:         n = n / 10;
  5124  0026D0  0E0A               	movlw	10
  5125  0026D2  6EE6               	movwf	postinc1,c
  5126  0026D4  0E00               	movlw	0
  5127  0026D6  6EE6               	movwf	postinc1,c
  5128  0026D8  0E00               	movlw	0
  5129  0026DA  6EE6               	movwf	postinc1,c
  5130  0026DC  0E00               	movlw	0
  5131  0026DE  6EE6               	movwf	postinc1,c
  5132  0026E0  0E00               	movlw	0
  5133  0026E2  6EE6               	movwf	postinc1,c
  5134  0026E4  0E00               	movlw	0
  5135  0026E6  6EE6               	movwf	postinc1,c
  5136  0026E8  0E00               	movlw	0
  5137  0026EA  6EE6               	movwf	postinc1,c
  5138  0026EC  0E00               	movlw	0
  5139  0026EE  6EE6               	movwf	postinc1,c
  5140                           
  5141                           ;stkvar	_n @ sp[(-26)+2]
  5142  0026F0  50E1               	movf	fsr1l,w,c
  5143  0026F2  0FE8               	addlw	-24
  5144  0026F4  6ED9               	movwf	fsr2l,c
  5145  0026F6  50E2               	movf	fsr1h,w,c
  5146  0026F8  6EDA               	movwf	fsr2h,c
  5147  0026FA  0EFF               	movlw	255
  5148  0026FC  22DA               	addwfc	fsr2h,f,c
  5149  0026FE  006F FF7B FFE6     	movff	postinc2,postinc1
  5150  002704  006F FF7B FFE6     	movff	postinc2,postinc1
  5151  00270A  006F FF7B FFE6     	movff	postinc2,postinc1
  5152  002710  006F FF7B FFE6     	movff	postinc2,postinc1
  5153  002716  006F FF7B FFE6     	movff	postinc2,postinc1
  5154  00271C  006F FF7B FFE6     	movff	postinc2,postinc1
  5155  002722  006F FF7B FFE6     	movff	postinc2,postinc1
  5156  002728  006F FF7B FFE6     	movff	postinc2,postinc1
  5157  00272E  ECF3  F018         	call	___aodiv	;wreg free
  5158  002732  52E5               	movf	postdec1,f,c
  5159  002734  006F FF9C  F053    	movff	indf1,btemp+23
  5160  00273A  52E5               	movf	postdec1,f,c
  5161  00273C  006F FF9C  F052    	movff	indf1,btemp+22
  5162  002742  52E5               	movf	postdec1,f,c
  5163  002744  006F FF9C  F051    	movff	indf1,btemp+21
  5164  00274A  52E5               	movf	postdec1,f,c
  5165  00274C  006F FF9C  F050    	movff	indf1,btemp+20
  5166  002752  52E5               	movf	postdec1,f,c
  5167  002754  006F FF9C  F04F    	movff	indf1,btemp+19
  5168  00275A  52E5               	movf	postdec1,f,c
  5169  00275C  006F FF9C  F04E    	movff	indf1,btemp+18
  5170  002762  52E5               	movf	postdec1,f,c
  5171  002764  006F FF9C  F04D    	movff	indf1,btemp+17
  5172  00276A  52E5               	movf	postdec1,f,c
  5173  00276C  006F FF9C  F04C    	movff	indf1,btemp+16
  5174  002772  0EF8               	movlw	248
  5175  002774  26E1               	addwf	fsr1l,f,c
  5176  002776  0EFF               	movlw	255
  5177  002778  22E2               	addwfc	fsr1h,f,c
  5178                           
  5179                           ;stkvar	_n @ sp[(-18)+2]
  5180  00277A  0EF0               	movlw	-16
  5181  00277C  0060  F133  FFE3   	movff	btemp+16,plusw1
  5182  002782  0EF1               	movlw	-15
  5183  002784  0060  F137  FFE3   	movff	btemp+17,plusw1
  5184  00278A  0EF2               	movlw	-14
  5185  00278C  0060  F13B  FFE3   	movff	btemp+18,plusw1
  5186  002792  0EF3               	movlw	-13
  5187  002794  0060  F13F  FFE3   	movff	btemp+19,plusw1
  5188  00279A  0EF4               	movlw	-12
  5189  00279C  0060  F143  FFE3   	movff	btemp+20,plusw1
  5190  0027A2  0EF5               	movlw	-11
  5191  0027A4  0060  F147  FFE3   	movff	btemp+21,plusw1
  5192  0027AA  0EF6               	movlw	-10
  5193  0027AC  0060  F14B  FFE3   	movff	btemp+22,plusw1
  5194  0027B2  0EF7               	movlw	-9
  5195  0027B4  0060  F14F  FFE3   	movff	btemp+23,plusw1
  5196  0027BA                     l4759:
  5197                           
  5198                           ;/opt/microchip/xc8/v2.05/pic/sources/c99/common/doprnt.c: 299:     while (!(i < 1) && (
      +                          n || (0 < p) || ((0 < w) && (flags & (1 << 1))))) {
  5199                           ;stkvar	_i @ sp[(-18)+10]
  5200  0027BA  0EF9               	movlw	-7
  5201  0027BC  BEE3               	btfsc	plusw1,7,c
  5202  0027BE  D036               	goto	u3060
  5203  0027C0  0EF9               	movlw	-7
  5204  0027C2  50E3               	movf	plusw1,w,c
  5205  0027C4  E104               	bnz	u3020
  5206  0027C6  0EF8               	movlw	-8
  5207  0027C8  04E3               	decf	plusw1,w,c
  5208  0027CA  A0D8               	btfss	status,0,c
  5209  0027CC  D02F               	goto	u3060
  5210  0027CE                     u3020:
  5211                           
  5212                           ;stkvar	_n @ sp[(-18)+2]
  5213  0027CE  0EF0               	movlw	-16
  5214  0027D0  50E3               	movf	plusw1,w,c
  5215  0027D2  E115               	bnz	u3031
  5216  0027D4  0EF1               	movlw	-15
  5217  0027D6  50E3               	movf	plusw1,w,c
  5218  0027D8  E112               	bnz	u3031
  5219  0027DA  0EF2               	movlw	-14
  5220  0027DC  50E3               	movf	plusw1,w,c
  5221  0027DE  E10F               	bnz	u3031
  5222  0027E0  0EF3               	movlw	-13
  5223  0027E2  50E3               	movf	plusw1,w,c
  5224  0027E4  E10C               	bnz	u3031
  5225  0027E6  0EF4               	movlw	-12
  5226  0027E8  50E3               	movf	plusw1,w,c
  5227  0027EA  E109               	bnz	u3031
  5228  0027EC  0EF5               	movlw	-11
  5229  0027EE  50E3               	movf	plusw1,w,c
  5230  0027F0  E106               	bnz	u3031
  5231  0027F2  0EF6               	movlw	-10
  5232  0027F4  50E3               	movf	plusw1,w,c
  5233  0027F6  E103               	bnz	u3031
  5234  0027F8  0EF7               	movlw	-9
  5235  0027FA  50E3               	movf	plusw1,w,c
  5236  0027FC  A4D8               	btfss	status,2,c
  5237  0027FE                     u3031:
  5238  0027FE  D6DA               	goto	l4749
  5239                           
  5240                           ;stkvar	_p @ sp[(-18)+16]
  5241  002800  0EFF               	movlw	-1
  5242  002802  BEE3               	btfsc	plusw1,7,c
  5243  002804  D007               	goto	u3040
  5244  002806  0EFF               	movlw	-1
  5245  002808  50E3               	movf	plusw1,w,c
  5246  00280A  E103               	bnz	u3041
  5247  00280C  0EFE               	movlw	-2
  5248  00280E  04E3               	decf	plusw1,w,c
  5249  002810  B0D8               	btfsc	status,0,c
  5250  002812                     u3041:
  5251  002812  D6D0               	goto	l4749
  5252  002814                     u3040:
  5253                           
  5254                           ;stkvar	_w @ sp[(-18)+14]
  5255  002814  0EFD               	movlw	-3
  5256  002816  BEE3               	btfsc	plusw1,7,c
  5257  002818  D009               	goto	u3060
  5258  00281A  0EFD               	movlw	-3
  5259  00281C  50E3               	movf	plusw1,w,c
  5260  00281E  E104               	bnz	u3050
  5261  002820  0EFC               	movlw	-4
  5262  002822  04E3               	decf	plusw1,w,c
  5263  002824  A0D8               	btfss	status,0,c
  5264  002826  D002               	goto	u3060
  5265  002828                     u3050:
  5266  002828  B22E               	btfsc	_flags,1,c
  5267  00282A  D6C4               	goto	l4749
  5268  00282C                     u3060:
  5269                           
  5270                           ;/opt/microchip/xc8/v2.05/pic/sources/c99/common/doprnt.c: 308:     if (s || (flags & (1
      +                           << 2))) {
  5271                           ;stkvar	_s @ sp[(-18)+12]
  5272  00282C  0EFA               	movlw	-6
  5273  00282E  006F FF8C  F03C    	movff	plusw1,btemp
  5274  002834  0EFB               	movlw	-5
  5275  002836  50E3               	movf	plusw1,w,c
  5276  002838  103C               	iorwf	btemp,w,c
  5277  00283A  A4D8               	btfss	status,2,c
  5278  00283C  D002               	goto	u3080
  5279  00283E  A42E               	btfss	_flags,2,c
  5280  002840  D02D               	goto	l4783
  5281  002842                     u3080:
  5282                           
  5283                           ;/opt/microchip/xc8/v2.05/pic/sources/c99/common/doprnt.c: 309:         --i;
  5284                           ;stkvar	_i @ sp[(-18)+10]
  5285  002842  50E1               	movf	fsr1l,w,c
  5286  002844  0FF8               	addlw	-8
  5287  002846  6ED9               	movwf	fsr2l,c
  5288  002848  50E2               	movf	fsr1h,w,c
  5289  00284A  6EDA               	movwf	fsr2h,c
  5290  00284C  0EFF               	movlw	255
  5291  00284E  22DA               	addwfc	fsr2h,f,c
  5292  002850  06DE               	decf	postinc2,f,c
  5293  002852  0E00               	movlw	0
  5294  002854  5ADD               	subwfb	postdec2,f,c
  5295                           
  5296                           ;/opt/microchip/xc8/v2.05/pic/sources/c99/common/doprnt.c: 310:         dbuf[i] = s ? '-
      +                          ' : '+';
  5297                           ;stkvar	_s @ sp[(-18)+12]
  5298  002856  0EFA               	movlw	-6
  5299  002858  006F FF8C  F03C    	movff	plusw1,btemp
  5300  00285E  0EFB               	movlw	-5
  5301  002860  50E3               	movf	plusw1,w,c
  5302  002862  103C               	iorwf	btemp,w,c
  5303  002864  A4D8               	btfss	status,2,c
  5304  002866  D002               	goto	l4779
  5305  002868  0E2B               	movlw	43
  5306  00286A  D001               	goto	L6
  5307  00286C                     l4779:
  5308  00286C  0E2D               	movlw	45
  5309  00286E                     L6:
  5310  00286E  6E46               	movwf	btemp+10,c
  5311  002870  0E00               	movlw	0
  5312  002872  6E47               	movwf	btemp+11,c
  5313                           
  5314                           ;stkvar	_dtoa$2973 @ sp[(-18)+0]
  5315  002874  0EEE               	movlw	-18
  5316  002876  0060  F11B  FFE3   	movff	btemp+10,plusw1
  5317  00287C  0EEF               	movlw	-17
  5318  00287E  0060  F11F  FFE3   	movff	btemp+11,plusw1
  5319                           
  5320                           ;stkvar	_dtoa$2973 @ sp[(-18)+0]
  5321                           ;stkvar	_i @ sp[(-18)+10]
  5322  002884  0EF8               	movlw	-8
  5323  002886  006F FF8C  F047    	movff	plusw1,btemp+11
  5324  00288C  5047               	movf	btemp+11,w,c
  5325  00288E  0FA9               	addlw	low _dbuf
  5326  002890  6ED9               	movwf	fsr2l,c
  5327  002892  6ADA               	clrf	fsr2h,c
  5328  002894  0EEE               	movlw	-18
  5329  002896  006F FF8F FFDF     	movff	plusw1,indf2
  5330  00289C                     l4783:
  5331                           
  5332                           ;/opt/microchip/xc8/v2.05/pic/sources/c99/common/doprnt.c: 314:     return pad(fp, &dbuf
      +                          [i], w);
  5333                           ;stkvar	_w @ sp[(-18)+14]
  5334  00289C  0EFC               	movlw	-4
  5335  00289E  006F FF8F FFE6     	movff	plusw1,postinc1
  5336  0028A4  006F FF8F FFE6     	movff	plusw1,postinc1
  5337                           
  5338                           ;stkvar	_i @ sp[(-20)+10]
  5339  0028AA  0EF6               	movlw	-10
  5340  0028AC  006F FF8C  F047    	movff	plusw1,btemp+11
  5341  0028B2  5047               	movf	btemp+11,w,c
  5342  0028B4  0FA9               	addlw	low _dbuf
  5343  0028B6  6EE6               	movwf	postinc1,c
  5344                           
  5345                           ;stkvar	_fp @ sp[(-21)+-2]
  5346  0028B8  0EE9               	movlw	-23
  5347  0028BA  006F FF8F FFE6     	movff	plusw1,postinc1
  5348  0028C0  006F FF8F FFE6     	movff	plusw1,postinc1
  5349  0028C6  EC69  F01C         	call	_pad	;wreg free
  5350                           
  5351                           ; _dtoa: autosize = 18, savesize = 0, parsavesize = 0, tempsize = 0 parsize = 10, argsiz
      +                          e = 10, vargsize = 0
  5352  0028CA  0EE4               	movlw	228
  5353  0028CC  26E1               	addwf	fsr1l,f,c
  5354  0028CE  0EFF               	movlw	255
  5355  0028D0  22E2               	addwfc	fsr1h,f,c
  5356  0028D2  0012               	return		;funcret
  5357  0028D4                     __end_of_dtoa:
  5358                           	opt callstack 0
  5359                           
  5360 ;; *************** function _pad *****************
  5361 ;; Defined at:
  5362 ;;		line 72 in file "/opt/microchip/xc8/v2.05/pic/sources/c99/common/doprnt.c"
  5363 ;; Parameters:    Size  Location     Type
  5364 ;;  fp              2  [STACK] PTR struct _IO_FILE
  5365 ;;		 -> f(5), NULL(0), 
  5366 ;;  buf             1  [STACK] PTR unsigned char 
  5367 ;;		 -> dbuf(32), 
  5368 ;;  p               2  [STACK] int 
  5369 ;; Auto vars:     Size  Location     Type
  5370 ;;  w               2  [STACK] int 
  5371 ;;  i               2  [STACK] int 
  5372 ;; Return value:  Size  Location     Type
  5373 ;;                  2  [STACK] int 
  5374 ;; Registers used:
  5375 ;;		wreg, fsr0l, fsr0h, fsr1l, fsr1h, fsr2l, fsr2h, status,2, status,0, btemp, btemp+1, btemp+8, btemp+9, btemp+10, btem
      +p+11, prodl
  5376 ;; Tracked objects:
  5377 ;;		On entry : 0/0
  5378 ;;		On exit  : 0/0
  5379 ;;		Unchanged: 0/0
  5380 ;; Data sizes:     COMRAM   BANK0   BANK1   BANK2   BANK3   BANK4   BANK5   BANK6   BANK7   BANK8   BANK9  BANK10  BANK1
      +1  BANK12  BANK13  BANK14  BANK15  BANK16  BANK17  BANK18  BANK19  BANK20  BANK21  BANK22  BANK23  BANK24  BANK25  BANK2
      +6  BANK27  BANK28  BANK29  BANK30  BANK31
  5381 ;;      Params:         0       0       0       0       0       0       0       0       0       0       0       0       
      +0       0       0       0       0       0       0       0       0       0       0       0       0       0       0       
      +0       0       0       0       0       0
  5382 ;;      Locals:         0       0       0       0       0       0       0       0       0       0       0       0       
      +0       0       0       0       0       0       0       0       0       0       0       0       0       0       0       
      +0       0       0       0       0       0
  5383 ;;      Temps:          0       0       0       0       0       0       0       0       0       0       0       0       
      +0       0       0       0       0       0       0       0       0       0       0       0       0       0       0       
      +0       0       0       0       0       0
  5384 ;;      Totals:         0       0       0       0       0       0       0       0       0       0       0       0       
      +0       0       0       0       0       0       0       0       0       0       0       0       0       0       0       
      +0       0       0       0       0       0
  5385 ;;Total ram usage:        0 bytes
  5386 ;; Hardware stack levels used:    1
  5387 ;; Hardware stack levels required when called:    7
  5388 ;; This function calls:
  5389 ;;		_fputc
  5390 ;;		_fputs
  5391 ;;		_strlen
  5392 ;; This function is called by:
  5393 ;;		_dtoa
  5394 ;;		_xtoa
  5395 ;; This function uses a reentrant model
  5396 ;;
  5397                           
  5398                           	psect	text26
  5399  0038D2                     __ptext26:
  5400                           	opt callstack 0
  5401  0038D2                     _pad:
  5402                           	opt callstack 0
  5403                           
  5404                           ; autosize = 4, savesize = 0, parsavesize = 0, tempsize = 0 parsize = 5, argsize = 5 var
      +                          gsize = 0, retsize = 0 argfudge = 0
  5405  0038D2  52E6               	movf	postinc1,f,c
  5406  0038D4  52E6               	movf	postinc1,f,c
  5407  0038D6  52E6               	movf	postinc1,f,c
  5408  0038D8  52E6               	movf	postinc1,f,c
  5409                           
  5410                           ;/opt/microchip/xc8/v2.05/pic/sources/c99/common/doprnt.c: 72: static int pad(FILE *fp, 
      +                          char *buf, int p);/opt/microchip/xc8/v2.05/pic/sources/c99/common/doprnt.c: 73: {;/opt/m
      +                          icrochip/xc8/v2.05/pic/sources/c99/common/doprnt.c: 74:     int i, w;;/opt/microchip/xc8
      +                          /v2.05/pic/sources/c99/common/doprnt.c: 77:     if (flags & (1 << 0)) {
  5411                           
  5412                           ;incstack = 0
  5413  0038DA  A02E               	btfss	_flags,0,c
  5414  0038DC  D00C               	goto	l4703
  5415                           
  5416                           ;/opt/microchip/xc8/v2.05/pic/sources/c99/common/doprnt.c: 78:         fputs((const char
      +                           *)buf, fp);
  5417                           ;stkvar	_fp @ sp[(-4)+-2]
  5418  0038DE  0EFA               	movlw	-6
  5419  0038E0  006F FF8F FFE6     	movff	plusw1,postinc1
  5420  0038E6  006F FF8F FFE6     	movff	plusw1,postinc1
  5421                           
  5422                           ;stkvar	_buf @ sp[(-6)+-3]
  5423  0038EC  0EF7               	movlw	-9
  5424  0038EE  50E3               	movf	plusw1,w,c
  5425  0038F0  6EE6               	movwf	postinc1,c
  5426  0038F2  EC29  F020         	call	_fputs	;wreg free
  5427  0038F6                     l4703:
  5428                           
  5429                           ;/opt/microchip/xc8/v2.05/pic/sources/c99/common/doprnt.c: 82:     w = (p < 0) ? 0 : p;
  5430                           ;stkvar	_p @ sp[(-4)+-5]
  5431  0038F6  0EF8               	movlw	-8
  5432  0038F8  BEE3               	btfsc	plusw1,7,c
  5433  0038FA  D011               	goto	l4707
  5434                           
  5435                           ;stkvar	_p @ sp[(-4)+-5]
  5436                           ;stkvar	_w @ sp[(-4)+0]
  5437  0038FC  0EF7               	movlw	-9
  5438  0038FE  006F FF8C  F03C    	movff	plusw1,btemp
  5439  003904  0EFC               	movlw	-4
  5440  003906  0060  F0F3  FFE3   	movff	btemp,plusw1
  5441  00390C  0EF8               	movlw	-8
  5442  00390E  006F FF8C  F03C    	movff	plusw1,btemp
  5443  003914  0EFD               	movlw	-3
  5444  003916  0060  F0F3  FFE3   	movff	btemp,plusw1
  5445  00391C  D004               	goto	l1339
  5446  00391E                     l4707:
  5447                           
  5448                           ;stkvar	_w @ sp[(-4)+0]
  5449  00391E  0EFC               	movlw	-4
  5450  003920  6AE3               	clrf	plusw1,c
  5451  003922  0EFD               	movlw	-3
  5452  003924  6AE3               	clrf	plusw1,c
  5453  003926                     l1339:
  5454                           
  5455                           ;/opt/microchip/xc8/v2.05/pic/sources/c99/common/doprnt.c: 83:     i = 0;
  5456                           ;stkvar	_i @ sp[(-4)+2]
  5457  003926  0EFE               	movlw	-2
  5458  003928  6AE3               	clrf	plusw1,c
  5459  00392A  0EFF               	movlw	-1
  5460  00392C  6AE3               	clrf	plusw1,c
  5461                           
  5462                           ;/opt/microchip/xc8/v2.05/pic/sources/c99/common/doprnt.c: 84:     while (i < w) {
  5463  00392E  D01E               	goto	l4713
  5464  003930                     l4709:
  5465                           
  5466                           ;/opt/microchip/xc8/v2.05/pic/sources/c99/common/doprnt.c: 85:         fputc(' ', fp);
  5467                           ;stkvar	_fp @ sp[(-4)+-2]
  5468  003930  0EFA               	movlw	-6
  5469  003932  006F FF8F FFE6     	movff	plusw1,postinc1
  5470  003938  006F FF8F FFE6     	movff	plusw1,postinc1
  5471  00393E  0E20               	movlw	32
  5472  003940  6EE6               	movwf	postinc1,c
  5473  003942  0E00               	movlw	0
  5474  003944  6EE6               	movwf	postinc1,c
  5475  003946  ECE3  F01B         	call	_fputc	;wreg free
  5476                           
  5477                           ;/opt/microchip/xc8/v2.05/pic/sources/c99/common/doprnt.c: 86:         ++i;
  5478                           ;stkvar	_i @ sp[(-4)+2]
  5479  00394A  0EFE               	movlw	-2
  5480  00394C  50E3               	movf	plusw1,w,c
  5481  00394E  0F01               	addlw	1
  5482  003950  6E3C               	movwf	btemp,c
  5483  003952  0EFE               	movlw	-2
  5484  003954  0060  F0F3  FFE3   	movff	btemp,plusw1
  5485  00395A  6A3C               	clrf	btemp,c
  5486  00395C  0EFF               	movlw	-1
  5487  00395E  50E3               	movf	plusw1,w,c
  5488  003960  203C               	addwfc	btemp,w,c
  5489  003962  6E3C               	movwf	btemp,c
  5490  003964  0EFF               	movlw	-1
  5491  003966  0060  F0F3  FFE3   	movff	btemp,plusw1
  5492  00396C                     l4713:
  5493                           
  5494                           ;/opt/microchip/xc8/v2.05/pic/sources/c99/common/doprnt.c: 84:     while (i < w) {
  5495                           ;stkvar	_w @ sp[(-4)+0]
  5496                           ;stkvar	_i @ sp[(-4)+2]
  5497  00396C  50E1               	movf	fsr1l,w,c
  5498  00396E  0FFE               	addlw	-2
  5499  003970  6ED9               	movwf	fsr2l,c
  5500  003972  50E2               	movf	fsr1h,w,c
  5501  003974  6EDA               	movwf	fsr2h,c
  5502  003976  0EFF               	movlw	255
  5503  003978  22DA               	addwfc	fsr2h,f,c
  5504  00397A  0EFC               	movlw	-4
  5505  00397C  50E3               	movf	plusw1,w,c
  5506  00397E  5CDE               	subwf	postinc2,w,c
  5507  003980  50DE               	movf	postinc2,w,c
  5508  003982  0A80               	xorlw	128
  5509  003984  6E3C               	movwf	btemp,c
  5510  003986  0EFD               	movlw	-3
  5511  003988  50E3               	movf	plusw1,w,c
  5512  00398A  0A80               	xorlw	128
  5513  00398C  583C               	subwfb	btemp,w,c
  5514  00398E  A0D8               	btfss	status,0,c
  5515  003990  D7CF               	goto	l4709
  5516                           
  5517                           ;/opt/microchip/xc8/v2.05/pic/sources/c99/common/doprnt.c: 90:     if (!(flags & (1 << 0
      +                          ))) {
  5518  003992  B02E               	btfsc	_flags,0,c
  5519  003994  D00C               	goto	l4717
  5520                           
  5521                           ;/opt/microchip/xc8/v2.05/pic/sources/c99/common/doprnt.c: 91:         fputs((const char
      +                           *)buf, fp);
  5522                           ;stkvar	_fp @ sp[(-4)+-2]
  5523  003996  0EFA               	movlw	-6
  5524  003998  006F FF8F FFE6     	movff	plusw1,postinc1
  5525  00399E  006F FF8F FFE6     	movff	plusw1,postinc1
  5526                           
  5527                           ;stkvar	_buf @ sp[(-6)+-3]
  5528  0039A4  0EF7               	movlw	-9
  5529  0039A6  50E3               	movf	plusw1,w,c
  5530  0039A8  6EE6               	movwf	postinc1,c
  5531  0039AA  EC29  F020         	call	_fputs	;wreg free
  5532  0039AE                     l4717:
  5533                           
  5534                           ;/opt/microchip/xc8/v2.05/pic/sources/c99/common/doprnt.c: 94:     return strlen(buf) + 
      +                          w;
  5535                           ;stkvar	_w @ sp[(-4)+0]
  5536                           ;stkvar	_buf @ sp[(-4)+-3]
  5537  0039AE  0EF9               	movlw	-7
  5538  0039B0  006F FF8C  F047    	movff	plusw1,btemp+11
  5539  0039B6  0060  F11F  FFE6   	movff	btemp+11,postinc1
  5540  0039BC  0E00               	movlw	0
  5541  0039BE  6EE6               	movwf	postinc1,c
  5542  0039C0  ECE7  F01F         	call	_strlen	;wreg free
  5543  0039C4  0EFC               	movlw	-4
  5544  0039C6  50E3               	movf	plusw1,w,c
  5545  0039C8  263C               	addwf	btemp,f,c
  5546  0039CA  0EFD               	movlw	-3
  5547  0039CC  50E3               	movf	plusw1,w,c
  5548  0039CE  223D               	addwfc	btemp+1,f,c
  5549                           
  5550                           ; _pad: autosize = 4, savesize = 0, parsavesize = 0, tempsize = 0 parsize = 5, argsize =
      +                           5, vargsize = 0
  5551  0039D0  0EF7               	movlw	247
  5552  0039D2  26E1               	addwf	fsr1l,f,c
  5553  0039D4  0EFF               	movlw	255
  5554  0039D6  22E2               	addwfc	fsr1h,f,c
  5555  0039D8  0012               	return		;funcret
  5556  0039DA                     __end_of_pad:
  5557                           	opt callstack 0
  5558                           
  5559 ;; *************** function _strlen *****************
  5560 ;; Defined at:
  5561 ;;		line 12 in file "/opt/microchip/xc8/v2.05/pic/sources/c99/common/strlen.c"
  5562 ;; Parameters:    Size  Location     Type
  5563 ;;  s               2  [STACK] PTR const unsigned char 
  5564 ;;		 -> ?_printf(2), ?_sprintf(2), nuls(7), dbuf(32), 
  5565 ;;		 -> V(69), 
  5566 ;; Auto vars:     Size  Location     Type
  5567 ;;  a               2  [STACK] PTR const unsigned char 
  5568 ;;		 -> ?_printf(2), ?_sprintf(2), nuls(7), dbuf(32), 
  5569 ;;		 -> V(69), 
  5570 ;; Return value:  Size  Location     Type
  5571 ;;                  2  [STACK] unsigned int 
  5572 ;; Registers used:
  5573 ;;		wreg, fsr1l, fsr1h, fsr2l, fsr2h, status,2, status,0, btemp, btemp+1, btemp+10, btemp+11
  5574 ;; Tracked objects:
  5575 ;;		On entry : 0/3D
  5576 ;;		On exit  : 0/0
  5577 ;;		Unchanged: 0/0
  5578 ;; Data sizes:     COMRAM   BANK0   BANK1   BANK2   BANK3   BANK4   BANK5   BANK6   BANK7   BANK8   BANK9  BANK10  BANK1
      +1  BANK12  BANK13  BANK14  BANK15  BANK16  BANK17  BANK18  BANK19  BANK20  BANK21  BANK22  BANK23  BANK24  BANK25  BANK2
      +6  BANK27  BANK28  BANK29  BANK30  BANK31
  5579 ;;      Params:         0       0       0       0       0       0       0       0       0       0       0       0       
      +0       0       0       0       0       0       0       0       0       0       0       0       0       0       0       
      +0       0       0       0       0       0
  5580 ;;      Locals:         0       0       0       0       0       0       0       0       0       0       0       0       
      +0       0       0       0       0       0       0       0       0       0       0       0       0       0       0       
      +0       0       0       0       0       0
  5581 ;;      Temps:          0       0       0       0       0       0       0       0       0       0       0       0       
      +0       0       0       0       0       0       0       0       0       0       0       0       0       0       0       
      +0       0       0       0       0       0
  5582 ;;      Totals:         0       0       0       0       0       0       0       0       0       0       0       0       
      +0       0       0       0       0       0       0       0       0       0       0       0       0       0       0       
      +0       0       0       0       0       0
  5583 ;;Total ram usage:        0 bytes
  5584 ;; Hardware stack levels used:    1
  5585 ;; Hardware stack levels required when called:    3
  5586 ;; This function calls:
  5587 ;;		Nothing
  5588 ;; This function is called by:
  5589 ;;		_eaDogM_WriteString
  5590 ;;		_pad
  5591 ;;		_stoa
  5592 ;; This function uses a reentrant model
  5593 ;;
  5594                           
  5595                           	psect	text27
  5596  003FCE                     __ptext27:
  5597                           	opt callstack 0
  5598  003FCE                     _strlen:
  5599                           	opt callstack 0
  5600                           
  5601                           ; autosize = 2, savesize = 0, parsavesize = 0, tempsize = 0 parsize = 2, argsize = 2 var
      +                          gsize = 0, retsize = 0 argfudge = 0
  5602  003FCE  52E6               	movf	postinc1,f,c
  5603  003FD0  52E6               	movf	postinc1,f,c
  5604                           
  5605                           ;stkvar	_s @ sp[(-2)+-2]
  5606                           
  5607                           ;incstack = 0
  5608  003FD2  0EFC               	movlw	-4
  5609  003FD4  006F FF8C  F046    	movff	plusw1,btemp+10
  5610  003FDA  0EFD               	movlw	-3
  5611  003FDC  006F FF8C  F047    	movff	plusw1,btemp+11
  5612                           
  5613                           ;stkvar	_a @ sp[(-2)+0]
  5614  003FE2  0EFF               	movlw	-1
  5615  003FE4  0060  F11F  FFE3   	movff	btemp+11,plusw1
  5616  003FEA  0EFE               	movlw	-2
  5617  003FEC  0060  F11B  FFE3   	movff	btemp+10,plusw1
  5618  003FF2  D011               	goto	l3489
  5619  003FF4                     l3487:
  5620                           
  5621                           ;stkvar	_s @ sp[(-2)+-2]
  5622  003FF4  0EFC               	movlw	-4
  5623  003FF6  50E3               	movf	plusw1,w,c
  5624  003FF8  0F01               	addlw	1
  5625  003FFA  6E3C               	movwf	btemp,c
  5626  003FFC  0EFC               	movlw	-4
  5627  003FFE  0060  F0F3  FFE3   	movff	btemp,plusw1
  5628  004004  6A3C               	clrf	btemp,c
  5629  004006  0EFD               	movlw	-3
  5630  004008  50E3               	movf	plusw1,w,c
  5631  00400A  203C               	addwfc	btemp,w,c
  5632  00400C  6E3C               	movwf	btemp,c
  5633  00400E  0EFD               	movlw	-3
  5634  004010  0060  F0F3  FFE3   	movff	btemp,plusw1
  5635  004016                     l3489:
  5636                           
  5637                           ;stkvar	_s @ sp[(-2)+-2]
  5638  004016  0EFC               	movlw	-4
  5639  004018  006F FF8F FFD9     	movff	plusw1,fsr2l
  5640  00401E  0EFD               	movlw	-3
  5641  004020  006F FF8F FFDA     	movff	plusw1,fsr2h
  5642  004026  50DF               	movf	indf2,w,c
  5643  004028  A4D8               	btfss	status,2,c
  5644  00402A  D7E4               	goto	l3487
  5645                           
  5646                           ;stkvar	_a @ sp[(-2)+0]
  5647                           ;stkvar	_s @ sp[(-2)+-2]
  5648  00402C  0EFC               	movlw	-4
  5649  00402E  006F FF8C  F03C    	movff	plusw1,btemp
  5650  004034  0EFD               	movlw	-3
  5651  004036  006F FF8C  F03D    	movff	plusw1,btemp+1
  5652  00403C  0EFE               	movlw	-2
  5653  00403E  50E3               	movf	plusw1,w,c
  5654  004040  5E3C               	subwf	btemp,f,c
  5655  004042  0EFF               	movlw	-1
  5656  004044  50E3               	movf	plusw1,w,c
  5657  004046  5A3D               	subwfb	btemp+1,f,c
  5658                           
  5659                           ; _strlen: autosize = 2, savesize = 0, parsavesize = 0, tempsize = 0 parsize = 2, argsiz
      +                          e = 2, vargsize = 0
  5660  004048  52E5               	movf	postdec1,f,c
  5661  00404A  52E5               	movf	postdec1,f,c
  5662  00404C  52E5               	movf	postdec1,f,c
  5663  00404E  52E5               	movf	postdec1,f,c
  5664  004050  0012               	return		;funcret
  5665  004052                     __end_of_strlen:
  5666                           	opt callstack 0
  5667                           
  5668 ;; *************** function _fputs *****************
  5669 ;; Defined at:
  5670 ;;		line 8 in file "/opt/microchip/xc8/v2.05/pic/sources/c99/common/nf_fputs.c"
  5671 ;; Parameters:    Size  Location     Type
  5672 ;;  s               1  [STACK] PTR const unsigned char 
  5673 ;;		 -> dbuf(32), 
  5674 ;;  fp              2  [STACK] PTR struct _IO_FILE
  5675 ;;		 -> f(5), NULL(0), 
  5676 ;; Auto vars:     Size  Location     Type
  5677 ;;  i               2  [STACK] int 
  5678 ;;  c               1  [STACK] unsigned char 
  5679 ;; Return value:  Size  Location     Type
  5680 ;;                  2  [STACK] int 
  5681 ;; Registers used:
  5682 ;;		wreg, fsr0l, fsr0h, fsr1l, fsr1h, fsr2l, fsr2h, status,2, status,0, btemp, btemp+8, btemp+9, btemp+10, btemp+11, pro
      +dl
  5683 ;; Tracked objects:
  5684 ;;		On entry : 0/0
  5685 ;;		On exit  : 0/0
  5686 ;;		Unchanged: 0/0
  5687 ;; Data sizes:     COMRAM   BANK0   BANK1   BANK2   BANK3   BANK4   BANK5   BANK6   BANK7   BANK8   BANK9  BANK10  BANK1
      +1  BANK12  BANK13  BANK14  BANK15  BANK16  BANK17  BANK18  BANK19  BANK20  BANK21  BANK22  BANK23  BANK24  BANK25  BANK2
      +6  BANK27  BANK28  BANK29  BANK30  BANK31
  5688 ;;      Params:         0       0       0       0       0       0       0       0       0       0       0       0       
      +0       0       0       0       0       0       0       0       0       0       0       0       0       0       0       
      +0       0       0       0       0       0
  5689 ;;      Locals:         0       0       0       0       0       0       0       0       0       0       0       0       
      +0       0       0       0       0       0       0       0       0       0       0       0       0       0       0       
      +0       0       0       0       0       0
  5690 ;;      Temps:          0       0       0       0       0       0       0       0       0       0       0       0       
      +0       0       0       0       0       0       0       0       0       0       0       0       0       0       0       
      +0       0       0       0       0       0
  5691 ;;      Totals:         0       0       0       0       0       0       0       0       0       0       0       0       
      +0       0       0       0       0       0       0       0       0       0       0       0       0       0       0       
      +0       0       0       0       0       0
  5692 ;;Total ram usage:        0 bytes
  5693 ;; Hardware stack levels used:    1
  5694 ;; Hardware stack levels required when called:    6
  5695 ;; This function calls:
  5696 ;;		_fputc
  5697 ;; This function is called by:
  5698 ;;		_pad
  5699 ;; This function uses a reentrant model
  5700 ;;
  5701                           
  5702                           	psect	text28
  5703  004052                     __ptext28:
  5704                           	opt callstack 0
  5705  004052                     _fputs:
  5706                           	opt callstack 0
  5707                           
  5708                           ; autosize = 3, savesize = 0, parsavesize = 0, tempsize = 0 parsize = 3, argsize = 3 var
      +                          gsize = 0, retsize = 0 argfudge = 0
  5709  004052  52E6               	movf	postinc1,f,c
  5710  004054  52E6               	movf	postinc1,f,c
  5711  004056  52E6               	movf	postinc1,f,c
  5712                           
  5713                           ;stkvar	_i @ sp[(-3)+0]
  5714                           
  5715                           ;incstack = 0
  5716  004058  0EFD               	movlw	-3
  5717  00405A  6AE3               	clrf	plusw1,c
  5718  00405C  0EFE               	movlw	-2
  5719  00405E  6AE3               	clrf	plusw1,c
  5720  004060  D01F               	goto	l4697
  5721  004062                     l4693:
  5722                           
  5723                           ;stkvar	_fp @ sp[(-3)+-3]
  5724  004062  0EFA               	movlw	-6
  5725  004064  006F FF8F FFE6     	movff	plusw1,postinc1
  5726  00406A  006F FF8F FFE6     	movff	plusw1,postinc1
  5727                           
  5728                           ;stkvar	_c @ sp[(-5)+2]
  5729  004070  0EFD               	movlw	-3
  5730  004072  50E3               	movf	plusw1,w,c
  5731  004074  6EE6               	movwf	postinc1,c
  5732  004076  0E00               	movlw	0
  5733  004078  6EE6               	movwf	postinc1,c
  5734  00407A  ECE3  F01B         	call	_fputc	;wreg free
  5735                           
  5736                           ;stkvar	_i @ sp[(-3)+0]
  5737  00407E  0EFD               	movlw	-3
  5738  004080  50E3               	movf	plusw1,w,c
  5739  004082  0F01               	addlw	1
  5740  004084  6E3C               	movwf	btemp,c
  5741  004086  0EFD               	movlw	-3
  5742  004088  0060  F0F3  FFE3   	movff	btemp,plusw1
  5743  00408E  6A3C               	clrf	btemp,c
  5744  004090  0EFE               	movlw	-2
  5745  004092  50E3               	movf	plusw1,w,c
  5746  004094  203C               	addwfc	btemp,w,c
  5747  004096  6E3C               	movwf	btemp,c
  5748  004098  0EFE               	movlw	-2
  5749  00409A  0060  F0F3  FFE3   	movff	btemp,plusw1
  5750  0040A0                     l4697:
  5751                           
  5752                           ;stkvar	_i @ sp[(-3)+0]
  5753  0040A0  0EFD               	movlw	-3
  5754  0040A2  006F FF8C  F047    	movff	plusw1,btemp+11
  5755                           
  5756                           ;stkvar	_s @ sp[(-3)+-1]
  5757  0040A8  0EFC               	movlw	-4
  5758  0040AA  50E3               	movf	plusw1,w,c
  5759  0040AC  2447               	addwf	btemp+11,w,c
  5760  0040AE  6ED9               	movwf	fsr2l,c
  5761  0040B0  6ADA               	clrf	fsr2h,c
  5762  0040B2  50DF               	movf	indf2,w,c
  5763  0040B4  6E47               	movwf	btemp+11,c
  5764                           
  5765                           ;stkvar	_c @ sp[(-3)+2]
  5766  0040B6  0EFF               	movlw	-1
  5767  0040B8  0060  F11F  FFE3   	movff	btemp+11,plusw1
  5768  0040BE  0EFF               	movlw	-1
  5769  0040C0  50E3               	movf	plusw1,w,c
  5770  0040C2  A4D8               	btfss	status,2,c
  5771  0040C4  D7CE               	goto	l4693
  5772                           
  5773                           ; _fputs: autosize = 3, savesize = 0, parsavesize = 0, tempsize = 0 parsize = 3, argsize
      +                           = 3, vargsize = 0
  5774  0040C6  0EFA               	movlw	250
  5775  0040C8  26E1               	addwf	fsr1l,f,c
  5776  0040CA  0EFF               	movlw	255
  5777  0040CC  22E2               	addwfc	fsr1h,f,c
  5778  0040CE  0012               	return		;funcret
  5779  0040D0                     __end_of_fputs:
  5780                           	opt callstack 0
  5781                           
  5782 ;; *************** function _fputc *****************
  5783 ;; Defined at:
  5784 ;;		line 8 in file "/opt/microchip/xc8/v2.05/pic/sources/c99/common/nf_fputc.c"
  5785 ;; Parameters:    Size  Location     Type
  5786 ;;  c               2  [STACK] int 
  5787 ;;  fp              2  [STACK] PTR struct _IO_FILE
  5788 ;;		 -> f(5), NULL(0), 
  5789 ;; Auto vars:     Size  Location     Type
  5790 ;;		None
  5791 ;; Return value:  Size  Location     Type
  5792 ;;                  2  [STACK] int 
  5793 ;; Registers used:
  5794 ;;		wreg, fsr0l, fsr0h, fsr1l, fsr1h, fsr2l, fsr2h, status,2, status,0, btemp, btemp+8, btemp+9, btemp+10, btemp+11, pro
      +dl
  5795 ;; Tracked objects:
  5796 ;;		On entry : 0/3D
  5797 ;;		On exit  : 0/0
  5798 ;;		Unchanged: 0/0
  5799 ;; Data sizes:     COMRAM   BANK0   BANK1   BANK2   BANK3   BANK4   BANK5   BANK6   BANK7   BANK8   BANK9  BANK10  BANK1
      +1  BANK12  BANK13  BANK14  BANK15  BANK16  BANK17  BANK18  BANK19  BANK20  BANK21  BANK22  BANK23  BANK24  BANK25  BANK2
      +6  BANK27  BANK28  BANK29  BANK30  BANK31
  5800 ;;      Params:         0       0       0       0       0       0       0       0       0       0       0       0       
      +0       0       0       0       0       0       0       0       0       0       0       0       0       0       0       
      +0       0       0       0       0       0
  5801 ;;      Locals:         0       0       0       0       0       0       0       0       0       0       0       0       
      +0       0       0       0       0       0       0       0       0       0       0       0       0       0       0       
      +0       0       0       0       0       0
  5802 ;;      Temps:          0       0       0       0       0       0       0       0       0       0       0       0       
      +0       0       0       0       0       0       0       0       0       0       0       0       0       0       0       
      +0       0       0       0       0       0
  5803 ;;      Totals:         0       0       0       0       0       0       0       0       0       0       0       0       
      +0       0       0       0       0       0       0       0       0       0       0       0       0       0       0       
      +0       0       0       0       0       0
  5804 ;;Total ram usage:        0 bytes
  5805 ;; Hardware stack levels used:    1
  5806 ;; Hardware stack levels required when called:    5
  5807 ;; This function calls:
  5808 ;;		_putch
  5809 ;; This function is called by:
  5810 ;;		_pad
  5811 ;;		_stoa
  5812 ;;		_vfpfcnvrt
  5813 ;;		_fputs
  5814 ;; This function uses a reentrant model
  5815 ;;
  5816                           
  5817                           	psect	text29
  5818  0037C6                     __ptext29:
  5819                           	opt callstack 0
  5820  0037C6                     _fputc:
  5821                           	opt callstack 19
  5822                           
  5823                           ;stkvar	_fp @ sp[(0)+-4]
  5824                           
  5825                           ; autosize = 0, savesize = 0, parsavesize = 0, tempsize = 0 parsize = 4, argsize = 4 var
      +                          gsize = 0, retsize = 0 argfudge = 0
  5826                           ;incstack = 0
  5827  0037C6  0EFC               	movlw	-4
  5828  0037C8  006F FF8C  F03C    	movff	plusw1,btemp
  5829  0037CE  0EFD               	movlw	-3
  5830  0037D0  50E3               	movf	plusw1,w,c
  5831  0037D2  103C               	iorwf	btemp,w,c
  5832  0037D4  B4D8               	btfsc	status,2,c
  5833  0037D6  D009               	goto	u2850
  5834                           
  5835                           ;stkvar	_fp @ sp[(0)+-4]
  5836  0037D8  0EFC               	movlw	-4
  5837  0037DA  006F FF8C  F03C    	movff	plusw1,btemp
  5838  0037E0  0EFD               	movlw	-3
  5839  0037E2  50E3               	movf	plusw1,w,c
  5840  0037E4  103C               	iorwf	btemp,w,c
  5841  0037E6  A4D8               	btfss	status,2,c
  5842  0037E8  D006               	goto	l4683
  5843  0037EA                     u2850:
  5844                           
  5845                           ;stkvar	_c @ sp[(0)+-2]
  5846  0037EA  0EFE               	movlw	-2
  5847  0037EC  50E3               	movf	plusw1,w,c
  5848  0037EE  6EE6               	movwf	postinc1,c
  5849  0037F0  EC4E  F025         	call	_putch	;wreg free
  5850  0037F4  D069               	goto	l2156
  5851  0037F6                     l4683:
  5852                           
  5853                           ;stkvar	_fp @ sp[(0)+-4]
  5854  0037F6  0EFC               	movlw	-4
  5855  0037F8  006F FF8C  F046    	movff	plusw1,btemp+10
  5856  0037FE  0EFD               	movlw	-3
  5857  003800  006F FF8C  F047    	movff	plusw1,btemp+11
  5858  003806  0E03               	movlw	3
  5859  003808  2446               	addwf	btemp+10,w,c
  5860  00380A  6ED9               	movwf	fsr2l,c
  5861  00380C  0E00               	movlw	0
  5862  00380E  2047               	addwfc	btemp+11,w,c
  5863  003810  6EDA               	movwf	fsr2h,c
  5864  003812  50DE               	movf	postinc2,w,c
  5865  003814  10DE               	iorwf	postinc2,w,c
  5866  003816  B4D8               	btfsc	status,2,c
  5867  003818  D026               	goto	u2870
  5868                           
  5869                           ;stkvar	_fp @ sp[(0)+-4]
  5870  00381A  0EFC               	movlw	-4
  5871  00381C  006F FF8C  F046    	movff	plusw1,btemp+10
  5872  003822  0EFD               	movlw	-3
  5873  003824  006F FF8C  F047    	movff	plusw1,btemp+11
  5874  00382A  0E03               	movlw	3
  5875  00382C  2446               	addwf	btemp+10,w,c
  5876  00382E  6ED9               	movwf	fsr2l,c
  5877  003830  0E00               	movlw	0
  5878  003832  2047               	addwfc	btemp+11,w,c
  5879  003834  6EDA               	movwf	fsr2h,c
  5880                           
  5881                           ;stkvar	_fp @ sp[(0)+-4]
  5882  003836  0EFC               	movlw	-4
  5883  003838  006F FF8C  F046    	movff	plusw1,btemp+10
  5884  00383E  0EFD               	movlw	-3
  5885  003840  006F FF8C  F047    	movff	plusw1,btemp+11
  5886  003846  0E01               	movlw	1
  5887  003848  2446               	addwf	btemp+10,w,c
  5888  00384A  6EE9               	movwf	fsr0l,c
  5889  00384C  0E00               	movlw	0
  5890  00384E  2047               	addwfc	btemp+11,w,c
  5891  003850  6EEA               	movwf	fsr0h,c
  5892  003852  50DE               	movf	postinc2,w,c
  5893  003854  5CEE               	subwf	postinc0,w,c
  5894  003856  50EE               	movf	postinc0,w,c
  5895  003858  0A80               	xorlw	128
  5896  00385A  6E3C               	movwf	btemp,c
  5897  00385C  50DE               	movf	postinc2,w,c
  5898  00385E  0A80               	xorlw	128
  5899  003860  583C               	subwfb	btemp,w,c
  5900  003862  B0D8               	btfsc	status,0,c
  5901  003864  D031               	goto	l2156
  5902  003866                     u2870:
  5903                           
  5904                           ;stkvar	_c @ sp[(0)+-2]
  5905                           ;stkvar	_fp @ sp[(0)+-4]
  5906  003866  0EFC               	movlw	-4
  5907  003868  006F FF8C  F046    	movff	plusw1,btemp+10
  5908  00386E  0EFD               	movlw	-3
  5909  003870  006F FF8C  F047    	movff	plusw1,btemp+11
  5910  003876  0E01               	movlw	1
  5911  003878  2446               	addwf	btemp+10,w,c
  5912  00387A  6ED9               	movwf	fsr2l,c
  5913  00387C  0E00               	movlw	0
  5914  00387E  2047               	addwfc	btemp+11,w,c
  5915  003880  6EDA               	movwf	fsr2h,c
  5916  003882  50DF               	movf	indf2,w,c
  5917  003884  6E47               	movwf	btemp+11,c
  5918                           
  5919                           ;stkvar	_fp @ sp[(0)+-4]
  5920  003886  0EFC               	movlw	-4
  5921  003888  006F FF8F FFD9     	movff	plusw1,fsr2l
  5922  00388E  0EFD               	movlw	-3
  5923  003890  006F FF8F FFDA     	movff	plusw1,fsr2h
  5924  003896  50DF               	movf	indf2,w,c
  5925  003898  2447               	addwf	btemp+11,w,c
  5926  00389A  6ED9               	movwf	fsr2l,c
  5927  00389C  6ADA               	clrf	fsr2h,c
  5928  00389E  0EFE               	movlw	-2
  5929  0038A0  006F FF8F FFDF     	movff	plusw1,indf2
  5930                           
  5931                           ;stkvar	_fp @ sp[(0)+-4]
  5932  0038A6  0EFC               	movlw	-4
  5933  0038A8  006F FF8C  F046    	movff	plusw1,btemp+10
  5934  0038AE  0EFD               	movlw	-3
  5935  0038B0  006F FF8C  F047    	movff	plusw1,btemp+11
  5936  0038B6  0E01               	movlw	1
  5937  0038B8  2446               	addwf	btemp+10,w,c
  5938  0038BA  6ED9               	movwf	fsr2l,c
  5939  0038BC  0E00               	movlw	0
  5940  0038BE  2047               	addwfc	btemp+11,w,c
  5941  0038C0  6EDA               	movwf	fsr2h,c
  5942  0038C2  2ADE               	incf	postinc2,f,c
  5943  0038C4  0E00               	movlw	0
  5944  0038C6  22DD               	addwfc	postdec2,f,c
  5945  0038C8                     l2156:
  5946                           
  5947                           ; _fputc: autosize = 0, savesize = 0, parsavesize = 0, tempsize = 0 parsize = 4, argsize
      +                           = 4, vargsize = 0
  5948  0038C8  52E5               	movf	postdec1,f,c
  5949  0038CA  52E5               	movf	postdec1,f,c
  5950  0038CC  52E5               	movf	postdec1,f,c
  5951  0038CE  52E5               	movf	postdec1,f,c
  5952  0038D0  0012               	return		;funcret
  5953  0038D2                     __end_of_fputc:
  5954                           	opt callstack 0
  5955                           
  5956 ;; *************** function _putch *****************
  5957 ;; Defined at:
  5958 ;;		line 136 in file "eadog.c"
  5959 ;; Parameters:    Size  Location     Type
  5960 ;;  c               1  [STACK] unsigned char 
  5961 ;; Auto vars:     Size  Location     Type
  5962 ;;		None
  5963 ;; Return value:  Size  Location     Type
  5964 ;;                  1  [STACK] void 
  5965 ;; Registers used:
  5966 ;;		wreg, fsr1l, fsr1h, fsr2l, fsr2h, status,2, status,0, btemp, btemp+8, btemp+9, btemp+10, btemp+11
  5967 ;; Tracked objects:
  5968 ;;		On entry : 0/3D
  5969 ;;		On exit  : 0/0
  5970 ;;		Unchanged: 0/0
  5971 ;; Data sizes:     COMRAM   BANK0   BANK1   BANK2   BANK3   BANK4   BANK5   BANK6   BANK7   BANK8   BANK9  BANK10  BANK1
      +1  BANK12  BANK13  BANK14  BANK15  BANK16  BANK17  BANK18  BANK19  BANK20  BANK21  BANK22  BANK23  BANK24  BANK25  BANK2
      +6  BANK27  BANK28  BANK29  BANK30  BANK31
  5972 ;;      Params:         0       0       0       0       0       0       0       0       0       0       0       0       
      +0       0       0       0       0       0       0       0       0       0       0       0       0       0       0       
      +0       0       0       0       0       0
  5973 ;;      Locals:         0       0       0       0       0       0       0       0       0       0       0       0       
      +0       0       0       0       0       0       0       0       0       0       0       0       0       0       0       
      +0       0       0       0       0       0
  5974 ;;      Temps:          0       0       0       0       0       0       0       0       0       0       0       0       
      +0       0       0       0       0       0       0       0       0       0       0       0       0       0       0       
      +0       0       0       0       0       0
  5975 ;;      Totals:         0       0       0       0       0       0       0       0       0       0       0       0       
      +0       0       0       0       0       0       0       0       0       0       0       0       0       0       0       
      +0       0       0       0       0       0
  5976 ;;Total ram usage:        0 bytes
  5977 ;; Hardware stack levels used:    1
  5978 ;; Hardware stack levels required when called:    4
  5979 ;; This function calls:
  5980 ;;		_ringBufS_put_dma
  5981 ;; This function is called by:
  5982 ;;		_fputc
  5983 ;; This function uses a reentrant model
  5984 ;;
  5985                           
  5986                           	psect	text30
  5987  004A9C                     __ptext30:
  5988                           	opt callstack 0
  5989  004A9C                     _putch:
  5990                           	opt callstack 19
  5991                           
  5992                           ;eadog.c: 136: void putch(char c);eadog.c: 137: {;eadog.c: 138:  ringBufS_put_dma(spi_li
      +                          nk.tx1a, c);
  5993                           ;stkvar	_c @ sp[(0)+-1]
  5994                           
  5995                           ; autosize = 0, savesize = 0, parsavesize = 0, tempsize = 0 parsize = 1, argsize = 1 var
      +                          gsize = 0, retsize = 0 argfudge = 0
  5996                           ;incstack = 0
  5997  004A9C  0EFF               	movlw	-1
  5998  004A9E  50E3               	movf	plusw1,w,c
  5999  004AA0  6EE6               	movwf	postinc1,c
  6000  004AA2  0060  F01F  FFE6   	movff	_spi_link+6,postinc1
  6001  004AA8  0060  F023  FFE6   	movff	_spi_link+7,postinc1
  6002  004AAE  EC21  F01E         	call	_ringBufS_put_dma	;wreg free
  6003                           
  6004                           ; _putch: autosize = 0, savesize = 0, parsavesize = 0, tempsize = 0 parsize = 1, argsize
      +                           = 1, vargsize = 0
  6005  004AB2  52E5               	movf	postdec1,f,c
  6006  004AB4  0012               	return		;funcret
  6007  004AB6                     __end_of_putch:
  6008                           	opt callstack 0
  6009                           
  6010 ;; *************** function _ringBufS_put_dma *****************
  6011 ;; Defined at:
  6012 ;;		line 67 in file "ringbufs.c"
  6013 ;; Parameters:    Size  Location     Type
  6014 ;;  _this           2  [STACK] PTR struct ringBufS_t
  6015 ;;		 -> ring_buf1(67), 
  6016 ;;  c               1  [STACK] const unsigned char 
  6017 ;; Auto vars:     Size  Location     Type
  6018 ;;		None
  6019 ;; Return value:  Size  Location     Type
  6020 ;;                  1  [STACK] void 
  6021 ;; Registers used:
  6022 ;;		wreg, fsr1l, fsr1h, fsr2l, fsr2h, status,2, status,0, btemp, btemp+8, btemp+9, btemp+10, btemp+11
  6023 ;; Tracked objects:
  6024 ;;		On entry : 0/3D
  6025 ;;		On exit  : 0/0
  6026 ;;		Unchanged: 0/0
  6027 ;; Data sizes:     COMRAM   BANK0   BANK1   BANK2   BANK3   BANK4   BANK5   BANK6   BANK7   BANK8   BANK9  BANK10  BANK1
      +1  BANK12  BANK13  BANK14  BANK15  BANK16  BANK17  BANK18  BANK19  BANK20  BANK21  BANK22  BANK23  BANK24  BANK25  BANK2
      +6  BANK27  BANK28  BANK29  BANK30  BANK31
  6028 ;;      Params:         0       0       0       0       0       0       0       0       0       0       0       0       
      +0       0       0       0       0       0       0       0       0       0       0       0       0       0       0       
      +0       0       0       0       0       0
  6029 ;;      Locals:         0       0       0       0       0       0       0       0       0       0       0       0       
      +0       0       0       0       0       0       0       0       0       0       0       0       0       0       0       
      +0       0       0       0       0       0
  6030 ;;      Temps:          0       0       0       0       0       0       0       0       0       0       0       0       
      +0       0       0       0       0       0       0       0       0       0       0       0       0       0       0       
      +0       0       0       0       0       0
  6031 ;;      Totals:         0       0       0       0       0       0       0       0       0       0       0       0       
      +0       0       0       0       0       0       0       0       0       0       0       0       0       0       0       
      +0       0       0       0       0       0
  6032 ;;Total ram usage:        0 bytes
  6033 ;; Hardware stack levels used:    1
  6034 ;; Hardware stack levels required when called:    3
  6035 ;; This function calls:
  6036 ;;		Nothing
  6037 ;; This function is called by:
  6038 ;;		_putch
  6039 ;; This function uses a reentrant model
  6040 ;;
  6041                           
  6042                           	psect	text31
  6043  003C42                     __ptext31:
  6044                           	opt callstack 0
  6045  003C42                     _ringBufS_put_dma:
  6046                           	opt callstack 19
  6047                           
  6048                           ;ringbufs.c: 67: void ringBufS_put_dma(ringBufS_t *_this, const uint8_t c);ringbufs.c: 6
      +                          8: {;ringbufs.c: 69:  if (_this->count < 64) {
  6049                           ;stkvar	__this @ sp[(0)+-2]
  6050                           
  6051                           ; autosize = 0, savesize = 0, parsavesize = 0, tempsize = 0 parsize = 3, argsize = 3 var
      +                          gsize = 0, retsize = 0 argfudge = 0
  6052                           ;incstack = 0
  6053  003C42  0EFE               	movlw	-2
  6054  003C44  006F FF8C  F046    	movff	plusw1,btemp+10
  6055  003C4A  0EFF               	movlw	-1
  6056  003C4C  006F FF8C  F047    	movff	plusw1,btemp+11
  6057  003C52  0E42               	movlw	66
  6058  003C54  2446               	addwf	btemp+10,w,c
  6059  003C56  6ED9               	movwf	fsr2l,c
  6060  003C58  0E00               	movlw	0
  6061  003C5A  2047               	addwfc	btemp+11,w,c
  6062  003C5C  6EDA               	movwf	fsr2h,c
  6063  003C5E  0E40               	movlw	64
  6064  003C60  60DF               	cpfslt	indf2,c
  6065  003C62  D040               	goto	l1296
  6066                           
  6067                           ;ringbufs.c: 70:   _this->buf[_this->head] = c;
  6068                           ;stkvar	_c @ sp[(0)+-3]
  6069                           ;stkvar	__this @ sp[(0)+-2]
  6070  003C64  0EFE               	movlw	-2
  6071  003C66  006F FF8C  F046    	movff	plusw1,btemp+10
  6072  003C6C  0EFF               	movlw	-1
  6073  003C6E  006F FF8C  F047    	movff	plusw1,btemp+11
  6074  003C74  0E40               	movlw	64
  6075  003C76  2446               	addwf	btemp+10,w,c
  6076  003C78  6ED9               	movwf	fsr2l,c
  6077  003C7A  0E00               	movlw	0
  6078  003C7C  2047               	addwfc	btemp+11,w,c
  6079  003C7E  6EDA               	movwf	fsr2h,c
  6080  003C80  50DF               	movf	indf2,w,c
  6081  003C82  6E47               	movwf	btemp+11,c
  6082                           
  6083                           ;stkvar	__this @ sp[(0)+-2]
  6084  003C84  0EFE               	movlw	-2
  6085  003C86  006F FF8C  F044    	movff	plusw1,btemp+8
  6086  003C8C  0EFF               	movlw	-1
  6087  003C8E  006F FF8C  F045    	movff	plusw1,btemp+9
  6088  003C94  5047               	movf	btemp+11,w,c
  6089  003C96  2444               	addwf	btemp+8,w,c
  6090  003C98  6ED9               	movwf	fsr2l,c
  6091  003C9A  0E00               	movlw	0
  6092  003C9C  2045               	addwfc	btemp+9,w,c
  6093  003C9E  6EDA               	movwf	fsr2h,c
  6094  003CA0  0EFD               	movlw	-3
  6095  003CA2  006F FF8F FFDF     	movff	plusw1,indf2
  6096                           
  6097                           ;ringbufs.c: 71:   ++_this->head;
  6098                           ;stkvar	__this @ sp[(0)+-2]
  6099  003CA8  0EFE               	movlw	-2
  6100  003CAA  006F FF8C  F046    	movff	plusw1,btemp+10
  6101  003CB0  0EFF               	movlw	-1
  6102  003CB2  006F FF8C  F047    	movff	plusw1,btemp+11
  6103  003CB8  0E40               	movlw	64
  6104  003CBA  2446               	addwf	btemp+10,w,c
  6105  003CBC  6ED9               	movwf	fsr2l,c
  6106  003CBE  0E00               	movlw	0
  6107  003CC0  2047               	addwfc	btemp+11,w,c
  6108  003CC2  6EDA               	movwf	fsr2h,c
  6109  003CC4  2ADF               	incf	indf2,f,c
  6110                           
  6111                           ;ringbufs.c: 72:   ++_this->count;
  6112                           ;stkvar	__this @ sp[(0)+-2]
  6113  003CC6  0EFE               	movlw	-2
  6114  003CC8  006F FF8C  F046    	movff	plusw1,btemp+10
  6115  003CCE  0EFF               	movlw	-1
  6116  003CD0  006F FF8C  F047    	movff	plusw1,btemp+11
  6117  003CD6  0E42               	movlw	66
  6118  003CD8  2446               	addwf	btemp+10,w,c
  6119  003CDA  6ED9               	movwf	fsr2l,c
  6120  003CDC  0E00               	movlw	0
  6121  003CDE  2047               	addwfc	btemp+11,w,c
  6122  003CE0  6EDA               	movwf	fsr2h,c
  6123  003CE2  2ADF               	incf	indf2,f,c
  6124  003CE4                     l1296:
  6125                           
  6126                           ; _ringBufS_put_dma: autosize = 0, savesize = 0, parsavesize = 0, tempsize = 0 parsize =
      +                           3, argsize = 3, vargsize = 0
  6127  003CE4  52E5               	movf	postdec1,f,c
  6128  003CE6  52E5               	movf	postdec1,f,c
  6129  003CE8  52E5               	movf	postdec1,f,c
  6130  003CEA  0012               	return		;funcret
  6131  003CEC                     __end_of_ringBufS_put_dma:
  6132                           	opt callstack 0
  6133                           
  6134 ;; *************** function _abs *****************
  6135 ;; Defined at:
  6136 ;;		line 1 in file "/opt/microchip/xc8/v2.05/pic/sources/c99/common/abs.c"
  6137 ;; Parameters:    Size  Location     Type
  6138 ;;  a               2  [STACK] int 
  6139 ;; Auto vars:     Size  Location     Type
  6140 ;;		None
  6141 ;; Return value:  Size  Location     Type
  6142 ;;                  2  [STACK] int 
  6143 ;; Registers used:
  6144 ;;		wreg, fsr1l, fsr1h, status,2, status,0, btemp, btemp+1
  6145 ;; Tracked objects:
  6146 ;;		On entry : 0/0
  6147 ;;		On exit  : 0/0
  6148 ;;		Unchanged: 0/0
  6149 ;; Data sizes:     COMRAM   BANK0   BANK1   BANK2   BANK3   BANK4   BANK5   BANK6   BANK7   BANK8   BANK9  BANK10  BANK1
      +1  BANK12  BANK13  BANK14  BANK15  BANK16  BANK17  BANK18  BANK19  BANK20  BANK21  BANK22  BANK23  BANK24  BANK25  BANK2
      +6  BANK27  BANK28  BANK29  BANK30  BANK31
  6150 ;;      Params:         0       0       0       0       0       0       0       0       0       0       0       0       
      +0       0       0       0       0       0       0       0       0       0       0       0       0       0       0       
      +0       0       0       0       0       0
  6151 ;;      Locals:         0       0       0       0       0       0       0       0       0       0       0       0       
      +0       0       0       0       0       0       0       0       0       0       0       0       0       0       0       
      +0       0       0       0       0       0
  6152 ;;      Temps:          0       0       0       0       0       0       0       0       0       0       0       0       
      +0       0       0       0       0       0       0       0       0       0       0       0       0       0       0       
      +0       0       0       0       0       0
  6153 ;;      Totals:         0       0       0       0       0       0       0       0       0       0       0       0       
      +0       0       0       0       0       0       0       0       0       0       0       0       0       0       0       
      +0       0       0       0       0       0
  6154 ;;Total ram usage:        0 bytes
  6155 ;; Hardware stack levels used:    1
  6156 ;; Hardware stack levels required when called:    3
  6157 ;; This function calls:
  6158 ;;		Nothing
  6159 ;; This function is called by:
  6160 ;;		_dtoa
  6161 ;; This function uses a reentrant model
  6162 ;;
  6163                           
  6164                           	psect	text32
  6165  004488                     __ptext32:
  6166                           	opt callstack 0
  6167  004488                     _abs:
  6168                           	opt callstack 23
  6169                           
  6170                           ;stkvar	_a @ sp[(0)+-2]
  6171                           
  6172                           ; autosize = 0, savesize = 0, parsavesize = 0, tempsize = 0 parsize = 2, argsize = 2 var
      +                          gsize = 0, retsize = 0 argfudge = 0
  6173                           ;incstack = 0
  6174  004488  0EFF               	movlw	-1
  6175  00448A  BEE3               	btfsc	plusw1,7,c
  6176  00448C  D007               	goto	u1590
  6177  00448E  0EFF               	movlw	-1
  6178  004490  50E3               	movf	plusw1,w,c
  6179  004492  E112               	bnz	l3533
  6180  004494  0EFE               	movlw	-2
  6181  004496  04E3               	decf	plusw1,w,c
  6182  004498  B0D8               	btfsc	status,0,c
  6183  00449A  D00E               	goto	l3533
  6184  00449C                     u1590:
  6185                           
  6186                           ;stkvar	_a @ sp[(0)+-2]
  6187  00449C  0EFE               	movlw	-2
  6188  00449E  006F FF8C  F03C    	movff	plusw1,btemp
  6189  0044A4  1E3C               	comf	btemp,f,c
  6190  0044A6  0EFF               	movlw	-1
  6191  0044A8  006F FF8C  F03D    	movff	plusw1,btemp+1
  6192  0044AE  1E3D               	comf	btemp+1,f,c
  6193  0044B0  2A3C               	incf	btemp,f,c
  6194  0044B2  B4D8               	btfsc	status,2,c
  6195  0044B4  2A3D               	incf	btemp+1,f,c
  6196  0044B6  D008               	goto	l2122
  6197  0044B8                     l3533:
  6198                           
  6199                           ;stkvar	_a @ sp[(0)+-2]
  6200  0044B8  0EFE               	movlw	-2
  6201  0044BA  006F FF8C  F03C    	movff	plusw1,btemp
  6202  0044C0  0EFF               	movlw	-1
  6203  0044C2  006F FF8C  F03D    	movff	plusw1,btemp+1
  6204  0044C8                     l2122:
  6205                           
  6206                           ; _abs: autosize = 0, savesize = 0, parsavesize = 0, tempsize = 0 parsize = 2, argsize =
      +                           2, vargsize = 0
  6207  0044C8  52E5               	movf	postdec1,f,c
  6208  0044CA  52E5               	movf	postdec1,f,c
  6209  0044CC  0012               	return		;funcret
  6210  0044CE                     __end_of_abs:
  6211                           	opt callstack 0
  6212                           
  6213 ;; *************** function ___aomod *****************
  6214 ;; Defined at:
  6215 ;;		line 9 in file "/opt/microchip/xc8/v2.05/pic/sources/c99/common/aomod.c"
  6216 ;; Parameters:    Size  Location     Type
  6217 ;;  dividend        8  [STACK] long long 
  6218 ;;  divisor         8  [STACK] long long 
  6219 ;; Auto vars:     Size  Location     Type
  6220 ;;  sign            1  [STACK] unsigned char 
  6221 ;;  counter         1  [STACK] unsigned char 
  6222 ;; Return value:  Size  Location     Type
  6223 ;;                  8  [STACK] long long 
  6224 ;; Registers used:
  6225 ;;		wreg, fsr1l, fsr1h, fsr2l, fsr2h, status,2, status,0, btemp
  6226 ;; Tracked objects:
  6227 ;;		On entry : 0/0
  6228 ;;		On exit  : 0/0
  6229 ;;		Unchanged: 0/0
  6230 ;; Data sizes:     COMRAM   BANK0   BANK1   BANK2   BANK3   BANK4   BANK5   BANK6   BANK7   BANK8   BANK9  BANK10  BANK1
      +1  BANK12  BANK13  BANK14  BANK15  BANK16  BANK17  BANK18  BANK19  BANK20  BANK21  BANK22  BANK23  BANK24  BANK25  BANK2
      +6  BANK27  BANK28  BANK29  BANK30  BANK31
  6231 ;;      Params:         0       0       0       0       0       0       0       0       0       0       0       0       
      +0       0       0       0       0       0       0       0       0       0       0       0       0       0       0       
      +0       0       0       0       0       0
  6232 ;;      Locals:         0       0       0       0       0       0       0       0       0       0       0       0       
      +0       0       0       0       0       0       0       0       0       0       0       0       0       0       0       
      +0       0       0       0       0       0
  6233 ;;      Temps:          0       0       0       0       0       0       0       0       0       0       0       0       
      +0       0       0       0       0       0       0       0       0       0       0       0       0       0       0       
      +0       0       0       0       0       0
  6234 ;;      Totals:         0       0       0       0       0       0       0       0       0       0       0       0       
      +0       0       0       0       0       0       0       0       0       0       0       0       0       0       0       
      +0       0       0       0       0       0
  6235 ;;Total ram usage:        0 bytes
  6236 ;; Hardware stack levels used:    1
  6237 ;; Hardware stack levels required when called:    3
  6238 ;; This function calls:
  6239 ;;		Nothing
  6240 ;; This function is called by:
  6241 ;;		_dtoa
  6242 ;; This function uses a reentrant model
  6243 ;;
  6244                           
  6245                           	psect	text33
  6246  003466                     __ptext33:
  6247                           	opt callstack 0
  6248  003466                     ___aomod:
  6249                           	opt callstack 0
  6250                           
  6251                           ; autosize = 2, savesize = 0, parsavesize = 0, tempsize = 0 parsize = 16, argsize = 16 v
      +                          argsize = 0, retsize = 8 argfudge = 0
  6252  003466  52E6               	movf	postinc1,f,c
  6253  003468  52E6               	movf	postinc1,f,c
  6254                           
  6255                           ;stkvar	_sign @ sp[(-2)+0]
  6256                           
  6257                           ;incstack = 0
  6258  00346A  0EFE               	movlw	-2
  6259  00346C  6AE3               	clrf	plusw1,c
  6260                           
  6261                           ;stkvar	_dividend @ sp[(-2)+-8]
  6262  00346E  0EFD               	movlw	-3
  6263  003470  AEE3               	btfss	plusw1,7,c
  6264  003472  D028               	goto	l3611
  6265                           
  6266                           ;stkvar	_dividend @ sp[(-2)+-8]
  6267                           ;stkvar	_dividend @ sp[(-2)+-8]
  6268  003474  0EF6               	movlw	-10
  6269  003476  6CE3               	negf	plusw1,c
  6270  003478  0EF7               	movlw	-9
  6271  00347A  1EE3               	comf	plusw1,f,c
  6272  00347C  0EF8               	movlw	-8
  6273  00347E  1EE3               	comf	plusw1,f,c
  6274  003480  0EF9               	movlw	-7
  6275  003482  1EE3               	comf	plusw1,f,c
  6276  003484  0EFA               	movlw	-6
  6277  003486  1EE3               	comf	plusw1,f,c
  6278  003488  0EFB               	movlw	-5
  6279  00348A  1EE3               	comf	plusw1,f,c
  6280  00348C  0EFC               	movlw	-4
  6281  00348E  1EE3               	comf	plusw1,f,c
  6282  003490  0EFD               	movlw	-3
  6283  003492  1EE3               	comf	plusw1,f,c
  6284  003494  E314               	bnc	u1800
  6285  003496  0EF7               	movlw	-9
  6286  003498  2AE3               	incf	plusw1,f,c
  6287  00349A  E311               	bnc	u1800
  6288  00349C  0EF8               	movlw	-8
  6289  00349E  2AE3               	incf	plusw1,f,c
  6290  0034A0  E30E               	bnc	u1800
  6291  0034A2  0EF9               	movlw	-7
  6292  0034A4  2AE3               	incf	plusw1,f,c
  6293  0034A6  E30B               	bnc	u1800
  6294  0034A8  0EFA               	movlw	-6
  6295  0034AA  2AE3               	incf	plusw1,f,c
  6296  0034AC  E308               	bnc	u1800
  6297  0034AE  0EFB               	movlw	-5
  6298  0034B0  2AE3               	incf	plusw1,f,c
  6299  0034B2  E305               	bnc	u1800
  6300  0034B4  0EFC               	movlw	-4
  6301  0034B6  2AE3               	incf	plusw1,f,c
  6302  0034B8  E302               	bnc	u1800
  6303  0034BA  0EFD               	movlw	-3
  6304  0034BC  2AE3               	incf	plusw1,f,c
  6305  0034BE                     u1800:
  6306                           
  6307                           ;stkvar	_sign @ sp[(-2)+0]
  6308  0034BE  0EFE               	movlw	-2
  6309  0034C0  6AE3               	clrf	plusw1,c
  6310  0034C2  2AE3               	incf	plusw1,f,c
  6311  0034C4                     l3611:
  6312                           
  6313                           ;stkvar	_divisor @ sp[(-2)+-16]
  6314  0034C4  0EF5               	movlw	-11
  6315  0034C6  AEE3               	btfss	plusw1,7,c
  6316  0034C8  D025               	goto	u1820
  6317                           
  6318                           ;stkvar	_divisor @ sp[(-2)+-16]
  6319                           ;stkvar	_divisor @ sp[(-2)+-16]
  6320  0034CA  0EEE               	movlw	-18
  6321  0034CC  6CE3               	negf	plusw1,c
  6322  0034CE  0EEF               	movlw	-17
  6323  0034D0  1EE3               	comf	plusw1,f,c
  6324  0034D2  0EF0               	movlw	-16
  6325  0034D4  1EE3               	comf	plusw1,f,c
  6326  0034D6  0EF1               	movlw	-15
  6327  0034D8  1EE3               	comf	plusw1,f,c
  6328  0034DA  0EF2               	movlw	-14
  6329  0034DC  1EE3               	comf	plusw1,f,c
  6330  0034DE  0EF3               	movlw	-13
  6331  0034E0  1EE3               	comf	plusw1,f,c
  6332  0034E2  0EF4               	movlw	-12
  6333  0034E4  1EE3               	comf	plusw1,f,c
  6334  0034E6  0EF5               	movlw	-11
  6335  0034E8  1EE3               	comf	plusw1,f,c
  6336  0034EA  E314               	bnc	u1820
  6337  0034EC  0EEF               	movlw	-17
  6338  0034EE  2AE3               	incf	plusw1,f,c
  6339  0034F0  E311               	bnc	u1820
  6340  0034F2  0EF0               	movlw	-16
  6341  0034F4  2AE3               	incf	plusw1,f,c
  6342  0034F6  E30E               	bnc	u1820
  6343  0034F8  0EF1               	movlw	-15
  6344  0034FA  2AE3               	incf	plusw1,f,c
  6345  0034FC  E30B               	bnc	u1820
  6346  0034FE  0EF2               	movlw	-14
  6347  003500  2AE3               	incf	plusw1,f,c
  6348  003502  E308               	bnc	u1820
  6349  003504  0EF3               	movlw	-13
  6350  003506  2AE3               	incf	plusw1,f,c
  6351  003508  E305               	bnc	u1820
  6352  00350A  0EF4               	movlw	-12
  6353  00350C  2AE3               	incf	plusw1,f,c
  6354  00350E  E302               	bnc	u1820
  6355  003510  0EF5               	movlw	-11
  6356  003512  2AE3               	incf	plusw1,f,c
  6357  003514                     u1820:
  6358                           
  6359                           ;stkvar	_divisor @ sp[(-2)+-16]
  6360  003514  0EEE               	movlw	-18
  6361  003516  50E3               	movf	plusw1,w,c
  6362  003518  E116               	bnz	u1830
  6363  00351A  0EEF               	movlw	-17
  6364  00351C  50E3               	movf	plusw1,w,c
  6365  00351E  E113               	bnz	u1830
  6366  003520  0EF0               	movlw	-16
  6367  003522  50E3               	movf	plusw1,w,c
  6368  003524  E110               	bnz	u1830
  6369  003526  0EF1               	movlw	-15
  6370  003528  50E3               	movf	plusw1,w,c
  6371  00352A  E10D               	bnz	u1830
  6372  00352C  0EF2               	movlw	-14
  6373  00352E  50E3               	movf	plusw1,w,c
  6374  003530  E10A               	bnz	u1830
  6375  003532  0EF3               	movlw	-13
  6376  003534  50E3               	movf	plusw1,w,c
  6377  003536  E107               	bnz	u1830
  6378  003538  0EF4               	movlw	-12
  6379  00353A  50E3               	movf	plusw1,w,c
  6380  00353C  E104               	bnz	u1830
  6381  00353E  0EF5               	movlw	-11
  6382  003540  50E3               	movf	plusw1,w,c
  6383  003542  B4D8               	btfsc	status,2,c
  6384  003544  D075               	goto	u1860
  6385  003546                     u1830:
  6386                           
  6387                           ;stkvar	_counter @ sp[(-2)+1]
  6388  003546  0EFF               	movlw	-1
  6389  003548  6AE3               	clrf	plusw1,c
  6390  00354A  D012               	goto	L7
  6391  00354C                     l3619:
  6392                           
  6393                           ;stkvar	_divisor @ sp[(-2)+-16]
  6394  00354C  90D8               	bcf	status,0,c
  6395  00354E  0EEE               	movlw	-18
  6396  003550  36E3               	rlcf	plusw1,f,c
  6397  003552  0EEF               	movlw	-17
  6398  003554  36E3               	rlcf	plusw1,f,c
  6399  003556  0EF0               	movlw	-16
  6400  003558  36E3               	rlcf	plusw1,f,c
  6401  00355A  0EF1               	movlw	-15
  6402  00355C  36E3               	rlcf	plusw1,f,c
  6403  00355E  0EF2               	movlw	-14
  6404  003560  36E3               	rlcf	plusw1,f,c
  6405  003562  0EF3               	movlw	-13
  6406  003564  36E3               	rlcf	plusw1,f,c
  6407  003566  0EF4               	movlw	-12
  6408  003568  36E3               	rlcf	plusw1,f,c
  6409  00356A  0EF5               	movlw	-11
  6410  00356C  36E3               	rlcf	plusw1,f,c
  6411                           
  6412                           ;stkvar	_counter @ sp[(-2)+1]
  6413  00356E  0EFF               	movlw	-1
  6414  003570                     L7:
  6415  003570  2AE3               	incf	plusw1,f,c
  6416                           
  6417                           ;stkvar	_divisor @ sp[(-2)+-16]
  6418  003572  0EF5               	movlw	-11
  6419  003574  AEE3               	btfss	plusw1,7,c
  6420  003576  D7EA               	goto	l3619
  6421  003578                     u1840:
  6422                           
  6423                           ;stkvar	_divisor @ sp[(-2)+-16]
  6424                           ;stkvar	_dividend @ sp[(-2)+-8]
  6425  003578  50E1               	movf	fsr1l,w,c
  6426  00357A  0FF6               	addlw	-10
  6427  00357C  6ED9               	movwf	fsr2l,c
  6428  00357E  50E2               	movf	fsr1h,w,c
  6429  003580  6EDA               	movwf	fsr2h,c
  6430  003582  0EFF               	movlw	255
  6431  003584  22DA               	addwfc	fsr2h,f,c
  6432  003586  0EEE               	movlw	-18
  6433  003588  50E3               	movf	plusw1,w,c
  6434  00358A  5CDE               	subwf	postinc2,w,c
  6435  00358C  0EEF               	movlw	-17
  6436  00358E  50E3               	movf	plusw1,w,c
  6437  003590  58DE               	subwfb	postinc2,w,c
  6438  003592  0EF0               	movlw	-16
  6439  003594  50E3               	movf	plusw1,w,c
  6440  003596  58DE               	subwfb	postinc2,w,c
  6441  003598  0EF1               	movlw	-15
  6442  00359A  50E3               	movf	plusw1,w,c
  6443  00359C  58DE               	subwfb	postinc2,w,c
  6444  00359E  0EF2               	movlw	-14
  6445  0035A0  50E3               	movf	plusw1,w,c
  6446  0035A2  58DE               	subwfb	postinc2,w,c
  6447  0035A4  0EF3               	movlw	-13
  6448  0035A6  50E3               	movf	plusw1,w,c
  6449  0035A8  58DE               	subwfb	postinc2,w,c
  6450  0035AA  0EF4               	movlw	-12
  6451  0035AC  50E3               	movf	plusw1,w,c
  6452  0035AE  58DE               	subwfb	postinc2,w,c
  6453  0035B0  0EF5               	movlw	-11
  6454  0035B2  50E3               	movf	plusw1,w,c
  6455  0035B4  58DE               	subwfb	postinc2,w,c
  6456  0035B6  A0D8               	btfss	status,0,c
  6457  0035B8  D01F               	goto	l3627
  6458                           
  6459                           ;stkvar	_divisor @ sp[(-2)+-16]
  6460                           ;stkvar	_dividend @ sp[(-2)+-8]
  6461  0035BA  50E1               	movf	fsr1l,w,c
  6462  0035BC  0FF6               	addlw	-10
  6463  0035BE  6ED9               	movwf	fsr2l,c
  6464  0035C0  50E2               	movf	fsr1h,w,c
  6465  0035C2  6EDA               	movwf	fsr2h,c
  6466  0035C4  0EFF               	movlw	255
  6467  0035C6  22DA               	addwfc	fsr2h,f,c
  6468  0035C8  0EEE               	movlw	-18
  6469  0035CA  50E3               	movf	plusw1,w,c
  6470  0035CC  5EDE               	subwf	postinc2,f,c
  6471  0035CE  0EEF               	movlw	-17
  6472  0035D0  50E3               	movf	plusw1,w,c
  6473  0035D2  5ADE               	subwfb	postinc2,f,c
  6474  0035D4  0EF0               	movlw	-16
  6475  0035D6  50E3               	movf	plusw1,w,c
  6476  0035D8  5ADE               	subwfb	postinc2,f,c
  6477  0035DA  0EF1               	movlw	-15
  6478  0035DC  50E3               	movf	plusw1,w,c
  6479  0035DE  5ADE               	subwfb	postinc2,f,c
  6480  0035E0  0EF2               	movlw	-14
  6481  0035E2  50E3               	movf	plusw1,w,c
  6482  0035E4  5ADE               	subwfb	postinc2,f,c
  6483  0035E6  0EF3               	movlw	-13
  6484  0035E8  50E3               	movf	plusw1,w,c
  6485  0035EA  5ADE               	subwfb	postinc2,f,c
  6486  0035EC  0EF4               	movlw	-12
  6487  0035EE  50E3               	movf	plusw1,w,c
  6488  0035F0  5ADE               	subwfb	postinc2,f,c
  6489  0035F2  0EF5               	movlw	-11
  6490  0035F4  50E3               	movf	plusw1,w,c
  6491  0035F6  5ADE               	subwfb	postinc2,f,c
  6492  0035F8                     l3627:
  6493                           
  6494                           ;stkvar	_divisor @ sp[(-2)+-16]
  6495  0035F8  90D8               	bcf	status,0,c
  6496  0035FA  0EF5               	movlw	-11
  6497  0035FC  32E3               	rrcf	plusw1,f,c
  6498  0035FE  0EF4               	movlw	-12
  6499  003600  32E3               	rrcf	plusw1,f,c
  6500  003602  0EF3               	movlw	-13
  6501  003604  32E3               	rrcf	plusw1,f,c
  6502  003606  0EF2               	movlw	-14
  6503  003608  32E3               	rrcf	plusw1,f,c
  6504  00360A  0EF1               	movlw	-15
  6505  00360C  32E3               	rrcf	plusw1,f,c
  6506  00360E  0EF0               	movlw	-16
  6507  003610  32E3               	rrcf	plusw1,f,c
  6508  003612  0EEF               	movlw	-17
  6509  003614  32E3               	rrcf	plusw1,f,c
  6510  003616  0EEE               	movlw	-18
  6511  003618  32E3               	rrcf	plusw1,f,c
  6512                           
  6513                           ;stkvar	_counter @ sp[(-2)+1]
  6514  00361A  0EFF               	movlw	-1
  6515  00361C  50E3               	movf	plusw1,w,c
  6516  00361E  6E3C               	movwf	btemp,c
  6517  003620  0E01               	movlw	1
  6518  003622  5E3C               	subwf	btemp,f,c
  6519  003624  0EFF               	movlw	-1
  6520  003626  0060  F0F3  FFE3   	movff	btemp,plusw1
  6521  00362C  A4D8               	btfss	status,2,c
  6522  00362E  D7A4               	goto	u1840
  6523  003630                     u1860:
  6524                           
  6525                           ;stkvar	_sign @ sp[(-2)+0]
  6526  003630  0EFE               	movlw	-2
  6527  003632  50E3               	movf	plusw1,w,c
  6528  003634  B4D8               	btfsc	status,2,c
  6529  003636  D025               	goto	u1880
  6530                           
  6531                           ;stkvar	_dividend @ sp[(-2)+-8]
  6532                           ;stkvar	_dividend @ sp[(-2)+-8]
  6533  003638  0EF6               	movlw	-10
  6534  00363A  6CE3               	negf	plusw1,c
  6535  00363C  0EF7               	movlw	-9
  6536  00363E  1EE3               	comf	plusw1,f,c
  6537  003640  0EF8               	movlw	-8
  6538  003642  1EE3               	comf	plusw1,f,c
  6539  003644  0EF9               	movlw	-7
  6540  003646  1EE3               	comf	plusw1,f,c
  6541  003648  0EFA               	movlw	-6
  6542  00364A  1EE3               	comf	plusw1,f,c
  6543  00364C  0EFB               	movlw	-5
  6544  00364E  1EE3               	comf	plusw1,f,c
  6545  003650  0EFC               	movlw	-4
  6546  003652  1EE3               	comf	plusw1,f,c
  6547  003654  0EFD               	movlw	-3
  6548  003656  1EE3               	comf	plusw1,f,c
  6549  003658  E314               	bnc	u1880
  6550  00365A  0EF7               	movlw	-9
  6551  00365C  2AE3               	incf	plusw1,f,c
  6552  00365E  E311               	bnc	u1880
  6553  003660  0EF8               	movlw	-8
  6554  003662  2AE3               	incf	plusw1,f,c
  6555  003664  E30E               	bnc	u1880
  6556  003666  0EF9               	movlw	-7
  6557  003668  2AE3               	incf	plusw1,f,c
  6558  00366A  E30B               	bnc	u1880
  6559  00366C  0EFA               	movlw	-6
  6560  00366E  2AE3               	incf	plusw1,f,c
  6561  003670  E308               	bnc	u1880
  6562  003672  0EFB               	movlw	-5
  6563  003674  2AE3               	incf	plusw1,f,c
  6564  003676  E305               	bnc	u1880
  6565  003678  0EFC               	movlw	-4
  6566  00367A  2AE3               	incf	plusw1,f,c
  6567  00367C  E302               	bnc	u1880
  6568  00367E  0EFD               	movlw	-3
  6569  003680  2AE3               	incf	plusw1,f,c
  6570  003682                     u1880:
  6571                           
  6572                           ;stkvar	_dividend @ sp[(-2)+-8]
  6573  003682  0EF6               	movlw	246
  6574  003684  24E1               	addwf	fsr1l,w,c
  6575  003686  6ED9               	movwf	fsr2l,c
  6576  003688  0EFF               	movlw	255
  6577  00368A  20E2               	addwfc	fsr1h,w,c
  6578  00368C  6EDA               	movwf	fsr2h,c
  6579                           
  6580                           ;stkvar	?___aomod @ sp[(-2)+-8]
  6581  00368E  0E08               	movlw	8
  6582  003690  6E3C               	movwf	btemp,c
  6583  003692  0EF6               	movlw	-10
  6584  003694                     us189999:
  6585  003694  006F FF7B FFE3     	movff	postinc2,plusw1
  6586  00369A  28E8               	incf	wreg,w,c
  6587  00369C  2E3C               	decfsz	btemp,f,c
  6588  00369E  D7FA               	bra	us189999
  6589                           
  6590                           ; ___aomod: autosize = 2, savesize = 0, parsavesize = 0, tempsize = 0 parsize = 16, args
      +                          ize = 16, vargsize = 0
  6591  0036A0  52E5               	movf	postdec1,f,c
  6592  0036A2  52E5               	movf	postdec1,f,c
  6593  0036A4  0012               	return		;funcret
  6594  0036A6                     __end_of___aomod:
  6595                           	opt callstack 0
  6596                           
  6597 ;; *************** function ___aodiv *****************
  6598 ;; Defined at:
  6599 ;;		line 9 in file "/opt/microchip/xc8/v2.05/pic/sources/c99/common/aodiv.c"
  6600 ;; Parameters:    Size  Location     Type
  6601 ;;  dividend        8  [STACK] long long 
  6602 ;;  divisor         8  [STACK] long long 
  6603 ;; Auto vars:     Size  Location     Type
  6604 ;;  quotient        8  [STACK] long long 
  6605 ;;  sign            1  [STACK] unsigned char 
  6606 ;;  counter         1  [STACK] unsigned char 
  6607 ;; Return value:  Size  Location     Type
  6608 ;;                  8  [STACK] long long 
  6609 ;; Registers used:
  6610 ;;		wreg, fsr1l, fsr1h, fsr2l, fsr2h, status,2, status,0, btemp
  6611 ;; Tracked objects:
  6612 ;;		On entry : 0/0
  6613 ;;		On exit  : 0/0
  6614 ;;		Unchanged: 0/0
  6615 ;; Data sizes:     COMRAM   BANK0   BANK1   BANK2   BANK3   BANK4   BANK5   BANK6   BANK7   BANK8   BANK9  BANK10  BANK1
      +1  BANK12  BANK13  BANK14  BANK15  BANK16  BANK17  BANK18  BANK19  BANK20  BANK21  BANK22  BANK23  BANK24  BANK25  BANK2
      +6  BANK27  BANK28  BANK29  BANK30  BANK31
  6616 ;;      Params:         0       0       0       0       0       0       0       0       0       0       0       0       
      +0       0       0       0       0       0       0       0       0       0       0       0       0       0       0       
      +0       0       0       0       0       0
  6617 ;;      Locals:         0       0       0       0       0       0       0       0       0       0       0       0       
      +0       0       0       0       0       0       0       0       0       0       0       0       0       0       0       
      +0       0       0       0       0       0
  6618 ;;      Temps:          0       0       0       0       0       0       0       0       0       0       0       0       
      +0       0       0       0       0       0       0       0       0       0       0       0       0       0       0       
      +0       0       0       0       0       0
  6619 ;;      Totals:         0       0       0       0       0       0       0       0       0       0       0       0       
      +0       0       0       0       0       0       0       0       0       0       0       0       0       0       0       
      +0       0       0       0       0       0
  6620 ;;Total ram usage:        0 bytes
  6621 ;; Hardware stack levels used:    1
  6622 ;; Hardware stack levels required when called:    3
  6623 ;; This function calls:
  6624 ;;		Nothing
  6625 ;; This function is called by:
  6626 ;;		_dtoa
  6627 ;; This function uses a reentrant model
  6628 ;;
  6629                           
  6630                           	psect	text34
  6631  0031E6                     __ptext34:
  6632                           	opt callstack 0
  6633  0031E6                     ___aodiv:
  6634                           	opt callstack 0
  6635                           
  6636                           ; autosize = 10, savesize = 0, parsavesize = 0, tempsize = 0 parsize = 16, argsize = 16 
      +                          vargsize = 0, retsize = 8 argfudge = 0
  6637  0031E6  0E0A               	movlw	10
  6638  0031E8  26E1               	addwf	fsr1l,f,c
  6639  0031EA  0E00               	movlw	0
  6640  0031EC  22E2               	addwfc	fsr1h,f,c
  6641                           
  6642                           ;stkvar	_sign @ sp[(-10)+8]
  6643                           
  6644                           ;incstack = 0
  6645  0031EE  0EFE               	movlw	-2
  6646  0031F0  6AE3               	clrf	plusw1,c
  6647                           
  6648                           ;stkvar	_divisor @ sp[(-10)+-16]
  6649  0031F2  0EED               	movlw	-19
  6650  0031F4  AEE3               	btfss	plusw1,7,c
  6651  0031F6  D028               	goto	l3567
  6652                           
  6653                           ;stkvar	_divisor @ sp[(-10)+-16]
  6654                           ;stkvar	_divisor @ sp[(-10)+-16]
  6655  0031F8  0EE6               	movlw	-26
  6656  0031FA  6CE3               	negf	plusw1,c
  6657  0031FC  0EE7               	movlw	-25
  6658  0031FE  1EE3               	comf	plusw1,f,c
  6659  003200  0EE8               	movlw	-24
  6660  003202  1EE3               	comf	plusw1,f,c
  6661  003204  0EE9               	movlw	-23
  6662  003206  1EE3               	comf	plusw1,f,c
  6663  003208  0EEA               	movlw	-22
  6664  00320A  1EE3               	comf	plusw1,f,c
  6665  00320C  0EEB               	movlw	-21
  6666  00320E  1EE3               	comf	plusw1,f,c
  6667  003210  0EEC               	movlw	-20
  6668  003212  1EE3               	comf	plusw1,f,c
  6669  003214  0EED               	movlw	-19
  6670  003216  1EE3               	comf	plusw1,f,c
  6671  003218  E314               	bnc	u1680
  6672  00321A  0EE7               	movlw	-25
  6673  00321C  2AE3               	incf	plusw1,f,c
  6674  00321E  E311               	bnc	u1680
  6675  003220  0EE8               	movlw	-24
  6676  003222  2AE3               	incf	plusw1,f,c
  6677  003224  E30E               	bnc	u1680
  6678  003226  0EE9               	movlw	-23
  6679  003228  2AE3               	incf	plusw1,f,c
  6680  00322A  E30B               	bnc	u1680
  6681  00322C  0EEA               	movlw	-22
  6682  00322E  2AE3               	incf	plusw1,f,c
  6683  003230  E308               	bnc	u1680
  6684  003232  0EEB               	movlw	-21
  6685  003234  2AE3               	incf	plusw1,f,c
  6686  003236  E305               	bnc	u1680
  6687  003238  0EEC               	movlw	-20
  6688  00323A  2AE3               	incf	plusw1,f,c
  6689  00323C  E302               	bnc	u1680
  6690  00323E  0EED               	movlw	-19
  6691  003240  2AE3               	incf	plusw1,f,c
  6692  003242                     u1680:
  6693                           
  6694                           ;stkvar	_sign @ sp[(-10)+8]
  6695  003242  0EFE               	movlw	-2
  6696  003244  6AE3               	clrf	plusw1,c
  6697  003246  2AE3               	incf	plusw1,f,c
  6698  003248                     l3567:
  6699                           
  6700                           ;stkvar	_dividend @ sp[(-10)+-8]
  6701  003248  0EF5               	movlw	-11
  6702  00324A  AEE3               	btfss	plusw1,7,c
  6703  00324C  D027               	goto	l3573
  6704                           
  6705                           ;stkvar	_dividend @ sp[(-10)+-8]
  6706                           ;stkvar	_dividend @ sp[(-10)+-8]
  6707  00324E  0EEE               	movlw	-18
  6708  003250  6CE3               	negf	plusw1,c
  6709  003252  0EEF               	movlw	-17
  6710  003254  1EE3               	comf	plusw1,f,c
  6711  003256  0EF0               	movlw	-16
  6712  003258  1EE3               	comf	plusw1,f,c
  6713  00325A  0EF1               	movlw	-15
  6714  00325C  1EE3               	comf	plusw1,f,c
  6715  00325E  0EF2               	movlw	-14
  6716  003260  1EE3               	comf	plusw1,f,c
  6717  003262  0EF3               	movlw	-13
  6718  003264  1EE3               	comf	plusw1,f,c
  6719  003266  0EF4               	movlw	-12
  6720  003268  1EE3               	comf	plusw1,f,c
  6721  00326A  0EF5               	movlw	-11
  6722  00326C  1EE3               	comf	plusw1,f,c
  6723  00326E  E314               	bnc	u1700
  6724  003270  0EEF               	movlw	-17
  6725  003272  2AE3               	incf	plusw1,f,c
  6726  003274  E311               	bnc	u1700
  6727  003276  0EF0               	movlw	-16
  6728  003278  2AE3               	incf	plusw1,f,c
  6729  00327A  E30E               	bnc	u1700
  6730  00327C  0EF1               	movlw	-15
  6731  00327E  2AE3               	incf	plusw1,f,c
  6732  003280  E30B               	bnc	u1700
  6733  003282  0EF2               	movlw	-14
  6734  003284  2AE3               	incf	plusw1,f,c
  6735  003286  E308               	bnc	u1700
  6736  003288  0EF3               	movlw	-13
  6737  00328A  2AE3               	incf	plusw1,f,c
  6738  00328C  E305               	bnc	u1700
  6739  00328E  0EF4               	movlw	-12
  6740  003290  2AE3               	incf	plusw1,f,c
  6741  003292  E302               	bnc	u1700
  6742  003294  0EF5               	movlw	-11
  6743  003296  2AE3               	incf	plusw1,f,c
  6744  003298                     u1700:
  6745                           
  6746                           ;stkvar	_sign @ sp[(-10)+8]
  6747  003298  0EFE               	movlw	-2
  6748  00329A  70E3               	btg	plusw1,0,c
  6749  00329C                     l3573:
  6750                           
  6751                           ;stkvar	_quotient @ sp[(-10)+0]
  6752  00329C  0E07               	movlw	7
  6753  00329E  6E3C               	movwf	btemp,c
  6754  0032A0  0EF6               	movlw	-10
  6755  0032A2                     u1711:
  6756  0032A2  6AE3               	clrf	plusw1,c
  6757  0032A4  2AE8               	incf	wreg,f,c
  6758  0032A6  063C               	decf	btemp,f,c
  6759  0032A8  E2FC               	bc	u1711
  6760                           
  6761                           ;stkvar	_divisor @ sp[(-10)+-16]
  6762  0032AA  0EE6               	movlw	-26
  6763  0032AC  50E3               	movf	plusw1,w,c
  6764  0032AE  E116               	bnz	u1720
  6765  0032B0  0EE7               	movlw	-25
  6766  0032B2  50E3               	movf	plusw1,w,c
  6767  0032B4  E113               	bnz	u1720
  6768  0032B6  0EE8               	movlw	-24
  6769  0032B8  50E3               	movf	plusw1,w,c
  6770  0032BA  E110               	bnz	u1720
  6771  0032BC  0EE9               	movlw	-23
  6772  0032BE  50E3               	movf	plusw1,w,c
  6773  0032C0  E10D               	bnz	u1720
  6774  0032C2  0EEA               	movlw	-22
  6775  0032C4  50E3               	movf	plusw1,w,c
  6776  0032C6  E10A               	bnz	u1720
  6777  0032C8  0EEB               	movlw	-21
  6778  0032CA  50E3               	movf	plusw1,w,c
  6779  0032CC  E107               	bnz	u1720
  6780  0032CE  0EEC               	movlw	-20
  6781  0032D0  50E3               	movf	plusw1,w,c
  6782  0032D2  E104               	bnz	u1720
  6783  0032D4  0EED               	movlw	-19
  6784  0032D6  50E3               	movf	plusw1,w,c
  6785  0032D8  B4D8               	btfsc	status,2,c
  6786  0032DA  D088               	goto	u1750
  6787  0032DC                     u1720:
  6788                           
  6789                           ;stkvar	_counter @ sp[(-10)+9]
  6790  0032DC  0EFF               	movlw	-1
  6791  0032DE  6AE3               	clrf	plusw1,c
  6792  0032E0  D012               	goto	L8
  6793  0032E2                     l3579:
  6794                           
  6795                           ;stkvar	_divisor @ sp[(-10)+-16]
  6796  0032E2  90D8               	bcf	status,0,c
  6797  0032E4  0EE6               	movlw	-26
  6798  0032E6  36E3               	rlcf	plusw1,f,c
  6799  0032E8  0EE7               	movlw	-25
  6800  0032EA  36E3               	rlcf	plusw1,f,c
  6801  0032EC  0EE8               	movlw	-24
  6802  0032EE  36E3               	rlcf	plusw1,f,c
  6803  0032F0  0EE9               	movlw	-23
  6804  0032F2  36E3               	rlcf	plusw1,f,c
  6805  0032F4  0EEA               	movlw	-22
  6806  0032F6  36E3               	rlcf	plusw1,f,c
  6807  0032F8  0EEB               	movlw	-21
  6808  0032FA  36E3               	rlcf	plusw1,f,c
  6809  0032FC  0EEC               	movlw	-20
  6810  0032FE  36E3               	rlcf	plusw1,f,c
  6811  003300  0EED               	movlw	-19
  6812  003302  36E3               	rlcf	plusw1,f,c
  6813                           
  6814                           ;stkvar	_counter @ sp[(-10)+9]
  6815  003304  0EFF               	movlw	-1
  6816  003306                     L8:
  6817  003306  2AE3               	incf	plusw1,f,c
  6818                           
  6819                           ;stkvar	_divisor @ sp[(-10)+-16]
  6820  003308  0EED               	movlw	-19
  6821  00330A  AEE3               	btfss	plusw1,7,c
  6822  00330C  D7EA               	goto	l3579
  6823  00330E                     u1730:
  6824                           
  6825                           ;stkvar	_quotient @ sp[(-10)+0]
  6826  00330E  90D8               	bcf	status,0,c
  6827  003310  0EF6               	movlw	-10
  6828  003312  36E3               	rlcf	plusw1,f,c
  6829  003314  0EF7               	movlw	-9
  6830  003316  36E3               	rlcf	plusw1,f,c
  6831  003318  0EF8               	movlw	-8
  6832  00331A  36E3               	rlcf	plusw1,f,c
  6833  00331C  0EF9               	movlw	-7
  6834  00331E  36E3               	rlcf	plusw1,f,c
  6835  003320  0EFA               	movlw	-6
  6836  003322  36E3               	rlcf	plusw1,f,c
  6837  003324  0EFB               	movlw	-5
  6838  003326  36E3               	rlcf	plusw1,f,c
  6839  003328  0EFC               	movlw	-4
  6840  00332A  36E3               	rlcf	plusw1,f,c
  6841  00332C  0EFD               	movlw	-3
  6842  00332E  36E3               	rlcf	plusw1,f,c
  6843                           
  6844                           ;stkvar	_divisor @ sp[(-10)+-16]
  6845                           ;stkvar	_dividend @ sp[(-10)+-8]
  6846  003330  50E1               	movf	fsr1l,w,c
  6847  003332  0FEE               	addlw	-18
  6848  003334  6ED9               	movwf	fsr2l,c
  6849  003336  50E2               	movf	fsr1h,w,c
  6850  003338  6EDA               	movwf	fsr2h,c
  6851  00333A  0EFF               	movlw	255
  6852  00333C  22DA               	addwfc	fsr2h,f,c
  6853  00333E  0EE6               	movlw	-26
  6854  003340  50E3               	movf	plusw1,w,c
  6855  003342  5CDE               	subwf	postinc2,w,c
  6856  003344  0EE7               	movlw	-25
  6857  003346  50E3               	movf	plusw1,w,c
  6858  003348  58DE               	subwfb	postinc2,w,c
  6859  00334A  0EE8               	movlw	-24
  6860  00334C  50E3               	movf	plusw1,w,c
  6861  00334E  58DE               	subwfb	postinc2,w,c
  6862  003350  0EE9               	movlw	-23
  6863  003352  50E3               	movf	plusw1,w,c
  6864  003354  58DE               	subwfb	postinc2,w,c
  6865  003356  0EEA               	movlw	-22
  6866  003358  50E3               	movf	plusw1,w,c
  6867  00335A  58DE               	subwfb	postinc2,w,c
  6868  00335C  0EEB               	movlw	-21
  6869  00335E  50E3               	movf	plusw1,w,c
  6870  003360  58DE               	subwfb	postinc2,w,c
  6871  003362  0EEC               	movlw	-20
  6872  003364  50E3               	movf	plusw1,w,c
  6873  003366  58DE               	subwfb	postinc2,w,c
  6874  003368  0EED               	movlw	-19
  6875  00336A  50E3               	movf	plusw1,w,c
  6876  00336C  58DE               	subwfb	postinc2,w,c
  6877  00336E  A0D8               	btfss	status,0,c
  6878  003370  D021               	goto	l3591
  6879                           
  6880                           ;stkvar	_divisor @ sp[(-10)+-16]
  6881                           ;stkvar	_dividend @ sp[(-10)+-8]
  6882  003372  50E1               	movf	fsr1l,w,c
  6883  003374  0FEE               	addlw	-18
  6884  003376  6ED9               	movwf	fsr2l,c
  6885  003378  50E2               	movf	fsr1h,w,c
  6886  00337A  6EDA               	movwf	fsr2h,c
  6887  00337C  0EFF               	movlw	255
  6888  00337E  22DA               	addwfc	fsr2h,f,c
  6889  003380  0EE6               	movlw	-26
  6890  003382  50E3               	movf	plusw1,w,c
  6891  003384  5EDE               	subwf	postinc2,f,c
  6892  003386  0EE7               	movlw	-25
  6893  003388  50E3               	movf	plusw1,w,c
  6894  00338A  5ADE               	subwfb	postinc2,f,c
  6895  00338C  0EE8               	movlw	-24
  6896  00338E  50E3               	movf	plusw1,w,c
  6897  003390  5ADE               	subwfb	postinc2,f,c
  6898  003392  0EE9               	movlw	-23
  6899  003394  50E3               	movf	plusw1,w,c
  6900  003396  5ADE               	subwfb	postinc2,f,c
  6901  003398  0EEA               	movlw	-22
  6902  00339A  50E3               	movf	plusw1,w,c
  6903  00339C  5ADE               	subwfb	postinc2,f,c
  6904  00339E  0EEB               	movlw	-21
  6905  0033A0  50E3               	movf	plusw1,w,c
  6906  0033A2  5ADE               	subwfb	postinc2,f,c
  6907  0033A4  0EEC               	movlw	-20
  6908  0033A6  50E3               	movf	plusw1,w,c
  6909  0033A8  5ADE               	subwfb	postinc2,f,c
  6910  0033AA  0EED               	movlw	-19
  6911  0033AC  50E3               	movf	plusw1,w,c
  6912  0033AE  5ADE               	subwfb	postinc2,f,c
  6913                           
  6914                           ;stkvar	_quotient @ sp[(-10)+0]
  6915  0033B0  0EF6               	movlw	-10
  6916  0033B2  80E3               	bsf	plusw1,0,c
  6917  0033B4                     l3591:
  6918                           
  6919                           ;stkvar	_divisor @ sp[(-10)+-16]
  6920  0033B4  90D8               	bcf	status,0,c
  6921  0033B6  0EED               	movlw	-19
  6922  0033B8  32E3               	rrcf	plusw1,f,c
  6923  0033BA  0EEC               	movlw	-20
  6924  0033BC  32E3               	rrcf	plusw1,f,c
  6925  0033BE  0EEB               	movlw	-21
  6926  0033C0  32E3               	rrcf	plusw1,f,c
  6927  0033C2  0EEA               	movlw	-22
  6928  0033C4  32E3               	rrcf	plusw1,f,c
  6929  0033C6  0EE9               	movlw	-23
  6930  0033C8  32E3               	rrcf	plusw1,f,c
  6931  0033CA  0EE8               	movlw	-24
  6932  0033CC  32E3               	rrcf	plusw1,f,c
  6933  0033CE  0EE7               	movlw	-25
  6934  0033D0  32E3               	rrcf	plusw1,f,c
  6935  0033D2  0EE6               	movlw	-26
  6936  0033D4  32E3               	rrcf	plusw1,f,c
  6937                           
  6938                           ;stkvar	_counter @ sp[(-10)+9]
  6939  0033D6  0EFF               	movlw	-1
  6940  0033D8  50E3               	movf	plusw1,w,c
  6941  0033DA  6E3C               	movwf	btemp,c
  6942  0033DC  0E01               	movlw	1
  6943  0033DE  5E3C               	subwf	btemp,f,c
  6944  0033E0  0EFF               	movlw	-1
  6945  0033E2  0060  F0F3  FFE3   	movff	btemp,plusw1
  6946  0033E8  A4D8               	btfss	status,2,c
  6947  0033EA  D791               	goto	u1730
  6948  0033EC                     u1750:
  6949                           
  6950                           ;stkvar	_sign @ sp[(-10)+8]
  6951  0033EC  0EFE               	movlw	-2
  6952  0033EE  50E3               	movf	plusw1,w,c
  6953  0033F0  B4D8               	btfsc	status,2,c
  6954  0033F2  D025               	goto	u1770
  6955                           
  6956                           ;stkvar	_quotient @ sp[(-10)+0]
  6957                           ;stkvar	_quotient @ sp[(-10)+0]
  6958  0033F4  0EF6               	movlw	-10
  6959  0033F6  6CE3               	negf	plusw1,c
  6960  0033F8  0EF7               	movlw	-9
  6961  0033FA  1EE3               	comf	plusw1,f,c
  6962  0033FC  0EF8               	movlw	-8
  6963  0033FE  1EE3               	comf	plusw1,f,c
  6964  003400  0EF9               	movlw	-7
  6965  003402  1EE3               	comf	plusw1,f,c
  6966  003404  0EFA               	movlw	-6
  6967  003406  1EE3               	comf	plusw1,f,c
  6968  003408  0EFB               	movlw	-5
  6969  00340A  1EE3               	comf	plusw1,f,c
  6970  00340C  0EFC               	movlw	-4
  6971  00340E  1EE3               	comf	plusw1,f,c
  6972  003410  0EFD               	movlw	-3
  6973  003412  1EE3               	comf	plusw1,f,c
  6974  003414  E314               	bnc	u1770
  6975  003416  0EF7               	movlw	-9
  6976  003418  2AE3               	incf	plusw1,f,c
  6977  00341A  E311               	bnc	u1770
  6978  00341C  0EF8               	movlw	-8
  6979  00341E  2AE3               	incf	plusw1,f,c
  6980  003420  E30E               	bnc	u1770
  6981  003422  0EF9               	movlw	-7
  6982  003424  2AE3               	incf	plusw1,f,c
  6983  003426  E30B               	bnc	u1770
  6984  003428  0EFA               	movlw	-6
  6985  00342A  2AE3               	incf	plusw1,f,c
  6986  00342C  E308               	bnc	u1770
  6987  00342E  0EFB               	movlw	-5
  6988  003430  2AE3               	incf	plusw1,f,c
  6989  003432  E305               	bnc	u1770
  6990  003434  0EFC               	movlw	-4
  6991  003436  2AE3               	incf	plusw1,f,c
  6992  003438  E302               	bnc	u1770
  6993  00343A  0EFD               	movlw	-3
  6994  00343C  2AE3               	incf	plusw1,f,c
  6995  00343E                     u1770:
  6996                           
  6997                           ;stkvar	_quotient @ sp[(-10)+0]
  6998  00343E  0EF6               	movlw	246
  6999  003440  24E1               	addwf	fsr1l,w,c
  7000  003442  6ED9               	movwf	fsr2l,c
  7001  003444  0EFF               	movlw	255
  7002  003446  20E2               	addwfc	fsr1h,w,c
  7003  003448  6EDA               	movwf	fsr2h,c
  7004                           
  7005                           ;stkvar	?___aodiv @ sp[(-10)+-8]
  7006  00344A  0E08               	movlw	8
  7007  00344C  6E3C               	movwf	btemp,c
  7008  00344E  0EEE               	movlw	-18
  7009  003450                     us178999:
  7010  003450  006F FF7B FFE3     	movff	postinc2,plusw1
  7011  003456  28E8               	incf	wreg,w,c
  7012  003458  2E3C               	decfsz	btemp,f,c
  7013  00345A  D7FA               	bra	us178999
  7014                           
  7015                           ; ___aodiv: autosize = 10, savesize = 0, parsavesize = 0, tempsize = 0 parsize = 16, arg
      +                          size = 16, vargsize = 0
  7016  00345C  0EF6               	movlw	246
  7017  00345E  26E1               	addwf	fsr1l,f,c
  7018  003460  0EFF               	movlw	255
  7019  003462  22E2               	addwfc	fsr1h,f,c
  7020  003464  0012               	return		;funcret
  7021  003466                     __end_of___aodiv:
  7022                           	opt callstack 0
  7023                           
  7024 ;; *************** function _block_checkmark *****************
  7025 ;; Defined at:
  7026 ;;		line 33 in file "gemsecs.c"
  7027 ;; Parameters:    Size  Location     Type
  7028 ;;  byte_block      1  [STACK] PTR unsigned char 
  7029 ;;		 -> H10(13), 
  7030 ;;  byte_count      2  [STACK] unsigned short 
  7031 ;; Auto vars:     Size  Location     Type
  7032 ;;  i               2  [STACK] unsigned short 
  7033 ;;  sum             2  [STACK] unsigned short 
  7034 ;; Return value:  Size  Location     Type
  7035 ;;                  2  [STACK] unsigned short 
  7036 ;; Registers used:
  7037 ;;		wreg, fsr1l, fsr1h, fsr2l, fsr2h, status,2, status,0, btemp, btemp+1, btemp+8, btemp+9, btemp+10, btemp+11
  7038 ;; Tracked objects:
  7039 ;;		On entry : 3F/3D
  7040 ;;		On exit  : 0/0
  7041 ;;		Unchanged: 0/0
  7042 ;; Data sizes:     COMRAM   BANK0   BANK1   BANK2   BANK3   BANK4   BANK5   BANK6   BANK7   BANK8   BANK9  BANK10  BANK1
      +1  BANK12  BANK13  BANK14  BANK15  BANK16  BANK17  BANK18  BANK19  BANK20  BANK21  BANK22  BANK23  BANK24  BANK25  BANK2
      +6  BANK27  BANK28  BANK29  BANK30  BANK31
  7043 ;;      Params:         0       0       0       0       0       0       0       0       0       0       0       0       
      +0       0       0       0       0       0       0       0       0       0       0       0       0       0       0       
      +0       0       0       0       0       0
  7044 ;;      Locals:         0       0       0       0       0       0       0       0       0       0       0       0       
      +0       0       0       0       0       0       0       0       0       0       0       0       0       0       0       
      +0       0       0       0       0       0
  7045 ;;      Temps:          0       0       0       0       0       0       0       0       0       0       0       0       
      +0       0       0       0       0       0       0       0       0       0       0       0       0       0       0       
      +0       0       0       0       0       0
  7046 ;;      Totals:         0       0       0       0       0       0       0       0       0       0       0       0       
      +0       0       0       0       0       0       0       0       0       0       0       0       0       0       0       
      +0       0       0       0       0       0
  7047 ;;Total ram usage:        0 bytes
  7048 ;; Hardware stack levels used:    1
  7049 ;; Hardware stack levels required when called:    3
  7050 ;; This function calls:
  7051 ;;		Nothing
  7052 ;; This function is called by:
  7053 ;;		_main
  7054 ;; This function uses a reentrant model
  7055 ;;
  7056                           
  7057                           	psect	text35
  7058  003B8A                     __ptext35:
  7059                           	opt callstack 0
  7060  003B8A                     _block_checkmark:
  7061                           	opt callstack 0
  7062                           
  7063                           ; autosize = 4, savesize = 0, parsavesize = 0, tempsize = 0 parsize = 3, argsize = 3 var
      +                          gsize = 0, retsize = 0 argfudge = 0
  7064  003B8A  52E6               	movf	postinc1,f,c
  7065  003B8C  52E6               	movf	postinc1,f,c
  7066  003B8E  52E6               	movf	postinc1,f,c
  7067  003B90  52E6               	movf	postinc1,f,c
  7068                           
  7069                           ;gemsecs.c: 33: uint16_t block_checkmark(uint8_t *byte_block, uint16_t byte_count);gemse
      +                          cs.c: 34: {;gemsecs.c: 35:  uint16_t sum = 0, i;
  7070                           ;stkvar	_sum @ sp[(-4)+2]
  7071                           
  7072                           ;incstack = 0
  7073  003B92  0EFE               	movlw	-2
  7074  003B94  6AE3               	clrf	plusw1,c
  7075  003B96  0EFF               	movlw	-1
  7076  003B98  6AE3               	clrf	plusw1,c
  7077                           
  7078                           ;gemsecs.c: 37:  for (i = 0; i < byte_count; i++) {
  7079                           ;stkvar	_i @ sp[(-4)+0]
  7080  003B9A  0EFC               	movlw	-4
  7081  003B9C  6AE3               	clrf	plusw1,c
  7082  003B9E  0EFD               	movlw	-3
  7083  003BA0  6AE3               	clrf	plusw1,c
  7084  003BA2  D02C               	goto	l4495
  7085  003BA4                     l4491:
  7086                           
  7087                           ;gemsecs.c: 38:   sum += byte_block[i];
  7088                           ;stkvar	_i @ sp[(-4)+0]
  7089  003BA4  0EFC               	movlw	-4
  7090  003BA6  006F FF8C  F047    	movff	plusw1,btemp+11
  7091                           
  7092                           ;stkvar	_byte_block @ sp[(-4)+-1]
  7093  003BAC  0EFB               	movlw	-5
  7094  003BAE  50E3               	movf	plusw1,w,c
  7095  003BB0  2447               	addwf	btemp+11,w,c
  7096  003BB2  6ED9               	movwf	fsr2l,c
  7097  003BB4  6ADA               	clrf	fsr2h,c
  7098  003BB6  50DF               	movf	indf2,w,c
  7099  003BB8  6E47               	movwf	btemp+11,c
  7100                           
  7101                           ;stkvar	_sum @ sp[(-4)+2]
  7102  003BBA  0EFE               	movlw	-2
  7103  003BBC  50E3               	movf	plusw1,w,c
  7104  003BBE  2447               	addwf	btemp+11,w,c
  7105  003BC0  6E3C               	movwf	btemp,c
  7106  003BC2  0EFE               	movlw	-2
  7107  003BC4  0060  F0F3  FFE3   	movff	btemp,plusw1
  7108  003BCA  6A3C               	clrf	btemp,c
  7109  003BCC  0EFF               	movlw	-1
  7110  003BCE  50E3               	movf	plusw1,w,c
  7111  003BD0  223C               	addwfc	btemp,f,c
  7112  003BD2  0EFF               	movlw	-1
  7113  003BD4  0060  F0F3  FFE3   	movff	btemp,plusw1
  7114                           
  7115                           ;gemsecs.c: 39:  }
  7116                           ;stkvar	_i @ sp[(-4)+0]
  7117  003BDA  0EFC               	movlw	-4
  7118  003BDC  50E3               	movf	plusw1,w,c
  7119  003BDE  0F01               	addlw	1
  7120  003BE0  6E3C               	movwf	btemp,c
  7121  003BE2  0EFC               	movlw	-4
  7122  003BE4  0060  F0F3  FFE3   	movff	btemp,plusw1
  7123  003BEA  6A3C               	clrf	btemp,c
  7124  003BEC  0EFD               	movlw	-3
  7125  003BEE  50E3               	movf	plusw1,w,c
  7126  003BF0  203C               	addwfc	btemp,w,c
  7127  003BF2  6E3C               	movwf	btemp,c
  7128  003BF4  0EFD               	movlw	-3
  7129  003BF6  0060  F0F3  FFE3   	movff	btemp,plusw1
  7130  003BFC                     l4495:
  7131                           
  7132                           ;stkvar	_byte_count @ sp[(-4)+-3]
  7133  003BFC  0EF9               	movlw	-7
  7134  003BFE  006F FF8C  F046    	movff	plusw1,btemp+10
  7135  003C04  0EFA               	movlw	-6
  7136  003C06  006F FF8C  F047    	movff	plusw1,btemp+11
  7137                           
  7138                           ;stkvar	_i @ sp[(-4)+0]
  7139  003C0C  0EFC               	movlw	-4
  7140  003C0E  006F FF8C  F044    	movff	plusw1,btemp+8
  7141  003C14  0EFD               	movlw	-3
  7142  003C16  006F FF8C  F045    	movff	plusw1,btemp+9
  7143  003C1C  5046               	movf	btemp+10,w,c
  7144  003C1E  5C44               	subwf	btemp+8,w,c
  7145  003C20  5047               	movf	btemp+11,w,c
  7146  003C22  5845               	subwfb	btemp+9,w,c
  7147  003C24  A0D8               	btfss	status,0,c
  7148  003C26  D7BE               	goto	l4491
  7149                           
  7150                           ;gemsecs.c: 40:  return sum;
  7151                           ;stkvar	_sum @ sp[(-4)+2]
  7152  003C28  0EFE               	movlw	-2
  7153  003C2A  006F FF8C  F03C    	movff	plusw1,btemp
  7154  003C30  0EFF               	movlw	-1
  7155  003C32  006F FF8C  F03D    	movff	plusw1,btemp+1
  7156                           
  7157                           ; _block_checkmark: autosize = 4, savesize = 0, parsavesize = 0, tempsize = 0 parsize = 
      +                          3, argsize = 3, vargsize = 0
  7158  003C38  0EF9               	movlw	249
  7159  003C3A  26E1               	addwf	fsr1l,f,c
  7160  003C3C  0EFF               	movlw	255
  7161  003C3E  22E2               	addwfc	fsr1h,f,c
  7162  003C40  0012               	return		;funcret
  7163  003C42                     __end_of_block_checkmark:
  7164                           	opt callstack 0
  7165                           
  7166 ;; *************** function _UART1_is_tx_ready *****************
  7167 ;; Defined at:
  7168 ;;		line 151 in file "mcc_generated_files/uart1.c"
  7169 ;; Parameters:    Size  Location     Type
  7170 ;;		None
  7171 ;; Auto vars:     Size  Location     Type
  7172 ;;		None
  7173 ;; Return value:  Size  Location     Type
  7174 ;;                  1  [STACK] unsigned char 
  7175 ;; Registers used:
  7176 ;;		btemp
  7177 ;; Tracked objects:
  7178 ;;		On entry : 0/0
  7179 ;;		On exit  : 0/0
  7180 ;;		Unchanged: 0/0
  7181 ;; Data sizes:     COMRAM   BANK0   BANK1   BANK2   BANK3   BANK4   BANK5   BANK6   BANK7   BANK8   BANK9  BANK10  BANK1
      +1  BANK12  BANK13  BANK14  BANK15  BANK16  BANK17  BANK18  BANK19  BANK20  BANK21  BANK22  BANK23  BANK24  BANK25  BANK2
      +6  BANK27  BANK28  BANK29  BANK30  BANK31
  7182 ;;      Params:         0       0       0       0       0       0       0       0       0       0       0       0       
      +0       0       0       0       0       0       0       0       0       0       0       0       0       0       0       
      +0       0       0       0       0       0
  7183 ;;      Locals:         0       0       0       0       0       0       0       0       0       0       0       0       
      +0       0       0       0       0       0       0       0       0       0       0       0       0       0       0       
      +0       0       0       0       0       0
  7184 ;;      Temps:          0       0       0       0       0       0       0       0       0       0       0       0       
      +0       0       0       0       0       0       0       0       0       0       0       0       0       0       0       
      +0       0       0       0       0       0
  7185 ;;      Totals:         0       0       0       0       0       0       0       0       0       0       0       0       
      +0       0       0       0       0       0       0       0       0       0       0       0       0       0       0       
      +0       0       0       0       0       0
  7186 ;;Total ram usage:        0 bytes
  7187 ;; Hardware stack levels used:    1
  7188 ;; Hardware stack levels required when called:    3
  7189 ;; This function calls:
  7190 ;;		Nothing
  7191 ;; This function is called by:
  7192 ;;		_main
  7193 ;; This function uses a reentrant model
  7194 ;;
  7195                           
  7196                           	psect	text36
  7197  004B9E                     __ptext36:
  7198                           	opt callstack 0
  7199  004B9E                     _UART1_is_tx_ready:
  7200                           	opt callstack 27
  7201                           
  7202                           ;mcc_generated_files/uart1.c: 153:     return uart1TxBufferRemaining;
  7203                           
  7204                           ; autosize = 0, savesize = 0, parsavesize = 0, tempsize = 0 parsize = 0, argsize = 0 var
      +                          gsize = 0, retsize = 0 argfudge = 0
  7205                           ;incstack = 0
  7206  004B9E  0060  F0E4  F03C   	movff	_uart1TxBufferRemaining,btemp	;volatile
  7207                           
  7208                           ; _UART1_is_tx_ready: autosize = 0, savesize = 0, parsavesize = 0, tempsize = 0 parsize 
      +                          = 0, argsize = 0, vargsize = 0
  7209  004BA4  0012               	return		;funcret
  7210  004BA6                     __end_of_UART1_is_tx_ready:
  7211                           	opt callstack 0
  7212                           
  7213 ;; *************** function _UART1_Write *****************
  7214 ;; Defined at:
  7215 ;;		line 181 in file "mcc_generated_files/uart1.c"
  7216 ;; Parameters:    Size  Location     Type
  7217 ;;  txData          1  [STACK] unsigned char 
  7218 ;; Auto vars:     Size  Location     Type
  7219 ;;		None
  7220 ;; Return value:  Size  Location     Type
  7221 ;;                  1  [STACK] void 
  7222 ;; Registers used:
  7223 ;;		wreg, fsr1l, fsr1h, fsr2l, fsr2h, status,2, status,0
  7224 ;; Tracked objects:
  7225 ;;		On entry : 0/0
  7226 ;;		On exit  : 3F/39
  7227 ;;		Unchanged: 0/0
  7228 ;; Data sizes:     COMRAM   BANK0   BANK1   BANK2   BANK3   BANK4   BANK5   BANK6   BANK7   BANK8   BANK9  BANK10  BANK1
      +1  BANK12  BANK13  BANK14  BANK15  BANK16  BANK17  BANK18  BANK19  BANK20  BANK21  BANK22  BANK23  BANK24  BANK25  BANK2
      +6  BANK27  BANK28  BANK29  BANK30  BANK31
  7229 ;;      Params:         0       0       0       0       0       0       0       0       0       0       0       0       
      +0       0       0       0       0       0       0       0       0       0       0       0       0       0       0       
      +0       0       0       0       0       0
  7230 ;;      Locals:         0       0       0       0       0       0       0       0       0       0       0       0       
      +0       0       0       0       0       0       0       0       0       0       0       0       0       0       0       
      +0       0       0       0       0       0
  7231 ;;      Temps:          0       0       0       0       0       0       0       0       0       0       0       0       
      +0       0       0       0       0       0       0       0       0       0       0       0       0       0       0       
      +0       0       0       0       0       0
  7232 ;;      Totals:         0       0       0       0       0       0       0       0       0       0       0       0       
      +0       0       0       0       0       0       0       0       0       0       0       0       0       0       0       
      +0       0       0       0       0       0
  7233 ;;Total ram usage:        0 bytes
  7234 ;; Hardware stack levels used:    1
  7235 ;; Hardware stack levels required when called:    3
  7236 ;; This function calls:
  7237 ;;		Nothing
  7238 ;; This function is called by:
  7239 ;;		_main
  7240 ;; This function uses a reentrant model
  7241 ;;
  7242                           
  7243                           	psect	text37
  7244  004512                     __ptext37:
  7245                           	opt callstack 0
  7246  004512                     _UART1_Write:
  7247                           	opt callstack 27
  7248                           
  7249                           ;mcc_generated_files/uart1.c: 183:     while(0 == uart1TxBufferRemaining)
  7250                           
  7251                           ;mcc_generated_files/uart1.c: 181: void UART1_Write(uint8_t txData);mcc_generated_files/
      +                          uart1.c: 182: {;mcc_generated_files/uart1.c: 183:     while(0 == uart1TxBufferRemaining)
  7252                           
  7253                           ; autosize = 0, savesize = 0, parsavesize = 0, tempsize = 0 parsize = 1, argsize = 1 var
      +                          gsize = 0, retsize = 0 argfudge = 0
  7254                           ;incstack = 0
  7255  004512  5039               	movf	_uart1TxBufferRemaining,w,c	;volatile
  7256  004514  B4D8               	btfsc	status,2,c
  7257  004516  D7FD               	goto	_UART1_Write
  7258                           
  7259                           ;mcc_generated_files/uart1.c: 187:     if(0 == PIE3bits.U1TXIE)
  7260  004518  0139               	movlb	57	; () banked
  7261  00451A  B993               	btfsc	147,4,b	;volatile
  7262  00451C  D005               	goto	l575
  7263                           
  7264                           ; BSR set to: 57
  7265                           ;mcc_generated_files/uart1.c: 188:     {;mcc_generated_files/uart1.c: 189:         U1TXB
      +                           = txData;
  7266                           ;stkvar	_txData @ sp[(0)+-1]
  7267  00451E  0EFF               	movlw	-1
  7268  004520  006F FF8F FDEA     	movff	plusw1,15850	;volatile
  7269                           
  7270                           ;mcc_generated_files/uart1.c: 190:     }
  7271  004526  D011               	goto	l4379
  7272  004528                     l575:
  7273                           
  7274                           ; BSR set to: 57
  7275                           ;mcc_generated_files/uart1.c: 192:     {;mcc_generated_files/uart1.c: 193:         PIE3b
      +                          its.U1TXIE = 0;
  7276  004528  9993               	bcf	147,4,b	;volatile
  7277                           
  7278                           ; BSR set to: 57
  7279                           ;mcc_generated_files/uart1.c: 194:         uart1TxBuffer[uart1TxHead++] = txData;
  7280                           ;stkvar	_txData @ sp[(0)+-1]
  7281  00452A  0EC0               	movlw	low _uart1TxBuffer
  7282  00452C  243B               	addwf	_uart1TxHead,w,c	;volatile
  7283  00452E  6ED9               	movwf	fsr2l,c
  7284  004530  6ADA               	clrf	fsr2h,c
  7285  004532  0E01               	movlw	high _uart1TxBuffer
  7286  004534  22DA               	addwfc	fsr2h,f,c
  7287  004536  0EFF               	movlw	-1
  7288  004538  006F FF8F FFDF     	movff	plusw1,indf2
  7289                           
  7290                           ; BSR set to: 57
  7291  00453E  2A3B               	incf	_uart1TxHead,f,c	;volatile
  7292                           
  7293                           ; BSR set to: 57
  7294                           ;mcc_generated_files/uart1.c: 195:         if(sizeof(uart1TxBuffer) <= uart1TxHead)
  7295  004540  0E3F               	movlw	63
  7296  004542  643B               	cpfsgt	_uart1TxHead,c
  7297  004544  D001               	goto	l4377
  7298                           
  7299                           ; BSR set to: 57
  7300                           ;mcc_generated_files/uart1.c: 196:         {;mcc_generated_files/uart1.c: 197:          
      +                             uart1TxHead = 0;
  7301  004546  6A3B               	clrf	_uart1TxHead,c	;volatile
  7302  004548                     l4377:
  7303                           
  7304                           ; BSR set to: 57
  7305                           ;mcc_generated_files/uart1.c: 199:         uart1TxBufferRemaining--;
  7306  004548  0639               	decf	_uart1TxBufferRemaining,f,c	;volatile
  7307  00454A                     l4379:
  7308                           
  7309                           ; BSR set to: 57
  7310                           ;mcc_generated_files/uart1.c: 201:     PIE3bits.U1TXIE = 1;
  7311  00454A  8993               	bsf	147,4,b	;volatile
  7312                           
  7313                           ; BSR set to: 57
  7314                           ; _UART1_Write: autosize = 0, savesize = 0, parsavesize = 0, tempsize = 0 parsize = 1, a
      +                          rgsize = 1, vargsize = 0
  7315  00454C  52E5               	movf	postdec1,f,c
  7316  00454E  0012               	return		;funcret
  7317  004550                     __end_of_UART1_Write:
  7318                           	opt callstack 0
  7319                           
  7320 ;; *************** function _SYSTEM_Initialize *****************
  7321 ;; Defined at:
  7322 ;;		line 50 in file "mcc_generated_files/mcc.c"
  7323 ;; Parameters:    Size  Location     Type
  7324 ;;		None
  7325 ;; Auto vars:     Size  Location     Type
  7326 ;;		None
  7327 ;; Return value:  Size  Location     Type
  7328 ;;                  1  [STACK] void 
  7329 ;; Registers used:
  7330 ;;		wreg, fsr1l, fsr1h, fsr2l, fsr2h, status,2, btemp+11
  7331 ;; Tracked objects:
  7332 ;;		On entry : 0/0
  7333 ;;		On exit  : 3F/3C
  7334 ;;		Unchanged: 0/0
  7335 ;; Data sizes:     COMRAM   BANK0   BANK1   BANK2   BANK3   BANK4   BANK5   BANK6   BANK7   BANK8   BANK9  BANK10  BANK1
      +1  BANK12  BANK13  BANK14  BANK15  BANK16  BANK17  BANK18  BANK19  BANK20  BANK21  BANK22  BANK23  BANK24  BANK25  BANK2
      +6  BANK27  BANK28  BANK29  BANK30  BANK31
  7336 ;;      Params:         0       0       0       0       0       0       0       0       0       0       0       0       
      +0       0       0       0       0       0       0       0       0       0       0       0       0       0       0       
      +0       0       0       0       0       0
  7337 ;;      Locals:         0       0       0       0       0       0       0       0       0       0       0       0       
      +0       0       0       0       0       0       0       0       0       0       0       0       0       0       0       
      +0       0       0       0       0       0
  7338 ;;      Temps:          0       0       0       0       0       0       0       0       0       0       0       0       
      +0       0       0       0       0       0       0       0       0       0       0       0       0       0       0       
      +0       0       0       0       0       0
  7339 ;;      Totals:         0       0       0       0       0       0       0       0       0       0       0       0       
      +0       0       0       0       0       0       0       0       0       0       0       0       0       0       0       
      +0       0       0       0       0       0
  7340 ;;Total ram usage:        0 bytes
  7341 ;; Hardware stack levels used:    1
  7342 ;; Hardware stack levels required when called:    5
  7343 ;; This function calls:
  7344 ;;		_ADCC_Initialize
  7345 ;;		_CLC1_Initialize
  7346 ;;		_CLKREF_Initialize
  7347 ;;		_DMA1_Initialize
  7348 ;;		_DSM_Initialize
  7349 ;;		_EXT_INT_Initialize
  7350 ;;		_INTERRUPT_Initialize
  7351 ;;		_NCO1_Initialize
  7352 ;;		_OSCILLATOR_Initialize
  7353 ;;		_PIN_MANAGER_Initialize
  7354 ;;		_PMD_Initialize
  7355 ;;		_SPI1_Initialize
  7356 ;;		_TMR6_Initialize
  7357 ;;		_UART1_Initialize
  7358 ;;		_UART2_Initialize
  7359 ;; This function is called by:
  7360 ;;		_main
  7361 ;; This function uses a reentrant model
  7362 ;;
  7363                           
  7364                           	psect	text38
  7365  004550                     __ptext38:
  7366                           	opt callstack 0
  7367  004550                     _SYSTEM_Initialize:
  7368                           	opt callstack 25
  7369                           
  7370                           ;mcc_generated_files/mcc.c: 52:     INTERRUPT_Initialize();
  7371                           
  7372                           ; BSR set to: 57
  7373                           ; autosize = 0, savesize = 0, parsavesize = 0, tempsize = 0 parsize = 0, argsize = 0 var
      +                          gsize = 0, retsize = 0 argfudge = 0
  7374                           ;incstack = 0
  7375  004550  EC39  F021         	call	_INTERRUPT_Initialize	;wreg free
  7376                           
  7377                           ; BSR set to: 57
  7378                           ;mcc_generated_files/mcc.c: 53:     PMD_Initialize();
  7379  004554  EC89  F025         	call	_PMD_Initialize	;wreg free
  7380                           
  7381                           ; BSR set to: 57
  7382                           ;mcc_generated_files/mcc.c: 54:     PIN_MANAGER_Initialize();
  7383  004558  ECC5  F01E         	call	_PIN_MANAGER_Initialize	;wreg free
  7384                           
  7385                           ; BSR set to: 58
  7386                           ;mcc_generated_files/mcc.c: 55:     OSCILLATOR_Initialize();
  7387  00455C  EC74  F025         	call	_OSCILLATOR_Initialize	;wreg free
  7388                           
  7389                           ; BSR set to: 57
  7390                           ;mcc_generated_files/mcc.c: 56:     ADCC_Initialize();
  7391  004560  EC1F  F022         	call	_ADCC_Initialize	;wreg free
  7392                           
  7393                           ;mcc_generated_files/mcc.c: 57:     NCO1_Initialize();
  7394  004564  EC25  F025         	call	_NCO1_Initialize	;wreg free
  7395                           
  7396                           ; BSR set to: 63
  7397                           ;mcc_generated_files/mcc.c: 58:     EXT_INT_Initialize();
  7398  004568  ECF9  F021         	call	_EXT_INT_Initialize	;wreg free
  7399                           
  7400                           ; BSR set to: 57
  7401                           ;mcc_generated_files/mcc.c: 59:     TMR6_Initialize();
  7402  00456C  EC23  F023         	call	_TMR6_Initialize	;wreg free
  7403                           
  7404                           ;mcc_generated_files/mcc.c: 60:     CLC1_Initialize();
  7405  004570  ECA1  F024         	call	_CLC1_Initialize	;wreg free
  7406                           
  7407                           ; BSR set to: 60
  7408                           ;mcc_generated_files/mcc.c: 61:     DSM_Initialize();
  7409  004574  EC33  F025         	call	_DSM_Initialize	;wreg free
  7410                           
  7411                           ; BSR set to: 60
  7412                           ;mcc_generated_files/mcc.c: 62:     UART1_Initialize();
  7413  004578  EC06  F021         	call	_UART1_Initialize	;wreg free
  7414                           
  7415                           ; BSR set to: 57
  7416                           ;mcc_generated_files/mcc.c: 63:     UART2_Initialize();
  7417  00457C  EC9C  F021         	call	_UART2_Initialize	;wreg free
  7418                           
  7419                           ; BSR set to: 57
  7420                           ;mcc_generated_files/mcc.c: 64:     SPI1_Initialize();
  7421  004580  EC69  F025         	call	_SPI1_Initialize	;wreg free
  7422                           
  7423                           ; BSR set to: 61
  7424                           ;mcc_generated_files/mcc.c: 65:     DMA1_Initialize();
  7425  004584  EC9E  F020         	call	_DMA1_Initialize	;wreg free
  7426                           
  7427                           ; BSR set to: 59
  7428                           ;mcc_generated_files/mcc.c: 66:     CLKREF_Initialize();
  7429  004588  ECBE  F025         	call	_CLKREF_Initialize	;wreg free
  7430                           
  7431                           ; BSR set to: 60
  7432                           ; _SYSTEM_Initialize: autosize = 0, savesize = 0, parsavesize = 0, tempsize = 0 parsize 
      +                          = 0, argsize = 0, vargsize = 0
  7433  00458C  0012               	return		;funcret
  7434  00458E                     __end_of_SYSTEM_Initialize:
  7435                           	opt callstack 0
  7436                           
  7437 ;; *************** function _UART2_Initialize *****************
  7438 ;; Defined at:
  7439 ;;		line 78 in file "mcc_generated_files/uart2.c"
  7440 ;; Parameters:    Size  Location     Type
  7441 ;;		None
  7442 ;; Auto vars:     Size  Location     Type
  7443 ;;		None
  7444 ;; Return value:  Size  Location     Type
  7445 ;;                  1  [STACK] void 
  7446 ;; Registers used:
  7447 ;;		wreg, fsr1l, fsr1h, fsr2l, fsr2h, status,2
  7448 ;; Tracked objects:
  7449 ;;		On entry : 3F/39
  7450 ;;		On exit  : 3F/39
  7451 ;;		Unchanged: 0/0
  7452 ;; Data sizes:     COMRAM   BANK0   BANK1   BANK2   BANK3   BANK4   BANK5   BANK6   BANK7   BANK8   BANK9  BANK10  BANK1
      +1  BANK12  BANK13  BANK14  BANK15  BANK16  BANK17  BANK18  BANK19  BANK20  BANK21  BANK22  BANK23  BANK24  BANK25  BANK2
      +6  BANK27  BANK28  BANK29  BANK30  BANK31
  7453 ;;      Params:         0       0       0       0       0       0       0       0       0       0       0       0       
      +0       0       0       0       0       0       0       0       0       0       0       0       0       0       0       
      +0       0       0       0       0       0
  7454 ;;      Locals:         0       0       0       0       0       0       0       0       0       0       0       0       
      +0       0       0       0       0       0       0       0       0       0       0       0       0       0       0       
      +0       0       0       0       0       0
  7455 ;;      Temps:          0       0       0       0       0       0       0       0       0       0       0       0       
      +0       0       0       0       0       0       0       0       0       0       0       0       0       0       0       
      +0       0       0       0       0       0
  7456 ;;      Totals:         0       0       0       0       0       0       0       0       0       0       0       0       
      +0       0       0       0       0       0       0       0       0       0       0       0       0       0       0       
      +0       0       0       0       0       0
  7457 ;;Total ram usage:        0 bytes
  7458 ;; Hardware stack levels used:    1
  7459 ;; Hardware stack levels required when called:    4
  7460 ;; This function calls:
  7461 ;;		_UART2_SetRxInterruptHandler
  7462 ;;		_UART2_SetTxInterruptHandler
  7463 ;; This function is called by:
  7464 ;;		_SYSTEM_Initialize
  7465 ;; This function uses a reentrant model
  7466 ;;
  7467                           
  7468                           	psect	text39
  7469  004338                     __ptext39:
  7470                           	opt callstack 0
  7471  004338                     _UART2_Initialize:
  7472                           	opt callstack 25
  7473                           
  7474                           ;mcc_generated_files/uart2.c: 81:     PIE6bits.U2RXIE = 0;
  7475                           
  7476                           ; BSR set to: 60
  7477                           ; autosize = 0, savesize = 0, parsavesize = 0, tempsize = 0 parsize = 0, argsize = 0 var
      +                          gsize = 0, retsize = 0 argfudge = 0
  7478                           ;incstack = 0
  7479  004338  0139               	movlb	57	; () banked
  7480  00433A  9596               	bcf	150,2,b	;volatile
  7481                           
  7482                           ; BSR set to: 57
  7483                           ;mcc_generated_files/uart2.c: 82:     UART2_SetRxInterruptHandler(UART2_Receive_ISR);
  7484  00433C  0E0C               	movlw	low _UART2_Receive_ISR
  7485  00433E  6EE6               	movwf	postinc1,c
  7486  004340  0E4A               	movlw	high _UART2_Receive_ISR
  7487  004342  6EE6               	movwf	postinc1,c
  7488  004344  0E00               	movlw	low (_UART2_Receive_ISR shr (0+16))
  7489  004346  6EE6               	movwf	postinc1,c
  7490  004348  EC9D  F023         	call	_UART2_SetRxInterruptHandler	;wreg free
  7491                           
  7492                           ;mcc_generated_files/uart2.c: 83:     PIE6bits.U2TXIE = 0;
  7493  00434C  0139               	movlb	57	; () banked
  7494  00434E  9796               	bcf	150,3,b	;volatile
  7495                           
  7496                           ;mcc_generated_files/uart2.c: 84:     UART2_SetTxInterruptHandler(UART2_Transmit_ISR);
  7497  004350  0E1A               	movlw	low _UART2_Transmit_ISR
  7498  004352  6EE6               	movwf	postinc1,c
  7499  004354  0E46               	movlw	high _UART2_Transmit_ISR
  7500  004356  6EE6               	movwf	postinc1,c
  7501  004358  0E00               	movlw	low (_UART2_Transmit_ISR shr (0+16))
  7502  00435A  6EE6               	movwf	postinc1,c
  7503  00435C  EC89  F023         	call	_UART2_SetTxInterruptHandler	;wreg free
  7504                           
  7505                           ;mcc_generated_files/uart2.c: 89:     U2P1L = 0x00;
  7506  004360  013D               	movlb	61	; () banked
  7507  004362  6BD4               	clrf	212,b	;volatile
  7508                           
  7509                           ; BSR set to: 61
  7510                           ;mcc_generated_files/uart2.c: 92:     U2P2L = 0x00;
  7511  004364  6BD6               	clrf	214,b	;volatile
  7512                           
  7513                           ; BSR set to: 61
  7514                           ;mcc_generated_files/uart2.c: 95:     U2P3L = 0x00;
  7515  004366  6BD8               	clrf	216,b	;volatile
  7516                           
  7517                           ; BSR set to: 61
  7518                           ;mcc_generated_files/uart2.c: 98:     U2CON0 = 0xB0;
  7519  004368  0EB0               	movlw	176
  7520  00436A  6FDA               	movwf	218,b	;volatile
  7521                           
  7522                           ; BSR set to: 61
  7523                           ;mcc_generated_files/uart2.c: 101:     U2CON1 = 0x80;
  7524  00436C  0E80               	movlw	128
  7525  00436E  6FDB               	movwf	219,b	;volatile
  7526                           
  7527                           ; BSR set to: 61
  7528                           ;mcc_generated_files/uart2.c: 104:     U2CON2 = 0x00;
  7529  004370  6BDC               	clrf	220,b	;volatile
  7530                           
  7531                           ; BSR set to: 61
  7532                           ;mcc_generated_files/uart2.c: 107:     U2BRGL = 0x82;
  7533  004372  0E82               	movlw	130
  7534  004374  6FDD               	movwf	221,b	;volatile
  7535                           
  7536                           ; BSR set to: 61
  7537                           ;mcc_generated_files/uart2.c: 110:     U2BRGH = 0x06;
  7538  004376  0E06               	movlw	6
  7539  004378  6FDE               	movwf	222,b	;volatile
  7540                           
  7541                           ; BSR set to: 61
  7542                           ;mcc_generated_files/uart2.c: 113:     U2FIFO = 0x00;
  7543  00437A  6BDF               	clrf	223,b	;volatile
  7544                           
  7545                           ; BSR set to: 61
  7546                           ;mcc_generated_files/uart2.c: 116:     U2UIR = 0x00;
  7547  00437C  6BE0               	clrf	224,b	;volatile
  7548                           
  7549                           ; BSR set to: 61
  7550                           ;mcc_generated_files/uart2.c: 119:     U2ERRIR = 0x00;
  7551  00437E  6BE1               	clrf	225,b	;volatile
  7552                           
  7553                           ; BSR set to: 61
  7554                           ;mcc_generated_files/uart2.c: 122:     U2ERRIE = 0x00;
  7555  004380  6BE2               	clrf	226,b	;volatile
  7556                           
  7557                           ; BSR set to: 61
  7558                           ;mcc_generated_files/uart2.c: 126:     uart2TxHead = 0;
  7559  004382  6A35               	clrf	_uart2TxHead,c	;volatile
  7560                           
  7561                           ; BSR set to: 61
  7562                           ;mcc_generated_files/uart2.c: 127:     uart2TxTail = 0;
  7563  004384  6A34               	clrf	_uart2TxTail,c	;volatile
  7564                           
  7565                           ; BSR set to: 61
  7566                           ;mcc_generated_files/uart2.c: 128:     uart2TxBufferRemaining = sizeof(uart2TxBuffer);
  7567  004386  0E40               	movlw	64
  7568  004388  6E33               	movwf	_uart2TxBufferRemaining,c	;volatile
  7569                           
  7570                           ; BSR set to: 61
  7571                           ;mcc_generated_files/uart2.c: 129:     uart2RxHead = 0;
  7572  00438A  6A32               	clrf	_uart2RxHead,c	;volatile
  7573                           
  7574                           ; BSR set to: 61
  7575                           ;mcc_generated_files/uart2.c: 130:     uart2RxTail = 0;
  7576  00438C  6A31               	clrf	_uart2RxTail,c	;volatile
  7577                           
  7578                           ; BSR set to: 61
  7579                           ;mcc_generated_files/uart2.c: 131:     uart2RxCount = 0;
  7580  00438E  6A30               	clrf	_uart2RxCount,c	;volatile
  7581                           
  7582                           ; BSR set to: 61
  7583                           ;mcc_generated_files/uart2.c: 134:     PIE6bits.U2RXIE = 1;
  7584  004390  0139               	movlb	57	; () banked
  7585  004392  8596               	bsf	150,2,b	;volatile
  7586                           
  7587                           ; BSR set to: 57
  7588                           ; _UART2_Initialize: autosize = 0, savesize = 0, parsavesize = 0, tempsize = 0 parsize =
      +                           0, argsize = 0, vargsize = 0
  7589  004394  0012               	return		;funcret
  7590  004396                     __end_of_UART2_Initialize:
  7591                           	opt callstack 0
  7592                           
  7593 ;; *************** function _UART2_SetTxInterruptHandler *****************
  7594 ;; Defined at:
  7595 ;;		line 252 in file "mcc_generated_files/uart2.c"
  7596 ;; Parameters:    Size  Location     Type
  7597 ;;  InterruptHan    3  [STACK] PTR FTN()void 
  7598 ;;		 -> UART2_Transmit_ISR(1), 
  7599 ;; Auto vars:     Size  Location     Type
  7600 ;;		None
  7601 ;; Return value:  Size  Location     Type
  7602 ;;                  1  [STACK] void 
  7603 ;; Registers used:
  7604 ;;		wreg, fsr1l, fsr1h, fsr2l, fsr2h
  7605 ;; Tracked objects:
  7606 ;;		On entry : 3F/39
  7607 ;;		On exit  : 0/0
  7608 ;;		Unchanged: 0/0
  7609 ;; Data sizes:     COMRAM   BANK0   BANK1   BANK2   BANK3   BANK4   BANK5   BANK6   BANK7   BANK8   BANK9  BANK10  BANK1
      +1  BANK12  BANK13  BANK14  BANK15  BANK16  BANK17  BANK18  BANK19  BANK20  BANK21  BANK22  BANK23  BANK24  BANK25  BANK2
      +6  BANK27  BANK28  BANK29  BANK30  BANK31
  7610 ;;      Params:         0       0       0       0       0       0       0       0       0       0       0       0       
      +0       0       0       0       0       0       0       0       0       0       0       0       0       0       0       
      +0       0       0       0       0       0
  7611 ;;      Locals:         0       0       0       0       0       0       0       0       0       0       0       0       
      +0       0       0       0       0       0       0       0       0       0       0       0       0       0       0       
      +0       0       0       0       0       0
  7612 ;;      Temps:          0       0       0       0       0       0       0       0       0       0       0       0       
      +0       0       0       0       0       0       0       0       0       0       0       0       0       0       0       
      +0       0       0       0       0       0
  7613 ;;      Totals:         0       0       0       0       0       0       0       0       0       0       0       0       
      +0       0       0       0       0       0       0       0       0       0       0       0       0       0       0       
      +0       0       0       0       0       0
  7614 ;;Total ram usage:        0 bytes
  7615 ;; Hardware stack levels used:    1
  7616 ;; Hardware stack levels required when called:    3
  7617 ;; This function calls:
  7618 ;;		Nothing
  7619 ;; This function is called by:
  7620 ;;		_UART2_Initialize
  7621 ;; This function uses a reentrant model
  7622 ;;
  7623                           
  7624                           	psect	text40
  7625  004712                     __ptext40:
  7626                           	opt callstack 0
  7627  004712                     _UART2_SetTxInterruptHandler:
  7628                           	opt callstack 25
  7629                           
  7630                           ;mcc_generated_files/uart2.c: 253:     UART2_TxInterruptHandler = InterruptHandler;
  7631                           ;stkvar	_InterruptHandler @ sp[(0)+-3]
  7632                           
  7633                           ; BSR set to: 57
  7634                           ; autosize = 0, savesize = 0, parsavesize = 0, tempsize = 0 parsize = 3, argsize = 3 var
      +                          gsize = 0, retsize = 0 argfudge = 0
  7635                           ;incstack = 0
  7636  004712  50E1               	movf	fsr1l,w,c
  7637  004714  0FFD               	addlw	-3
  7638  004716  6ED9               	movwf	fsr2l,c
  7639  004718  50E2               	movf	fsr1h,w,c
  7640  00471A  6EDA               	movwf	fsr2h,c
  7641  00471C  0EFF               	movlw	255
  7642  00471E  22DA               	addwfc	fsr2h,f,c
  7643  004720  006F FF78  F019    	movff	postinc2,_UART2_TxInterruptHandler
  7644  004726  006F FF78  F01A    	movff	postinc2,_UART2_TxInterruptHandler+1
  7645  00472C  006F FF74  F01B    	movff	postdec2,_UART2_TxInterruptHandler+2
  7646                           
  7647                           ; _UART2_SetTxInterruptHandler: autosize = 0, savesize = 0, parsavesize = 0, tempsize = 
      +                          0 parsize = 3, argsize = 3, vargsize = 0
  7648  004732  52E5               	movf	postdec1,f,c
  7649  004734  52E5               	movf	postdec1,f,c
  7650  004736  52E5               	movf	postdec1,f,c
  7651  004738  0012               	return		;funcret
  7652  00473A                     __end_of_UART2_SetTxInterruptHandler:
  7653                           	opt callstack 0
  7654                           
  7655 ;; *************** function _UART2_SetRxInterruptHandler *****************
  7656 ;; Defined at:
  7657 ;;		line 248 in file "mcc_generated_files/uart2.c"
  7658 ;; Parameters:    Size  Location     Type
  7659 ;;  InterruptHan    3  [STACK] PTR FTN()void 
  7660 ;;		 -> UART2_Receive_ISR(1), 
  7661 ;; Auto vars:     Size  Location     Type
  7662 ;;		None
  7663 ;; Return value:  Size  Location     Type
  7664 ;;                  1  [STACK] void 
  7665 ;; Registers used:
  7666 ;;		wreg, fsr1l, fsr1h, fsr2l, fsr2h
  7667 ;; Tracked objects:
  7668 ;;		On entry : 3F/39
  7669 ;;		On exit  : 0/0
  7670 ;;		Unchanged: 0/0
  7671 ;; Data sizes:     COMRAM   BANK0   BANK1   BANK2   BANK3   BANK4   BANK5   BANK6   BANK7   BANK8   BANK9  BANK10  BANK1
      +1  BANK12  BANK13  BANK14  BANK15  BANK16  BANK17  BANK18  BANK19  BANK20  BANK21  BANK22  BANK23  BANK24  BANK25  BANK2
      +6  BANK27  BANK28  BANK29  BANK30  BANK31
  7672 ;;      Params:         0       0       0       0       0       0       0       0       0       0       0       0       
      +0       0       0       0       0       0       0       0       0       0       0       0       0       0       0       
      +0       0       0       0       0       0
  7673 ;;      Locals:         0       0       0       0       0       0       0       0       0       0       0       0       
      +0       0       0       0       0       0       0       0       0       0       0       0       0       0       0       
      +0       0       0       0       0       0
  7674 ;;      Temps:          0       0       0       0       0       0       0       0       0       0       0       0       
      +0       0       0       0       0       0       0       0       0       0       0       0       0       0       0       
      +0       0       0       0       0       0
  7675 ;;      Totals:         0       0       0       0       0       0       0       0       0       0       0       0       
      +0       0       0       0       0       0       0       0       0       0       0       0       0       0       0       
      +0       0       0       0       0       0
  7676 ;;Total ram usage:        0 bytes
  7677 ;; Hardware stack levels used:    1
  7678 ;; Hardware stack levels required when called:    3
  7679 ;; This function calls:
  7680 ;;		Nothing
  7681 ;; This function is called by:
  7682 ;;		_UART2_Initialize
  7683 ;; This function uses a reentrant model
  7684 ;;
  7685                           
  7686                           	psect	text41
  7687  00473A                     __ptext41:
  7688                           	opt callstack 0
  7689  00473A                     _UART2_SetRxInterruptHandler:
  7690                           	opt callstack 25
  7691                           
  7692                           ;mcc_generated_files/uart2.c: 249:     UART2_RxInterruptHandler = InterruptHandler;
  7693                           ;stkvar	_InterruptHandler @ sp[(0)+-3]
  7694                           
  7695                           ; autosize = 0, savesize = 0, parsavesize = 0, tempsize = 0 parsize = 3, argsize = 3 var
      +                          gsize = 0, retsize = 0 argfudge = 0
  7696                           ;incstack = 0
  7697  00473A  50E1               	movf	fsr1l,w,c
  7698  00473C  0FFD               	addlw	-3
  7699  00473E  6ED9               	movwf	fsr2l,c
  7700  004740  50E2               	movf	fsr1h,w,c
  7701  004742  6EDA               	movwf	fsr2h,c
  7702  004744  0EFF               	movlw	255
  7703  004746  22DA               	addwfc	fsr2h,f,c
  7704  004748  006F FF78  F01C    	movff	postinc2,_UART2_RxInterruptHandler
  7705  00474E  006F FF78  F01D    	movff	postinc2,_UART2_RxInterruptHandler+1
  7706  004754  006F FF74  F01E    	movff	postdec2,_UART2_RxInterruptHandler+2
  7707                           
  7708                           ; _UART2_SetRxInterruptHandler: autosize = 0, savesize = 0, parsavesize = 0, tempsize = 
      +                          0 parsize = 3, argsize = 3, vargsize = 0
  7709  00475A  52E5               	movf	postdec1,f,c
  7710  00475C  52E5               	movf	postdec1,f,c
  7711  00475E  52E5               	movf	postdec1,f,c
  7712  004760  0012               	return		;funcret
  7713  004762                     __end_of_UART2_SetRxInterruptHandler:
  7714                           	opt callstack 0
  7715                           
  7716 ;; *************** function _UART1_Initialize *****************
  7717 ;; Defined at:
  7718 ;;		line 78 in file "mcc_generated_files/uart1.c"
  7719 ;; Parameters:    Size  Location     Type
  7720 ;;		None
  7721 ;; Auto vars:     Size  Location     Type
  7722 ;;		None
  7723 ;; Return value:  Size  Location     Type
  7724 ;;                  1  [STACK] void 
  7725 ;; Registers used:
  7726 ;;		wreg, fsr1l, fsr1h, fsr2l, fsr2h, status,2
  7727 ;; Tracked objects:
  7728 ;;		On entry : 3F/3C
  7729 ;;		On exit  : 3F/39
  7730 ;;		Unchanged: 0/0
  7731 ;; Data sizes:     COMRAM   BANK0   BANK1   BANK2   BANK3   BANK4   BANK5   BANK6   BANK7   BANK8   BANK9  BANK10  BANK1
      +1  BANK12  BANK13  BANK14  BANK15  BANK16  BANK17  BANK18  BANK19  BANK20  BANK21  BANK22  BANK23  BANK24  BANK25  BANK2
      +6  BANK27  BANK28  BANK29  BANK30  BANK31
  7732 ;;      Params:         0       0       0       0       0       0       0       0       0       0       0       0       
      +0       0       0       0       0       0       0       0       0       0       0       0       0       0       0       
      +0       0       0       0       0       0
  7733 ;;      Locals:         0       0       0       0       0       0       0       0       0       0       0       0       
      +0       0       0       0       0       0       0       0       0       0       0       0       0       0       0       
      +0       0       0       0       0       0
  7734 ;;      Temps:          0       0       0       0       0       0       0       0       0       0       0       0       
      +0       0       0       0       0       0       0       0       0       0       0       0       0       0       0       
      +0       0       0       0       0       0
  7735 ;;      Totals:         0       0       0       0       0       0       0       0       0       0       0       0       
      +0       0       0       0       0       0       0       0       0       0       0       0       0       0       0       
      +0       0       0       0       0       0
  7736 ;;Total ram usage:        0 bytes
  7737 ;; Hardware stack levels used:    1
  7738 ;; Hardware stack levels required when called:    4
  7739 ;; This function calls:
  7740 ;;		_UART1_SetRxInterruptHandler
  7741 ;;		_UART1_SetTxInterruptHandler
  7742 ;; This function is called by:
  7743 ;;		_SYSTEM_Initialize
  7744 ;; This function uses a reentrant model
  7745 ;;
  7746                           
  7747                           	psect	text42
  7748  00420C                     __ptext42:
  7749                           	opt callstack 0
  7750  00420C                     _UART1_Initialize:
  7751                           	opt callstack 25
  7752                           
  7753                           ;mcc_generated_files/uart1.c: 81:     PIE3bits.U1RXIE = 0;
  7754                           
  7755                           ; autosize = 0, savesize = 0, parsavesize = 0, tempsize = 0 parsize = 0, argsize = 0 var
      +                          gsize = 0, retsize = 0 argfudge = 0
  7756                           ;incstack = 0
  7757  00420C  0139               	movlb	57	; () banked
  7758  00420E  9793               	bcf	147,3,b	;volatile
  7759                           
  7760                           ; BSR set to: 57
  7761                           ;mcc_generated_files/uart1.c: 82:     UART1_SetRxInterruptHandler(UART1_Receive_ISR);
  7762  004210  0EEC               	movlw	low _UART1_Receive_ISR
  7763  004212  6EE6               	movwf	postinc1,c
  7764  004214  0E49               	movlw	high _UART1_Receive_ISR
  7765  004216  6EE6               	movwf	postinc1,c
  7766  004218  0E00               	movlw	low (_UART1_Receive_ISR shr (0+16))
  7767  00421A  6EE6               	movwf	postinc1,c
  7768  00421C  ECC5  F023         	call	_UART1_SetRxInterruptHandler	;wreg free
  7769                           
  7770                           ;mcc_generated_files/uart1.c: 83:     PIE3bits.U1TXIE = 0;
  7771  004220  0139               	movlb	57	; () banked
  7772  004222  9993               	bcf	147,4,b	;volatile
  7773                           
  7774                           ;mcc_generated_files/uart1.c: 84:     UART1_SetTxInterruptHandler(UART1_Transmit_ISR);
  7775  004224  0EEE               	movlw	low _UART1_Transmit_ISR
  7776  004226  6EE6               	movwf	postinc1,c
  7777  004228  0E45               	movlw	high _UART1_Transmit_ISR
  7778  00422A  6EE6               	movwf	postinc1,c
  7779  00422C  0E00               	movlw	low (_UART1_Transmit_ISR shr (0+16))
  7780  00422E  6EE6               	movwf	postinc1,c
  7781  004230  ECB1  F023         	call	_UART1_SetTxInterruptHandler	;wreg free
  7782                           
  7783                           ;mcc_generated_files/uart1.c: 89:     U1P1L = 0x00;
  7784  004234  013D               	movlb	61	; () banked
  7785  004236  6BEC               	clrf	236,b	;volatile
  7786                           
  7787                           ; BSR set to: 61
  7788                           ;mcc_generated_files/uart1.c: 92:     U1P1H = 0x00;
  7789  004238  6BED               	clrf	237,b	;volatile
  7790                           
  7791                           ; BSR set to: 61
  7792                           ;mcc_generated_files/uart1.c: 95:     U1P2L = 0x00;
  7793  00423A  6BEE               	clrf	238,b	;volatile
  7794                           
  7795                           ; BSR set to: 61
  7796                           ;mcc_generated_files/uart1.c: 98:     U1P2H = 0x00;
  7797  00423C  6BEF               	clrf	239,b	;volatile
  7798                           
  7799                           ; BSR set to: 61
  7800                           ;mcc_generated_files/uart1.c: 101:     U1P3L = 0x00;
  7801  00423E  6BF0               	clrf	240,b	;volatile
  7802                           
  7803                           ; BSR set to: 61
  7804                           ;mcc_generated_files/uart1.c: 104:     U1P3H = 0x00;
  7805  004240  6BF1               	clrf	241,b	;volatile
  7806                           
  7807                           ; BSR set to: 61
  7808                           ;mcc_generated_files/uart1.c: 107:     U1CON0 = 0xB0;
  7809  004242  0EB0               	movlw	176
  7810  004244  6FF2               	movwf	242,b	;volatile
  7811                           
  7812                           ; BSR set to: 61
  7813                           ;mcc_generated_files/uart1.c: 110:     U1CON1 = 0x80;
  7814  004246  0E80               	movlw	128
  7815  004248  6FF3               	movwf	243,b	;volatile
  7816                           
  7817                           ; BSR set to: 61
  7818                           ;mcc_generated_files/uart1.c: 113:     U1CON2 = 0x30;
  7819  00424A  0E30               	movlw	48
  7820  00424C  6FF4               	movwf	244,b	;volatile
  7821                           
  7822                           ; BSR set to: 61
  7823                           ;mcc_generated_files/uart1.c: 116:     U1BRGL = 0x82;
  7824  00424E  0E82               	movlw	130
  7825  004250  6FF5               	movwf	245,b	;volatile
  7826                           
  7827                           ; BSR set to: 61
  7828                           ;mcc_generated_files/uart1.c: 119:     U1BRGH = 0x06;
  7829  004252  0E06               	movlw	6
  7830  004254  6FF6               	movwf	246,b	;volatile
  7831                           
  7832                           ; BSR set to: 61
  7833                           ;mcc_generated_files/uart1.c: 122:     U1FIFO = 0x00;
  7834  004256  6BF7               	clrf	247,b	;volatile
  7835                           
  7836                           ; BSR set to: 61
  7837                           ;mcc_generated_files/uart1.c: 125:     U1UIR = 0x00;
  7838  004258  6BF8               	clrf	248,b	;volatile
  7839                           
  7840                           ; BSR set to: 61
  7841                           ;mcc_generated_files/uart1.c: 128:     U1ERRIR = 0x00;
  7842  00425A  6BF9               	clrf	249,b	;volatile
  7843                           
  7844                           ; BSR set to: 61
  7845                           ;mcc_generated_files/uart1.c: 131:     U1ERRIE = 0x00;
  7846  00425C  6BFA               	clrf	250,b	;volatile
  7847                           
  7848                           ; BSR set to: 61
  7849                           ;mcc_generated_files/uart1.c: 135:     uart1TxHead = 0;
  7850  00425E  6A3B               	clrf	_uart1TxHead,c	;volatile
  7851                           
  7852                           ; BSR set to: 61
  7853                           ;mcc_generated_files/uart1.c: 136:     uart1TxTail = 0;
  7854  004260  6A3A               	clrf	_uart1TxTail,c	;volatile
  7855                           
  7856                           ; BSR set to: 61
  7857                           ;mcc_generated_files/uart1.c: 137:     uart1TxBufferRemaining = sizeof(uart1TxBuffer);
  7858  004262  0E40               	movlw	64
  7859  004264  6E39               	movwf	_uart1TxBufferRemaining,c	;volatile
  7860                           
  7861                           ; BSR set to: 61
  7862                           ;mcc_generated_files/uart1.c: 138:     uart1RxHead = 0;
  7863  004266  6A38               	clrf	_uart1RxHead,c	;volatile
  7864                           
  7865                           ; BSR set to: 61
  7866                           ;mcc_generated_files/uart1.c: 139:     uart1RxTail = 0;
  7867  004268  6A37               	clrf	_uart1RxTail,c	;volatile
  7868                           
  7869                           ; BSR set to: 61
  7870                           ;mcc_generated_files/uart1.c: 140:     uart1RxCount = 0;
  7871  00426A  6A36               	clrf	_uart1RxCount,c	;volatile
  7872                           
  7873                           ; BSR set to: 61
  7874                           ;mcc_generated_files/uart1.c: 143:     PIE3bits.U1RXIE = 1;
  7875  00426C  0139               	movlb	57	; () banked
  7876  00426E  8793               	bsf	147,3,b	;volatile
  7877                           
  7878                           ; BSR set to: 57
  7879                           ; _UART1_Initialize: autosize = 0, savesize = 0, parsavesize = 0, tempsize = 0 parsize =
      +                           0, argsize = 0, vargsize = 0
  7880  004270  0012               	return		;funcret
  7881  004272                     __end_of_UART1_Initialize:
  7882                           	opt callstack 0
  7883                           
  7884 ;; *************** function _UART1_SetTxInterruptHandler *****************
  7885 ;; Defined at:
  7886 ;;		line 261 in file "mcc_generated_files/uart1.c"
  7887 ;; Parameters:    Size  Location     Type
  7888 ;;  InterruptHan    3  [STACK] PTR FTN()void 
  7889 ;;		 -> UART1_Transmit_ISR(1), 
  7890 ;; Auto vars:     Size  Location     Type
  7891 ;;		None
  7892 ;; Return value:  Size  Location     Type
  7893 ;;                  1  [STACK] void 
  7894 ;; Registers used:
  7895 ;;		wreg, fsr1l, fsr1h, fsr2l, fsr2h
  7896 ;; Tracked objects:
  7897 ;;		On entry : 3F/39
  7898 ;;		On exit  : 0/0
  7899 ;;		Unchanged: 0/0
  7900 ;; Data sizes:     COMRAM   BANK0   BANK1   BANK2   BANK3   BANK4   BANK5   BANK6   BANK7   BANK8   BANK9  BANK10  BANK1
      +1  BANK12  BANK13  BANK14  BANK15  BANK16  BANK17  BANK18  BANK19  BANK20  BANK21  BANK22  BANK23  BANK24  BANK25  BANK2
      +6  BANK27  BANK28  BANK29  BANK30  BANK31
  7901 ;;      Params:         0       0       0       0       0       0       0       0       0       0       0       0       
      +0       0       0       0       0       0       0       0       0       0       0       0       0       0       0       
      +0       0       0       0       0       0
  7902 ;;      Locals:         0       0       0       0       0       0       0       0       0       0       0       0       
      +0       0       0       0       0       0       0       0       0       0       0       0       0       0       0       
      +0       0       0       0       0       0
  7903 ;;      Temps:          0       0       0       0       0       0       0       0       0       0       0       0       
      +0       0       0       0       0       0       0       0       0       0       0       0       0       0       0       
      +0       0       0       0       0       0
  7904 ;;      Totals:         0       0       0       0       0       0       0       0       0       0       0       0       
      +0       0       0       0       0       0       0       0       0       0       0       0       0       0       0       
      +0       0       0       0       0       0
  7905 ;;Total ram usage:        0 bytes
  7906 ;; Hardware stack levels used:    1
  7907 ;; Hardware stack levels required when called:    3
  7908 ;; This function calls:
  7909 ;;		Nothing
  7910 ;; This function is called by:
  7911 ;;		_UART1_Initialize
  7912 ;; This function uses a reentrant model
  7913 ;;
  7914                           
  7915                           	psect	text43
  7916  004762                     __ptext43:
  7917                           	opt callstack 0
  7918  004762                     _UART1_SetTxInterruptHandler:
  7919                           	opt callstack 25
  7920                           
  7921                           ;mcc_generated_files/uart1.c: 262:     UART1_TxInterruptHandler = InterruptHandler;
  7922                           ;stkvar	_InterruptHandler @ sp[(0)+-3]
  7923                           
  7924                           ; BSR set to: 57
  7925                           ; autosize = 0, savesize = 0, parsavesize = 0, tempsize = 0 parsize = 3, argsize = 3 var
      +                          gsize = 0, retsize = 0 argfudge = 0
  7926                           ;incstack = 0
  7927  004762  50E1               	movf	fsr1l,w,c
  7928  004764  0FFD               	addlw	-3
  7929  004766  6ED9               	movwf	fsr2l,c
  7930  004768  50E2               	movf	fsr1h,w,c
  7931  00476A  6EDA               	movwf	fsr2h,c
  7932  00476C  0EFF               	movlw	255
  7933  00476E  22DA               	addwfc	fsr2h,f,c
  7934  004770  006F FF78  F013    	movff	postinc2,_UART1_TxInterruptHandler
  7935  004776  006F FF78  F014    	movff	postinc2,_UART1_TxInterruptHandler+1
  7936  00477C  006F FF74  F015    	movff	postdec2,_UART1_TxInterruptHandler+2
  7937                           
  7938                           ; _UART1_SetTxInterruptHandler: autosize = 0, savesize = 0, parsavesize = 0, tempsize = 
      +                          0 parsize = 3, argsize = 3, vargsize = 0
  7939  004782  52E5               	movf	postdec1,f,c
  7940  004784  52E5               	movf	postdec1,f,c
  7941  004786  52E5               	movf	postdec1,f,c
  7942  004788  0012               	return		;funcret
  7943  00478A                     __end_of_UART1_SetTxInterruptHandler:
  7944                           	opt callstack 0
  7945                           
  7946 ;; *************** function _UART1_SetRxInterruptHandler *****************
  7947 ;; Defined at:
  7948 ;;		line 257 in file "mcc_generated_files/uart1.c"
  7949 ;; Parameters:    Size  Location     Type
  7950 ;;  InterruptHan    3  [STACK] PTR FTN()void 
  7951 ;;		 -> UART1_Receive_ISR(1), 
  7952 ;; Auto vars:     Size  Location     Type
  7953 ;;		None
  7954 ;; Return value:  Size  Location     Type
  7955 ;;                  1  [STACK] void 
  7956 ;; Registers used:
  7957 ;;		wreg, fsr1l, fsr1h, fsr2l, fsr2h
  7958 ;; Tracked objects:
  7959 ;;		On entry : 3F/39
  7960 ;;		On exit  : 0/0
  7961 ;;		Unchanged: 0/0
  7962 ;; Data sizes:     COMRAM   BANK0   BANK1   BANK2   BANK3   BANK4   BANK5   BANK6   BANK7   BANK8   BANK9  BANK10  BANK1
      +1  BANK12  BANK13  BANK14  BANK15  BANK16  BANK17  BANK18  BANK19  BANK20  BANK21  BANK22  BANK23  BANK24  BANK25  BANK2
      +6  BANK27  BANK28  BANK29  BANK30  BANK31
  7963 ;;      Params:         0       0       0       0       0       0       0       0       0       0       0       0       
      +0       0       0       0       0       0       0       0       0       0       0       0       0       0       0       
      +0       0       0       0       0       0
  7964 ;;      Locals:         0       0       0       0       0       0       0       0       0       0       0       0       
      +0       0       0       0       0       0       0       0       0       0       0       0       0       0       0       
      +0       0       0       0       0       0
  7965 ;;      Temps:          0       0       0       0       0       0       0       0       0       0       0       0       
      +0       0       0       0       0       0       0       0       0       0       0       0       0       0       0       
      +0       0       0       0       0       0
  7966 ;;      Totals:         0       0       0       0       0       0       0       0       0       0       0       0       
      +0       0       0       0       0       0       0       0       0       0       0       0       0       0       0       
      +0       0       0       0       0       0
  7967 ;;Total ram usage:        0 bytes
  7968 ;; Hardware stack levels used:    1
  7969 ;; Hardware stack levels required when called:    3
  7970 ;; This function calls:
  7971 ;;		Nothing
  7972 ;; This function is called by:
  7973 ;;		_UART1_Initialize
  7974 ;; This function uses a reentrant model
  7975 ;;
  7976                           
  7977                           	psect	text44
  7978  00478A                     __ptext44:
  7979                           	opt callstack 0
  7980  00478A                     _UART1_SetRxInterruptHandler:
  7981                           	opt callstack 25
  7982                           
  7983                           ;mcc_generated_files/uart1.c: 258:     UART1_RxInterruptHandler = InterruptHandler;
  7984                           ;stkvar	_InterruptHandler @ sp[(0)+-3]
  7985                           
  7986                           ; autosize = 0, savesize = 0, parsavesize = 0, tempsize = 0 parsize = 3, argsize = 3 var
      +                          gsize = 0, retsize = 0 argfudge = 0
  7987                           ;incstack = 0
  7988  00478A  50E1               	movf	fsr1l,w,c
  7989  00478C  0FFD               	addlw	-3
  7990  00478E  6ED9               	movwf	fsr2l,c
  7991  004790  50E2               	movf	fsr1h,w,c
  7992  004792  6EDA               	movwf	fsr2h,c
  7993  004794  0EFF               	movlw	255
  7994  004796  22DA               	addwfc	fsr2h,f,c
  7995  004798  006F FF78  F016    	movff	postinc2,_UART1_RxInterruptHandler
  7996  00479E  006F FF78  F017    	movff	postinc2,_UART1_RxInterruptHandler+1
  7997  0047A4  006F FF74  F018    	movff	postdec2,_UART1_RxInterruptHandler+2
  7998                           
  7999                           ; _UART1_SetRxInterruptHandler: autosize = 0, savesize = 0, parsavesize = 0, tempsize = 
      +                          0 parsize = 3, argsize = 3, vargsize = 0
  8000  0047AA  52E5               	movf	postdec1,f,c
  8001  0047AC  52E5               	movf	postdec1,f,c
  8002  0047AE  52E5               	movf	postdec1,f,c
  8003  0047B0  0012               	return		;funcret
  8004  0047B2                     __end_of_UART1_SetRxInterruptHandler:
  8005                           	opt callstack 0
  8006                           
  8007 ;; *************** function _TMR6_Initialize *****************
  8008 ;; Defined at:
  8009 ;;		line 69 in file "mcc_generated_files/tmr6.c"
  8010 ;; Parameters:    Size  Location     Type
  8011 ;;		None
  8012 ;; Auto vars:     Size  Location     Type
  8013 ;;		None
  8014 ;; Return value:  Size  Location     Type
  8015 ;;                  1  [STACK] void 
  8016 ;; Registers used:
  8017 ;;		wreg, fsr1l, fsr1h, fsr2l, fsr2h, status,2
  8018 ;; Tracked objects:
  8019 ;;		On entry : 3F/39
  8020 ;;		On exit  : 0/0
  8021 ;;		Unchanged: 0/0
  8022 ;; Data sizes:     COMRAM   BANK0   BANK1   BANK2   BANK3   BANK4   BANK5   BANK6   BANK7   BANK8   BANK9  BANK10  BANK1
      +1  BANK12  BANK13  BANK14  BANK15  BANK16  BANK17  BANK18  BANK19  BANK20  BANK21  BANK22  BANK23  BANK24  BANK25  BANK2
      +6  BANK27  BANK28  BANK29  BANK30  BANK31
  8023 ;;      Params:         0       0       0       0       0       0       0       0       0       0       0       0       
      +0       0       0       0       0       0       0       0       0       0       0       0       0       0       0       
      +0       0       0       0       0       0
  8024 ;;      Locals:         0       0       0       0       0       0       0       0       0       0       0       0       
      +0       0       0       0       0       0       0       0       0       0       0       0       0       0       0       
      +0       0       0       0       0       0
  8025 ;;      Temps:          0       0       0       0       0       0       0       0       0       0       0       0       
      +0       0       0       0       0       0       0       0       0       0       0       0       0       0       0       
      +0       0       0       0       0       0
  8026 ;;      Totals:         0       0       0       0       0       0       0       0       0       0       0       0       
      +0       0       0       0       0       0       0       0       0       0       0       0       0       0       0       
      +0       0       0       0       0       0
  8027 ;;Total ram usage:        0 bytes
  8028 ;; Hardware stack levels used:    1
  8029 ;; Hardware stack levels required when called:    4
  8030 ;; This function calls:
  8031 ;;		_TMR6_SetInterruptHandler
  8032 ;; This function is called by:
  8033 ;;		_SYSTEM_Initialize
  8034 ;; This function uses a reentrant model
  8035 ;;
  8036                           
  8037                           	psect	text45
  8038  004646                     __ptext45:
  8039                           	opt callstack 0
  8040  004646                     _TMR6_Initialize:
  8041                           	opt callstack 25
  8042                           
  8043                           ;mcc_generated_files/tmr6.c: 74:  T6CLKCON = 0x01;
  8044                           
  8045                           ; autosize = 0, savesize = 0, parsavesize = 0, tempsize = 0 parsize = 0, argsize = 0 var
      +                          gsize = 0, retsize = 0 argfudge = 0
  8046                           ;incstack = 0
  8047  004646  0E01               	movlw	1
  8048  004648  6E96               	movwf	16278,c	;volatile
  8049                           
  8050                           ;mcc_generated_files/tmr6.c: 77:  T6HLT = 0x00;
  8051  00464A  6A95               	clrf	16277,c	;volatile
  8052                           
  8053                           ;mcc_generated_files/tmr6.c: 80:  T6RST = 0x00;
  8054  00464C  6A97               	clrf	16279,c	;volatile
  8055                           
  8056                           ;mcc_generated_files/tmr6.c: 83:  T6PR = 0x31;
  8057  00464E  0E31               	movlw	49
  8058  004650  6E93               	movwf	16275,c	;volatile
  8059                           
  8060                           ;mcc_generated_files/tmr6.c: 86:  T6TMR = 0x00;
  8061  004652  6A92               	clrf	16274,c	;volatile
  8062                           
  8063                           ;mcc_generated_files/tmr6.c: 89:  PIR9bits.TMR6IF = 0;
  8064  004654  0139               	movlb	57	; () banked
  8065  004656  91A9               	bcf	169,0,b	;volatile
  8066                           
  8067                           ; BSR set to: 57
  8068                           ;mcc_generated_files/tmr6.c: 92:  PIE9bits.TMR6IE = 1;
  8069  004658  8199               	bsf	153,0,b	;volatile
  8070                           
  8071                           ; BSR set to: 57
  8072                           ;mcc_generated_files/tmr6.c: 95:  TMR6_SetInterruptHandler(TMR6_DefaultInterruptHandler)
      +                          ;
  8073  00465A  0E7A               	movlw	low _TMR6_DefaultInterruptHandler
  8074  00465C  6EE6               	movwf	postinc1,c
  8075  00465E  0E48               	movlw	high _TMR6_DefaultInterruptHandler
  8076  004660  6EE6               	movwf	postinc1,c
  8077  004662  0E00               	movlw	low (_TMR6_DefaultInterruptHandler shr (0+16))
  8078  004664  6EE6               	movwf	postinc1,c
  8079  004666  ECD9  F023         	call	_TMR6_SetInterruptHandler	;wreg free
  8080                           
  8081                           ;mcc_generated_files/tmr6.c: 98:  T6CON = 0x8F;
  8082  00466A  0E8F               	movlw	143
  8083  00466C  6E94               	movwf	16276,c	;volatile
  8084                           
  8085                           ; _TMR6_Initialize: autosize = 0, savesize = 0, parsavesize = 0, tempsize = 0 parsize = 
      +                          0, argsize = 0, vargsize = 0
  8086  00466E  0012               	return		;funcret
  8087  004670                     __end_of_TMR6_Initialize:
  8088                           	opt callstack 0
  8089                           
  8090 ;; *************** function _TMR6_SetInterruptHandler *****************
  8091 ;; Defined at:
  8092 ;;		line 190 in file "mcc_generated_files/tmr6.c"
  8093 ;; Parameters:    Size  Location     Type
  8094 ;;  InterruptHan    3  [STACK] PTR FTN()void 
  8095 ;;		 -> TMR6_DefaultInterruptHandler(1), 
  8096 ;; Auto vars:     Size  Location     Type
  8097 ;;		None
  8098 ;; Return value:  Size  Location     Type
  8099 ;;                  1  [STACK] void 
  8100 ;; Registers used:
  8101 ;;		wreg, fsr1l, fsr1h, fsr2l, fsr2h
  8102 ;; Tracked objects:
  8103 ;;		On entry : 3F/39
  8104 ;;		On exit  : 0/0
  8105 ;;		Unchanged: 0/0
  8106 ;; Data sizes:     COMRAM   BANK0   BANK1   BANK2   BANK3   BANK4   BANK5   BANK6   BANK7   BANK8   BANK9  BANK10  BANK1
      +1  BANK12  BANK13  BANK14  BANK15  BANK16  BANK17  BANK18  BANK19  BANK20  BANK21  BANK22  BANK23  BANK24  BANK25  BANK2
      +6  BANK27  BANK28  BANK29  BANK30  BANK31
  8107 ;;      Params:         0       0       0       0       0       0       0       0       0       0       0       0       
      +0       0       0       0       0       0       0       0       0       0       0       0       0       0       0       
      +0       0       0       0       0       0
  8108 ;;      Locals:         0       0       0       0       0       0       0       0       0       0       0       0       
      +0       0       0       0       0       0       0       0       0       0       0       0       0       0       0       
      +0       0       0       0       0       0
  8109 ;;      Temps:          0       0       0       0       0       0       0       0       0       0       0       0       
      +0       0       0       0       0       0       0       0       0       0       0       0       0       0       0       
      +0       0       0       0       0       0
  8110 ;;      Totals:         0       0       0       0       0       0       0       0       0       0       0       0       
      +0       0       0       0       0       0       0       0       0       0       0       0       0       0       0       
      +0       0       0       0       0       0
  8111 ;;Total ram usage:        0 bytes
  8112 ;; Hardware stack levels used:    1
  8113 ;; Hardware stack levels required when called:    3
  8114 ;; This function calls:
  8115 ;;		Nothing
  8116 ;; This function is called by:
  8117 ;;		_TMR6_Initialize
  8118 ;; This function uses a reentrant model
  8119 ;;
  8120                           
  8121                           	psect	text46
  8122  0047B2                     __ptext46:
  8123                           	opt callstack 0
  8124  0047B2                     _TMR6_SetInterruptHandler:
  8125                           	opt callstack 25
  8126                           
  8127                           ;mcc_generated_files/tmr6.c: 190: void TMR6_SetInterruptHandler(void (* InterruptHandler
      +                          )(void));mcc_generated_files/tmr6.c: 191: {;mcc_generated_files/tmr6.c: 192:  TMR6_Inter
      +                          ruptHandler = InterruptHandler;
  8128                           ;stkvar	_InterruptHandler @ sp[(0)+-3]
  8129                           
  8130                           ; autosize = 0, savesize = 0, parsavesize = 0, tempsize = 0 parsize = 3, argsize = 3 var
      +                          gsize = 0, retsize = 0 argfudge = 0
  8131                           ;incstack = 0
  8132  0047B2  50E1               	movf	fsr1l,w,c
  8133  0047B4  0FFD               	addlw	-3
  8134  0047B6  6ED9               	movwf	fsr2l,c
  8135  0047B8  50E2               	movf	fsr1h,w,c
  8136  0047BA  6EDA               	movwf	fsr2h,c
  8137  0047BC  0EFF               	movlw	255
  8138  0047BE  22DA               	addwfc	fsr2h,f,c
  8139  0047C0  006F FF78  F00D    	movff	postinc2,_TMR6_InterruptHandler
  8140  0047C6  006F FF78  F00E    	movff	postinc2,_TMR6_InterruptHandler+1
  8141  0047CC  006F FF74  F00F    	movff	postdec2,_TMR6_InterruptHandler+2
  8142                           
  8143                           ; _TMR6_SetInterruptHandler: autosize = 0, savesize = 0, parsavesize = 0, tempsize = 0 p
      +                          arsize = 3, argsize = 3, vargsize = 0
  8144  0047D2  52E5               	movf	postdec1,f,c
  8145  0047D4  52E5               	movf	postdec1,f,c
  8146  0047D6  52E5               	movf	postdec1,f,c
  8147  0047D8  0012               	return		;funcret
  8148  0047DA                     __end_of_TMR6_SetInterruptHandler:
  8149                           	opt callstack 0
  8150                           
  8151 ;; *************** function _SPI1_Initialize *****************
  8152 ;; Defined at:
  8153 ;;		line 64 in file "mcc_generated_files/spi1.c"
  8154 ;; Parameters:    Size  Location     Type
  8155 ;;		None
  8156 ;; Auto vars:     Size  Location     Type
  8157 ;;		None
  8158 ;; Return value:  Size  Location     Type
  8159 ;;                  1  [STACK] void 
  8160 ;; Registers used:
  8161 ;;		wreg, status,2
  8162 ;; Tracked objects:
  8163 ;;		On entry : 3F/39
  8164 ;;		On exit  : 3F/3D
  8165 ;;		Unchanged: 0/0
  8166 ;; Data sizes:     COMRAM   BANK0   BANK1   BANK2   BANK3   BANK4   BANK5   BANK6   BANK7   BANK8   BANK9  BANK10  BANK1
      +1  BANK12  BANK13  BANK14  BANK15  BANK16  BANK17  BANK18  BANK19  BANK20  BANK21  BANK22  BANK23  BANK24  BANK25  BANK2
      +6  BANK27  BANK28  BANK29  BANK30  BANK31
  8167 ;;      Params:         0       0       0       0       0       0       0       0       0       0       0       0       
      +0       0       0       0       0       0       0       0       0       0       0       0       0       0       0       
      +0       0       0       0       0       0
  8168 ;;      Locals:         0       0       0       0       0       0       0       0       0       0       0       0       
      +0       0       0       0       0       0       0       0       0       0       0       0       0       0       0       
      +0       0       0       0       0       0
  8169 ;;      Temps:          0       0       0       0       0       0       0       0       0       0       0       0       
      +0       0       0       0       0       0       0       0       0       0       0       0       0       0       0       
      +0       0       0       0       0       0
  8170 ;;      Totals:         0       0       0       0       0       0       0       0       0       0       0       0       
      +0       0       0       0       0       0       0       0       0       0       0       0       0       0       0       
      +0       0       0       0       0       0
  8171 ;;Total ram usage:        0 bytes
  8172 ;; Hardware stack levels used:    1
  8173 ;; Hardware stack levels required when called:    3
  8174 ;; This function calls:
  8175 ;;		Nothing
  8176 ;; This function is called by:
  8177 ;;		_SYSTEM_Initialize
  8178 ;; This function uses a reentrant model
  8179 ;;
  8180                           
  8181                           	psect	text47
  8182  004AD2                     __ptext47:
  8183                           	opt callstack 0
  8184  004AD2                     _SPI1_Initialize:
  8185                           	opt callstack 26
  8186                           
  8187                           ;mcc_generated_files/spi1.c: 68:   SPI1CON1 = 0x40;
  8188                           
  8189                           ; autosize = 0, savesize = 0, parsavesize = 0, tempsize = 0 parsize = 0, argsize = 0 var
      +                          gsize = 0, retsize = 0 argfudge = 0
  8190                           ;incstack = 0
  8191  004AD2  0E40               	movlw	64
  8192  004AD4  013D               	movlb	61	; () banked
  8193  004AD6  6F15               	movwf	21,b	;volatile
  8194                           
  8195                           ;mcc_generated_files/spi1.c: 70:   SPI1CON2 = 0x03;
  8196  004AD8  0E03               	movlw	3
  8197  004ADA  6F16               	movwf	22,b	;volatile
  8198                           
  8199                           ;mcc_generated_files/spi1.c: 72:   SPI1BAUD = 0x4F;
  8200  004ADC  0E4F               	movlw	79
  8201  004ADE  6F19               	movwf	25,b	;volatile
  8202                           
  8203                           ; BSR set to: 61
  8204                           ;mcc_generated_files/spi1.c: 74:   SPI1CLK = 0x00;
  8205  004AE0  6B1C               	clrf	28,b	;volatile
  8206                           
  8207                           ;mcc_generated_files/spi1.c: 76:   SPI1CON0 = 0x83;
  8208  004AE2  0E83               	movlw	131
  8209  004AE4  6F14               	movwf	20,b	;volatile
  8210                           
  8211                           ; BSR set to: 61
  8212                           ; _SPI1_Initialize: autosize = 0, savesize = 0, parsavesize = 0, tempsize = 0 parsize = 
      +                          0, argsize = 0, vargsize = 0
  8213  004AE6  0012               	return		;funcret
  8214  004AE8                     __end_of_SPI1_Initialize:
  8215                           	opt callstack 0
  8216                           
  8217 ;; *************** function _PMD_Initialize *****************
  8218 ;; Defined at:
  8219 ;;		line 87 in file "mcc_generated_files/mcc.c"
  8220 ;; Parameters:    Size  Location     Type
  8221 ;;		None
  8222 ;; Auto vars:     Size  Location     Type
  8223 ;;		None
  8224 ;; Return value:  Size  Location     Type
  8225 ;;                  1  [STACK] void 
  8226 ;; Registers used:
  8227 ;;		None
  8228 ;; Tracked objects:
  8229 ;;		On entry : 3F/39
  8230 ;;		On exit  : 3F/39
  8231 ;;		Unchanged: 0/0
  8232 ;; Data sizes:     COMRAM   BANK0   BANK1   BANK2   BANK3   BANK4   BANK5   BANK6   BANK7   BANK8   BANK9  BANK10  BANK1
      +1  BANK12  BANK13  BANK14  BANK15  BANK16  BANK17  BANK18  BANK19  BANK20  BANK21  BANK22  BANK23  BANK24  BANK25  BANK2
      +6  BANK27  BANK28  BANK29  BANK30  BANK31
  8233 ;;      Params:         0       0       0       0       0       0       0       0       0       0       0       0       
      +0       0       0       0       0       0       0       0       0       0       0       0       0       0       0       
      +0       0       0       0       0       0
  8234 ;;      Locals:         0       0       0       0       0       0       0       0       0       0       0       0       
      +0       0       0       0       0       0       0       0       0       0       0       0       0       0       0       
      +0       0       0       0       0       0
  8235 ;;      Temps:          0       0       0       0       0       0       0       0       0       0       0       0       
      +0       0       0       0       0       0       0       0       0       0       0       0       0       0       0       
      +0       0       0       0       0       0
  8236 ;;      Totals:         0       0       0       0       0       0       0       0       0       0       0       0       
      +0       0       0       0       0       0       0       0       0       0       0       0       0       0       0       
      +0       0       0       0       0       0
  8237 ;;Total ram usage:        0 bytes
  8238 ;; Hardware stack levels used:    1
  8239 ;; Hardware stack levels required when called:    3
  8240 ;; This function calls:
  8241 ;;		Nothing
  8242 ;; This function is called by:
  8243 ;;		_SYSTEM_Initialize
  8244 ;; This function uses a reentrant model
  8245 ;;
  8246                           
  8247                           	psect	text48
  8248  004B12                     __ptext48:
  8249                           	opt callstack 0
  8250  004B12                     _PMD_Initialize:
  8251                           	opt callstack 26
  8252                           
  8253                           ;mcc_generated_files/mcc.c: 90:     PMD0 = 0x00;
  8254                           
  8255                           ; BSR set to: 61
  8256                           ; autosize = 0, savesize = 0, parsavesize = 0, tempsize = 0 parsize = 0, argsize = 0 var
      +                          gsize = 0, retsize = 0 argfudge = 0
  8257                           ;incstack = 0
  8258  004B12  0139               	movlb	57	; () banked
  8259  004B14  6BC0               	clrf	192,b	;volatile
  8260                           
  8261                           ;mcc_generated_files/mcc.c: 92:     PMD1 = 0x00;
  8262  004B16  6BC1               	clrf	193,b	;volatile
  8263                           
  8264                           ;mcc_generated_files/mcc.c: 94:     PMD2 = 0x00;
  8265  004B18  6BC2               	clrf	194,b	;volatile
  8266                           
  8267                           ;mcc_generated_files/mcc.c: 96:     PMD3 = 0x00;
  8268  004B1A  6BC3               	clrf	195,b	;volatile
  8269                           
  8270                           ;mcc_generated_files/mcc.c: 98:     PMD4 = 0x00;
  8271  004B1C  6BC4               	clrf	196,b	;volatile
  8272                           
  8273                           ;mcc_generated_files/mcc.c: 100:     PMD5 = 0x00;
  8274  004B1E  6BC5               	clrf	197,b	;volatile
  8275                           
  8276                           ;mcc_generated_files/mcc.c: 102:     PMD6 = 0x00;
  8277  004B20  6BC6               	clrf	198,b	;volatile
  8278                           
  8279                           ;mcc_generated_files/mcc.c: 104:     PMD7 = 0x00;
  8280  004B22  6BC7               	clrf	199,b	;volatile
  8281                           
  8282                           ; BSR set to: 57
  8283                           ; _PMD_Initialize: autosize = 0, savesize = 0, parsavesize = 0, tempsize = 0 parsize = 0
      +                          , argsize = 0, vargsize = 0
  8284  004B24  0012               	return		;funcret
  8285  004B26                     __end_of_PMD_Initialize:
  8286                           	opt callstack 0
  8287                           
  8288 ;; *************** function _PIN_MANAGER_Initialize *****************
  8289 ;; Defined at:
  8290 ;;		line 57 in file "mcc_generated_files/pin_manager.c"
  8291 ;; Parameters:    Size  Location     Type
  8292 ;;		None
  8293 ;; Auto vars:     Size  Location     Type
  8294 ;;		None
  8295 ;; Return value:  Size  Location     Type
  8296 ;;                  1  [STACK] void 
  8297 ;; Registers used:
  8298 ;;		wreg, status,2
  8299 ;; Tracked objects:
  8300 ;;		On entry : 3F/39
  8301 ;;		On exit  : 3F/3A
  8302 ;;		Unchanged: 0/0
  8303 ;; Data sizes:     COMRAM   BANK0   BANK1   BANK2   BANK3   BANK4   BANK5   BANK6   BANK7   BANK8   BANK9  BANK10  BANK1
      +1  BANK12  BANK13  BANK14  BANK15  BANK16  BANK17  BANK18  BANK19  BANK20  BANK21  BANK22  BANK23  BANK24  BANK25  BANK2
      +6  BANK27  BANK28  BANK29  BANK30  BANK31
  8304 ;;      Params:         0       0       0       0       0       0       0       0       0       0       0       0       
      +0       0       0       0       0       0       0       0       0       0       0       0       0       0       0       
      +0       0       0       0       0       0
  8305 ;;      Locals:         0       0       0       0       0       0       0       0       0       0       0       0       
      +0       0       0       0       0       0       0       0       0       0       0       0       0       0       0       
      +0       0       0       0       0       0
  8306 ;;      Temps:          0       0       0       0       0       0       0       0       0       0       0       0       
      +0       0       0       0       0       0       0       0       0       0       0       0       0       0       0       
      +0       0       0       0       0       0
  8307 ;;      Totals:         0       0       0       0       0       0       0       0       0       0       0       0       
      +0       0       0       0       0       0       0       0       0       0       0       0       0       0       0       
      +0       0       0       0       0       0
  8308 ;;Total ram usage:        0 bytes
  8309 ;; Hardware stack levels used:    1
  8310 ;; Hardware stack levels required when called:    3
  8311 ;; This function calls:
  8312 ;;		Nothing
  8313 ;; This function is called by:
  8314 ;;		_SYSTEM_Initialize
  8315 ;; This function uses a reentrant model
  8316 ;;
  8317                           
  8318                           	psect	text49
  8319  003D8A                     __ptext49:
  8320                           	opt callstack 0
  8321  003D8A                     _PIN_MANAGER_Initialize:
  8322                           	opt callstack 26
  8323                           
  8324                           ;mcc_generated_files/pin_manager.c: 62:     LATE = 0x07;
  8325                           
  8326                           ; BSR set to: 57
  8327                           ; autosize = 0, savesize = 0, parsavesize = 0, tempsize = 0 parsize = 0, argsize = 0 var
      +                          gsize = 0, retsize = 0 argfudge = 0
  8328                           ;incstack = 0
  8329  003D8A  0E07               	movlw	7
  8330  003D8C  6EBE               	movwf	16318,c	;volatile
  8331                           
  8332                           ;mcc_generated_files/pin_manager.c: 63:     LATD = 0x00;
  8333  003D8E  6ABD               	clrf	16317,c	;volatile
  8334                           
  8335                           ;mcc_generated_files/pin_manager.c: 64:     LATA = 0x00;
  8336  003D90  6ABA               	clrf	16314,c	;volatile
  8337                           
  8338                           ;mcc_generated_files/pin_manager.c: 65:     LATF = 0x00;
  8339  003D92  6ABF               	clrf	16319,c	;volatile
  8340                           
  8341                           ;mcc_generated_files/pin_manager.c: 66:     LATB = 0x00;
  8342  003D94  6ABB               	clrf	16315,c	;volatile
  8343                           
  8344                           ;mcc_generated_files/pin_manager.c: 67:     LATC = 0x06;
  8345  003D96  0E06               	movlw	6
  8346  003D98  6EBC               	movwf	16316,c	;volatile
  8347                           
  8348                           ;mcc_generated_files/pin_manager.c: 72:     TRISE = 0x00;
  8349  003D9A  6AC6               	clrf	16326,c	;volatile
  8350                           
  8351                           ;mcc_generated_files/pin_manager.c: 73:     TRISF = 0xFF;
  8352  003D9C  68C7               	setf	16327,c	;volatile
  8353                           
  8354                           ;mcc_generated_files/pin_manager.c: 74:     TRISA = 0x8F;
  8355  003D9E  0E8F               	movlw	143
  8356  003DA0  6EC2               	movwf	16322,c	;volatile
  8357                           
  8358                           ;mcc_generated_files/pin_manager.c: 75:     TRISB = 0xBF;
  8359  003DA2  0EBF               	movlw	191
  8360  003DA4  6EC3               	movwf	16323,c	;volatile
  8361                           
  8362                           ;mcc_generated_files/pin_manager.c: 76:     TRISC = 0x91;
  8363  003DA6  0E91               	movlw	145
  8364  003DA8  6EC4               	movwf	16324,c	;volatile
  8365                           
  8366                           ;mcc_generated_files/pin_manager.c: 77:     TRISD = 0xFF;
  8367  003DAA  68C5               	setf	16325,c	;volatile
  8368                           
  8369                           ;mcc_generated_files/pin_manager.c: 82:     ANSELD = 0xFF;
  8370  003DAC  013A               	movlb	58	; () banked
  8371  003DAE  6970               	setf	112,b	;volatile
  8372                           
  8373                           ;mcc_generated_files/pin_manager.c: 83:     ANSELC = 0x01;
  8374  003DB0  0E01               	movlw	1
  8375  003DB2  6F60               	movwf	96,b	;volatile
  8376                           
  8377                           ;mcc_generated_files/pin_manager.c: 84:     ANSELB = 0x38;
  8378  003DB4  0E38               	movlw	56
  8379  003DB6  6F50               	movwf	80,b	;volatile
  8380                           
  8381                           ; BSR set to: 58
  8382                           ;mcc_generated_files/pin_manager.c: 85:     ANSELE = 0x00;
  8383  003DB8  6B80               	clrf	128,b	;volatile
  8384                           
  8385                           ; BSR set to: 58
  8386                           ;mcc_generated_files/pin_manager.c: 86:     ANSELF = 0xFF;
  8387  003DBA  6990               	setf	144,b	;volatile
  8388                           
  8389                           ;mcc_generated_files/pin_manager.c: 87:     ANSELA = 0x8F;
  8390  003DBC  0E8F               	movlw	143
  8391  003DBE  6F40               	movwf	64,b	;volatile
  8392                           
  8393                           ; BSR set to: 58
  8394                           ;mcc_generated_files/pin_manager.c: 92:     WPUD = 0x00;
  8395  003DC0  6B71               	clrf	113,b	;volatile
  8396                           
  8397                           ; BSR set to: 58
  8398                           ;mcc_generated_files/pin_manager.c: 93:     WPUF = 0x00;
  8399  003DC2  6B91               	clrf	145,b	;volatile
  8400                           
  8401                           ; BSR set to: 58
  8402                           ;mcc_generated_files/pin_manager.c: 94:     WPUE = 0x00;
  8403  003DC4  6B81               	clrf	129,b	;volatile
  8404                           
  8405                           ;mcc_generated_files/pin_manager.c: 95:     WPUB = 0x87;
  8406  003DC6  0E87               	movlw	135
  8407  003DC8  6F51               	movwf	81,b	;volatile
  8408                           
  8409                           ; BSR set to: 58
  8410                           ;mcc_generated_files/pin_manager.c: 96:     WPUA = 0x00;
  8411  003DCA  6B41               	clrf	65,b	;volatile
  8412                           
  8413                           ;mcc_generated_files/pin_manager.c: 97:     WPUC = 0x90;
  8414  003DCC  0E90               	movlw	144
  8415  003DCE  6F61               	movwf	97,b	;volatile
  8416                           
  8417                           ; BSR set to: 58
  8418                           ;mcc_generated_files/pin_manager.c: 102:     ODCONE = 0x00;
  8419  003DD0  6B82               	clrf	130,b	;volatile
  8420                           
  8421                           ; BSR set to: 58
  8422                           ;mcc_generated_files/pin_manager.c: 103:     ODCONF = 0x00;
  8423  003DD2  6B92               	clrf	146,b	;volatile
  8424                           
  8425                           ; BSR set to: 58
  8426                           ;mcc_generated_files/pin_manager.c: 104:     ODCONA = 0x00;
  8427  003DD4  6B42               	clrf	66,b	;volatile
  8428                           
  8429                           ; BSR set to: 58
  8430                           ;mcc_generated_files/pin_manager.c: 105:     ODCONB = 0x00;
  8431  003DD6  6B52               	clrf	82,b	;volatile
  8432                           
  8433                           ; BSR set to: 58
  8434                           ;mcc_generated_files/pin_manager.c: 106:     ODCONC = 0x00;
  8435  003DD8  6B62               	clrf	98,b	;volatile
  8436                           
  8437                           ; BSR set to: 58
  8438                           ;mcc_generated_files/pin_manager.c: 107:     ODCOND = 0x00;
  8439  003DDA  6B72               	clrf	114,b	;volatile
  8440                           
  8441                           ; BSR set to: 58
  8442                           ;mcc_generated_files/pin_manager.c: 112:     SLRCONA = 0xFF;
  8443  003DDC  6943               	setf	67,b	;volatile
  8444                           
  8445                           ; BSR set to: 58
  8446                           ;mcc_generated_files/pin_manager.c: 113:     SLRCONB = 0xFF;
  8447  003DDE  6953               	setf	83,b	;volatile
  8448                           
  8449                           ; BSR set to: 58
  8450                           ;mcc_generated_files/pin_manager.c: 114:     SLRCONC = 0xFF;
  8451  003DE0  6963               	setf	99,b	;volatile
  8452                           
  8453                           ; BSR set to: 58
  8454                           ;mcc_generated_files/pin_manager.c: 115:     SLRCOND = 0xFF;
  8455  003DE2  6973               	setf	115,b	;volatile
  8456                           
  8457                           ;mcc_generated_files/pin_manager.c: 116:     SLRCONE = 0x07;
  8458  003DE4  0E07               	movlw	7
  8459  003DE6  6F83               	movwf	131,b	;volatile
  8460                           
  8461                           ; BSR set to: 58
  8462                           ;mcc_generated_files/pin_manager.c: 117:     SLRCONF = 0xFF;
  8463  003DE8  6993               	setf	147,b	;volatile
  8464                           
  8465                           ;mcc_generated_files/pin_manager.c: 126:     U2RXPPS = 0x0F;
  8466  003DEA  0E0F               	movlw	15
  8467  003DEC  6FE8               	movwf	232,b	;volatile
  8468                           
  8469                           ;mcc_generated_files/pin_manager.c: 127:     RB6PPS = 0x16;
  8470  003DEE  0E16               	movlw	22
  8471  003DF0  6F0E               	movwf	14,b	;volatile
  8472                           
  8473                           ;mcc_generated_files/pin_manager.c: 128:     RC3PPS = 0x1E;
  8474  003DF2  0E1E               	movlw	30
  8475  003DF4  6F13               	movwf	19,b	;volatile
  8476                           
  8477                           ;mcc_generated_files/pin_manager.c: 129:     INT0PPS = 0x08;
  8478  003DF6  0E08               	movlw	8
  8479  003DF8  6FC0               	movwf	192,b	;volatile
  8480                           
  8481                           ;mcc_generated_files/pin_manager.c: 130:     INT2PPS = 0x0A;
  8482  003DFA  0E0A               	movlw	10
  8483  003DFC  6FC2               	movwf	194,b	;volatile
  8484                           
  8485                           ;mcc_generated_files/pin_manager.c: 131:     INT1PPS = 0x09;
  8486  003DFE  0E09               	movlw	9
  8487  003E00  6FC1               	movwf	193,b	;volatile
  8488                           
  8489                           ;mcc_generated_files/pin_manager.c: 132:     U1RXPPS = 0x17;
  8490  003E02  0E17               	movlw	23
  8491  003E04  6FE5               	movwf	229,b	;volatile
  8492                           
  8493                           ;mcc_generated_files/pin_manager.c: 133:     SPI1SCKPPS = 0x13;
  8494  003E06  0E13               	movlw	19
  8495  003E08  6FDE               	movwf	222,b	;volatile
  8496                           
  8497                           ;mcc_generated_files/pin_manager.c: 134:     RA4PPS = 0x01;
  8498  003E0A  0E01               	movlw	1
  8499  003E0C  6F04               	movwf	4,b	;volatile
  8500                           
  8501                           ;mcc_generated_files/pin_manager.c: 135:     RA5PPS = 0x26;
  8502  003E0E  0E26               	movlw	38
  8503  003E10  6F05               	movwf	5,b	;volatile
  8504                           
  8505                           ;mcc_generated_files/pin_manager.c: 136:     RA6PPS = 0x28;
  8506  003E12  0E28               	movlw	40
  8507  003E14  6F06               	movwf	6,b	;volatile
  8508                           
  8509                           ;mcc_generated_files/pin_manager.c: 137:     RC5PPS = 0x1F;
  8510  003E16  0E1F               	movlw	31
  8511  003E18  6F15               	movwf	21,b	;volatile
  8512                           
  8513                           ;mcc_generated_files/pin_manager.c: 138:     RC6PPS = 0x13;
  8514  003E1A  0E13               	movlw	19
  8515  003E1C  6F16               	movwf	22,b	;volatile
  8516                           
  8517                           ;mcc_generated_files/pin_manager.c: 139:     SPI1SDIPPS = 0x14;
  8518  003E1E  0E14               	movlw	20
  8519  003E20  6FDF               	movwf	223,b	;volatile
  8520                           
  8521                           ; BSR set to: 58
  8522                           ; _PIN_MANAGER_Initialize: autosize = 0, savesize = 0, parsavesize = 0, tempsize = 0 par
      +                          size = 0, argsize = 0, vargsize = 0
  8523  003E22  0012               	return		;funcret
  8524  003E24                     __end_of_PIN_MANAGER_Initialize:
  8525                           	opt callstack 0
  8526                           
  8527 ;; *************** function _OSCILLATOR_Initialize *****************
  8528 ;; Defined at:
  8529 ;;		line 69 in file "mcc_generated_files/mcc.c"
  8530 ;; Parameters:    Size  Location     Type
  8531 ;;		None
  8532 ;; Auto vars:     Size  Location     Type
  8533 ;;		None
  8534 ;; Return value:  Size  Location     Type
  8535 ;;                  1  [STACK] void 
  8536 ;; Registers used:
  8537 ;;		wreg, status,2
  8538 ;; Tracked objects:
  8539 ;;		On entry : 3F/3A
  8540 ;;		On exit  : 3F/39
  8541 ;;		Unchanged: 0/0
  8542 ;; Data sizes:     COMRAM   BANK0   BANK1   BANK2   BANK3   BANK4   BANK5   BANK6   BANK7   BANK8   BANK9  BANK10  BANK1
      +1  BANK12  BANK13  BANK14  BANK15  BANK16  BANK17  BANK18  BANK19  BANK20  BANK21  BANK22  BANK23  BANK24  BANK25  BANK2
      +6  BANK27  BANK28  BANK29  BANK30  BANK31
  8543 ;;      Params:         0       0       0       0       0       0       0       0       0       0       0       0       
      +0       0       0       0       0       0       0       0       0       0       0       0       0       0       0       
      +0       0       0       0       0       0
  8544 ;;      Locals:         0       0       0       0       0       0       0       0       0       0       0       0       
      +0       0       0       0       0       0       0       0       0       0       0       0       0       0       0       
      +0       0       0       0       0       0
  8545 ;;      Temps:          0       0       0       0       0       0       0       0       0       0       0       0       
      +0       0       0       0       0       0       0       0       0       0       0       0       0       0       0       
      +0       0       0       0       0       0
  8546 ;;      Totals:         0       0       0       0       0       0       0       0       0       0       0       0       
      +0       0       0       0       0       0       0       0       0       0       0       0       0       0       0       
      +0       0       0       0       0       0
  8547 ;;Total ram usage:        0 bytes
  8548 ;; Hardware stack levels used:    1
  8549 ;; Hardware stack levels required when called:    3
  8550 ;; This function calls:
  8551 ;;		Nothing
  8552 ;; This function is called by:
  8553 ;;		_SYSTEM_Initialize
  8554 ;; This function uses a reentrant model
  8555 ;;
  8556                           
  8557                           	psect	text50
  8558  004AE8                     __ptext50:
  8559                           	opt callstack 0
  8560  004AE8                     _OSCILLATOR_Initialize:
  8561                           	opt callstack 26
  8562                           
  8563                           ;mcc_generated_files/mcc.c: 72:     OSCCON1 = 0x20;
  8564                           
  8565                           ; BSR set to: 58
  8566                           ; autosize = 0, savesize = 0, parsavesize = 0, tempsize = 0 parsize = 0, argsize = 0 var
      +                          gsize = 0, retsize = 0 argfudge = 0
  8567                           ;incstack = 0
  8568  004AE8  0E20               	movlw	32
  8569  004AEA  0139               	movlb	57	; () banked
  8570  004AEC  6FD9               	movwf	217,b	;volatile
  8571                           
  8572                           ; BSR set to: 57
  8573                           ;mcc_generated_files/mcc.c: 74:     OSCCON3 = 0x00;
  8574  004AEE  6BDB               	clrf	219,b	;volatile
  8575                           
  8576                           ; BSR set to: 57
  8577                           ;mcc_generated_files/mcc.c: 76:     OSCEN = 0x00;
  8578  004AF0  6BDD               	clrf	221,b	;volatile
  8579                           
  8580                           ;mcc_generated_files/mcc.c: 78:     OSCFRQ = 0x02;
  8581  004AF2  0E02               	movlw	2
  8582  004AF4  6FDF               	movwf	223,b	;volatile
  8583                           
  8584                           ; BSR set to: 57
  8585                           ;mcc_generated_files/mcc.c: 80:     OSCTUNE = 0x00;
  8586  004AF6  6BDE               	clrf	222,b	;volatile
  8587  004AF8                     l190:
  8588                           
  8589                           ; BSR set to: 57
  8590                           ;mcc_generated_files/mcc.c: 82:     while(PLLR == 0)
  8591  004AF8  B1DC               	btfsc	220,0,b	;volatile
  8592  004AFA  0012               	return	
  8593  004AFC  D7FD               	goto	l190
  8594  004AFE                     __end_of_OSCILLATOR_Initialize:
  8595                           	opt callstack 0
  8596                           
  8597 ;; *************** function _NCO1_Initialize *****************
  8598 ;; Defined at:
  8599 ;;		line 58 in file "mcc_generated_files/nco1.c"
  8600 ;; Parameters:    Size  Location     Type
  8601 ;;		None
  8602 ;; Auto vars:     Size  Location     Type
  8603 ;;		None
  8604 ;; Return value:  Size  Location     Type
  8605 ;;                  1  [STACK] void 
  8606 ;; Registers used:
  8607 ;;		wreg, status,2
  8608 ;; Tracked objects:
  8609 ;;		On entry : 0/39
  8610 ;;		On exit  : 3F/3F
  8611 ;;		Unchanged: 0/0
  8612 ;; Data sizes:     COMRAM   BANK0   BANK1   BANK2   BANK3   BANK4   BANK5   BANK6   BANK7   BANK8   BANK9  BANK10  BANK1
      +1  BANK12  BANK13  BANK14  BANK15  BANK16  BANK17  BANK18  BANK19  BANK20  BANK21  BANK22  BANK23  BANK24  BANK25  BANK2
      +6  BANK27  BANK28  BANK29  BANK30  BANK31
  8613 ;;      Params:         0       0       0       0       0       0       0       0       0       0       0       0       
      +0       0       0       0       0       0       0       0       0       0       0       0       0       0       0       
      +0       0       0       0       0       0
  8614 ;;      Locals:         0       0       0       0       0       0       0       0       0       0       0       0       
      +0       0       0       0       0       0       0       0       0       0       0       0       0       0       0       
      +0       0       0       0       0       0
  8615 ;;      Temps:          0       0       0       0       0       0       0       0       0       0       0       0       
      +0       0       0       0       0       0       0       0       0       0       0       0       0       0       0       
      +0       0       0       0       0       0
  8616 ;;      Totals:         0       0       0       0       0       0       0       0       0       0       0       0       
      +0       0       0       0       0       0       0       0       0       0       0       0       0       0       0       
      +0       0       0       0       0       0
  8617 ;;Total ram usage:        0 bytes
  8618 ;; Hardware stack levels used:    1
  8619 ;; Hardware stack levels required when called:    3
  8620 ;; This function calls:
  8621 ;;		Nothing
  8622 ;; This function is called by:
  8623 ;;		_SYSTEM_Initialize
  8624 ;; This function uses a reentrant model
  8625 ;;
  8626                           
  8627                           	psect	text51
  8628  004A4A                     __ptext51:
  8629                           	opt callstack 0
  8630  004A4A                     _NCO1_Initialize:
  8631                           	opt callstack 26
  8632                           
  8633                           ;mcc_generated_files/nco1.c: 62:     NCO1CON = 0x00;
  8634                           
  8635                           ; BSR set to: 57
  8636                           ; autosize = 0, savesize = 0, parsavesize = 0, tempsize = 0 parsize = 0, argsize = 0 var
      +                          gsize = 0, retsize = 0 argfudge = 0
  8637                           ;incstack = 0
  8638  004A4A  013F               	movlb	63	; () banked
  8639  004A4C  6B3E               	clrf	62,b	;volatile
  8640                           
  8641                           ;mcc_generated_files/nco1.c: 64:     NCO1CLK = 0x00;
  8642  004A4E  6B3F               	clrf	63,b	;volatile
  8643                           
  8644                           ;mcc_generated_files/nco1.c: 66:     NCO1ACCU = 0x00;
  8645  004A50  6B3A               	clrf	58,b	;volatile
  8646                           
  8647                           ;mcc_generated_files/nco1.c: 68:     NCO1ACCH = 0x00;
  8648  004A52  6B39               	clrf	57,b	;volatile
  8649                           
  8650                           ;mcc_generated_files/nco1.c: 70:     NCO1ACCL = 0x00;
  8651  004A54  6B38               	clrf	56,b	;volatile
  8652                           
  8653                           ; BSR set to: 63
  8654                           ;mcc_generated_files/nco1.c: 72:     NCO1INCU = 0x06;
  8655  004A56  0E06               	movlw	6
  8656  004A58  6F3D               	movwf	61,b	;volatile
  8657                           
  8658                           ;mcc_generated_files/nco1.c: 74:     NCO1INCH = 0xC7;
  8659  004A5A  0EC7               	movlw	199
  8660  004A5C  6F3C               	movwf	60,b	;volatile
  8661                           
  8662                           ;mcc_generated_files/nco1.c: 76:     NCO1INCL = 0xAE;
  8663  004A5E  0EAE               	movlw	174
  8664  004A60  6F3B               	movwf	59,b	;volatile
  8665                           
  8666                           ; BSR set to: 63
  8667                           ;mcc_generated_files/nco1.c: 79:     NCO1CONbits.EN = 1;
  8668  004A62  8F3E               	bsf	62,7,b	;volatile
  8669                           
  8670                           ; BSR set to: 63
  8671                           ; _NCO1_Initialize: autosize = 0, savesize = 0, parsavesize = 0, tempsize = 0 parsize = 
      +                          0, argsize = 0, vargsize = 0
  8672  004A64  0012               	return		;funcret
  8673  004A66                     __end_of_NCO1_Initialize:
  8674                           	opt callstack 0
  8675                           
  8676 ;; *************** function _INTERRUPT_Initialize *****************
  8677 ;; Defined at:
  8678 ;;		line 52 in file "mcc_generated_files/interrupt_manager.c"
  8679 ;; Parameters:    Size  Location     Type
  8680 ;;		None
  8681 ;; Auto vars:     Size  Location     Type
  8682 ;;  state           1  [STACK] _Bool 
  8683 ;; Return value:  Size  Location     Type
  8684 ;;                  1  [STACK] void 
  8685 ;; Registers used:
  8686 ;;		wreg, fsr1l, fsr1h, status,2, btemp+11
  8687 ;; Tracked objects:
  8688 ;;		On entry : 0/0
  8689 ;;		On exit  : 3F/39
  8690 ;;		Unchanged: 0/0
  8691 ;; Data sizes:     COMRAM   BANK0   BANK1   BANK2   BANK3   BANK4   BANK5   BANK6   BANK7   BANK8   BANK9  BANK10  BANK1
      +1  BANK12  BANK13  BANK14  BANK15  BANK16  BANK17  BANK18  BANK19  BANK20  BANK21  BANK22  BANK23  BANK24  BANK25  BANK2
      +6  BANK27  BANK28  BANK29  BANK30  BANK31
  8692 ;;      Params:         0       0       0       0       0       0       0       0       0       0       0       0       
      +0       0       0       0       0       0       0       0       0       0       0       0       0       0       0       
      +0       0       0       0       0       0
  8693 ;;      Locals:         0       0       0       0       0       0       0       0       0       0       0       0       
      +0       0       0       0       0       0       0       0       0       0       0       0       0       0       0       
      +0       0       0       0       0       0
  8694 ;;      Temps:          0       0       0       0       0       0       0       0       0       0       0       0       
      +0       0       0       0       0       0       0       0       0       0       0       0       0       0       0       
      +0       0       0       0       0       0
  8695 ;;      Totals:         0       0       0       0       0       0       0       0       0       0       0       0       
      +0       0       0       0       0       0       0       0       0       0       0       0       0       0       0       
      +0       0       0       0       0       0
  8696 ;;Total ram usage:        0 bytes
  8697 ;; Hardware stack levels used:    1
  8698 ;; Hardware stack levels required when called:    3
  8699 ;; This function calls:
  8700 ;;		Nothing
  8701 ;; This function is called by:
  8702 ;;		_SYSTEM_Initialize
  8703 ;; This function uses a reentrant model
  8704 ;;
  8705                           
  8706                           	psect	text52
  8707  004272                     __ptext52:
  8708                           	opt callstack 0
  8709  004272                     _INTERRUPT_Initialize:
  8710                           	opt callstack 0
  8711                           
  8712                           ; BSR set to: 63
  8713                           ; autosize = 1, savesize = 0, parsavesize = 0, tempsize = 0 parsize = 0, argsize = 0 var
      +                          gsize = 0, retsize = 0 argfudge = 0
  8714  004272  52E6               	movf	postinc1,f,c
  8715                           
  8716                           ;mcc_generated_files/interrupt_manager.c: 54:     INTCON0bits.IPEN = 1;
  8717                           
  8718                           ;incstack = 0
  8719  004274  8AD2               	bsf	16338,5,c	;volatile
  8720                           
  8721                           ;mcc_generated_files/interrupt_manager.c: 56:     _Bool state = (unsigned char)GIE;
  8722  004276  AED2               	btfss	16338,7,c	;volatile
  8723  004278  D003               	goto	u2490
  8724  00427A  6A47               	clrf	btemp+11,c
  8725  00427C  2A47               	incf	btemp+11,f,c
  8726  00427E  D001               	goto	u2508
  8727  004280                     u2490:
  8728  004280  6A47               	clrf	btemp+11,c
  8729  004282                     u2508:
  8730                           
  8731                           ;stkvar	_state @ sp[(-1)+0]
  8732  004282  0EFF               	movlw	-1
  8733  004284  0060  F11F  FFE3   	movff	btemp+11,plusw1
  8734                           
  8735                           ;mcc_generated_files/interrupt_manager.c: 57:     GIE = 0;
  8736  00428A  9ED2               	bcf	16338,7,c	;volatile
  8737                           
  8738                           ;mcc_generated_files/interrupt_manager.c: 58:     IVTLOCK = 0x55;
  8739  00428C  0E55               	movlw	85
  8740  00428E  6ED4               	movwf	16340,c	;volatile
  8741                           
  8742                           ;mcc_generated_files/interrupt_manager.c: 59:     IVTLOCK = 0xAA;
  8743  004290  0EAA               	movlw	170
  8744  004292  6ED4               	movwf	16340,c	;volatile
  8745                           
  8746                           ;mcc_generated_files/interrupt_manager.c: 60:     IVTLOCKbits.IVTLOCKED = 0x00;
  8747  004294  90D4               	bcf	16340,0,c	;volatile
  8748                           
  8749                           ;mcc_generated_files/interrupt_manager.c: 62:     IVTADU = 0;
  8750  004296  0138               	movlb	56	; () banked
  8751  004298  6B9F               	clrf	159,b	;volatile
  8752                           
  8753                           ; BSR set to: 56
  8754                           ;mcc_generated_files/interrupt_manager.c: 63:     IVTADH = 0;
  8755  00429A  6B9E               	clrf	158,b	;volatile
  8756                           
  8757                           ; BSR set to: 56
  8758                           ;mcc_generated_files/interrupt_manager.c: 64:     IVTADL = 8;
  8759  00429C  0E08               	movlw	8
  8760  00429E  6F9D               	movwf	157,b	;volatile
  8761                           
  8762                           ; BSR set to: 56
  8763                           ;mcc_generated_files/interrupt_manager.c: 66:     IVTLOCK = 0x55;
  8764  0042A0  0E55               	movlw	85
  8765  0042A2  6ED4               	movwf	16340,c	;volatile
  8766                           
  8767                           ; BSR set to: 56
  8768                           ;mcc_generated_files/interrupt_manager.c: 67:     IVTLOCK = 0xAA;
  8769  0042A4  0EAA               	movlw	170
  8770  0042A6  6ED4               	movwf	16340,c	;volatile
  8771                           
  8772                           ; BSR set to: 56
  8773                           ;mcc_generated_files/interrupt_manager.c: 68:     IVTLOCKbits.IVTLOCKED = 0x01;
  8774  0042A8  80D4               	bsf	16340,0,c	;volatile
  8775                           
  8776                           ; BSR set to: 56
  8777                           ;mcc_generated_files/interrupt_manager.c: 70:     GIE = state;
  8778                           ;stkvar	_state @ sp[(-1)+0]
  8779  0042AA  0EFF               	movlw	-1
  8780  0042AC  B0E3               	btfsc	plusw1,0,c
  8781  0042AE  D002               	bra	u2515
  8782  0042B0  9ED2               	bcf	16338,7,c	;volatile
  8783  0042B2  D001               	bra	u2516
  8784  0042B4                     u2515:
  8785  0042B4  8ED2               	bsf	16338,7,c	;volatile
  8786  0042B6                     u2516:
  8787                           
  8788                           ;mcc_generated_files/interrupt_manager.c: 72:     IPR2bits.DMA1AIP = 1;
  8789  0042B6  0139               	movlb	57	; () banked
  8790  0042B8  8782               	bsf	130,3,b	;volatile
  8791                           
  8792                           ; BSR set to: 57
  8793                           ;mcc_generated_files/interrupt_manager.c: 73:     IPR2bits.DMA1DCNTIP = 1;
  8794  0042BA  8382               	bsf	130,1,b	;volatile
  8795                           
  8796                           ; BSR set to: 57
  8797                           ;mcc_generated_files/interrupt_manager.c: 74:     IPR2bits.DMA1SCNTIP = 1;
  8798  0042BC  8182               	bsf	130,0,b	;volatile
  8799                           
  8800                           ; BSR set to: 57
  8801                           ;mcc_generated_files/interrupt_manager.c: 75:     IPR2bits.DMA1ORIP = 1;
  8802  0042BE  8582               	bsf	130,2,b	;volatile
  8803                           
  8804                           ; BSR set to: 57
  8805                           ;mcc_generated_files/interrupt_manager.c: 76:     IPR6bits.U2TXIP = 1;
  8806  0042C0  8786               	bsf	134,3,b	;volatile
  8807                           
  8808                           ; BSR set to: 57
  8809                           ;mcc_generated_files/interrupt_manager.c: 77:     IPR6bits.U2RXIP = 1;
  8810  0042C2  8586               	bsf	134,2,b	;volatile
  8811                           
  8812                           ; BSR set to: 57
  8813                           ;mcc_generated_files/interrupt_manager.c: 78:     IPR3bits.U1TXIP = 1;
  8814  0042C4  8983               	bsf	131,4,b	;volatile
  8815                           
  8816                           ; BSR set to: 57
  8817                           ;mcc_generated_files/interrupt_manager.c: 79:     IPR3bits.U1RXIP = 1;
  8818  0042C6  8783               	bsf	131,3,b	;volatile
  8819                           
  8820                           ; BSR set to: 57
  8821                           ;mcc_generated_files/interrupt_manager.c: 80:     IPR1bits.INT0IP = 1;
  8822  0042C8  8181               	bsf	129,0,b	;volatile
  8823                           
  8824                           ; BSR set to: 57
  8825                           ;mcc_generated_files/interrupt_manager.c: 81:     IPR5bits.INT1IP = 1;
  8826  0042CA  8185               	bsf	133,0,b	;volatile
  8827                           
  8828                           ; BSR set to: 57
  8829                           ;mcc_generated_files/interrupt_manager.c: 82:     IPR7bits.INT2IP = 1;
  8830  0042CC  8B87               	bsf	135,5,b	;volatile
  8831                           
  8832                           ; BSR set to: 57
  8833                           ;mcc_generated_files/interrupt_manager.c: 83:     IPR9bits.TMR6IP = 1;
  8834  0042CE  8189               	bsf	137,0,b	;volatile
  8835                           
  8836                           ; BSR set to: 57
  8837                           ;mcc_generated_files/interrupt_manager.c: 84:     IPR1bits.ADIP = 1;
  8838  0042D0  8581               	bsf	129,2,b	;volatile
  8839                           
  8840                           ; BSR set to: 57
  8841                           ; _INTERRUPT_Initialize: autosize = 1, savesize = 0, parsavesize = 0, tempsize = 0 parsi
      +                          ze = 0, argsize = 0, vargsize = 0
  8842  0042D2  52E5               	movf	postdec1,f,c
  8843  0042D4  0012               	return		;funcret
  8844  0042D6                     __end_of_INTERRUPT_Initialize:
  8845                           	opt callstack 0
  8846                           
  8847 ;; *************** function _EXT_INT_Initialize *****************
  8848 ;; Defined at:
  8849 ;;		line 114 in file "mcc_generated_files/ext_int.c"
  8850 ;; Parameters:    Size  Location     Type
  8851 ;;		None
  8852 ;; Auto vars:     Size  Location     Type
  8853 ;;		None
  8854 ;; Return value:  Size  Location     Type
  8855 ;;                  1  [STACK] void 
  8856 ;; Registers used:
  8857 ;;		wreg, fsr1l, fsr1h, fsr2l, fsr2h
  8858 ;; Tracked objects:
  8859 ;;		On entry : 3F/3F
  8860 ;;		On exit  : 3F/39
  8861 ;;		Unchanged: 0/0
  8862 ;; Data sizes:     COMRAM   BANK0   BANK1   BANK2   BANK3   BANK4   BANK5   BANK6   BANK7   BANK8   BANK9  BANK10  BANK1
      +1  BANK12  BANK13  BANK14  BANK15  BANK16  BANK17  BANK18  BANK19  BANK20  BANK21  BANK22  BANK23  BANK24  BANK25  BANK2
      +6  BANK27  BANK28  BANK29  BANK30  BANK31
  8863 ;;      Params:         0       0       0       0       0       0       0       0       0       0       0       0       
      +0       0       0       0       0       0       0       0       0       0       0       0       0       0       0       
      +0       0       0       0       0       0
  8864 ;;      Locals:         0       0       0       0       0       0       0       0       0       0       0       0       
      +0       0       0       0       0       0       0       0       0       0       0       0       0       0       0       
      +0       0       0       0       0       0
  8865 ;;      Temps:          0       0       0       0       0       0       0       0       0       0       0       0       
      +0       0       0       0       0       0       0       0       0       0       0       0       0       0       0       
      +0       0       0       0       0       0
  8866 ;;      Totals:         0       0       0       0       0       0       0       0       0       0       0       0       
      +0       0       0       0       0       0       0       0       0       0       0       0       0       0       0       
      +0       0       0       0       0       0
  8867 ;;Total ram usage:        0 bytes
  8868 ;; Hardware stack levels used:    1
  8869 ;; Hardware stack levels required when called:    4
  8870 ;; This function calls:
  8871 ;;		_INT0_SetInterruptHandler
  8872 ;;		_INT1_SetInterruptHandler
  8873 ;;		_INT2_SetInterruptHandler
  8874 ;; This function is called by:
  8875 ;;		_SYSTEM_Initialize
  8876 ;; This function uses a reentrant model
  8877 ;;
  8878                           
  8879                           	psect	text53
  8880  0043F2                     __ptext53:
  8881                           	opt callstack 0
  8882  0043F2                     _EXT_INT_Initialize:
  8883                           	opt callstack 25
  8884                           
  8885                           ;mcc_generated_files/ext_int.c: 119:     (PIR1bits.INT0IF = 0);
  8886                           
  8887                           ; BSR set to: 57
  8888                           ; autosize = 0, savesize = 0, parsavesize = 0, tempsize = 0 parsize = 0, argsize = 0 var
      +                          gsize = 0, retsize = 0 argfudge = 0
  8889                           ;incstack = 0
  8890  0043F2  0139               	movlb	57	; () banked
  8891  0043F4  91A1               	bcf	161,0,b	;volatile
  8892                           
  8893                           ;mcc_generated_files/ext_int.c: 120:     (INTCON0bits.INT0EDG = 0);
  8894  0043F6  90D2               	bcf	16338,0,c	;volatile
  8895                           
  8896                           ; BSR set to: 57
  8897                           ;mcc_generated_files/ext_int.c: 122:     INT0_SetInterruptHandler(INT0_DefaultInterruptH
      +                          andler);
  8898  0043F8  0EB6               	movlw	low _INT0_DefaultInterruptHandler
  8899  0043FA  6EE6               	movwf	postinc1,c
  8900  0043FC  0E4B               	movlw	high _INT0_DefaultInterruptHandler
  8901  0043FE  6EE6               	movwf	postinc1,c
  8902  004400  0E00               	movlw	low (_INT0_DefaultInterruptHandler shr (0+16))
  8903  004402  6EE6               	movwf	postinc1,c
  8904  004404  EC15  F024         	call	_INT0_SetInterruptHandler	;wreg free
  8905                           
  8906                           ;mcc_generated_files/ext_int.c: 123:     (PIE1bits.INT0IE = 1);
  8907  004408  0139               	movlb	57	; () banked
  8908  00440A  8191               	bsf	145,0,b	;volatile
  8909                           
  8910                           ; BSR set to: 57
  8911                           ;mcc_generated_files/ext_int.c: 128:     (PIR5bits.INT1IF = 0);
  8912  00440C  91A5               	bcf	165,0,b	;volatile
  8913                           
  8914                           ; BSR set to: 57
  8915                           ;mcc_generated_files/ext_int.c: 129:     (INTCON0bits.INT1EDG = 0);
  8916  00440E  92D2               	bcf	16338,1,c	;volatile
  8917                           
  8918                           ;mcc_generated_files/ext_int.c: 131:     INT1_SetInterruptHandler(INT1_DefaultInterruptH
      +                          andler);
  8919  004410  0EB8               	movlw	low _INT1_DefaultInterruptHandler
  8920  004412  6EE6               	movwf	postinc1,c
  8921  004414  0E4B               	movlw	high _INT1_DefaultInterruptHandler
  8922  004416  6EE6               	movwf	postinc1,c
  8923  004418  0E00               	movlw	low (_INT1_DefaultInterruptHandler shr (0+16))
  8924  00441A  6EE6               	movwf	postinc1,c
  8925  00441C  EC01  F024         	call	_INT1_SetInterruptHandler	;wreg free
  8926                           
  8927                           ;mcc_generated_files/ext_int.c: 132:     (PIE5bits.INT1IE = 1);
  8928  004420  0139               	movlb	57	; () banked
  8929  004422  8195               	bsf	149,0,b	;volatile
  8930                           
  8931                           ; BSR set to: 57
  8932                           ;mcc_generated_files/ext_int.c: 137:     (PIR7bits.INT2IF = 0);
  8933  004424  9BA7               	bcf	167,5,b	;volatile
  8934                           
  8935                           ; BSR set to: 57
  8936                           ;mcc_generated_files/ext_int.c: 138:     (INTCON0bits.INT2EDG = 0);
  8937  004426  94D2               	bcf	16338,2,c	;volatile
  8938                           
  8939                           ;mcc_generated_files/ext_int.c: 140:     INT2_SetInterruptHandler(INT2_DefaultInterruptH
      +                          andler);
  8940  004428  0EBA               	movlw	low _INT2_DefaultInterruptHandler
  8941  00442A  6EE6               	movwf	postinc1,c
  8942  00442C  0E4B               	movlw	high _INT2_DefaultInterruptHandler
  8943  00442E  6EE6               	movwf	postinc1,c
  8944  004430  0E00               	movlw	low (_INT2_DefaultInterruptHandler shr (0+16))
  8945  004432  6EE6               	movwf	postinc1,c
  8946  004434  ECED  F023         	call	_INT2_SetInterruptHandler	;wreg free
  8947                           
  8948                           ;mcc_generated_files/ext_int.c: 141:     (PIE7bits.INT2IE = 1);
  8949  004438  0139               	movlb	57	; () banked
  8950  00443A  8B97               	bsf	151,5,b	;volatile
  8951                           
  8952                           ; BSR set to: 57
  8953                           ; _EXT_INT_Initialize: autosize = 0, savesize = 0, parsavesize = 0, tempsize = 0 parsize
      +                           = 0, argsize = 0, vargsize = 0
  8954  00443C  0012               	return		;funcret
  8955  00443E                     __end_of_EXT_INT_Initialize:
  8956                           	opt callstack 0
  8957                           
  8958 ;; *************** function _INT2_SetInterruptHandler *****************
  8959 ;; Defined at:
  8960 ;;		line 105 in file "mcc_generated_files/ext_int.c"
  8961 ;; Parameters:    Size  Location     Type
  8962 ;;  InterruptHan    3  [STACK] PTR FTN()void 
  8963 ;;		 -> INT2_DefaultInterruptHandler(1), 
  8964 ;; Auto vars:     Size  Location     Type
  8965 ;;		None
  8966 ;; Return value:  Size  Location     Type
  8967 ;;                  1  [STACK] void 
  8968 ;; Registers used:
  8969 ;;		wreg, fsr1l, fsr1h, fsr2l, fsr2h
  8970 ;; Tracked objects:
  8971 ;;		On entry : 3F/39
  8972 ;;		On exit  : 0/0
  8973 ;;		Unchanged: 0/0
  8974 ;; Data sizes:     COMRAM   BANK0   BANK1   BANK2   BANK3   BANK4   BANK5   BANK6   BANK7   BANK8   BANK9  BANK10  BANK1
      +1  BANK12  BANK13  BANK14  BANK15  BANK16  BANK17  BANK18  BANK19  BANK20  BANK21  BANK22  BANK23  BANK24  BANK25  BANK2
      +6  BANK27  BANK28  BANK29  BANK30  BANK31
  8975 ;;      Params:         0       0       0       0       0       0       0       0       0       0       0       0       
      +0       0       0       0       0       0       0       0       0       0       0       0       0       0       0       
      +0       0       0       0       0       0
  8976 ;;      Locals:         0       0       0       0       0       0       0       0       0       0       0       0       
      +0       0       0       0       0       0       0       0       0       0       0       0       0       0       0       
      +0       0       0       0       0       0
  8977 ;;      Temps:          0       0       0       0       0       0       0       0       0       0       0       0       
      +0       0       0       0       0       0       0       0       0       0       0       0       0       0       0       
      +0       0       0       0       0       0
  8978 ;;      Totals:         0       0       0       0       0       0       0       0       0       0       0       0       
      +0       0       0       0       0       0       0       0       0       0       0       0       0       0       0       
      +0       0       0       0       0       0
  8979 ;;Total ram usage:        0 bytes
  8980 ;; Hardware stack levels used:    1
  8981 ;; Hardware stack levels required when called:    3
  8982 ;; This function calls:
  8983 ;;		Nothing
  8984 ;; This function is called by:
  8985 ;;		_EXT_INT_Initialize
  8986 ;; This function uses a reentrant model
  8987 ;;
  8988                           
  8989                           	psect	text54
  8990  0047DA                     __ptext54:
  8991                           	opt callstack 0
  8992  0047DA                     _INT2_SetInterruptHandler:
  8993                           	opt callstack 25
  8994                           
  8995                           ;mcc_generated_files/ext_int.c: 106:     INT2_InterruptHandler = InterruptHandler;
  8996                           ;stkvar	_InterruptHandler @ sp[(0)+-3]
  8997                           
  8998                           ; BSR set to: 57
  8999                           ; autosize = 0, savesize = 0, parsavesize = 0, tempsize = 0 parsize = 3, argsize = 3 var
      +                          gsize = 0, retsize = 0 argfudge = 0
  9000                           ;incstack = 0
  9001  0047DA  50E1               	movf	fsr1l,w,c
  9002  0047DC  0FFD               	addlw	-3
  9003  0047DE  6ED9               	movwf	fsr2l,c
  9004  0047E0  50E2               	movf	fsr1h,w,c
  9005  0047E2  6EDA               	movwf	fsr2h,c
  9006  0047E4  0EFF               	movlw	255
  9007  0047E6  22DA               	addwfc	fsr2h,f,c
  9008  0047E8  006F FF78  F01F    	movff	postinc2,_INT2_InterruptHandler
  9009  0047EE  006F FF78  F020    	movff	postinc2,_INT2_InterruptHandler+1
  9010  0047F4  006F FF74  F021    	movff	postdec2,_INT2_InterruptHandler+2
  9011                           
  9012                           ; _INT2_SetInterruptHandler: autosize = 0, savesize = 0, parsavesize = 0, tempsize = 0 p
      +                          arsize = 3, argsize = 3, vargsize = 0
  9013  0047FA  52E5               	movf	postdec1,f,c
  9014  0047FC  52E5               	movf	postdec1,f,c
  9015  0047FE  52E5               	movf	postdec1,f,c
  9016  004800  0012               	return		;funcret
  9017  004802                     __end_of_INT2_SetInterruptHandler:
  9018                           	opt callstack 0
  9019                           
  9020 ;; *************** function _INT1_SetInterruptHandler *****************
  9021 ;; Defined at:
  9022 ;;		line 79 in file "mcc_generated_files/ext_int.c"
  9023 ;; Parameters:    Size  Location     Type
  9024 ;;  InterruptHan    3  [STACK] PTR FTN()void 
  9025 ;;		 -> INT1_DefaultInterruptHandler(1), 
  9026 ;; Auto vars:     Size  Location     Type
  9027 ;;		None
  9028 ;; Return value:  Size  Location     Type
  9029 ;;                  1  [STACK] void 
  9030 ;; Registers used:
  9031 ;;		wreg, fsr1l, fsr1h, fsr2l, fsr2h
  9032 ;; Tracked objects:
  9033 ;;		On entry : 3F/39
  9034 ;;		On exit  : 0/0
  9035 ;;		Unchanged: 0/0
  9036 ;; Data sizes:     COMRAM   BANK0   BANK1   BANK2   BANK3   BANK4   BANK5   BANK6   BANK7   BANK8   BANK9  BANK10  BANK1
      +1  BANK12  BANK13  BANK14  BANK15  BANK16  BANK17  BANK18  BANK19  BANK20  BANK21  BANK22  BANK23  BANK24  BANK25  BANK2
      +6  BANK27  BANK28  BANK29  BANK30  BANK31
  9037 ;;      Params:         0       0       0       0       0       0       0       0       0       0       0       0       
      +0       0       0       0       0       0       0       0       0       0       0       0       0       0       0       
      +0       0       0       0       0       0
  9038 ;;      Locals:         0       0       0       0       0       0       0       0       0       0       0       0       
      +0       0       0       0       0       0       0       0       0       0       0       0       0       0       0       
      +0       0       0       0       0       0
  9039 ;;      Temps:          0       0       0       0       0       0       0       0       0       0       0       0       
      +0       0       0       0       0       0       0       0       0       0       0       0       0       0       0       
      +0       0       0       0       0       0
  9040 ;;      Totals:         0       0       0       0       0       0       0       0       0       0       0       0       
      +0       0       0       0       0       0       0       0       0       0       0       0       0       0       0       
      +0       0       0       0       0       0
  9041 ;;Total ram usage:        0 bytes
  9042 ;; Hardware stack levels used:    1
  9043 ;; Hardware stack levels required when called:    3
  9044 ;; This function calls:
  9045 ;;		Nothing
  9046 ;; This function is called by:
  9047 ;;		_EXT_INT_Initialize
  9048 ;; This function uses a reentrant model
  9049 ;;
  9050                           
  9051                           	psect	text55
  9052  004802                     __ptext55:
  9053                           	opt callstack 0
  9054  004802                     _INT1_SetInterruptHandler:
  9055                           	opt callstack 25
  9056                           
  9057                           ;mcc_generated_files/ext_int.c: 80:     INT1_InterruptHandler = InterruptHandler;
  9058                           ;stkvar	_InterruptHandler @ sp[(0)+-3]
  9059                           
  9060                           ; autosize = 0, savesize = 0, parsavesize = 0, tempsize = 0 parsize = 3, argsize = 3 var
      +                          gsize = 0, retsize = 0 argfudge = 0
  9061                           ;incstack = 0
  9062  004802  50E1               	movf	fsr1l,w,c
  9063  004804  0FFD               	addlw	-3
  9064  004806  6ED9               	movwf	fsr2l,c
  9065  004808  50E2               	movf	fsr1h,w,c
  9066  00480A  6EDA               	movwf	fsr2h,c
  9067  00480C  0EFF               	movlw	255
  9068  00480E  22DA               	addwfc	fsr2h,f,c
  9069  004810  006F FF78  F022    	movff	postinc2,_INT1_InterruptHandler
  9070  004816  006F FF78  F023    	movff	postinc2,_INT1_InterruptHandler+1
  9071  00481C  006F FF74  F024    	movff	postdec2,_INT1_InterruptHandler+2
  9072                           
  9073                           ; _INT1_SetInterruptHandler: autosize = 0, savesize = 0, parsavesize = 0, tempsize = 0 p
      +                          arsize = 3, argsize = 3, vargsize = 0
  9074  004822  52E5               	movf	postdec1,f,c
  9075  004824  52E5               	movf	postdec1,f,c
  9076  004826  52E5               	movf	postdec1,f,c
  9077  004828  0012               	return		;funcret
  9078  00482A                     __end_of_INT1_SetInterruptHandler:
  9079                           	opt callstack 0
  9080                           
  9081 ;; *************** function _INT0_SetInterruptHandler *****************
  9082 ;; Defined at:
  9083 ;;		line 53 in file "mcc_generated_files/ext_int.c"
  9084 ;; Parameters:    Size  Location     Type
  9085 ;;  InterruptHan    3  [STACK] PTR FTN()void 
  9086 ;;		 -> INT0_DefaultInterruptHandler(1), 
  9087 ;; Auto vars:     Size  Location     Type
  9088 ;;		None
  9089 ;; Return value:  Size  Location     Type
  9090 ;;                  1  [STACK] void 
  9091 ;; Registers used:
  9092 ;;		wreg, fsr1l, fsr1h, fsr2l, fsr2h
  9093 ;; Tracked objects:
  9094 ;;		On entry : 3F/39
  9095 ;;		On exit  : 0/0
  9096 ;;		Unchanged: 0/0
  9097 ;; Data sizes:     COMRAM   BANK0   BANK1   BANK2   BANK3   BANK4   BANK5   BANK6   BANK7   BANK8   BANK9  BANK10  BANK1
      +1  BANK12  BANK13  BANK14  BANK15  BANK16  BANK17  BANK18  BANK19  BANK20  BANK21  BANK22  BANK23  BANK24  BANK25  BANK2
      +6  BANK27  BANK28  BANK29  BANK30  BANK31
  9098 ;;      Params:         0       0       0       0       0       0       0       0       0       0       0       0       
      +0       0       0       0       0       0       0       0       0       0       0       0       0       0       0       
      +0       0       0       0       0       0
  9099 ;;      Locals:         0       0       0       0       0       0       0       0       0       0       0       0       
      +0       0       0       0       0       0       0       0       0       0       0       0       0       0       0       
      +0       0       0       0       0       0
  9100 ;;      Temps:          0       0       0       0       0       0       0       0       0       0       0       0       
      +0       0       0       0       0       0       0       0       0       0       0       0       0       0       0       
      +0       0       0       0       0       0
  9101 ;;      Totals:         0       0       0       0       0       0       0       0       0       0       0       0       
      +0       0       0       0       0       0       0       0       0       0       0       0       0       0       0       
      +0       0       0       0       0       0
  9102 ;;Total ram usage:        0 bytes
  9103 ;; Hardware stack levels used:    1
  9104 ;; Hardware stack levels required when called:    3
  9105 ;; This function calls:
  9106 ;;		Nothing
  9107 ;; This function is called by:
  9108 ;;		_EXT_INT_Initialize
  9109 ;; This function uses a reentrant model
  9110 ;;
  9111                           
  9112                           	psect	text56
  9113  00482A                     __ptext56:
  9114                           	opt callstack 0
  9115  00482A                     _INT0_SetInterruptHandler:
  9116                           	opt callstack 25
  9117                           
  9118                           ;mcc_generated_files/ext_int.c: 54:     INT0_InterruptHandler = InterruptHandler;
  9119                           ;stkvar	_InterruptHandler @ sp[(0)+-3]
  9120                           
  9121                           ; autosize = 0, savesize = 0, parsavesize = 0, tempsize = 0 parsize = 3, argsize = 3 var
      +                          gsize = 0, retsize = 0 argfudge = 0
  9122                           ;incstack = 0
  9123  00482A  50E1               	movf	fsr1l,w,c
  9124  00482C  0FFD               	addlw	-3
  9125  00482E  6ED9               	movwf	fsr2l,c
  9126  004830  50E2               	movf	fsr1h,w,c
  9127  004832  6EDA               	movwf	fsr2h,c
  9128  004834  0EFF               	movlw	255
  9129  004836  22DA               	addwfc	fsr2h,f,c
  9130  004838  006F FF78  F025    	movff	postinc2,_INT0_InterruptHandler
  9131  00483E  006F FF78  F026    	movff	postinc2,_INT0_InterruptHandler+1
  9132  004844  006F FF74  F027    	movff	postdec2,_INT0_InterruptHandler+2
  9133                           
  9134                           ; _INT0_SetInterruptHandler: autosize = 0, savesize = 0, parsavesize = 0, tempsize = 0 p
      +                          arsize = 3, argsize = 3, vargsize = 0
  9135  00484A  52E5               	movf	postdec1,f,c
  9136  00484C  52E5               	movf	postdec1,f,c
  9137  00484E  52E5               	movf	postdec1,f,c
  9138  004850  0012               	return		;funcret
  9139  004852                     __end_of_INT0_SetInterruptHandler:
  9140                           	opt callstack 0
  9141                           
  9142 ;; *************** function _DSM_Initialize *****************
  9143 ;; Defined at:
  9144 ;;		line 58 in file "mcc_generated_files/dsm.c"
  9145 ;; Parameters:    Size  Location     Type
  9146 ;;		None
  9147 ;; Auto vars:     Size  Location     Type
  9148 ;;		None
  9149 ;; Return value:  Size  Location     Type
  9150 ;;                  1  [STACK] void 
  9151 ;; Registers used:
  9152 ;;		wreg, status,2
  9153 ;; Tracked objects:
  9154 ;;		On entry : 3F/3C
  9155 ;;		On exit  : 3F/3C
  9156 ;;		Unchanged: 0/0
  9157 ;; Data sizes:     COMRAM   BANK0   BANK1   BANK2   BANK3   BANK4   BANK5   BANK6   BANK7   BANK8   BANK9  BANK10  BANK1
      +1  BANK12  BANK13  BANK14  BANK15  BANK16  BANK17  BANK18  BANK19  BANK20  BANK21  BANK22  BANK23  BANK24  BANK25  BANK2
      +6  BANK27  BANK28  BANK29  BANK30  BANK31
  9158 ;;      Params:         0       0       0       0       0       0       0       0       0       0       0       0       
      +0       0       0       0       0       0       0       0       0       0       0       0       0       0       0       
      +0       0       0       0       0       0
  9159 ;;      Locals:         0       0       0       0       0       0       0       0       0       0       0       0       
      +0       0       0       0       0       0       0       0       0       0       0       0       0       0       0       
      +0       0       0       0       0       0
  9160 ;;      Temps:          0       0       0       0       0       0       0       0       0       0       0       0       
      +0       0       0       0       0       0       0       0       0       0       0       0       0       0       0       
      +0       0       0       0       0       0
  9161 ;;      Totals:         0       0       0       0       0       0       0       0       0       0       0       0       
      +0       0       0       0       0       0       0       0       0       0       0       0       0       0       0       
      +0       0       0       0       0       0
  9162 ;;Total ram usage:        0 bytes
  9163 ;; Hardware stack levels used:    1
  9164 ;; Hardware stack levels required when called:    3
  9165 ;; This function calls:
  9166 ;;		Nothing
  9167 ;; This function is called by:
  9168 ;;		_SYSTEM_Initialize
  9169 ;; This function uses a reentrant model
  9170 ;;
  9171                           
  9172                           	psect	text57
  9173  004A66                     __ptext57:
  9174                           	opt callstack 0
  9175  004A66                     _DSM_Initialize:
  9176                           	opt callstack 26
  9177                           
  9178                           ;mcc_generated_files/dsm.c: 63:     MD1CON0bits.MD1OPOL = 0;
  9179                           
  9180                           ; autosize = 0, savesize = 0, parsavesize = 0, tempsize = 0 parsize = 0, argsize = 0 var
      +                          gsize = 0, retsize = 0 argfudge = 0
  9181                           ;incstack = 0
  9182  004A66  013C               	movlb	60	; () banked
  9183  004A68  99FA               	bcf	250,4,b	;volatile
  9184                           
  9185                           ;mcc_generated_files/dsm.c: 66:     MD1CON1bits.MD1CLSYNC = 1;
  9186  004A6A  81FB               	bsf	251,0,b	;volatile
  9187                           
  9188                           ;mcc_generated_files/dsm.c: 69:     MD1CON1bits.MD1CLPOL = 0;
  9189  004A6C  93FB               	bcf	251,1,b	;volatile
  9190                           
  9191                           ;mcc_generated_files/dsm.c: 72:     MD1CON1bits.MD1CHSYNC = 1;
  9192  004A6E  89FB               	bsf	251,4,b	;volatile
  9193                           
  9194                           ;mcc_generated_files/dsm.c: 75:     MD1CON1bits.MD1CHPOL = 0;
  9195  004A70  9BFB               	bcf	251,5,b	;volatile
  9196                           
  9197                           ; BSR set to: 60
  9198                           ;mcc_generated_files/dsm.c: 78:     MD1SRC = 0x13;
  9199  004A72  0E13               	movlw	19
  9200  004A74  6FFC               	movwf	252,b	;volatile
  9201                           
  9202                           ;mcc_generated_files/dsm.c: 81:     MD1CARH = 0x0E;
  9203  004A76  0E0E               	movlw	14
  9204  004A78  6FFE               	movwf	254,b	;volatile
  9205                           
  9206                           ;mcc_generated_files/dsm.c: 84:     MD1CARL = 0x04;
  9207  004A7A  0E04               	movlw	4
  9208  004A7C  6FFD               	movwf	253,b	;volatile
  9209                           
  9210                           ; BSR set to: 60
  9211                           ;mcc_generated_files/dsm.c: 87:     MD1CON0bits.MD1EN = 1;
  9212  004A7E  8FFA               	bsf	250,7,b	;volatile
  9213                           
  9214                           ; BSR set to: 60
  9215                           ; _DSM_Initialize: autosize = 0, savesize = 0, parsavesize = 0, tempsize = 0 parsize = 0
      +                          , argsize = 0, vargsize = 0
  9216  004A80  0012               	return		;funcret
  9217  004A82                     __end_of_DSM_Initialize:
  9218                           	opt callstack 0
  9219                           
  9220 ;; *************** function _DMA1_Initialize *****************
  9221 ;; Defined at:
  9222 ;;		line 86 in file "mcc_generated_files/dma1.c"
  9223 ;; Parameters:    Size  Location     Type
  9224 ;;		None
  9225 ;; Auto vars:     Size  Location     Type
  9226 ;;		None
  9227 ;; Return value:  Size  Location     Type
  9228 ;;                  1  [STACK] void 
  9229 ;; Registers used:
  9230 ;;		wreg, status,2
  9231 ;; Tracked objects:
  9232 ;;		On entry : 3F/3D
  9233 ;;		On exit  : 3F/3B
  9234 ;;		Unchanged: 0/0
  9235 ;; Data sizes:     COMRAM   BANK0   BANK1   BANK2   BANK3   BANK4   BANK5   BANK6   BANK7   BANK8   BANK9  BANK10  BANK1
      +1  BANK12  BANK13  BANK14  BANK15  BANK16  BANK17  BANK18  BANK19  BANK20  BANK21  BANK22  BANK23  BANK24  BANK25  BANK2
      +6  BANK27  BANK28  BANK29  BANK30  BANK31
  9236 ;;      Params:         0       0       0       0       0       0       0       0       0       0       0       0       
      +0       0       0       0       0       0       0       0       0       0       0       0       0       0       0       
      +0       0       0       0       0       0
  9237 ;;      Locals:         0       0       0       0       0       0       0       0       0       0       0       0       
      +0       0       0       0       0       0       0       0       0       0       0       0       0       0       0       
      +0       0       0       0       0       0
  9238 ;;      Temps:          0       0       0       0       0       0       0       0       0       0       0       0       
      +0       0       0       0       0       0       0       0       0       0       0       0       0       0       0       
      +0       0       0       0       0       0
  9239 ;;      Totals:         0       0       0       0       0       0       0       0       0       0       0       0       
      +0       0       0       0       0       0       0       0       0       0       0       0       0       0       0       
      +0       0       0       0       0       0
  9240 ;;Total ram usage:        0 bytes
  9241 ;; Hardware stack levels used:    1
  9242 ;; Hardware stack levels required when called:    3
  9243 ;; This function calls:
  9244 ;;		Nothing
  9245 ;; This function is called by:
  9246 ;;		_SYSTEM_Initialize
  9247 ;; This function uses a reentrant model
  9248 ;;
  9249                           
  9250                           	psect	text58
  9251  00413C                     __ptext58:
  9252                           	opt callstack 0
  9253  00413C                     _DMA1_Initialize:
  9254                           	opt callstack 26
  9255                           
  9256                           ;mcc_generated_files/dma1.c: 88:  DMA1SSA = 0x001000;
  9257                           
  9258                           ; BSR set to: 60
  9259                           ; autosize = 0, savesize = 0, parsavesize = 0, tempsize = 0 parsize = 0, argsize = 0 var
      +                          gsize = 0, retsize = 0 argfudge = 0
  9260                           ;incstack = 0
  9261  00413C  0E00               	movlw	0
  9262  00413E  013B               	movlb	59	; () banked
  9263  004140  6FF9               	movwf	249,b	;volatile
  9264  004142  0E10               	movlw	16
  9265  004144  6FFA               	movwf	250,b	;volatile
  9266  004146  0E00               	movlw	0
  9267  004148  6FFB               	movwf	251,b	;volatile
  9268                           
  9269                           ;mcc_generated_files/dma1.c: 89:  DMA1DSA = 0x3D11;
  9270  00414A  0E3D               	movlw	61
  9271  00414C  6FF1               	movwf	241,b	;volatile
  9272  00414E  0E11               	movlw	17
  9273  004150  6FF0               	movwf	240,b	;volatile
  9274                           
  9275                           ;mcc_generated_files/dma1.c: 90:  DMA1CON1 = 0x03;
  9276  004152  0E03               	movlw	3
  9277  004154  6FFD               	movwf	253,b	;volatile
  9278                           
  9279                           ;mcc_generated_files/dma1.c: 91:  DMA1SSZ = 0x0001;
  9280  004156  0E00               	movlw	0
  9281  004158  6FF8               	movwf	248,b	;volatile
  9282  00415A  0E01               	movlw	1
  9283  00415C  6FF7               	movwf	247,b	;volatile
  9284                           
  9285                           ;mcc_generated_files/dma1.c: 92:  DMA1DSZ = 0x0001;
  9286  00415E  0E00               	movlw	0
  9287  004160  6FEF               	movwf	239,b	;volatile
  9288  004162  0E01               	movlw	1
  9289  004164  6FEE               	movwf	238,b	;volatile
  9290                           
  9291                           ;mcc_generated_files/dma1.c: 93:  DMA1SIRQ = 0x15;
  9292  004166  0E15               	movlw	21
  9293  004168  6FFF               	movwf	255,b	;volatile
  9294                           
  9295                           ; BSR set to: 59
  9296                           ;mcc_generated_files/dma1.c: 94:  DMA1AIRQ = 0x0;
  9297  00416A  6BFE               	clrf	254,b	;volatile
  9298                           
  9299                           ; BSR set to: 59
  9300                           ;mcc_generated_files/dma1.c: 96:  PIR2bits.DMA1DCNTIF = 0;
  9301  00416C  0139               	movlb	57	; () banked
  9302  00416E  93A2               	bcf	162,1,b	;volatile
  9303                           
  9304                           ; BSR set to: 57
  9305                           ;mcc_generated_files/dma1.c: 97:  PIR2bits.DMA1SCNTIF = 0;
  9306  004170  91A2               	bcf	162,0,b	;volatile
  9307                           
  9308                           ; BSR set to: 57
  9309                           ;mcc_generated_files/dma1.c: 98:  PIR2bits.DMA1AIF = 0;
  9310  004172  97A2               	bcf	162,3,b	;volatile
  9311                           
  9312                           ; BSR set to: 57
  9313                           ;mcc_generated_files/dma1.c: 99:  PIR2bits.DMA1ORIF = 0;
  9314  004174  95A2               	bcf	162,2,b	;volatile
  9315                           
  9316                           ; BSR set to: 57
  9317                           ;mcc_generated_files/dma1.c: 101:  PIE2bits.DMA1DCNTIE = 1;
  9318  004176  8392               	bsf	146,1,b	;volatile
  9319                           
  9320                           ; BSR set to: 57
  9321                           ;mcc_generated_files/dma1.c: 102:  PIE2bits.DMA1SCNTIE = 1;
  9322  004178  8192               	bsf	146,0,b	;volatile
  9323                           
  9324                           ; BSR set to: 57
  9325                           ;mcc_generated_files/dma1.c: 103:  PIE2bits.DMA1AIE = 1;
  9326  00417A  8792               	bsf	146,3,b	;volatile
  9327                           
  9328                           ; BSR set to: 57
  9329                           ;mcc_generated_files/dma1.c: 104:  PIE2bits.DMA1ORIE = 1;
  9330  00417C  8592               	bsf	146,2,b	;volatile
  9331                           
  9332                           ; BSR set to: 57
  9333                           ;mcc_generated_files/dma1.c: 106:  ISRPR = 0;
  9334  00417E  6BF1               	clrf	241,b	;volatile
  9335                           
  9336                           ;mcc_generated_files/dma1.c: 107:  MAINPR = 1;
  9337  004180  0E01               	movlw	1
  9338  004182  6FF2               	movwf	242,b	;volatile
  9339                           
  9340                           ;mcc_generated_files/dma1.c: 108:  DMA1PR = 4;
  9341  004184  0E04               	movlw	4
  9342  004186  6FF3               	movwf	243,b	;volatile
  9343                           
  9344                           ;mcc_generated_files/dma1.c: 109:  DMA2PR = 2;
  9345  004188  0E02               	movlw	2
  9346  00418A  6FF4               	movwf	244,b	;volatile
  9347                           
  9348                           ;mcc_generated_files/dma1.c: 110:  SCANPR = 3;
  9349  00418C  0E03               	movlw	3
  9350  00418E  6FF7               	movwf	247,b	;volatile
  9351  004190  9ED2               	bcf	16338,7,c	;# 
  9352  004192  0139               	banksel	14831	;# 
  9353  004194  0E55               	movlw	85	;# 
  9354  004196  6FEF               	movwf	14831,b	;# 
  9355  004198  0EAA               	movlw	170	;# 
  9356  00419A  6FEF               	movwf	14831,b	;# 
  9357  00419C  81EF               	bsf	14831,0,b	;# 
  9358  00419E  8ED2               	bsf	16338,7,c	;# 
  9359                           
  9360                           ;mcc_generated_files/dma1.c: 123:  DMA1CON0 = 0x00;
  9361  0041A0  013B               	movlb	59	; () banked
  9362  0041A2  6BFC               	clrf	252,b	;volatile
  9363                           
  9364                           ; BSR set to: 59
  9365                           ; _DMA1_Initialize: autosize = 0, savesize = 0, parsavesize = 0, tempsize = 0 parsize = 
      +                          0, argsize = 0, vargsize = 0
  9366  0041A4  0012               	return		;funcret
  9367  0041A6                     __end_of_DMA1_Initialize:
  9368                           	opt callstack 0
  9369                           
  9370 ;; *************** function _CLKREF_Initialize *****************
  9371 ;; Defined at:
  9372 ;;		line 58 in file "mcc_generated_files/clkref.c"
  9373 ;; Parameters:    Size  Location     Type
  9374 ;;		None
  9375 ;; Auto vars:     Size  Location     Type
  9376 ;;		None
  9377 ;; Return value:  Size  Location     Type
  9378 ;;                  1  [STACK] void 
  9379 ;; Registers used:
  9380 ;;		wreg, status,2
  9381 ;; Tracked objects:
  9382 ;;		On entry : 3F/3B
  9383 ;;		On exit  : 3F/3C
  9384 ;;		Unchanged: 0/0
  9385 ;; Data sizes:     COMRAM   BANK0   BANK1   BANK2   BANK3   BANK4   BANK5   BANK6   BANK7   BANK8   BANK9  BANK10  BANK1
      +1  BANK12  BANK13  BANK14  BANK15  BANK16  BANK17  BANK18  BANK19  BANK20  BANK21  BANK22  BANK23  BANK24  BANK25  BANK2
      +6  BANK27  BANK28  BANK29  BANK30  BANK31
  9386 ;;      Params:         0       0       0       0       0       0       0       0       0       0       0       0       
      +0       0       0       0       0       0       0       0       0       0       0       0       0       0       0       
      +0       0       0       0       0       0
  9387 ;;      Locals:         0       0       0       0       0       0       0       0       0       0       0       0       
      +0       0       0       0       0       0       0       0       0       0       0       0       0       0       0       
      +0       0       0       0       0       0
  9388 ;;      Temps:          0       0       0       0       0       0       0       0       0       0       0       0       
      +0       0       0       0       0       0       0       0       0       0       0       0       0       0       0       
      +0       0       0       0       0       0
  9389 ;;      Totals:         0       0       0       0       0       0       0       0       0       0       0       0       
      +0       0       0       0       0       0       0       0       0       0       0       0       0       0       0       
      +0       0       0       0       0       0
  9390 ;;Total ram usage:        0 bytes
  9391 ;; Hardware stack levels used:    1
  9392 ;; Hardware stack levels required when called:    3
  9393 ;; This function calls:
  9394 ;;		Nothing
  9395 ;; This function is called by:
  9396 ;;		_SYSTEM_Initialize
  9397 ;; This function uses a reentrant model
  9398 ;;
  9399                           
  9400                           	psect	text59
  9401  004B7C                     __ptext59:
  9402                           	opt callstack 0
  9403  004B7C                     _CLKREF_Initialize:
  9404                           	opt callstack 26
  9405                           
  9406                           ;mcc_generated_files/clkref.c: 61:     CLKRCLK = 0x00;
  9407                           
  9408                           ; BSR set to: 59
  9409                           ; autosize = 0, savesize = 0, parsavesize = 0, tempsize = 0 parsize = 0, argsize = 0 var
      +                          gsize = 0, retsize = 0 argfudge = 0
  9410                           ;incstack = 0
  9411  004B7C  013C               	movlb	60	; () banked
  9412  004B7E  6BE6               	clrf	230,b	;volatile
  9413                           
  9414                           ; BSR set to: 60
  9415                           ;mcc_generated_files/clkref.c: 63:     CLKRCON = 0x94;
  9416  004B80  0E94               	movlw	148
  9417  004B82  6FE5               	movwf	229,b	;volatile
  9418                           
  9419                           ; BSR set to: 60
  9420                           ; _CLKREF_Initialize: autosize = 0, savesize = 0, parsavesize = 0, tempsize = 0 parsize 
      +                          = 0, argsize = 0, vargsize = 0
  9421  004B84  0012               	return		;funcret
  9422  004B86                     __end_of_CLKREF_Initialize:
  9423                           	opt callstack 0
  9424                           
  9425 ;; *************** function _CLC1_Initialize *****************
  9426 ;; Defined at:
  9427 ;;		line 58 in file "mcc_generated_files/clc1.c"
  9428 ;; Parameters:    Size  Location     Type
  9429 ;;		None
  9430 ;; Auto vars:     Size  Location     Type
  9431 ;;		None
  9432 ;; Return value:  Size  Location     Type
  9433 ;;                  1  [STACK] void 
  9434 ;; Registers used:
  9435 ;;		wreg, status,2
  9436 ;; Tracked objects:
  9437 ;;		On entry : 0/39
  9438 ;;		On exit  : 3F/3C
  9439 ;;		Unchanged: 0/0
  9440 ;; Data sizes:     COMRAM   BANK0   BANK1   BANK2   BANK3   BANK4   BANK5   BANK6   BANK7   BANK8   BANK9  BANK10  BANK1
      +1  BANK12  BANK13  BANK14  BANK15  BANK16  BANK17  BANK18  BANK19  BANK20  BANK21  BANK22  BANK23  BANK24  BANK25  BANK2
      +6  BANK27  BANK28  BANK29  BANK30  BANK31
  9441 ;;      Params:         0       0       0       0       0       0       0       0       0       0       0       0       
      +0       0       0       0       0       0       0       0       0       0       0       0       0       0       0       
      +0       0       0       0       0       0
  9442 ;;      Locals:         0       0       0       0       0       0       0       0       0       0       0       0       
      +0       0       0       0       0       0       0       0       0       0       0       0       0       0       0       
      +0       0       0       0       0       0
  9443 ;;      Temps:          0       0       0       0       0       0       0       0       0       0       0       0       
      +0       0       0       0       0       0       0       0       0       0       0       0       0       0       0       
      +0       0       0       0       0       0
  9444 ;;      Totals:         0       0       0       0       0       0       0       0       0       0       0       0       
      +0       0       0       0       0       0       0       0       0       0       0       0       0       0       0       
      +0       0       0       0       0       0
  9445 ;;Total ram usage:        0 bytes
  9446 ;; Hardware stack levels used:    1
  9447 ;; Hardware stack levels required when called:    3
  9448 ;; This function calls:
  9449 ;;		Nothing
  9450 ;; This function is called by:
  9451 ;;		_SYSTEM_Initialize
  9452 ;; This function uses a reentrant model
  9453 ;;
  9454                           
  9455                           	psect	text60
  9456  004942                     __ptext60:
  9457                           	opt callstack 0
  9458  004942                     _CLC1_Initialize:
  9459                           	opt callstack 26
  9460                           
  9461                           ;mcc_generated_files/clc1.c: 63:     CLC1POL = 0x00;
  9462                           
  9463                           ; BSR set to: 60
  9464                           ; autosize = 0, savesize = 0, parsavesize = 0, tempsize = 0 parsize = 0, argsize = 0 var
      +                          gsize = 0, retsize = 0 argfudge = 0
  9465                           ;incstack = 0
  9466  004942  013C               	movlb	60	; () banked
  9467  004944  6B75               	clrf	117,b	;volatile
  9468                           
  9469                           ; BSR set to: 60
  9470                           ;mcc_generated_files/clc1.c: 65:     CLC1SEL0 = 0x04;
  9471  004946  0E04               	movlw	4
  9472  004948  6F76               	movwf	118,b	;volatile
  9473                           
  9474                           ;mcc_generated_files/clc1.c: 67:     CLC1SEL1 = 0x04;
  9475  00494A  0E04               	movlw	4
  9476  00494C  6F77               	movwf	119,b	;volatile
  9477                           
  9478                           ;mcc_generated_files/clc1.c: 69:     CLC1SEL2 = 0x04;
  9479  00494E  0E04               	movlw	4
  9480  004950  6F78               	movwf	120,b	;volatile
  9481                           
  9482                           ;mcc_generated_files/clc1.c: 71:     CLC1SEL3 = 0x04;
  9483  004952  0E04               	movlw	4
  9484  004954  6F79               	movwf	121,b	;volatile
  9485                           
  9486                           ; BSR set to: 60
  9487                           ;mcc_generated_files/clc1.c: 73:     CLC1GLS0 = 0x00;
  9488  004956  6B7A               	clrf	122,b	;volatile
  9489                           
  9490                           ; BSR set to: 60
  9491                           ;mcc_generated_files/clc1.c: 75:     CLC1GLS1 = 0x00;
  9492  004958  6B7B               	clrf	123,b	;volatile
  9493                           
  9494                           ; BSR set to: 60
  9495                           ;mcc_generated_files/clc1.c: 77:     CLC1GLS2 = 0x00;
  9496  00495A  6B7C               	clrf	124,b	;volatile
  9497                           
  9498                           ; BSR set to: 60
  9499                           ;mcc_generated_files/clc1.c: 79:     CLC1GLS3 = 0x00;
  9500  00495C  6B7D               	clrf	125,b	;volatile
  9501                           
  9502                           ;mcc_generated_files/clc1.c: 81:     CLC1CON = 0x81;
  9503  00495E  0E81               	movlw	129
  9504  004960  6F74               	movwf	116,b	;volatile
  9505                           
  9506                           ; BSR set to: 60
  9507                           ; _CLC1_Initialize: autosize = 0, savesize = 0, parsavesize = 0, tempsize = 0 parsize = 
      +                          0, argsize = 0, vargsize = 0
  9508  004962  0012               	return		;funcret
  9509  004964                     __end_of_CLC1_Initialize:
  9510                           	opt callstack 0
  9511                           
  9512 ;; *************** function _ADCC_Initialize *****************
  9513 ;; Defined at:
  9514 ;;		line 64 in file "mcc_generated_files/adcc.c"
  9515 ;; Parameters:    Size  Location     Type
  9516 ;;		None
  9517 ;; Auto vars:     Size  Location     Type
  9518 ;;		None
  9519 ;; Return value:  Size  Location     Type
  9520 ;;                  1  [STACK] void 
  9521 ;; Registers used:
  9522 ;;		wreg, fsr1l, fsr1h, fsr2l, fsr2h, status,2
  9523 ;; Tracked objects:
  9524 ;;		On entry : 3F/39
  9525 ;;		On exit  : 0/0
  9526 ;;		Unchanged: 0/0
  9527 ;; Data sizes:     COMRAM   BANK0   BANK1   BANK2   BANK3   BANK4   BANK5   BANK6   BANK7   BANK8   BANK9  BANK10  BANK1
      +1  BANK12  BANK13  BANK14  BANK15  BANK16  BANK17  BANK18  BANK19  BANK20  BANK21  BANK22  BANK23  BANK24  BANK25  BANK2
      +6  BANK27  BANK28  BANK29  BANK30  BANK31
  9528 ;;      Params:         0       0       0       0       0       0       0       0       0       0       0       0       
      +0       0       0       0       0       0       0       0       0       0       0       0       0       0       0       
      +0       0       0       0       0       0
  9529 ;;      Locals:         0       0       0       0       0       0       0       0       0       0       0       0       
      +0       0       0       0       0       0       0       0       0       0       0       0       0       0       0       
      +0       0       0       0       0       0
  9530 ;;      Temps:          0       0       0       0       0       0       0       0       0       0       0       0       
      +0       0       0       0       0       0       0       0       0       0       0       0       0       0       0       
      +0       0       0       0       0       0
  9531 ;;      Totals:         0       0       0       0       0       0       0       0       0       0       0       0       
      +0       0       0       0       0       0       0       0       0       0       0       0       0       0       0       
      +0       0       0       0       0       0
  9532 ;;Total ram usage:        0 bytes
  9533 ;; Hardware stack levels used:    1
  9534 ;; Hardware stack levels required when called:    4
  9535 ;; This function calls:
  9536 ;;		_ADCC_SetADIInterruptHandler
  9537 ;; This function is called by:
  9538 ;;		_SYSTEM_Initialize
  9539 ;; This function uses a reentrant model
  9540 ;;
  9541                           
  9542                           	psect	text61
  9543  00443E                     __ptext61:
  9544                           	opt callstack 0
  9545  00443E                     _ADCC_Initialize:
  9546                           	opt callstack 25
  9547                           
  9548                           ;mcc_generated_files/adcc.c: 68:     ADLTHL = 0x00;
  9549                           
  9550                           ; BSR set to: 60
  9551                           ; autosize = 0, savesize = 0, parsavesize = 0, tempsize = 0 parsize = 0, argsize = 0 var
      +                          gsize = 0, retsize = 0 argfudge = 0
  9552                           ;incstack = 0
  9553  00443E  013E               	movlb	62	; () banked
  9554  004440  6BDE               	clrf	222,b	;volatile
  9555                           
  9556                           ;mcc_generated_files/adcc.c: 70:     ADLTHH = 0x00;
  9557  004442  6BDF               	clrf	223,b	;volatile
  9558                           
  9559                           ;mcc_generated_files/adcc.c: 72:     ADUTHL = 0x00;
  9560  004444  6BE0               	clrf	224,b	;volatile
  9561                           
  9562                           ;mcc_generated_files/adcc.c: 74:     ADUTHH = 0x00;
  9563  004446  6BE1               	clrf	225,b	;volatile
  9564                           
  9565                           ;mcc_generated_files/adcc.c: 76:     ADSTPTL = 0x00;
  9566  004448  6BE4               	clrf	228,b	;volatile
  9567                           
  9568                           ;mcc_generated_files/adcc.c: 78:     ADSTPTH = 0x00;
  9569  00444A  6BE5               	clrf	229,b	;volatile
  9570                           
  9571                           ;mcc_generated_files/adcc.c: 80:     ADACCU = 0x00;
  9572  00444C  6BEA               	clrf	234,b	;volatile
  9573                           
  9574                           ;mcc_generated_files/adcc.c: 82:     ADRPT = 0x00;
  9575  00444E  6BEC               	clrf	236,b	;volatile
  9576                           
  9577                           ;mcc_generated_files/adcc.c: 84:     ADPCH = 0x00;
  9578  004450  6BF1               	clrf	241,b	;volatile
  9579                           
  9580                           ;mcc_generated_files/adcc.c: 86:     ADACQL = 0x00;
  9581  004452  6BF3               	clrf	243,b	;volatile
  9582                           
  9583                           ;mcc_generated_files/adcc.c: 88:     ADACQH = 0x00;
  9584  004454  6BF4               	clrf	244,b	;volatile
  9585                           
  9586                           ;mcc_generated_files/adcc.c: 90:     ADCAP = 0x00;
  9587  004456  6BF5               	clrf	245,b	;volatile
  9588                           
  9589                           ;mcc_generated_files/adcc.c: 92:     ADPREL = 0x00;
  9590  004458  6BF6               	clrf	246,b	;volatile
  9591                           
  9592                           ;mcc_generated_files/adcc.c: 94:     ADPREH = 0x00;
  9593  00445A  6BF7               	clrf	247,b	;volatile
  9594                           
  9595                           ;mcc_generated_files/adcc.c: 96:     ADCON1 = 0x00;
  9596  00445C  6BF9               	clrf	249,b	;volatile
  9597                           
  9598                           ;mcc_generated_files/adcc.c: 98:     ADCON2 = 0x00;
  9599  00445E  6BFA               	clrf	250,b	;volatile
  9600                           
  9601                           ;mcc_generated_files/adcc.c: 100:     ADCON3 = 0x00;
  9602  004460  6BFB               	clrf	251,b	;volatile
  9603                           
  9604                           ;mcc_generated_files/adcc.c: 102:     ADSTAT = 0x00;
  9605  004462  6BFC               	clrf	252,b	;volatile
  9606                           
  9607                           ; BSR set to: 62
  9608                           ;mcc_generated_files/adcc.c: 104:     ADREF = 0x02;
  9609  004464  0E02               	movlw	2
  9610  004466  6FFD               	movwf	253,b	;volatile
  9611                           
  9612                           ; BSR set to: 62
  9613                           ;mcc_generated_files/adcc.c: 106:     ADACT = 0x00;
  9614  004468  6BFE               	clrf	254,b	;volatile
  9615                           
  9616                           ; BSR set to: 62
  9617                           ;mcc_generated_files/adcc.c: 108:     ADCLK = 0x00;
  9618  00446A  6BFF               	clrf	255,b	;volatile
  9619                           
  9620                           ;mcc_generated_files/adcc.c: 110:     ADCON0 = 0x94;
  9621  00446C  0E94               	movlw	148
  9622  00446E  6FF8               	movwf	248,b	;volatile
  9623                           
  9624                           ; BSR set to: 62
  9625                           ;mcc_generated_files/adcc.c: 113:     PIR1bits.ADIF = 0;
  9626  004470  0139               	movlb	57	; () banked
  9627  004472  95A1               	bcf	161,2,b	;volatile
  9628                           
  9629                           ; BSR set to: 57
  9630                           ;mcc_generated_files/adcc.c: 115:     PIE1bits.ADIE = 1;
  9631  004474  8591               	bsf	145,2,b	;volatile
  9632                           
  9633                           ; BSR set to: 57
  9634                           ;mcc_generated_files/adcc.c: 117:     ADCC_SetADIInterruptHandler(ADCC_DefaultInterruptH
      +                          andler);
  9635  004476  0EBC               	movlw	low _ADCC_DefaultInterruptHandler
  9636  004478  6EE6               	movwf	postinc1,c
  9637  00447A  0E4B               	movlw	high _ADCC_DefaultInterruptHandler
  9638  00447C  6EE6               	movwf	postinc1,c
  9639  00447E  0E00               	movlw	low (_ADCC_DefaultInterruptHandler shr (0+16))
  9640  004480  6EE6               	movwf	postinc1,c
  9641  004482  EC29  F024         	call	_ADCC_SetADIInterruptHandler	;wreg free
  9642                           
  9643                           ; _ADCC_Initialize: autosize = 0, savesize = 0, parsavesize = 0, tempsize = 0 parsize = 
      +                          0, argsize = 0, vargsize = 0
  9644  004486  0012               	return		;funcret
  9645  004488                     __end_of_ADCC_Initialize:
  9646                           	opt callstack 0
  9647                           
  9648 ;; *************** function _ADCC_SetADIInterruptHandler *****************
  9649 ;; Defined at:
  9650 ;;		line 316 in file "mcc_generated_files/adcc.c"
  9651 ;; Parameters:    Size  Location     Type
  9652 ;;  InterruptHan    3  [STACK] PTR FTN()void 
  9653 ;;		 -> ADCC_DefaultInterruptHandler(1), 
  9654 ;; Auto vars:     Size  Location     Type
  9655 ;;		None
  9656 ;; Return value:  Size  Location     Type
  9657 ;;                  1  [STACK] void 
  9658 ;; Registers used:
  9659 ;;		wreg, fsr1l, fsr1h, fsr2l, fsr2h
  9660 ;; Tracked objects:
  9661 ;;		On entry : 3F/39
  9662 ;;		On exit  : 0/0
  9663 ;;		Unchanged: 0/0
  9664 ;; Data sizes:     COMRAM   BANK0   BANK1   BANK2   BANK3   BANK4   BANK5   BANK6   BANK7   BANK8   BANK9  BANK10  BANK1
      +1  BANK12  BANK13  BANK14  BANK15  BANK16  BANK17  BANK18  BANK19  BANK20  BANK21  BANK22  BANK23  BANK24  BANK25  BANK2
      +6  BANK27  BANK28  BANK29  BANK30  BANK31
  9665 ;;      Params:         0       0       0       0       0       0       0       0       0       0       0       0       
      +0       0       0       0       0       0       0       0       0       0       0       0       0       0       0       
      +0       0       0       0       0       0
  9666 ;;      Locals:         0       0       0       0       0       0       0       0       0       0       0       0       
      +0       0       0       0       0       0       0       0       0       0       0       0       0       0       0       
      +0       0       0       0       0       0
  9667 ;;      Temps:          0       0       0       0       0       0       0       0       0       0       0       0       
      +0       0       0       0       0       0       0       0       0       0       0       0       0       0       0       
      +0       0       0       0       0       0
  9668 ;;      Totals:         0       0       0       0       0       0       0       0       0       0       0       0       
      +0       0       0       0       0       0       0       0       0       0       0       0       0       0       0       
      +0       0       0       0       0       0
  9669 ;;Total ram usage:        0 bytes
  9670 ;; Hardware stack levels used:    1
  9671 ;; Hardware stack levels required when called:    3
  9672 ;; This function calls:
  9673 ;;		Nothing
  9674 ;; This function is called by:
  9675 ;;		_ADCC_Initialize
  9676 ;; This function uses a reentrant model
  9677 ;;
  9678                           
  9679                           	psect	text62
  9680  004852                     __ptext62:
  9681                           	opt callstack 0
  9682  004852                     _ADCC_SetADIInterruptHandler:
  9683                           	opt callstack 25
  9684                           
  9685                           ;mcc_generated_files/adcc.c: 317:     ADCC_ADI_InterruptHandler = InterruptHandler;
  9686                           ;stkvar	_InterruptHandler @ sp[(0)+-3]
  9687                           
  9688                           ; autosize = 0, savesize = 0, parsavesize = 0, tempsize = 0 parsize = 3, argsize = 3 var
      +                          gsize = 0, retsize = 0 argfudge = 0
  9689                           ;incstack = 0
  9690  004852  50E1               	movf	fsr1l,w,c
  9691  004854  0FFD               	addlw	-3
  9692  004856  6ED9               	movwf	fsr2l,c
  9693  004858  50E2               	movf	fsr1h,w,c
  9694  00485A  6EDA               	movwf	fsr2h,c
  9695  00485C  0EFF               	movlw	255
  9696  00485E  22DA               	addwfc	fsr2h,f,c
  9697  004860  006F FF78  F010    	movff	postinc2,_ADCC_ADI_InterruptHandler
  9698  004866  006F FF78  F011    	movff	postinc2,_ADCC_ADI_InterruptHandler+1
  9699  00486C  006F FF74  F012    	movff	postdec2,_ADCC_ADI_InterruptHandler+2
  9700                           
  9701                           ; _ADCC_SetADIInterruptHandler: autosize = 0, savesize = 0, parsavesize = 0, tempsize = 
      +                          0 parsize = 3, argsize = 3, vargsize = 0
  9702  004872  52E5               	movf	postdec1,f,c
  9703  004874  52E5               	movf	postdec1,f,c
  9704  004876  52E5               	movf	postdec1,f,c
  9705  004878  0012               	return		;funcret
  9706  00487A                     __end_of_ADCC_SetADIInterruptHandler:
  9707                           	opt callstack 0
  9708                           
  9709 ;; *************** function _INT0_ISR *****************
  9710 ;; Defined at:
  9711 ;;		line 35 in file "mcc_generated_files/ext_int.c"
  9712 ;; Parameters:    Size  Location     Type
  9713 ;;		None
  9714 ;; Auto vars:     Size  Location     Type
  9715 ;;		None
  9716 ;; Return value:  Size  Location     Type
  9717 ;;                  1    wreg      void 
  9718 ;; Registers used:
  9719 ;;		wreg, status,2, status,0, pclath, tosl
  9720 ;; Tracked objects:
  9721 ;;		On entry : 0/0
  9722 ;;		On exit  : 0/0
  9723 ;;		Unchanged: 0/0
  9724 ;; Data sizes:     COMRAM   BANK0   BANK1   BANK2   BANK3   BANK4   BANK5   BANK6   BANK7   BANK8   BANK9  BANK10  BANK1
      +1  BANK12  BANK13  BANK14  BANK15  BANK16  BANK17  BANK18  BANK19  BANK20  BANK21  BANK22  BANK23  BANK24  BANK25  BANK2
      +6  BANK27  BANK28  BANK29  BANK30  BANK31
  9725 ;;      Params:         0       0       0       0       0       0       0       0       0       0       0       0       
      +0       0       0       0       0       0       0       0       0       0       0       0       0       0       0       
      +0       0       0       0       0       0
  9726 ;;      Locals:         0       0       0       0       0       0       0       0       0       0       0       0       
      +0       0       0       0       0       0       0       0       0       0       0       0       0       0       0       
      +0       0       0       0       0       0
  9727 ;;      Temps:          0       0       0       0       0       0       0       0       0       0       0       0       
      +0       0       0       0       0       0       0       0       0       0       0       0       0       0       0       
      +0       0       0       0       0       0
  9728 ;;      Totals:         0       0       0       0       0       0       0       0       0       0       0       0       
      +0       0       0       0       0       0       0       0       0       0       0       0       0       0       0       
      +0       0       0       0       0       0
  9729 ;;Total ram usage:        0 bytes
  9730 ;; Hardware stack levels used:    1
  9731 ;; Hardware stack levels required when called:    2
  9732 ;; This function calls:
  9733 ;;		_INT0_CallBack
  9734 ;; This function is called by:
  9735 ;;		Interrupt level 2
  9736 ;; This function uses a non-reentrant model
  9737 ;;
  9738                           
  9739                           	psect	text63
  9740  004B34                     __ptext63:
  9741                           	opt callstack 0
  9742  004B34                     _INT0_ISR:
  9743                           	opt callstack 18
  9744                           
  9745                           ;incstack = 0
  9746  004B34  EE13  F05A         	lfsr	1,___inthi_sp
  9747                           
  9748                           ;mcc_generated_files/ext_int.c: 37:     (PIR1bits.INT0IF = 0);
  9749  004B38  0139               	movlb	57	; () banked
  9750  004B3A  91A1               	bcf	161,0,b	;volatile
  9751                           
  9752                           ; BSR set to: 57
  9753                           ;mcc_generated_files/ext_int.c: 40:     INT0_CallBack();
  9754  004B3C  ECB2  F024         	call	_INT0_CallBack	;wreg free
  9755  004B40  0011               	retfie		f
  9756  004B42                     __end_of_INT0_ISR:
  9757                           	opt callstack 0
  9758                           
  9759 ;; *************** function _INT0_CallBack *****************
  9760 ;; Defined at:
  9761 ;;		line 44 in file "mcc_generated_files/ext_int.c"
  9762 ;; Parameters:    Size  Location     Type
  9763 ;;		None
  9764 ;; Auto vars:     Size  Location     Type
  9765 ;;		None
  9766 ;; Return value:  Size  Location     Type
  9767 ;;                  1  [STACK] void 
  9768 ;; Registers used:
  9769 ;;		wreg, status,2, status,0, pclath, tosl
  9770 ;; Tracked objects:
  9771 ;;		On entry : 3F/39
  9772 ;;		On exit  : 0/0
  9773 ;;		Unchanged: 0/0
  9774 ;; Data sizes:     COMRAM   BANK0   BANK1   BANK2   BANK3   BANK4   BANK5   BANK6   BANK7   BANK8   BANK9  BANK10  BANK1
      +1  BANK12  BANK13  BANK14  BANK15  BANK16  BANK17  BANK18  BANK19  BANK20  BANK21  BANK22  BANK23  BANK24  BANK25  BANK2
      +6  BANK27  BANK28  BANK29  BANK30  BANK31
  9775 ;;      Params:         0       0       0       0       0       0       0       0       0       0       0       0       
      +0       0       0       0       0       0       0       0       0       0       0       0       0       0       0       
      +0       0       0       0       0       0
  9776 ;;      Locals:         0       0       0       0       0       0       0       0       0       0       0       0       
      +0       0       0       0       0       0       0       0       0       0       0       0       0       0       0       
      +0       0       0       0       0       0
  9777 ;;      Temps:          0       0       0       0       0       0       0       0       0       0       0       0       
      +0       0       0       0       0       0       0       0       0       0       0       0       0       0       0       
      +0       0       0       0       0       0
  9778 ;;      Totals:         0       0       0       0       0       0       0       0       0       0       0       0       
      +0       0       0       0       0       0       0       0       0       0       0       0       0       0       0       
      +0       0       0       0       0       0
  9779 ;;Total ram usage:        0 bytes
  9780 ;; Hardware stack levels used:    1
  9781 ;; Hardware stack levels required when called:    1
  9782 ;; This function calls:
  9783 ;;		Absolute function
  9784 ;;		_INT0_DefaultInterruptHandler
  9785 ;; This function is called by:
  9786 ;;		_INT0_ISR
  9787 ;; This function uses a reentrant model
  9788 ;;
  9789                           
  9790                           	psect	text64
  9791  004964                     __ptext64:
  9792                           	opt callstack 0
  9793  004964                     _INT0_CallBack:
  9794                           	opt callstack 18
  9795                           
  9796                           ;mcc_generated_files/ext_int.c: 47:     if(INT0_InterruptHandler)
  9797                           
  9798                           ; autosize = 0, savesize = 0, parsavesize = 0, tempsize = 0 parsize = 0, argsize = 0 var
      +                          gsize = 0, retsize = 0 argfudge = 0
  9799                           ;incstack = 0
  9800  004964  5025               	movf	_INT0_InterruptHandler,w,c
  9801  004966  1026               	iorwf	_INT0_InterruptHandler+1,w,c
  9802  004968  1027               	iorwf	_INT0_InterruptHandler+2,w,c
  9803  00496A  B4D8               	btfsc	status,2,c
  9804  00496C  0012               	return	
  9805                           
  9806                           ;mcc_generated_files/ext_int.c: 48:     {;mcc_generated_files/ext_int.c: 49:         INT
      +                          0_InterruptHandler();
  9807  00496E  D801               	call	u111_48
  9808  004970  0012               	return	
  9809  004972                     u111_48:
  9810  004972  0005               	push	
  9811  004974  6EFA               	movwf	pclath,c
  9812  004976  5025               	movf	_INT0_InterruptHandler,w,c
  9813  004978  6EFD               	movwf	tosl,c
  9814  00497A  5026               	movf	_INT0_InterruptHandler+1,w,c
  9815  00497C  6EFE               	movwf	tosh,c
  9816  00497E  5027               	movf	_INT0_InterruptHandler+2,w,c
  9817  004980  6EFF               	movwf	tosu,c
  9818  004982  50FA               	movf	pclath,w,c
  9819  004984  0012               	return		;indir
  9820  004986                     __end_of_INT0_CallBack:
  9821                           	opt callstack 0
  9822                           
  9823 ;; *************** function _INT0_DefaultInterruptHandler *****************
  9824 ;; Defined at:
  9825 ;;		line 57 in file "mcc_generated_files/ext_int.c"
  9826 ;; Parameters:    Size  Location     Type
  9827 ;;		None
  9828 ;; Auto vars:     Size  Location     Type
  9829 ;;		None
  9830 ;; Return value:  Size  Location     Type
  9831 ;;                  1  [STACK] void 
  9832 ;; Registers used:
  9833 ;;		None
  9834 ;; Tracked objects:
  9835 ;;		On entry : 0/39
  9836 ;;		On exit  : 0/0
  9837 ;;		Unchanged: 0/0
  9838 ;; Data sizes:     COMRAM   BANK0   BANK1   BANK2   BANK3   BANK4   BANK5   BANK6   BANK7   BANK8   BANK9  BANK10  BANK1
      +1  BANK12  BANK13  BANK14  BANK15  BANK16  BANK17  BANK18  BANK19  BANK20  BANK21  BANK22  BANK23  BANK24  BANK25  BANK2
      +6  BANK27  BANK28  BANK29  BANK30  BANK31
  9839 ;;      Params:         0       0       0       0       0       0       0       0       0       0       0       0       
      +0       0       0       0       0       0       0       0       0       0       0       0       0       0       0       
      +0       0       0       0       0       0
  9840 ;;      Locals:         0       0       0       0       0       0       0       0       0       0       0       0       
      +0       0       0       0       0       0       0       0       0       0       0       0       0       0       0       
      +0       0       0       0       0       0
  9841 ;;      Temps:          0       0       0       0       0       0       0       0       0       0       0       0       
      +0       0       0       0       0       0       0       0       0       0       0       0       0       0       0       
      +0       0       0       0       0       0
  9842 ;;      Totals:         0       0       0       0       0       0       0       0       0       0       0       0       
      +0       0       0       0       0       0       0       0       0       0       0       0       0       0       0       
      +0       0       0       0       0       0
  9843 ;;Total ram usage:        0 bytes
  9844 ;; Hardware stack levels used:    1
  9845 ;; This function calls:
  9846 ;;		Nothing
  9847 ;; This function is called by:
  9848 ;;		_EXT_INT_Initialize
  9849 ;;		_INT0_CallBack
  9850 ;; This function uses a reentrant model
  9851 ;;
  9852                           
  9853                           	psect	text65
  9854  004BB6                     __ptext65:
  9855                           	opt callstack 0
  9856  004BB6                     _INT0_DefaultInterruptHandler:
  9857                           	opt callstack 18
  9858                           
  9859                           ; _INT0_DefaultInterruptHandler: autosize = 0, savesize = 0, parsavesize = 0, tempsize =
      +                           0 parsize = 0, argsize = 0, vargsize = 0
  9860                           
  9861                           ; autosize = 0, savesize = 0, parsavesize = 0, tempsize = 0 parsize = 0, argsize = 0 var
      +                          gsize = 0, retsize = 0 argfudge = 0
  9862                           ;incstack = 0
  9863  004BB6  0012               	return		;funcret
  9864  004BB8                     __end_of_INT0_DefaultInterruptHandler:
  9865                           	opt callstack 0
  9866                           
  9867 ;; *************** function _INT1_ISR *****************
  9868 ;; Defined at:
  9869 ;;		line 61 in file "mcc_generated_files/ext_int.c"
  9870 ;; Parameters:    Size  Location     Type
  9871 ;;		None
  9872 ;; Auto vars:     Size  Location     Type
  9873 ;;		None
  9874 ;; Return value:  Size  Location     Type
  9875 ;;                  1    wreg      void 
  9876 ;; Registers used:
  9877 ;;		wreg, status,2, status,0, pclath, tosl
  9878 ;; Tracked objects:
  9879 ;;		On entry : 0/0
  9880 ;;		On exit  : 0/0
  9881 ;;		Unchanged: 0/0
  9882 ;; Data sizes:     COMRAM   BANK0   BANK1   BANK2   BANK3   BANK4   BANK5   BANK6   BANK7   BANK8   BANK9  BANK10  BANK1
      +1  BANK12  BANK13  BANK14  BANK15  BANK16  BANK17  BANK18  BANK19  BANK20  BANK21  BANK22  BANK23  BANK24  BANK25  BANK2
      +6  BANK27  BANK28  BANK29  BANK30  BANK31
  9883 ;;      Params:         0       0       0       0       0       0       0       0       0       0       0       0       
      +0       0       0       0       0       0       0       0       0       0       0       0       0       0       0       
      +0       0       0       0       0       0
  9884 ;;      Locals:         0       0       0       0       0       0       0       0       0       0       0       0       
      +0       0       0       0       0       0       0       0       0       0       0       0       0       0       0       
      +0       0       0       0       0       0
  9885 ;;      Temps:          0       0       0       0       0       0       0       0       0       0       0       0       
      +0       0       0       0       0       0       0       0       0       0       0       0       0       0       0       
      +0       0       0       0       0       0
  9886 ;;      Totals:         0       0       0       0       0       0       0       0       0       0       0       0       
      +0       0       0       0       0       0       0       0       0       0       0       0       0       0       0       
      +0       0       0       0       0       0
  9887 ;;Total ram usage:        0 bytes
  9888 ;; Hardware stack levels used:    1
  9889 ;; Hardware stack levels required when called:    2
  9890 ;; This function calls:
  9891 ;;		_INT1_CallBack
  9892 ;; This function is called by:
  9893 ;;		Interrupt level 2
  9894 ;; This function uses a non-reentrant model
  9895 ;;
  9896                           
  9897                           	psect	text66
  9898  004B44                     __ptext66:
  9899                           	opt callstack 0
  9900  004B44                     _INT1_ISR:
  9901                           	opt callstack 18
  9902                           
  9903                           ;incstack = 0
  9904  004B44  EE13  F05A         	lfsr	1,___inthi_sp
  9905                           
  9906                           ;mcc_generated_files/ext_int.c: 63:     (PIR5bits.INT1IF = 0);
  9907  004B48  0139               	movlb	57	; () banked
  9908  004B4A  91A5               	bcf	165,0,b	;volatile
  9909                           
  9910                           ; BSR set to: 57
  9911                           ;mcc_generated_files/ext_int.c: 66:     INT1_CallBack();
  9912  004B4C  ECC3  F024         	call	_INT1_CallBack	;wreg free
  9913  004B50  0011               	retfie		f
  9914  004B52                     __end_of_INT1_ISR:
  9915                           	opt callstack 0
  9916                           
  9917 ;; *************** function _INT1_CallBack *****************
  9918 ;; Defined at:
  9919 ;;		line 70 in file "mcc_generated_files/ext_int.c"
  9920 ;; Parameters:    Size  Location     Type
  9921 ;;		None
  9922 ;; Auto vars:     Size  Location     Type
  9923 ;;		None
  9924 ;; Return value:  Size  Location     Type
  9925 ;;                  1  [STACK] void 
  9926 ;; Registers used:
  9927 ;;		wreg, status,2, status,0, pclath, tosl
  9928 ;; Tracked objects:
  9929 ;;		On entry : 3F/39
  9930 ;;		On exit  : 0/0
  9931 ;;		Unchanged: 0/0
  9932 ;; Data sizes:     COMRAM   BANK0   BANK1   BANK2   BANK3   BANK4   BANK5   BANK6   BANK7   BANK8   BANK9  BANK10  BANK1
      +1  BANK12  BANK13  BANK14  BANK15  BANK16  BANK17  BANK18  BANK19  BANK20  BANK21  BANK22  BANK23  BANK24  BANK25  BANK2
      +6  BANK27  BANK28  BANK29  BANK30  BANK31
  9933 ;;      Params:         0       0       0       0       0       0       0       0       0       0       0       0       
      +0       0       0       0       0       0       0       0       0       0       0       0       0       0       0       
      +0       0       0       0       0       0
  9934 ;;      Locals:         0       0       0       0       0       0       0       0       0       0       0       0       
      +0       0       0       0       0       0       0       0       0       0       0       0       0       0       0       
      +0       0       0       0       0       0
  9935 ;;      Temps:          0       0       0       0       0       0       0       0       0       0       0       0       
      +0       0       0       0       0       0       0       0       0       0       0       0       0       0       0       
      +0       0       0       0       0       0
  9936 ;;      Totals:         0       0       0       0       0       0       0       0       0       0       0       0       
      +0       0       0       0       0       0       0       0       0       0       0       0       0       0       0       
      +0       0       0       0       0       0
  9937 ;;Total ram usage:        0 bytes
  9938 ;; Hardware stack levels used:    1
  9939 ;; Hardware stack levels required when called:    1
  9940 ;; This function calls:
  9941 ;;		Absolute function
  9942 ;;		_INT1_DefaultInterruptHandler
  9943 ;; This function is called by:
  9944 ;;		_INT1_ISR
  9945 ;; This function uses a reentrant model
  9946 ;;
  9947                           
  9948                           	psect	text67
  9949  004986                     __ptext67:
  9950                           	opt callstack 0
  9951  004986                     _INT1_CallBack:
  9952                           	opt callstack 18
  9953                           
  9954                           ;mcc_generated_files/ext_int.c: 73:     if(INT1_InterruptHandler)
  9955                           
  9956                           ; autosize = 0, savesize = 0, parsavesize = 0, tempsize = 0 parsize = 0, argsize = 0 var
      +                          gsize = 0, retsize = 0 argfudge = 0
  9957                           ;incstack = 0
  9958  004986  5022               	movf	_INT1_InterruptHandler,w,c
  9959  004988  1023               	iorwf	_INT1_InterruptHandler+1,w,c
  9960  00498A  1024               	iorwf	_INT1_InterruptHandler+2,w,c
  9961  00498C  B4D8               	btfsc	status,2,c
  9962  00498E  0012               	return	
  9963                           
  9964                           ;mcc_generated_files/ext_int.c: 74:     {;mcc_generated_files/ext_int.c: 75:         INT
      +                          1_InterruptHandler();
  9965  004990  D801               	call	u113_48
  9966  004992  0012               	return	
  9967  004994                     u113_48:
  9968  004994  0005               	push	
  9969  004996  6EFA               	movwf	pclath,c
  9970  004998  5022               	movf	_INT1_InterruptHandler,w,c
  9971  00499A  6EFD               	movwf	tosl,c
  9972  00499C  5023               	movf	_INT1_InterruptHandler+1,w,c
  9973  00499E  6EFE               	movwf	tosh,c
  9974  0049A0  5024               	movf	_INT1_InterruptHandler+2,w,c
  9975  0049A2  6EFF               	movwf	tosu,c
  9976  0049A4  50FA               	movf	pclath,w,c
  9977  0049A6  0012               	return		;indir
  9978  0049A8                     __end_of_INT1_CallBack:
  9979                           	opt callstack 0
  9980                           
  9981 ;; *************** function _INT1_DefaultInterruptHandler *****************
  9982 ;; Defined at:
  9983 ;;		line 83 in file "mcc_generated_files/ext_int.c"
  9984 ;; Parameters:    Size  Location     Type
  9985 ;;		None
  9986 ;; Auto vars:     Size  Location     Type
  9987 ;;		None
  9988 ;; Return value:  Size  Location     Type
  9989 ;;                  1  [STACK] void 
  9990 ;; Registers used:
  9991 ;;		None
  9992 ;; Tracked objects:
  9993 ;;		On entry : 0/39
  9994 ;;		On exit  : 0/0
  9995 ;;		Unchanged: 0/0
  9996 ;; Data sizes:     COMRAM   BANK0   BANK1   BANK2   BANK3   BANK4   BANK5   BANK6   BANK7   BANK8   BANK9  BANK10  BANK1
      +1  BANK12  BANK13  BANK14  BANK15  BANK16  BANK17  BANK18  BANK19  BANK20  BANK21  BANK22  BANK23  BANK24  BANK25  BANK2
      +6  BANK27  BANK28  BANK29  BANK30  BANK31
  9997 ;;      Params:         0       0       0       0       0       0       0       0       0       0       0       0       
      +0       0       0       0       0       0       0       0       0       0       0       0       0       0       0       
      +0       0       0       0       0       0
  9998 ;;      Locals:         0       0       0       0       0       0       0       0       0       0       0       0       
      +0       0       0       0       0       0       0       0       0       0       0       0       0       0       0       
      +0       0       0       0       0       0
  9999 ;;      Temps:          0       0       0       0       0       0       0       0       0       0       0       0       
      +0       0       0       0       0       0       0       0       0       0       0       0       0       0       0       
      +0       0       0       0       0       0
 10000 ;;      Totals:         0       0       0       0       0       0       0       0       0       0       0       0       
      +0       0       0       0       0       0       0       0       0       0       0       0       0       0       0       
      +0       0       0       0       0       0
 10001 ;;Total ram usage:        0 bytes
 10002 ;; Hardware stack levels used:    1
 10003 ;; This function calls:
 10004 ;;		Nothing
 10005 ;; This function is called by:
 10006 ;;		_EXT_INT_Initialize
 10007 ;;		_INT1_CallBack
 10008 ;; This function uses a reentrant model
 10009 ;;
 10010                           
 10011                           	psect	text68
 10012  004BB8                     __ptext68:
 10013                           	opt callstack 0
 10014  004BB8                     _INT1_DefaultInterruptHandler:
 10015                           	opt callstack 18
 10016                           
 10017                           ; _INT1_DefaultInterruptHandler: autosize = 0, savesize = 0, parsavesize = 0, tempsize =
      +                           0 parsize = 0, argsize = 0, vargsize = 0
 10018                           
 10019                           ; autosize = 0, savesize = 0, parsavesize = 0, tempsize = 0 parsize = 0, argsize = 0 var
      +                          gsize = 0, retsize = 0 argfudge = 0
 10020                           ;incstack = 0
 10021  004BB8  0012               	return		;funcret
 10022  004BBA                     __end_of_INT1_DefaultInterruptHandler:
 10023                           	opt callstack 0
 10024                           
 10025 ;; *************** function _INT2_ISR *****************
 10026 ;; Defined at:
 10027 ;;		line 87 in file "mcc_generated_files/ext_int.c"
 10028 ;; Parameters:    Size  Location     Type
 10029 ;;		None
 10030 ;; Auto vars:     Size  Location     Type
 10031 ;;		None
 10032 ;; Return value:  Size  Location     Type
 10033 ;;                  1    wreg      void 
 10034 ;; Registers used:
 10035 ;;		wreg, status,2, status,0, pclath, tosl
 10036 ;; Tracked objects:
 10037 ;;		On entry : 0/0
 10038 ;;		On exit  : 0/0
 10039 ;;		Unchanged: 0/0
 10040 ;; Data sizes:     COMRAM   BANK0   BANK1   BANK2   BANK3   BANK4   BANK5   BANK6   BANK7   BANK8   BANK9  BANK10  BANK1
      +1  BANK12  BANK13  BANK14  BANK15  BANK16  BANK17  BANK18  BANK19  BANK20  BANK21  BANK22  BANK23  BANK24  BANK25  BANK2
      +6  BANK27  BANK28  BANK29  BANK30  BANK31
 10041 ;;      Params:         0       0       0       0       0       0       0       0       0       0       0       0       
      +0       0       0       0       0       0       0       0       0       0       0       0       0       0       0       
      +0       0       0       0       0       0
 10042 ;;      Locals:         0       0       0       0       0       0       0       0       0       0       0       0       
      +0       0       0       0       0       0       0       0       0       0       0       0       0       0       0       
      +0       0       0       0       0       0
 10043 ;;      Temps:          0       0       0       0       0       0       0       0       0       0       0       0       
      +0       0       0       0       0       0       0       0       0       0       0       0       0       0       0       
      +0       0       0       0       0       0
 10044 ;;      Totals:         0       0       0       0       0       0       0       0       0       0       0       0       
      +0       0       0       0       0       0       0       0       0       0       0       0       0       0       0       
      +0       0       0       0       0       0
 10045 ;;Total ram usage:        0 bytes
 10046 ;; Hardware stack levels used:    1
 10047 ;; Hardware stack levels required when called:    2
 10048 ;; This function calls:
 10049 ;;		_INT2_CallBack
 10050 ;; This function is called by:
 10051 ;;		Interrupt level 2
 10052 ;; This function uses a non-reentrant model
 10053 ;;
 10054                           
 10055                           	psect	text69
 10056  004B54                     __ptext69:
 10057                           	opt callstack 0
 10058  004B54                     _INT2_ISR:
 10059                           	opt callstack 18
 10060                           
 10061                           ;incstack = 0
 10062  004B54  EE13  F05A         	lfsr	1,___inthi_sp
 10063                           
 10064                           ;mcc_generated_files/ext_int.c: 89:     (PIR7bits.INT2IF = 0);
 10065  004B58  0139               	movlb	57	; () banked
 10066  004B5A  9BA7               	bcf	167,5,b	;volatile
 10067                           
 10068                           ; BSR set to: 57
 10069                           ;mcc_generated_files/ext_int.c: 92:     INT2_CallBack();
 10070  004B5C  ECD4  F024         	call	_INT2_CallBack	;wreg free
 10071  004B60  0011               	retfie		f
 10072  004B62                     __end_of_INT2_ISR:
 10073                           	opt callstack 0
 10074                           
 10075 ;; *************** function _INT2_CallBack *****************
 10076 ;; Defined at:
 10077 ;;		line 96 in file "mcc_generated_files/ext_int.c"
 10078 ;; Parameters:    Size  Location     Type
 10079 ;;		None
 10080 ;; Auto vars:     Size  Location     Type
 10081 ;;		None
 10082 ;; Return value:  Size  Location     Type
 10083 ;;                  1  [STACK] void 
 10084 ;; Registers used:
 10085 ;;		wreg, status,2, status,0, pclath, tosl
 10086 ;; Tracked objects:
 10087 ;;		On entry : 3F/39
 10088 ;;		On exit  : 0/0
 10089 ;;		Unchanged: 0/0
 10090 ;; Data sizes:     COMRAM   BANK0   BANK1   BANK2   BANK3   BANK4   BANK5   BANK6   BANK7   BANK8   BANK9  BANK10  BANK1
      +1  BANK12  BANK13  BANK14  BANK15  BANK16  BANK17  BANK18  BANK19  BANK20  BANK21  BANK22  BANK23  BANK24  BANK25  BANK2
      +6  BANK27  BANK28  BANK29  BANK30  BANK31
 10091 ;;      Params:         0       0       0       0       0       0       0       0       0       0       0       0       
      +0       0       0       0       0       0       0       0       0       0       0       0       0       0       0       
      +0       0       0       0       0       0
 10092 ;;      Locals:         0       0       0       0       0       0       0       0       0       0       0       0       
      +0       0       0       0       0       0       0       0       0       0       0       0       0       0       0       
      +0       0       0       0       0       0
 10093 ;;      Temps:          0       0       0       0       0       0       0       0       0       0       0       0       
      +0       0       0       0       0       0       0       0       0       0       0       0       0       0       0       
      +0       0       0       0       0       0
 10094 ;;      Totals:         0       0       0       0       0       0       0       0       0       0       0       0       
      +0       0       0       0       0       0       0       0       0       0       0       0       0       0       0       
      +0       0       0       0       0       0
 10095 ;;Total ram usage:        0 bytes
 10096 ;; Hardware stack levels used:    1
 10097 ;; Hardware stack levels required when called:    1
 10098 ;; This function calls:
 10099 ;;		Absolute function
 10100 ;;		_INT2_DefaultInterruptHandler
 10101 ;; This function is called by:
 10102 ;;		_INT2_ISR
 10103 ;; This function uses a reentrant model
 10104 ;;
 10105                           
 10106                           	psect	text70
 10107  0049A8                     __ptext70:
 10108                           	opt callstack 0
 10109  0049A8                     _INT2_CallBack:
 10110                           	opt callstack 18
 10111                           
 10112                           ;mcc_generated_files/ext_int.c: 99:     if(INT2_InterruptHandler)
 10113                           
 10114                           ; autosize = 0, savesize = 0, parsavesize = 0, tempsize = 0 parsize = 0, argsize = 0 var
      +                          gsize = 0, retsize = 0 argfudge = 0
 10115                           ;incstack = 0
 10116  0049A8  501F               	movf	_INT2_InterruptHandler,w,c
 10117  0049AA  1020               	iorwf	_INT2_InterruptHandler+1,w,c
 10118  0049AC  1021               	iorwf	_INT2_InterruptHandler+2,w,c
 10119  0049AE  B4D8               	btfsc	status,2,c
 10120  0049B0  0012               	return	
 10121                           
 10122                           ;mcc_generated_files/ext_int.c: 100:     {;mcc_generated_files/ext_int.c: 101:         I
      +                          NT2_InterruptHandler();
 10123  0049B2  D801               	call	u115_48
 10124  0049B4  0012               	return	
 10125  0049B6                     u115_48:
 10126  0049B6  0005               	push	
 10127  0049B8  6EFA               	movwf	pclath,c
 10128  0049BA  501F               	movf	_INT2_InterruptHandler,w,c
 10129  0049BC  6EFD               	movwf	tosl,c
 10130  0049BE  5020               	movf	_INT2_InterruptHandler+1,w,c
 10131  0049C0  6EFE               	movwf	tosh,c
 10132  0049C2  5021               	movf	_INT2_InterruptHandler+2,w,c
 10133  0049C4  6EFF               	movwf	tosu,c
 10134  0049C6  50FA               	movf	pclath,w,c
 10135  0049C8  0012               	return		;indir
 10136  0049CA                     __end_of_INT2_CallBack:
 10137                           	opt callstack 0
 10138                           
 10139 ;; *************** function _INT2_DefaultInterruptHandler *****************
 10140 ;; Defined at:
 10141 ;;		line 109 in file "mcc_generated_files/ext_int.c"
 10142 ;; Parameters:    Size  Location     Type
 10143 ;;		None
 10144 ;; Auto vars:     Size  Location     Type
 10145 ;;		None
 10146 ;; Return value:  Size  Location     Type
 10147 ;;                  1  [STACK] void 
 10148 ;; Registers used:
 10149 ;;		None
 10150 ;; Tracked objects:
 10151 ;;		On entry : 0/39
 10152 ;;		On exit  : 0/0
 10153 ;;		Unchanged: 0/0
 10154 ;; Data sizes:     COMRAM   BANK0   BANK1   BANK2   BANK3   BANK4   BANK5   BANK6   BANK7   BANK8   BANK9  BANK10  BANK1
      +1  BANK12  BANK13  BANK14  BANK15  BANK16  BANK17  BANK18  BANK19  BANK20  BANK21  BANK22  BANK23  BANK24  BANK25  BANK2
      +6  BANK27  BANK28  BANK29  BANK30  BANK31
 10155 ;;      Params:         0       0       0       0       0       0       0       0       0       0       0       0       
      +0       0       0       0       0       0       0       0       0       0       0       0       0       0       0       
      +0       0       0       0       0       0
 10156 ;;      Locals:         0       0       0       0       0       0       0       0       0       0       0       0       
      +0       0       0       0       0       0       0       0       0       0       0       0       0       0       0       
      +0       0       0       0       0       0
 10157 ;;      Temps:          0       0       0       0       0       0       0       0       0       0       0       0       
      +0       0       0       0       0       0       0       0       0       0       0       0       0       0       0       
      +0       0       0       0       0       0
 10158 ;;      Totals:         0       0       0       0       0       0       0       0       0       0       0       0       
      +0       0       0       0       0       0       0       0       0       0       0       0       0       0       0       
      +0       0       0       0       0       0
 10159 ;;Total ram usage:        0 bytes
 10160 ;; Hardware stack levels used:    1
 10161 ;; This function calls:
 10162 ;;		Nothing
 10163 ;; This function is called by:
 10164 ;;		_EXT_INT_Initialize
 10165 ;;		_INT2_CallBack
 10166 ;; This function uses a reentrant model
 10167 ;;
 10168                           
 10169                           	psect	text71
 10170  004BBA                     __ptext71:
 10171                           	opt callstack 0
 10172  004BBA                     _INT2_DefaultInterruptHandler:
 10173                           	opt callstack 18
 10174                           
 10175                           ; _INT2_DefaultInterruptHandler: autosize = 0, savesize = 0, parsavesize = 0, tempsize =
      +                           0 parsize = 0, argsize = 0, vargsize = 0
 10176                           
 10177                           ; autosize = 0, savesize = 0, parsavesize = 0, tempsize = 0 parsize = 0, argsize = 0 var
      +                          gsize = 0, retsize = 0 argfudge = 0
 10178                           ;incstack = 0
 10179  004BBA  0012               	return		;funcret
 10180  004BBC                     __end_of_INT2_DefaultInterruptHandler:
 10181                           	opt callstack 0
 10182                           
 10183 ;; *************** function _Default_ISR *****************
 10184 ;; Defined at:
 10185 ;;		line 87 in file "mcc_generated_files/interrupt_manager.c"
 10186 ;; Parameters:    Size  Location     Type
 10187 ;;		None
 10188 ;; Auto vars:     Size  Location     Type
 10189 ;;		None
 10190 ;; Return value:  Size  Location     Type
 10191 ;;                  1    wreg      void 
 10192 ;; Registers used:
 10193 ;;		None
 10194 ;; Tracked objects:
 10195 ;;		On entry : 0/0
 10196 ;;		On exit  : 0/0
 10197 ;;		Unchanged: 0/0
 10198 ;; Data sizes:     COMRAM   BANK0   BANK1   BANK2   BANK3   BANK4   BANK5   BANK6   BANK7   BANK8   BANK9  BANK10  BANK1
      +1  BANK12  BANK13  BANK14  BANK15  BANK16  BANK17  BANK18  BANK19  BANK20  BANK21  BANK22  BANK23  BANK24  BANK25  BANK2
      +6  BANK27  BANK28  BANK29  BANK30  BANK31
 10199 ;;      Params:         0       0       0       0       0       0       0       0       0       0       0       0       
      +0       0       0       0       0       0       0       0       0       0       0       0       0       0       0       
      +0       0       0       0       0       0
 10200 ;;      Locals:         0       0       0       0       0       0       0       0       0       0       0       0       
      +0       0       0       0       0       0       0       0       0       0       0       0       0       0       0       
      +0       0       0       0       0       0
 10201 ;;      Temps:          0       0       0       0       0       0       0       0       0       0       0       0       
      +0       0       0       0       0       0       0       0       0       0       0       0       0       0       0       
      +0       0       0       0       0       0
 10202 ;;      Totals:         0       0       0       0       0       0       0       0       0       0       0       0       
      +0       0       0       0       0       0       0       0       0       0       0       0       0       0       0       
      +0       0       0       0       0       0
 10203 ;;Total ram usage:        0 bytes
 10204 ;; Hardware stack levels used:    1
 10205 ;; This function calls:
 10206 ;;		Nothing
 10207 ;; This function is called by:
 10208 ;;		Interrupt level 2
 10209 ;; This function uses a non-reentrant model
 10210 ;;
 10211                           
 10212                           	psect	text72
 10213  004BAC                     __ptext72:
 10214                           	opt callstack 0
 10215  004BAC                     _Default_ISR:
 10216                           	opt callstack 20
 10217                           
 10218                           ;incstack = 0
 10219  004BAC  EE13  F05A         	lfsr	1,___inthi_sp
 10220  004BB0  0011               	retfie		f
 10221  004BB2                     __end_of_Default_ISR:
 10222                           	opt callstack 0
 10223                           
 10224 ;; *************** function _ADCC_ISR *****************
 10225 ;; Defined at:
 10226 ;;		line 307 in file "mcc_generated_files/adcc.c"
 10227 ;; Parameters:    Size  Location     Type
 10228 ;;		None
 10229 ;; Auto vars:     Size  Location     Type
 10230 ;;		None
 10231 ;; Return value:  Size  Location     Type
 10232 ;;                  1    wreg      void 
 10233 ;; Registers used:
 10234 ;;		wreg, status,2, status,0, pclath, tosl
 10235 ;; Tracked objects:
 10236 ;;		On entry : 0/0
 10237 ;;		On exit  : 0/0
 10238 ;;		Unchanged: 0/0
 10239 ;; Data sizes:     COMRAM   BANK0   BANK1   BANK2   BANK3   BANK4   BANK5   BANK6   BANK7   BANK8   BANK9  BANK10  BANK1
      +1  BANK12  BANK13  BANK14  BANK15  BANK16  BANK17  BANK18  BANK19  BANK20  BANK21  BANK22  BANK23  BANK24  BANK25  BANK2
      +6  BANK27  BANK28  BANK29  BANK30  BANK31
 10240 ;;      Params:         0       0       0       0       0       0       0       0       0       0       0       0       
      +0       0       0       0       0       0       0       0       0       0       0       0       0       0       0       
      +0       0       0       0       0       0
 10241 ;;      Locals:         0       0       0       0       0       0       0       0       0       0       0       0       
      +0       0       0       0       0       0       0       0       0       0       0       0       0       0       0       
      +0       0       0       0       0       0
 10242 ;;      Temps:          0       0       0       0       0       0       0       0       0       0       0       0       
      +0       0       0       0       0       0       0       0       0       0       0       0       0       0       0       
      +0       0       0       0       0       0
 10243 ;;      Totals:         0       0       0       0       0       0       0       0       0       0       0       0       
      +0       0       0       0       0       0       0       0       0       0       0       0       0       0       0       
      +0       0       0       0       0       0
 10244 ;;Total ram usage:        0 bytes
 10245 ;; Hardware stack levels used:    1
 10246 ;; Hardware stack levels required when called:    1
 10247 ;; This function calls:
 10248 ;;		Absolute function
 10249 ;;		_ADCC_DefaultInterruptHandler
 10250 ;; This function is called by:
 10251 ;;		Interrupt level 2
 10252 ;; This function uses a non-reentrant model
 10253 ;;
 10254                           
 10255                           	psect	text73
 10256  004670                     __ptext73:
 10257                           	opt callstack 0
 10258  004670                     _ADCC_ISR:
 10259                           	opt callstack 19
 10260                           
 10261                           ;incstack = 0
 10262  004670  EE13  F05A         	lfsr	1,___inthi_sp
 10263                           
 10264                           ;mcc_generated_files/adcc.c: 310:     PIR1bits.ADIF = 0;
 10265  004674  0139               	movlb	57	; () banked
 10266  004676  95A1               	bcf	161,2,b	;volatile
 10267                           
 10268                           ; BSR set to: 57
 10269                           ;mcc_generated_files/adcc.c: 312:     if (ADCC_ADI_InterruptHandler)
 10270  004678  5010               	movf	_ADCC_ADI_InterruptHandler,w,c
 10271  00467A  1011               	iorwf	_ADCC_ADI_InterruptHandler+1,w,c
 10272  00467C  1012               	iorwf	_ADCC_ADI_InterruptHandler+2,w,c
 10273  00467E  B4D8               	btfsc	status,2,c
 10274  004680  0011               	retfie		f
 10275                           
 10276                           ; BSR set to: 57
 10277                           ;mcc_generated_files/adcc.c: 313:             ADCC_ADI_InterruptHandler();
 10278  004682  D801               	call	i2u133_48
 10279  004684  0011               	retfie		f
 10280  004686                     i2u133_48:
 10281  004686  0005               	push	
 10282  004688  6EFA               	movwf	pclath,c
 10283  00468A  5010               	movf	_ADCC_ADI_InterruptHandler,w,c
 10284  00468C  6EFD               	movwf	tosl,c
 10285  00468E  5011               	movf	_ADCC_ADI_InterruptHandler+1,w,c
 10286  004690  6EFE               	movwf	tosh,c
 10287  004692  5012               	movf	_ADCC_ADI_InterruptHandler+2,w,c
 10288  004694  6EFF               	movwf	tosu,c
 10289  004696  50FA               	movf	pclath,w,c
 10290  004698  0012               	return		;indir
 10291  00469A                     __end_of_ADCC_ISR:
 10292                           	opt callstack 0
 10293                           
 10294 ;; *************** function _ADCC_DefaultInterruptHandler *****************
 10295 ;; Defined at:
 10296 ;;		line 320 in file "mcc_generated_files/adcc.c"
 10297 ;; Parameters:    Size  Location     Type
 10298 ;;		None
 10299 ;; Auto vars:     Size  Location     Type
 10300 ;;		None
 10301 ;; Return value:  Size  Location     Type
 10302 ;;                  1  [STACK] void 
 10303 ;; Registers used:
 10304 ;;		None
 10305 ;; Tracked objects:
 10306 ;;		On entry : 3F/39
 10307 ;;		On exit  : 0/0
 10308 ;;		Unchanged: 0/0
 10309 ;; Data sizes:     COMRAM   BANK0   BANK1   BANK2   BANK3   BANK4   BANK5   BANK6   BANK7   BANK8   BANK9  BANK10  BANK1
      +1  BANK12  BANK13  BANK14  BANK15  BANK16  BANK17  BANK18  BANK19  BANK20  BANK21  BANK22  BANK23  BANK24  BANK25  BANK2
      +6  BANK27  BANK28  BANK29  BANK30  BANK31
 10310 ;;      Params:         0       0       0       0       0       0       0       0       0       0       0       0       
      +0       0       0       0       0       0       0       0       0       0       0       0       0       0       0       
      +0       0       0       0       0       0
 10311 ;;      Locals:         0       0       0       0       0       0       0       0       0       0       0       0       
      +0       0       0       0       0       0       0       0       0       0       0       0       0       0       0       
      +0       0       0       0       0       0
 10312 ;;      Temps:          0       0       0       0       0       0       0       0       0       0       0       0       
      +0       0       0       0       0       0       0       0       0       0       0       0       0       0       0       
      +0       0       0       0       0       0
 10313 ;;      Totals:         0       0       0       0       0       0       0       0       0       0       0       0       
      +0       0       0       0       0       0       0       0       0       0       0       0       0       0       0       
      +0       0       0       0       0       0
 10314 ;;Total ram usage:        0 bytes
 10315 ;; Hardware stack levels used:    1
 10316 ;; This function calls:
 10317 ;;		Nothing
 10318 ;; This function is called by:
 10319 ;;		_ADCC_Initialize
 10320 ;;		_ADCC_ISR
 10321 ;; This function uses a reentrant model
 10322 ;;
 10323                           
 10324                           	psect	text74
 10325  004BBC                     __ptext74:
 10326                           	opt callstack 0
 10327  004BBC                     _ADCC_DefaultInterruptHandler:
 10328                           	opt callstack 19
 10329                           
 10330                           ; _ADCC_DefaultInterruptHandler: autosize = 0, savesize = 0, parsavesize = 0, tempsize =
      +                           0 parsize = 0, argsize = 0, vargsize = 0
 10331                           
 10332                           ; autosize = 0, savesize = 0, parsavesize = 0, tempsize = 0 parsize = 0, argsize = 0 var
      +                          gsize = 0, retsize = 0 argfudge = 0
 10333                           ;incstack = 0
 10334  004BBC  0012               	return		;funcret
 10335  004BBE                     __end_of_ADCC_DefaultInterruptHandler:
 10336                           	opt callstack 0
 10337                           
 10338 ;; *************** function _UART1_tx_vect_isr *****************
 10339 ;; Defined at:
 10340 ;;		line 204 in file "mcc_generated_files/uart1.c"
 10341 ;; Parameters:    Size  Location     Type
 10342 ;;		None
 10343 ;; Auto vars:     Size  Location     Type
 10344 ;;		None
 10345 ;; Return value:  Size  Location     Type
 10346 ;;                  1    wreg      void 
 10347 ;; Registers used:
 10348 ;;		wreg, fsr2l, fsr2h, status,2, status,0, pclath, tosl
 10349 ;; Tracked objects:
 10350 ;;		On entry : 0/0
 10351 ;;		On exit  : 0/0
 10352 ;;		Unchanged: 0/0
 10353 ;; Data sizes:     COMRAM   BANK0   BANK1   BANK2   BANK3   BANK4   BANK5   BANK6   BANK7   BANK8   BANK9  BANK10  BANK1
      +1  BANK12  BANK13  BANK14  BANK15  BANK16  BANK17  BANK18  BANK19  BANK20  BANK21  BANK22  BANK23  BANK24  BANK25  BANK2
      +6  BANK27  BANK28  BANK29  BANK30  BANK31
 10354 ;;      Params:         0       0       0       0       0       0       0       0       0       0       0       0       
      +0       0       0       0       0       0       0       0       0       0       0       0       0       0       0       
      +0       0       0       0       0       0
 10355 ;;      Locals:         0       0       0       0       0       0       0       0       0       0       0       0       
      +0       0       0       0       0       0       0       0       0       0       0       0       0       0       0       
      +0       0       0       0       0       0
 10356 ;;      Temps:          0       0       0       0       0       0       0       0       0       0       0       0       
      +0       0       0       0       0       0       0       0       0       0       0       0       0       0       0       
      +0       0       0       0       0       0
 10357 ;;      Totals:         0       0       0       0       0       0       0       0       0       0       0       0       
      +0       0       0       0       0       0       0       0       0       0       0       0       0       0       0       
      +0       0       0       0       0       0
 10358 ;;Total ram usage:        0 bytes
 10359 ;; Hardware stack levels used:    1
 10360 ;; Hardware stack levels required when called:    1
 10361 ;; This function calls:
 10362 ;;		Absolute function
 10363 ;;		_UART1_Transmit_ISR
 10364 ;; This function is called by:
 10365 ;;		Interrupt level 2
 10366 ;; This function uses a non-reentrant model
 10367 ;;
 10368                           
 10369                           	psect	text75
 10370  0048A4                     __ptext75:
 10371                           	opt callstack 0
 10372  0048A4                     _UART1_tx_vect_isr:
 10373                           	opt callstack 19
 10374                           
 10375                           ;incstack = 0
 10376  0048A4  EE13  F05A         	lfsr	1,___inthi_sp
 10377                           
 10378                           ;mcc_generated_files/uart1.c: 206:     if(UART1_TxInterruptHandler)
 10379  0048A8  5013               	movf	_UART1_TxInterruptHandler,w,c
 10380  0048AA  1014               	iorwf	_UART1_TxInterruptHandler+1,w,c
 10381  0048AC  1015               	iorwf	_UART1_TxInterruptHandler+2,w,c
 10382  0048AE  B4D8               	btfsc	status,2,c
 10383  0048B0  0011               	retfie		f
 10384                           
 10385                           ;mcc_generated_files/uart1.c: 207:     {;mcc_generated_files/uart1.c: 208:         UART1
      +                          _TxInterruptHandler();
 10386  0048B2  D801               	call	i2u272_48
 10387  0048B4  0011               	retfie		f
 10388  0048B6                     i2u272_48:
 10389  0048B6  0005               	push	
 10390  0048B8  6EFA               	movwf	pclath,c
 10391  0048BA  5013               	movf	_UART1_TxInterruptHandler,w,c
 10392  0048BC  6EFD               	movwf	tosl,c
 10393  0048BE  5014               	movf	_UART1_TxInterruptHandler+1,w,c
 10394  0048C0  6EFE               	movwf	tosh,c
 10395  0048C2  5015               	movf	_UART1_TxInterruptHandler+2,w,c
 10396  0048C4  6EFF               	movwf	tosu,c
 10397  0048C6  50FA               	movf	pclath,w,c
 10398  0048C8  0012               	return		;indir
 10399  0048CA                     __end_of_UART1_tx_vect_isr:
 10400                           	opt callstack 0
 10401                           
 10402 ;; *************** function _UART1_Transmit_ISR *****************
 10403 ;; Defined at:
 10404 ;;		line 222 in file "mcc_generated_files/uart1.c"
 10405 ;; Parameters:    Size  Location     Type
 10406 ;;		None
 10407 ;; Auto vars:     Size  Location     Type
 10408 ;;		None
 10409 ;; Return value:  Size  Location     Type
 10410 ;;                  1  [STACK] void 
 10411 ;; Registers used:
 10412 ;;		wreg, fsr2l, fsr2h, status,2, status,0
 10413 ;; Tracked objects:
 10414 ;;		On entry : 0/0
 10415 ;;		On exit  : 3B/39
 10416 ;;		Unchanged: 0/0
 10417 ;; Data sizes:     COMRAM   BANK0   BANK1   BANK2   BANK3   BANK4   BANK5   BANK6   BANK7   BANK8   BANK9  BANK10  BANK1
      +1  BANK12  BANK13  BANK14  BANK15  BANK16  BANK17  BANK18  BANK19  BANK20  BANK21  BANK22  BANK23  BANK24  BANK25  BANK2
      +6  BANK27  BANK28  BANK29  BANK30  BANK31
 10418 ;;      Params:         0       0       0       0       0       0       0       0       0       0       0       0       
      +0       0       0       0       0       0       0       0       0       0       0       0       0       0       0       
      +0       0       0       0       0       0
 10419 ;;      Locals:         0       0       0       0       0       0       0       0       0       0       0       0       
      +0       0       0       0       0       0       0       0       0       0       0       0       0       0       0       
      +0       0       0       0       0       0
 10420 ;;      Temps:          0       0       0       0       0       0       0       0       0       0       0       0       
      +0       0       0       0       0       0       0       0       0       0       0       0       0       0       0       
      +0       0       0       0       0       0
 10421 ;;      Totals:         0       0       0       0       0       0       0       0       0       0       0       0       
      +0       0       0       0       0       0       0       0       0       0       0       0       0       0       0       
      +0       0       0       0       0       0
 10422 ;;Total ram usage:        0 bytes
 10423 ;; Hardware stack levels used:    1
 10424 ;; This function calls:
 10425 ;;		Nothing
 10426 ;; This function is called by:
 10427 ;;		_UART1_Initialize
 10428 ;;		_UART1_tx_vect_isr
 10429 ;; This function uses a reentrant model
 10430 ;;
 10431                           
 10432                           	psect	text76
 10433  0045EE                     __ptext76:
 10434                           	opt callstack 0
 10435  0045EE                     _UART1_Transmit_ISR:
 10436                           	opt callstack 19
 10437                           
 10438                           ;mcc_generated_files/uart1.c: 225:     if(sizeof(uart1TxBuffer) > uart1TxBufferRemaining
      +                          )
 10439                           
 10440                           ; autosize = 0, savesize = 0, parsavesize = 0, tempsize = 0 parsize = 0, argsize = 0 var
      +                          gsize = 0, retsize = 0 argfudge = 0
 10441                           ;incstack = 0
 10442  0045EE  0E40               	movlw	64
 10443  0045F0  6039               	cpfslt	_uart1TxBufferRemaining,c
 10444  0045F2  D010               	goto	l593
 10445                           
 10446                           ;mcc_generated_files/uart1.c: 226:     {;mcc_generated_files/uart1.c: 227:         U1TXB
      +                           = uart1TxBuffer[uart1TxTail++];
 10447  0045F4  0EC0               	movlw	low _uart1TxBuffer
 10448  0045F6  243A               	addwf	_uart1TxTail,w,c	;volatile
 10449  0045F8  6ED9               	movwf	fsr2l,c
 10450  0045FA  6ADA               	clrf	fsr2h,c
 10451  0045FC  0E01               	movlw	high _uart1TxBuffer
 10452  0045FE  22DA               	addwfc	fsr2h,f,c
 10453  004600  50DF               	movf	indf2,w,c
 10454  004602  013D               	movlb	61	; () banked
 10455  004604  6FEA               	movwf	234,b	;volatile
 10456                           
 10457                           ; BSR set to: 61
 10458  004606  2A3A               	incf	_uart1TxTail,f,c	;volatile
 10459                           
 10460                           ; BSR set to: 61
 10461                           ;mcc_generated_files/uart1.c: 228:        if(sizeof(uart1TxBuffer) <= uart1TxTail)
 10462  004608  0E3F               	movlw	63
 10463  00460A  643A               	cpfsgt	_uart1TxTail,c
 10464  00460C  D001               	goto	l4391
 10465                           
 10466                           ; BSR set to: 61
 10467                           ;mcc_generated_files/uart1.c: 229:         {;mcc_generated_files/uart1.c: 230:          
      +                             uart1TxTail = 0;
 10468  00460E  6A3A               	clrf	_uart1TxTail,c	;volatile
 10469  004610                     l4391:
 10470                           
 10471                           ; BSR set to: 61
 10472                           ;mcc_generated_files/uart1.c: 232:         uart1TxBufferRemaining++;
 10473  004610  2A39               	incf	_uart1TxBufferRemaining,f,c	;volatile
 10474                           
 10475                           ;mcc_generated_files/uart1.c: 233:     }
 10476  004612  0012               	return	
 10477  004614                     l593:
 10478                           
 10479                           ;mcc_generated_files/uart1.c: 235:     {;mcc_generated_files/uart1.c: 236:         PIE3b
      +                          its.U1TXIE = 0;
 10480  004614  0139               	movlb	57	; () banked
 10481  004616  9993               	bcf	147,4,b	;volatile
 10482                           
 10483                           ; _UART1_Transmit_ISR: autosize = 0, savesize = 0, parsavesize = 0, tempsize = 0 parsize
      +                           = 0, argsize = 0, vargsize = 0
 10484  004618  0012               	return		;funcret
 10485  00461A                     __end_of_UART1_Transmit_ISR:
 10486                           	opt callstack 0
 10487                           
 10488 ;; *************** function _UART1_rx_vect_isr *****************
 10489 ;; Defined at:
 10490 ;;		line 212 in file "mcc_generated_files/uart1.c"
 10491 ;; Parameters:    Size  Location     Type
 10492 ;;		None
 10493 ;; Auto vars:     Size  Location     Type
 10494 ;;		None
 10495 ;; Return value:  Size  Location     Type
 10496 ;;                  1    wreg      void 
 10497 ;; Registers used:
 10498 ;;		wreg, fsr2l, fsr2h, status,2, status,0, pclath, tosl
 10499 ;; Tracked objects:
 10500 ;;		On entry : 0/0
 10501 ;;		On exit  : 0/0
 10502 ;;		Unchanged: 0/0
 10503 ;; Data sizes:     COMRAM   BANK0   BANK1   BANK2   BANK3   BANK4   BANK5   BANK6   BANK7   BANK8   BANK9  BANK10  BANK1
      +1  BANK12  BANK13  BANK14  BANK15  BANK16  BANK17  BANK18  BANK19  BANK20  BANK21  BANK22  BANK23  BANK24  BANK25  BANK2
      +6  BANK27  BANK28  BANK29  BANK30  BANK31
 10504 ;;      Params:         0       0       0       0       0       0       0       0       0       0       0       0       
      +0       0       0       0       0       0       0       0       0       0       0       0       0       0       0       
      +0       0       0       0       0       0
 10505 ;;      Locals:         0       0       0       0       0       0       0       0       0       0       0       0       
      +0       0       0       0       0       0       0       0       0       0       0       0       0       0       0       
      +0       0       0       0       0       0
 10506 ;;      Temps:          0       0       0       0       0       0       0       0       0       0       0       0       
      +0       0       0       0       0       0       0       0       0       0       0       0       0       0       0       
      +0       0       0       0       0       0
 10507 ;;      Totals:         0       0       0       0       0       0       0       0       0       0       0       0       
      +0       0       0       0       0       0       0       0       0       0       0       0       0       0       0       
      +0       0       0       0       0       0
 10508 ;;Total ram usage:        0 bytes
 10509 ;; Hardware stack levels used:    1
 10510 ;; Hardware stack levels required when called:    1
 10511 ;; This function calls:
 10512 ;;		Absolute function
 10513 ;;		_UART1_Receive_ISR
 10514 ;; This function is called by:
 10515 ;;		Interrupt level 2
 10516 ;; This function uses a non-reentrant model
 10517 ;;
 10518                           
 10519                           	psect	text77
 10520  0048CC                     __ptext77:
 10521                           	opt callstack 0
 10522  0048CC                     _UART1_rx_vect_isr:
 10523                           	opt callstack 19
 10524                           
 10525                           ;incstack = 0
 10526  0048CC  EE13  F05A         	lfsr	1,___inthi_sp
 10527                           
 10528                           ;mcc_generated_files/uart1.c: 214:     if(UART1_RxInterruptHandler)
 10529  0048D0  5016               	movf	_UART1_RxInterruptHandler,w,c
 10530  0048D2  1017               	iorwf	_UART1_RxInterruptHandler+1,w,c
 10531  0048D4  1018               	iorwf	_UART1_RxInterruptHandler+2,w,c
 10532  0048D6  B4D8               	btfsc	status,2,c
 10533  0048D8  0011               	retfie		f
 10534                           
 10535                           ;mcc_generated_files/uart1.c: 215:     {;mcc_generated_files/uart1.c: 216:         UART1
      +                          _RxInterruptHandler();
 10536  0048DA  D801               	call	i2u274_48
 10537  0048DC  0011               	retfie		f
 10538  0048DE                     i2u274_48:
 10539  0048DE  0005               	push	
 10540  0048E0  6EFA               	movwf	pclath,c
 10541  0048E2  5016               	movf	_UART1_RxInterruptHandler,w,c
 10542  0048E4  6EFD               	movwf	tosl,c
 10543  0048E6  5017               	movf	_UART1_RxInterruptHandler+1,w,c
 10544  0048E8  6EFE               	movwf	tosh,c
 10545  0048EA  5018               	movf	_UART1_RxInterruptHandler+2,w,c
 10546  0048EC  6EFF               	movwf	tosu,c
 10547  0048EE  50FA               	movf	pclath,w,c
 10548  0048F0  0012               	return		;indir
 10549  0048F2                     __end_of_UART1_rx_vect_isr:
 10550                           	opt callstack 0
 10551                           
 10552 ;; *************** function _UART1_Receive_ISR *****************
 10553 ;; Defined at:
 10554 ;;		line 242 in file "mcc_generated_files/uart1.c"
 10555 ;; Parameters:    Size  Location     Type
 10556 ;;		None
 10557 ;; Auto vars:     Size  Location     Type
 10558 ;;		None
 10559 ;; Return value:  Size  Location     Type
 10560 ;;                  1  [STACK] void 
 10561 ;; Registers used:
 10562 ;;		wreg, fsr2l, fsr2h, status,2, status,0
 10563 ;; Tracked objects:
 10564 ;;		On entry : 0/0
 10565 ;;		On exit  : 0/0
 10566 ;;		Unchanged: 0/0
 10567 ;; Data sizes:     COMRAM   BANK0   BANK1   BANK2   BANK3   BANK4   BANK5   BANK6   BANK7   BANK8   BANK9  BANK10  BANK1
      +1  BANK12  BANK13  BANK14  BANK15  BANK16  BANK17  BANK18  BANK19  BANK20  BANK21  BANK22  BANK23  BANK24  BANK25  BANK2
      +6  BANK27  BANK28  BANK29  BANK30  BANK31
 10568 ;;      Params:         0       0       0       0       0       0       0       0       0       0       0       0       
      +0       0       0       0       0       0       0       0       0       0       0       0       0       0       0       
      +0       0       0       0       0       0
 10569 ;;      Locals:         0       0       0       0       0       0       0       0       0       0       0       0       
      +0       0       0       0       0       0       0       0       0       0       0       0       0       0       0       
      +0       0       0       0       0       0
 10570 ;;      Temps:          0       0       0       0       0       0       0       0       0       0       0       0       
      +0       0       0       0       0       0       0       0       0       0       0       0       0       0       0       
      +0       0       0       0       0       0
 10571 ;;      Totals:         0       0       0       0       0       0       0       0       0       0       0       0       
      +0       0       0       0       0       0       0       0       0       0       0       0       0       0       0       
      +0       0       0       0       0       0
 10572 ;;Total ram usage:        0 bytes
 10573 ;; Hardware stack levels used:    1
 10574 ;; This function calls:
 10575 ;;		Nothing
 10576 ;; This function is called by:
 10577 ;;		_UART1_Initialize
 10578 ;;		_UART1_rx_vect_isr
 10579 ;; This function uses a reentrant model
 10580 ;;
 10581                           
 10582                           	psect	text78
 10583  0049EC                     __ptext78:
 10584                           	opt callstack 0
 10585  0049EC                     _UART1_Receive_ISR:
 10586                           	opt callstack 19
 10587                           
 10588                           ;mcc_generated_files/uart1.c: 245:     uart1RxBuffer[uart1RxHead++] = U1RXB;
 10589                           
 10590                           ; autosize = 0, savesize = 0, parsavesize = 0, tempsize = 0 parsize = 0, argsize = 0 var
      +                          gsize = 0, retsize = 0 argfudge = 0
 10591                           ;incstack = 0
 10592  0049EC  0E80               	movlw	low _uart1RxBuffer
 10593  0049EE  2438               	addwf	_uart1RxHead,w,c	;volatile
 10594  0049F0  6ED9               	movwf	fsr2l,c
 10595  0049F2  6ADA               	clrf	fsr2h,c
 10596  0049F4  0E01               	movlw	high _uart1RxBuffer
 10597  0049F6  22DA               	addwfc	fsr2h,f,c
 10598  0049F8  006F F7A3 FFDF     	movff	15848,indf2	;volatile
 10599  0049FE  2A38               	incf	_uart1RxHead,f,c	;volatile
 10600                           
 10601                           ;mcc_generated_files/uart1.c: 246:     if(sizeof(uart1RxBuffer) <= uart1RxHead)
 10602  004A00  0E3F               	movlw	63
 10603  004A02  6438               	cpfsgt	_uart1RxHead,c
 10604  004A04  D001               	goto	l4401
 10605                           
 10606                           ;mcc_generated_files/uart1.c: 247:     {;mcc_generated_files/uart1.c: 248:         uart1
      +                          RxHead = 0;
 10607  004A06  6A38               	clrf	_uart1RxHead,c	;volatile
 10608  004A08                     l4401:
 10609                           
 10610                           ;mcc_generated_files/uart1.c: 250:     uart1RxCount++;
 10611  004A08  2A36               	incf	_uart1RxCount,f,c	;volatile
 10612                           
 10613                           ; _UART1_Receive_ISR: autosize = 0, savesize = 0, parsavesize = 0, tempsize = 0 parsize 
      +                          = 0, argsize = 0, vargsize = 0
 10614  004A0A  0012               	return		;funcret
 10615  004A0C                     __end_of_UART1_Receive_ISR:
 10616                           	opt callstack 0
 10617                           
 10618 ;; *************** function _UART2_tx_vect_isr *****************
 10619 ;; Defined at:
 10620 ;;		line 195 in file "mcc_generated_files/uart2.c"
 10621 ;; Parameters:    Size  Location     Type
 10622 ;;		None
 10623 ;; Auto vars:     Size  Location     Type
 10624 ;;		None
 10625 ;; Return value:  Size  Location     Type
 10626 ;;                  1    wreg      void 
 10627 ;; Registers used:
 10628 ;;		wreg, fsr2l, fsr2h, status,2, status,0, pclath, tosl
 10629 ;; Tracked objects:
 10630 ;;		On entry : 0/0
 10631 ;;		On exit  : 0/0
 10632 ;;		Unchanged: 0/0
 10633 ;; Data sizes:     COMRAM   BANK0   BANK1   BANK2   BANK3   BANK4   BANK5   BANK6   BANK7   BANK8   BANK9  BANK10  BANK1
      +1  BANK12  BANK13  BANK14  BANK15  BANK16  BANK17  BANK18  BANK19  BANK20  BANK21  BANK22  BANK23  BANK24  BANK25  BANK2
      +6  BANK27  BANK28  BANK29  BANK30  BANK31
 10634 ;;      Params:         0       0       0       0       0       0       0       0       0       0       0       0       
      +0       0       0       0       0       0       0       0       0       0       0       0       0       0       0       
      +0       0       0       0       0       0
 10635 ;;      Locals:         0       0       0       0       0       0       0       0       0       0       0       0       
      +0       0       0       0       0       0       0       0       0       0       0       0       0       0       0       
      +0       0       0       0       0       0
 10636 ;;      Temps:          0       0       0       0       0       0       0       0       0       0       0       0       
      +0       0       0       0       0       0       0       0       0       0       0       0       0       0       0       
      +0       0       0       0       0       0
 10637 ;;      Totals:         0       0       0       0       0       0       0       0       0       0       0       0       
      +0       0       0       0       0       0       0       0       0       0       0       0       0       0       0       
      +0       0       0       0       0       0
 10638 ;;Total ram usage:        0 bytes
 10639 ;; Hardware stack levels used:    1
 10640 ;; Hardware stack levels required when called:    1
 10641 ;; This function calls:
 10642 ;;		Absolute function
 10643 ;;		_UART2_Transmit_ISR
 10644 ;; This function is called by:
 10645 ;;		Interrupt level 2
 10646 ;; This function uses a non-reentrant model
 10647 ;;
 10648                           
 10649                           	psect	text79
 10650  0048F4                     __ptext79:
 10651                           	opt callstack 0
 10652  0048F4                     _UART2_tx_vect_isr:
 10653                           	opt callstack 19
 10654                           
 10655                           ;incstack = 0
 10656  0048F4  EE13  F05A         	lfsr	1,___inthi_sp
 10657                           
 10658                           ;mcc_generated_files/uart2.c: 197:     if(UART2_TxInterruptHandler)
 10659  0048F8  5019               	movf	_UART2_TxInterruptHandler,w,c
 10660  0048FA  101A               	iorwf	_UART2_TxInterruptHandler+1,w,c
 10661  0048FC  101B               	iorwf	_UART2_TxInterruptHandler+2,w,c
 10662  0048FE  B4D8               	btfsc	status,2,c
 10663  004900  0011               	retfie		f
 10664                           
 10665                           ;mcc_generated_files/uart2.c: 198:     {;mcc_generated_files/uart2.c: 199:         UART2
      +                          _TxInterruptHandler();
 10666  004902  D801               	call	i2u276_48
 10667  004904  0011               	retfie		f
 10668  004906                     i2u276_48:
 10669  004906  0005               	push	
 10670  004908  6EFA               	movwf	pclath,c
 10671  00490A  5019               	movf	_UART2_TxInterruptHandler,w,c
 10672  00490C  6EFD               	movwf	tosl,c
 10673  00490E  501A               	movf	_UART2_TxInterruptHandler+1,w,c
 10674  004910  6EFE               	movwf	tosh,c
 10675  004912  501B               	movf	_UART2_TxInterruptHandler+2,w,c
 10676  004914  6EFF               	movwf	tosu,c
 10677  004916  50FA               	movf	pclath,w,c
 10678  004918  0012               	return		;indir
 10679  00491A                     __end_of_UART2_tx_vect_isr:
 10680                           	opt callstack 0
 10681                           
 10682 ;; *************** function _UART2_Transmit_ISR *****************
 10683 ;; Defined at:
 10684 ;;		line 213 in file "mcc_generated_files/uart2.c"
 10685 ;; Parameters:    Size  Location     Type
 10686 ;;		None
 10687 ;; Auto vars:     Size  Location     Type
 10688 ;;		None
 10689 ;; Return value:  Size  Location     Type
 10690 ;;                  1  [STACK] void 
 10691 ;; Registers used:
 10692 ;;		wreg, fsr2l, fsr2h, status,2, status,0
 10693 ;; Tracked objects:
 10694 ;;		On entry : 0/0
 10695 ;;		On exit  : 3B/39
 10696 ;;		Unchanged: 0/0
 10697 ;; Data sizes:     COMRAM   BANK0   BANK1   BANK2   BANK3   BANK4   BANK5   BANK6   BANK7   BANK8   BANK9  BANK10  BANK1
      +1  BANK12  BANK13  BANK14  BANK15  BANK16  BANK17  BANK18  BANK19  BANK20  BANK21  BANK22  BANK23  BANK24  BANK25  BANK2
      +6  BANK27  BANK28  BANK29  BANK30  BANK31
 10698 ;;      Params:         0       0       0       0       0       0       0       0       0       0       0       0       
      +0       0       0       0       0       0       0       0       0       0       0       0       0       0       0       
      +0       0       0       0       0       0
 10699 ;;      Locals:         0       0       0       0       0       0       0       0       0       0       0       0       
      +0       0       0       0       0       0       0       0       0       0       0       0       0       0       0       
      +0       0       0       0       0       0
 10700 ;;      Temps:          0       0       0       0       0       0       0       0       0       0       0       0       
      +0       0       0       0       0       0       0       0       0       0       0       0       0       0       0       
      +0       0       0       0       0       0
 10701 ;;      Totals:         0       0       0       0       0       0       0       0       0       0       0       0       
      +0       0       0       0       0       0       0       0       0       0       0       0       0       0       0       
      +0       0       0       0       0       0
 10702 ;;Total ram usage:        0 bytes
 10703 ;; Hardware stack levels used:    1
 10704 ;; This function calls:
 10705 ;;		Nothing
 10706 ;; This function is called by:
 10707 ;;		_UART2_Initialize
 10708 ;;		_UART2_tx_vect_isr
 10709 ;; This function uses a reentrant model
 10710 ;;
 10711                           
 10712                           	psect	text80
 10713  00461A                     __ptext80:
 10714                           	opt callstack 0
 10715  00461A                     _UART2_Transmit_ISR:
 10716                           	opt callstack 19
 10717                           
 10718                           ;mcc_generated_files/uart2.c: 216:     if(sizeof(uart2TxBuffer) > uart2TxBufferRemaining
      +                          )
 10719                           
 10720                           ; autosize = 0, savesize = 0, parsavesize = 0, tempsize = 0 parsize = 0, argsize = 0 var
      +                          gsize = 0, retsize = 0 argfudge = 0
 10721                           ;incstack = 0
 10722  00461A  0E40               	movlw	64
 10723  00461C  6033               	cpfslt	_uart2TxBufferRemaining,c
 10724  00461E  D010               	goto	l709
 10725                           
 10726                           ;mcc_generated_files/uart2.c: 217:     {;mcc_generated_files/uart2.c: 218:         U2TXB
      +                           = uart2TxBuffer[uart2TxTail++];
 10727  004620  0E40               	movlw	low _uart2TxBuffer
 10728  004622  2434               	addwf	_uart2TxTail,w,c	;volatile
 10729  004624  6ED9               	movwf	fsr2l,c
 10730  004626  6ADA               	clrf	fsr2h,c
 10731  004628  0E01               	movlw	high _uart2TxBuffer
 10732  00462A  22DA               	addwfc	fsr2h,f,c
 10733  00462C  50DF               	movf	indf2,w,c
 10734  00462E  013D               	movlb	61	; () banked
 10735  004630  6FD2               	movwf	210,b	;volatile
 10736                           
 10737                           ; BSR set to: 61
 10738  004632  2A34               	incf	_uart2TxTail,f,c	;volatile
 10739                           
 10740                           ; BSR set to: 61
 10741                           ;mcc_generated_files/uart2.c: 219:        if(sizeof(uart2TxBuffer) <= uart2TxTail)
 10742  004634  0E3F               	movlw	63
 10743  004636  6434               	cpfsgt	_uart2TxTail,c
 10744  004638  D001               	goto	l4413
 10745                           
 10746                           ; BSR set to: 61
 10747                           ;mcc_generated_files/uart2.c: 220:         {;mcc_generated_files/uart2.c: 221:          
      +                             uart2TxTail = 0;
 10748  00463A  6A34               	clrf	_uart2TxTail,c	;volatile
 10749  00463C                     l4413:
 10750                           
 10751                           ; BSR set to: 61
 10752                           ;mcc_generated_files/uart2.c: 223:         uart2TxBufferRemaining++;
 10753  00463C  2A33               	incf	_uart2TxBufferRemaining,f,c	;volatile
 10754                           
 10755                           ;mcc_generated_files/uart2.c: 224:     }
 10756  00463E  0012               	return	
 10757  004640                     l709:
 10758                           
 10759                           ;mcc_generated_files/uart2.c: 226:     {;mcc_generated_files/uart2.c: 227:         PIE6b
      +                          its.U2TXIE = 0;
 10760  004640  0139               	movlb	57	; () banked
 10761  004642  9796               	bcf	150,3,b	;volatile
 10762                           
 10763                           ; _UART2_Transmit_ISR: autosize = 0, savesize = 0, parsavesize = 0, tempsize = 0 parsize
      +                           = 0, argsize = 0, vargsize = 0
 10764  004644  0012               	return		;funcret
 10765  004646                     __end_of_UART2_Transmit_ISR:
 10766                           	opt callstack 0
 10767                           
 10768 ;; *************** function _UART2_rx_vect_isr *****************
 10769 ;; Defined at:
 10770 ;;		line 203 in file "mcc_generated_files/uart2.c"
 10771 ;; Parameters:    Size  Location     Type
 10772 ;;		None
 10773 ;; Auto vars:     Size  Location     Type
 10774 ;;		None
 10775 ;; Return value:  Size  Location     Type
 10776 ;;                  1    wreg      void 
 10777 ;; Registers used:
 10778 ;;		wreg, fsr2l, fsr2h, status,2, status,0, pclath, tosl
 10779 ;; Tracked objects:
 10780 ;;		On entry : 0/0
 10781 ;;		On exit  : 0/0
 10782 ;;		Unchanged: 0/0
 10783 ;; Data sizes:     COMRAM   BANK0   BANK1   BANK2   BANK3   BANK4   BANK5   BANK6   BANK7   BANK8   BANK9  BANK10  BANK1
      +1  BANK12  BANK13  BANK14  BANK15  BANK16  BANK17  BANK18  BANK19  BANK20  BANK21  BANK22  BANK23  BANK24  BANK25  BANK2
      +6  BANK27  BANK28  BANK29  BANK30  BANK31
 10784 ;;      Params:         0       0       0       0       0       0       0       0       0       0       0       0       
      +0       0       0       0       0       0       0       0       0       0       0       0       0       0       0       
      +0       0       0       0       0       0
 10785 ;;      Locals:         0       0       0       0       0       0       0       0       0       0       0       0       
      +0       0       0       0       0       0       0       0       0       0       0       0       0       0       0       
      +0       0       0       0       0       0
 10786 ;;      Temps:          0       0       0       0       0       0       0       0       0       0       0       0       
      +0       0       0       0       0       0       0       0       0       0       0       0       0       0       0       
      +0       0       0       0       0       0
 10787 ;;      Totals:         0       0       0       0       0       0       0       0       0       0       0       0       
      +0       0       0       0       0       0       0       0       0       0       0       0       0       0       0       
      +0       0       0       0       0       0
 10788 ;;Total ram usage:        0 bytes
 10789 ;; Hardware stack levels used:    1
 10790 ;; Hardware stack levels required when called:    1
 10791 ;; This function calls:
 10792 ;;		Absolute function
 10793 ;;		_UART2_Receive_ISR
 10794 ;; This function is called by:
 10795 ;;		Interrupt level 2
 10796 ;; This function uses a non-reentrant model
 10797 ;;
 10798                           
 10799                           	psect	text81
 10800  00491C                     __ptext81:
 10801                           	opt callstack 0
 10802  00491C                     _UART2_rx_vect_isr:
 10803                           	opt callstack 19
 10804                           
 10805                           ;incstack = 0
 10806  00491C  EE13  F05A         	lfsr	1,___inthi_sp
 10807                           
 10808                           ;mcc_generated_files/uart2.c: 205:     if(UART2_RxInterruptHandler)
 10809  004920  501C               	movf	_UART2_RxInterruptHandler,w,c
 10810  004922  101D               	iorwf	_UART2_RxInterruptHandler+1,w,c
 10811  004924  101E               	iorwf	_UART2_RxInterruptHandler+2,w,c
 10812  004926  B4D8               	btfsc	status,2,c
 10813  004928  0011               	retfie		f
 10814                           
 10815                           ;mcc_generated_files/uart2.c: 206:     {;mcc_generated_files/uart2.c: 207:         UART2
      +                          _RxInterruptHandler();
 10816  00492A  D801               	call	i2u278_48
 10817  00492C  0011               	retfie		f
 10818  00492E                     i2u278_48:
 10819  00492E  0005               	push	
 10820  004930  6EFA               	movwf	pclath,c
 10821  004932  501C               	movf	_UART2_RxInterruptHandler,w,c
 10822  004934  6EFD               	movwf	tosl,c
 10823  004936  501D               	movf	_UART2_RxInterruptHandler+1,w,c
 10824  004938  6EFE               	movwf	tosh,c
 10825  00493A  501E               	movf	_UART2_RxInterruptHandler+2,w,c
 10826  00493C  6EFF               	movwf	tosu,c
 10827  00493E  50FA               	movf	pclath,w,c
 10828  004940  0012               	return		;indir
 10829  004942                     __end_of_UART2_rx_vect_isr:
 10830                           	opt callstack 0
 10831                           
 10832 ;; *************** function _UART2_Receive_ISR *****************
 10833 ;; Defined at:
 10834 ;;		line 233 in file "mcc_generated_files/uart2.c"
 10835 ;; Parameters:    Size  Location     Type
 10836 ;;		None
 10837 ;; Auto vars:     Size  Location     Type
 10838 ;;		None
 10839 ;; Return value:  Size  Location     Type
 10840 ;;                  1  [STACK] void 
 10841 ;; Registers used:
 10842 ;;		wreg, fsr2l, fsr2h, status,2, status,0
 10843 ;; Tracked objects:
 10844 ;;		On entry : 0/0
 10845 ;;		On exit  : 0/0
 10846 ;;		Unchanged: 0/0
 10847 ;; Data sizes:     COMRAM   BANK0   BANK1   BANK2   BANK3   BANK4   BANK5   BANK6   BANK7   BANK8   BANK9  BANK10  BANK1
      +1  BANK12  BANK13  BANK14  BANK15  BANK16  BANK17  BANK18  BANK19  BANK20  BANK21  BANK22  BANK23  BANK24  BANK25  BANK2
      +6  BANK27  BANK28  BANK29  BANK30  BANK31
 10848 ;;      Params:         0       0       0       0       0       0       0       0       0       0       0       0       
      +0       0       0       0       0       0       0       0       0       0       0       0       0       0       0       
      +0       0       0       0       0       0
 10849 ;;      Locals:         0       0       0       0       0       0       0       0       0       0       0       0       
      +0       0       0       0       0       0       0       0       0       0       0       0       0       0       0       
      +0       0       0       0       0       0
 10850 ;;      Temps:          0       0       0       0       0       0       0       0       0       0       0       0       
      +0       0       0       0       0       0       0       0       0       0       0       0       0       0       0       
      +0       0       0       0       0       0
 10851 ;;      Totals:         0       0       0       0       0       0       0       0       0       0       0       0       
      +0       0       0       0       0       0       0       0       0       0       0       0       0       0       0       
      +0       0       0       0       0       0
 10852 ;;Total ram usage:        0 bytes
 10853 ;; Hardware stack levels used:    1
 10854 ;; This function calls:
 10855 ;;		Nothing
 10856 ;; This function is called by:
 10857 ;;		_UART2_Initialize
 10858 ;;		_UART2_rx_vect_isr
 10859 ;; This function uses a reentrant model
 10860 ;;
 10861                           
 10862                           	psect	text82
 10863  004A0C                     __ptext82:
 10864                           	opt callstack 0
 10865  004A0C                     _UART2_Receive_ISR:
 10866                           	opt callstack 19
 10867                           
 10868                           ;mcc_generated_files/uart2.c: 236:     uart2RxBuffer[uart2RxHead++] = U2RXB;
 10869                           
 10870                           ; autosize = 0, savesize = 0, parsavesize = 0, tempsize = 0 parsize = 0, argsize = 0 var
      +                          gsize = 0, retsize = 0 argfudge = 0
 10871                           ;incstack = 0
 10872  004A0C  0E00               	movlw	low _uart2RxBuffer
 10873  004A0E  2432               	addwf	_uart2RxHead,w,c	;volatile
 10874  004A10  6ED9               	movwf	fsr2l,c
 10875  004A12  6ADA               	clrf	fsr2h,c
 10876  004A14  0E01               	movlw	high _uart2RxBuffer
 10877  004A16  22DA               	addwfc	fsr2h,f,c
 10878  004A18  006F F743 FFDF     	movff	15824,indf2	;volatile
 10879  004A1E  2A32               	incf	_uart2RxHead,f,c	;volatile
 10880                           
 10881                           ;mcc_generated_files/uart2.c: 237:     if(sizeof(uart2RxBuffer) <= uart2RxHead)
 10882  004A20  0E3F               	movlw	63
 10883  004A22  6432               	cpfsgt	_uart2RxHead,c
 10884  004A24  D001               	goto	l4423
 10885                           
 10886                           ;mcc_generated_files/uart2.c: 238:     {;mcc_generated_files/uart2.c: 239:         uart2
      +                          RxHead = 0;
 10887  004A26  6A32               	clrf	_uart2RxHead,c	;volatile
 10888  004A28                     l4423:
 10889                           
 10890                           ;mcc_generated_files/uart2.c: 241:     uart2RxCount++;
 10891  004A28  2A30               	incf	_uart2RxCount,f,c	;volatile
 10892                           
 10893                           ; _UART2_Receive_ISR: autosize = 0, savesize = 0, parsavesize = 0, tempsize = 0 parsize 
      +                          = 0, argsize = 0, vargsize = 0
 10894  004A2A  0012               	return		;funcret
 10895  004A2C                     __end_of_UART2_Receive_ISR:
 10896                           	opt callstack 0
 10897                           
 10898 ;; *************** function _TMR6_ISR *****************
 10899 ;; Defined at:
 10900 ;;		line 170 in file "mcc_generated_files/tmr6.c"
 10901 ;; Parameters:    Size  Location     Type
 10902 ;;		None
 10903 ;; Auto vars:     Size  Location     Type
 10904 ;;		None
 10905 ;; Return value:  Size  Location     Type
 10906 ;;                  1    wreg      void 
 10907 ;; Registers used:
 10908 ;;		wreg, status,2, status,0, pclath, btemp+11, tosl
 10909 ;; Tracked objects:
 10910 ;;		On entry : 0/0
 10911 ;;		On exit  : 0/0
 10912 ;;		Unchanged: 0/0
 10913 ;; Data sizes:     COMRAM   BANK0   BANK1   BANK2   BANK3   BANK4   BANK5   BANK6   BANK7   BANK8   BANK9  BANK10  BANK1
      +1  BANK12  BANK13  BANK14  BANK15  BANK16  BANK17  BANK18  BANK19  BANK20  BANK21  BANK22  BANK23  BANK24  BANK25  BANK2
      +6  BANK27  BANK28  BANK29  BANK30  BANK31
 10914 ;;      Params:         0       0       0       0       0       0       0       0       0       0       0       0       
      +0       0       0       0       0       0       0       0       0       0       0       0       0       0       0       
      +0       0       0       0       0       0
 10915 ;;      Locals:         0       0       0       0       0       0       0       0       0       0       0       0       
      +0       0       0       0       0       0       0       0       0       0       0       0       0       0       0       
      +0       0       0       0       0       0
 10916 ;;      Temps:          1       0       0       0       0       0       0       0       0       0       0       0       
      +0       0       0       0       0       0       0       0       0       0       0       0       0       0       0       
      +0       0       0       0       0       0
 10917 ;;      Totals:         1       0       0       0       0       0       0       0       0       0       0       0       
      +0       0       0       0       0       0       0       0       0       0       0       0       0       0       0       
      +0       0       0       0       0       0
 10918 ;;Total ram usage:        1 bytes
 10919 ;; Hardware stack levels used:    1
 10920 ;; Hardware stack levels required when called:    2
 10921 ;; This function calls:
 10922 ;;		_TMR6_CallBack
 10923 ;; This function is called by:
 10924 ;;		Interrupt level 2
 10925 ;; This function uses a non-reentrant model
 10926 ;;
 10927                           
 10928                           	psect	text83
 10929  004AB8                     __ptext83:
 10930                           	opt callstack 0
 10931  004AB8                     _TMR6_ISR:
 10932                           	opt callstack 18
 10933                           
 10934                           ;incstack = 0
 10935  004AB8  0060  F11C  F05C   	movff	btemp+11,??_TMR6_ISR
 10936  004ABE  EE13  F05A         	lfsr	1,___inthi_sp
 10937                           
 10938                           ;mcc_generated_files/tmr6.c: 174:  PIR9bits.TMR6IF = 0;
 10939  004AC2  0139               	movlb	57	; () banked
 10940  004AC4  91A9               	bcf	169,0,b	;volatile
 10941                           
 10942                           ; BSR set to: 57
 10943                           ;mcc_generated_files/tmr6.c: 178:  TMR6_CallBack();
 10944  004AC6  ECE5  F024         	call	_TMR6_CallBack	;wreg free
 10945  004ACA  0060  F170  F047   	movff	??_TMR6_ISR,btemp+11
 10946  004AD0  0011               	retfie		f
 10947  004AD2                     __end_of_TMR6_ISR:
 10948                           	opt callstack 0
 10949                           
 10950 ;; *************** function _TMR6_CallBack *****************
 10951 ;; Defined at:
 10952 ;;		line 181 in file "mcc_generated_files/tmr6.c"
 10953 ;; Parameters:    Size  Location     Type
 10954 ;;		None
 10955 ;; Auto vars:     Size  Location     Type
 10956 ;;		None
 10957 ;; Return value:  Size  Location     Type
 10958 ;;                  1  [STACK] void 
 10959 ;; Registers used:
 10960 ;;		wreg, status,2, status,0, pclath, btemp+11, tosl
 10961 ;; Tracked objects:
 10962 ;;		On entry : 3F/39
 10963 ;;		On exit  : 0/0
 10964 ;;		Unchanged: 0/0
 10965 ;; Data sizes:     COMRAM   BANK0   BANK1   BANK2   BANK3   BANK4   BANK5   BANK6   BANK7   BANK8   BANK9  BANK10  BANK1
      +1  BANK12  BANK13  BANK14  BANK15  BANK16  BANK17  BANK18  BANK19  BANK20  BANK21  BANK22  BANK23  BANK24  BANK25  BANK2
      +6  BANK27  BANK28  BANK29  BANK30  BANK31
 10966 ;;      Params:         0       0       0       0       0       0       0       0       0       0       0       0       
      +0       0       0       0       0       0       0       0       0       0       0       0       0       0       0       
      +0       0       0       0       0       0
 10967 ;;      Locals:         0       0       0       0       0       0       0       0       0       0       0       0       
      +0       0       0       0       0       0       0       0       0       0       0       0       0       0       0       
      +0       0       0       0       0       0
 10968 ;;      Temps:          0       0       0       0       0       0       0       0       0       0       0       0       
      +0       0       0       0       0       0       0       0       0       0       0       0       0       0       0       
      +0       0       0       0       0       0
 10969 ;;      Totals:         0       0       0       0       0       0       0       0       0       0       0       0       
      +0       0       0       0       0       0       0       0       0       0       0       0       0       0       0       
      +0       0       0       0       0       0
 10970 ;;Total ram usage:        0 bytes
 10971 ;; Hardware stack levels used:    1
 10972 ;; Hardware stack levels required when called:    1
 10973 ;; This function calls:
 10974 ;;		Absolute function
 10975 ;;		_TMR6_DefaultInterruptHandler
 10976 ;; This function is called by:
 10977 ;;		_TMR6_ISR
 10978 ;; This function uses a reentrant model
 10979 ;;
 10980                           
 10981                           	psect	text84
 10982  0049CA                     __ptext84:
 10983                           	opt callstack 0
 10984  0049CA                     _TMR6_CallBack:
 10985                           	opt callstack 18
 10986                           
 10987                           ;mcc_generated_files/tmr6.c: 185:  if (TMR6_InterruptHandler) {
 10988                           
 10989                           ; autosize = 0, savesize = 0, parsavesize = 0, tempsize = 0 parsize = 0, argsize = 0 var
      +                          gsize = 0, retsize = 0 argfudge = 0
 10990                           ;incstack = 0
 10991  0049CA  500D               	movf	_TMR6_InterruptHandler,w,c
 10992  0049CC  100E               	iorwf	_TMR6_InterruptHandler+1,w,c
 10993  0049CE  100F               	iorwf	_TMR6_InterruptHandler+2,w,c
 10994  0049D0  B4D8               	btfsc	status,2,c
 10995  0049D2  0012               	return	
 10996                           
 10997                           ;mcc_generated_files/tmr6.c: 186:   TMR6_InterruptHandler();
 10998  0049D4  D801               	call	u265_48
 10999  0049D6  0012               	return	
 11000  0049D8                     u265_48:
 11001  0049D8  0005               	push	
 11002  0049DA  6EFA               	movwf	pclath,c
 11003  0049DC  500D               	movf	_TMR6_InterruptHandler,w,c
 11004  0049DE  6EFD               	movwf	tosl,c
 11005  0049E0  500E               	movf	_TMR6_InterruptHandler+1,w,c
 11006  0049E2  6EFE               	movwf	tosh,c
 11007  0049E4  500F               	movf	_TMR6_InterruptHandler+2,w,c
 11008  0049E6  6EFF               	movwf	tosu,c
 11009  0049E8  50FA               	movf	pclath,w,c
 11010  0049EA  0012               	return		;indir
 11011  0049EC                     __end_of_TMR6_CallBack:
 11012                           	opt callstack 0
 11013                           
 11014 ;; *************** function _TMR6_DefaultInterruptHandler *****************
 11015 ;; Defined at:
 11016 ;;		line 195 in file "mcc_generated_files/tmr6.c"
 11017 ;; Parameters:    Size  Location     Type
 11018 ;;		None
 11019 ;; Auto vars:     Size  Location     Type
 11020 ;;		None
 11021 ;; Return value:  Size  Location     Type
 11022 ;;                  1  [STACK] void 
 11023 ;; Registers used:
 11024 ;;		wreg, status,2, status,0, btemp+11
 11025 ;; Tracked objects:
 11026 ;;		On entry : 0/39
 11027 ;;		On exit  : 3F/0
 11028 ;;		Unchanged: 0/0
 11029 ;; Data sizes:     COMRAM   BANK0   BANK1   BANK2   BANK3   BANK4   BANK5   BANK6   BANK7   BANK8   BANK9  BANK10  BANK1
      +1  BANK12  BANK13  BANK14  BANK15  BANK16  BANK17  BANK18  BANK19  BANK20  BANK21  BANK22  BANK23  BANK24  BANK25  BANK2
      +6  BANK27  BANK28  BANK29  BANK30  BANK31
 11030 ;;      Params:         0       0       0       0       0       0       0       0       0       0       0       0       
      +0       0       0       0       0       0       0       0       0       0       0       0       0       0       0       
      +0       0       0       0       0       0
 11031 ;;      Locals:         0       0       0       0       0       0       0       0       0       0       0       0       
      +0       0       0       0       0       0       0       0       0       0       0       0       0       0       0       
      +0       0       0       0       0       0
 11032 ;;      Temps:          0       0       0       0       0       0       0       0       0       0       0       0       
      +0       0       0       0       0       0       0       0       0       0       0       0       0       0       0       
      +0       0       0       0       0       0
 11033 ;;      Totals:         0       0       0       0       0       0       0       0       0       0       0       0       
      +0       0       0       0       0       0       0       0       0       0       0       0       0       0       0       
      +0       0       0       0       0       0
 11034 ;;Total ram usage:        0 bytes
 11035 ;; Hardware stack levels used:    1
 11036 ;; This function calls:
 11037 ;;		Nothing
 11038 ;; This function is called by:
 11039 ;;		_TMR6_Initialize
 11040 ;;		_TMR6_CallBack
 11041 ;; This function uses a reentrant model
 11042 ;;
 11043                           
 11044                           	psect	text85
 11045  00487A                     __ptext85:
 11046                           	opt callstack 0
 11047  00487A                     _TMR6_DefaultInterruptHandler:
 11048                           	opt callstack 18
 11049                           
 11050                           ;mcc_generated_files/tmr6.c: 199:  LATEbits.LATE0 = (uint8_t) ~LATEbits.LATE0;
 11051                           
 11052                           ; autosize = 0, savesize = 0, parsavesize = 0, tempsize = 0 parsize = 0, argsize = 0 var
      +                          gsize = 0, retsize = 0 argfudge = 0
 11053                           ;incstack = 0
 11054  00487A  A0BE               	btfss	16318,0,c	;volatile
 11055  00487C  D002               	goto	u253_40
 11056  00487E  0E01               	movlw	1
 11057  004880  D001               	goto	u253_46
 11058  004882                     u253_40:
 11059  004882  0E00               	movlw	0
 11060  004884                     u253_46:
 11061  004884  0AFF               	xorlw	255
 11062  004886  6E47               	movwf	btemp+11,c
 11063  004888  50BE               	movf	16318,w,c	;volatile
 11064  00488A  1847               	xorwf	btemp+11,w,c
 11065  00488C  0BFE               	andlw	-2
 11066  00488E  1847               	xorwf	btemp+11,w,c
 11067  004890  6EBE               	movwf	16318,c	;volatile
 11068                           
 11069                           ;mcc_generated_files/tmr6.c: 200:  ++V.ticks;
 11070  004892  0E01               	movlw	1
 11071  004894  0100               	movlb	0	; () banked
 11072  004896  27A5               	addwf	(_V+65)& (0+255),f,b	;volatile
 11073  004898  0E00               	movlw	0
 11074  00489A  23A6               	addwfc	(_V+66)& (0+255),f,b	;volatile
 11075  00489C  23A7               	addwfc	(_V+67)& (0+255),f,b	;volatile
 11076  00489E  23A8               	addwfc	(_V+68)& (0+255),f,b	;volatile
 11077                           
 11078                           ; BSR set to: 0
 11079                           ; _TMR6_DefaultInterruptHandler: autosize = 0, savesize = 0, parsavesize = 0, tempsize =
      +                           0 parsize = 0, argsize = 0, vargsize = 0
 11080  0048A0  0012               	return		;funcret
 11081  0048A2                     __end_of_TMR6_DefaultInterruptHandler:
 11082                           	opt callstack 0
 11083                           
 11084 ;; *************** function _DMA1_DMASCNT_ISR *****************
 11085 ;; Defined at:
 11086 ;;		line 126 in file "mcc_generated_files/dma1.c"
 11087 ;; Parameters:    Size  Location     Type
 11088 ;;		None
 11089 ;; Auto vars:     Size  Location     Type
 11090 ;;		None
 11091 ;; Return value:  Size  Location     Type
 11092 ;;                  1    wreg      void 
 11093 ;; Registers used:
 11094 ;;		None
 11095 ;; Tracked objects:
 11096 ;;		On entry : 0/0
 11097 ;;		On exit  : 3F/39
 11098 ;;		Unchanged: 0/0
 11099 ;; Data sizes:     COMRAM   BANK0   BANK1   BANK2   BANK3   BANK4   BANK5   BANK6   BANK7   BANK8   BANK9  BANK10  BANK1
      +1  BANK12  BANK13  BANK14  BANK15  BANK16  BANK17  BANK18  BANK19  BANK20  BANK21  BANK22  BANK23  BANK24  BANK25  BANK2
      +6  BANK27  BANK28  BANK29  BANK30  BANK31
 11100 ;;      Params:         0       0       0       0       0       0       0       0       0       0       0       0       
      +0       0       0       0       0       0       0       0       0       0       0       0       0       0       0       
      +0       0       0       0       0       0
 11101 ;;      Locals:         0       0       0       0       0       0       0       0       0       0       0       0       
      +0       0       0       0       0       0       0       0       0       0       0       0       0       0       0       
      +0       0       0       0       0       0
 11102 ;;      Temps:          0       0       0       0       0       0       0       0       0       0       0       0       
      +0       0       0       0       0       0       0       0       0       0       0       0       0       0       0       
      +0       0       0       0       0       0
 11103 ;;      Totals:         0       0       0       0       0       0       0       0       0       0       0       0       
      +0       0       0       0       0       0       0       0       0       0       0       0       0       0       0       
      +0       0       0       0       0       0
 11104 ;;Total ram usage:        0 bytes
 11105 ;; Hardware stack levels used:    1
 11106 ;; This function calls:
 11107 ;;		Nothing
 11108 ;; This function is called by:
 11109 ;;		Interrupt level 2
 11110 ;; This function uses a non-reentrant model
 11111 ;;
 11112                           
 11113                           	psect	text86
 11114  004B64                     __ptext86:
 11115                           	opt callstack 0
 11116  004B64                     _DMA1_DMASCNT_ISR:
 11117                           	opt callstack 20
 11118                           
 11119                           ; BSR set to: 0
 11120                           ;incstack = 0
 11121  004B64  EE13  F05A         	lfsr	1,___inthi_sp
 11122                           
 11123                           ;mcc_generated_files/dma1.c: 128:  PIR2bits.DMA1SCNTIF = 0;
 11124  004B68  0139               	movlb	57	; () banked
 11125  004B6A  91A2               	bcf	162,0,b	;volatile
 11126                           
 11127                           ;mcc_generated_files/dma1.c: 130:  spi_link.LCD_DATA = 0;
 11128  004B6C  9601               	bcf	_spi_link,3,c	;volatile
 11129                           
 11130                           ; BSR set to: 57
 11131  004B6E  0011               	retfie		f
 11132  004B70                     __end_of_DMA1_DMASCNT_ISR:
 11133                           	opt callstack 0
 11134                           
 11135 ;; *************** function _DMA1_DMADCNT_ISR *****************
 11136 ;; Defined at:
 11137 ;;		line 133 in file "mcc_generated_files/dma1.c"
 11138 ;; Parameters:    Size  Location     Type
 11139 ;;		None
 11140 ;; Auto vars:     Size  Location     Type
 11141 ;;		None
 11142 ;; Return value:  Size  Location     Type
 11143 ;;                  1    wreg      void 
 11144 ;; Registers used:
 11145 ;;		None
 11146 ;; Tracked objects:
 11147 ;;		On entry : 0/0
 11148 ;;		On exit  : 3F/39
 11149 ;;		Unchanged: 0/0
 11150 ;; Data sizes:     COMRAM   BANK0   BANK1   BANK2   BANK3   BANK4   BANK5   BANK6   BANK7   BANK8   BANK9  BANK10  BANK1
      +1  BANK12  BANK13  BANK14  BANK15  BANK16  BANK17  BANK18  BANK19  BANK20  BANK21  BANK22  BANK23  BANK24  BANK25  BANK2
      +6  BANK27  BANK28  BANK29  BANK30  BANK31
 11151 ;;      Params:         0       0       0       0       0       0       0       0       0       0       0       0       
      +0       0       0       0       0       0       0       0       0       0       0       0       0       0       0       
      +0       0       0       0       0       0
 11152 ;;      Locals:         0       0       0       0       0       0       0       0       0       0       0       0       
      +0       0       0       0       0       0       0       0       0       0       0       0       0       0       0       
      +0       0       0       0       0       0
 11153 ;;      Temps:          0       0       0       0       0       0       0       0       0       0       0       0       
      +0       0       0       0       0       0       0       0       0       0       0       0       0       0       0       
      +0       0       0       0       0       0
 11154 ;;      Totals:         0       0       0       0       0       0       0       0       0       0       0       0       
      +0       0       0       0       0       0       0       0       0       0       0       0       0       0       0       
      +0       0       0       0       0       0
 11155 ;;Total ram usage:        0 bytes
 11156 ;; Hardware stack levels used:    1
 11157 ;; This function calls:
 11158 ;;		Nothing
 11159 ;; This function is called by:
 11160 ;;		Interrupt level 2
 11161 ;; This function uses a non-reentrant model
 11162 ;;
 11163                           
 11164                           	psect	text87
 11165  004B88                     __ptext87:
 11166                           	opt callstack 0
 11167  004B88                     _DMA1_DMADCNT_ISR:
 11168                           	opt callstack 20
 11169                           
 11170                           ; BSR set to: 57
 11171                           ;incstack = 0
 11172  004B88  EE13  F05A         	lfsr	1,___inthi_sp
 11173                           
 11174                           ;mcc_generated_files/dma1.c: 135:  PIR2bits.DMA1DCNTIF = 0;
 11175  004B8C  0139               	movlb	57	; () banked
 11176  004B8E  93A2               	bcf	162,1,b	;volatile
 11177                           
 11178                           ; BSR set to: 57
 11179  004B90  0011               	retfie		f
 11180  004B92                     __end_of_DMA1_DMADCNT_ISR:
 11181                           	opt callstack 0
 11182                           
 11183 ;; *************** function _DMA1_DMAA_ISR *****************
 11184 ;; Defined at:
 11185 ;;		line 143 in file "mcc_generated_files/dma1.c"
 11186 ;; Parameters:    Size  Location     Type
 11187 ;;		None
 11188 ;; Auto vars:     Size  Location     Type
 11189 ;;		None
 11190 ;; Return value:  Size  Location     Type
 11191 ;;                  1    wreg      void 
 11192 ;; Registers used:
 11193 ;;		None
 11194 ;; Tracked objects:
 11195 ;;		On entry : 0/0
 11196 ;;		On exit  : 3F/39
 11197 ;;		Unchanged: 0/0
 11198 ;; Data sizes:     COMRAM   BANK0   BANK1   BANK2   BANK3   BANK4   BANK5   BANK6   BANK7   BANK8   BANK9  BANK10  BANK1
      +1  BANK12  BANK13  BANK14  BANK15  BANK16  BANK17  BANK18  BANK19  BANK20  BANK21  BANK22  BANK23  BANK24  BANK25  BANK2
      +6  BANK27  BANK28  BANK29  BANK30  BANK31
 11199 ;;      Params:         0       0       0       0       0       0       0       0       0       0       0       0       
      +0       0       0       0       0       0       0       0       0       0       0       0       0       0       0       
      +0       0       0       0       0       0
 11200 ;;      Locals:         0       0       0       0       0       0       0       0       0       0       0       0       
      +0       0       0       0       0       0       0       0       0       0       0       0       0       0       0       
      +0       0       0       0       0       0
 11201 ;;      Temps:          0       0       0       0       0       0       0       0       0       0       0       0       
      +0       0       0       0       0       0       0       0       0       0       0       0       0       0       0       
      +0       0       0       0       0       0
 11202 ;;      Totals:         0       0       0       0       0       0       0       0       0       0       0       0       
      +0       0       0       0       0       0       0       0       0       0       0       0       0       0       0       
      +0       0       0       0       0       0
 11203 ;;Total ram usage:        0 bytes
 11204 ;; Hardware stack levels used:    1
 11205 ;; This function calls:
 11206 ;;		Nothing
 11207 ;; This function is called by:
 11208 ;;		Interrupt level 2
 11209 ;; This function uses a non-reentrant model
 11210 ;;
 11211                           
 11212                           	psect	text88
 11213  004B94                     __ptext88:
 11214                           	opt callstack 0
 11215  004B94                     _DMA1_DMAA_ISR:
 11216                           	opt callstack 20
 11217                           
 11218                           ; BSR set to: 57
 11219                           ;incstack = 0
 11220  004B94  EE13  F05A         	lfsr	1,___inthi_sp
 11221                           
 11222                           ;mcc_generated_files/dma1.c: 146:  PIR2bits.DMA1AIF = 0;
 11223  004B98  0139               	movlb	57	; () banked
 11224  004B9A  97A2               	bcf	162,3,b	;volatile
 11225                           
 11226                           ; BSR set to: 57
 11227  004B9C  0011               	retfie		f
 11228  004B9E                     __end_of_DMA1_DMAA_ISR:
 11229                           	opt callstack 0
 11230                           
 11231 ;; *************** function _DMA1_DMAOR_ISR *****************
 11232 ;; Defined at:
 11233 ;;		line 154 in file "mcc_generated_files/dma1.c"
 11234 ;; Parameters:    Size  Location     Type
 11235 ;;		None
 11236 ;; Auto vars:     Size  Location     Type
 11237 ;;		None
 11238 ;; Return value:  Size  Location     Type
 11239 ;;                  1    wreg      void 
 11240 ;; Registers used:
 11241 ;;		None
 11242 ;; Tracked objects:
 11243 ;;		On entry : 0/0
 11244 ;;		On exit  : 3F/39
 11245 ;;		Unchanged: 0/0
 11246 ;; Data sizes:     COMRAM   BANK0   BANK1   BANK2   BANK3   BANK4   BANK5   BANK6   BANK7   BANK8   BANK9  BANK10  BANK1
      +1  BANK12  BANK13  BANK14  BANK15  BANK16  BANK17  BANK18  BANK19  BANK20  BANK21  BANK22  BANK23  BANK24  BANK25  BANK2
      +6  BANK27  BANK28  BANK29  BANK30  BANK31
 11247 ;;      Params:         0       0       0       0       0       0       0       0       0       0       0       0       
      +0       0       0       0       0       0       0       0       0       0       0       0       0       0       0       
      +0       0       0       0       0       0
 11248 ;;      Locals:         0       0       0       0       0       0       0       0       0       0       0       0       
      +0       0       0       0       0       0       0       0       0       0       0       0       0       0       0       
      +0       0       0       0       0       0
 11249 ;;      Temps:          0       0       0       0       0       0       0       0       0       0       0       0       
      +0       0       0       0       0       0       0       0       0       0       0       0       0       0       0       
      +0       0       0       0       0       0
 11250 ;;      Totals:         0       0       0       0       0       0       0       0       0       0       0       0       
      +0       0       0       0       0       0       0       0       0       0       0       0       0       0       0       
      +0       0       0       0       0       0
 11251 ;;Total ram usage:        0 bytes
 11252 ;; Hardware stack levels used:    1
 11253 ;; This function calls:
 11254 ;;		Nothing
 11255 ;; This function is called by:
 11256 ;;		Interrupt level 2
 11257 ;; This function uses a non-reentrant model
 11258 ;;
 11259                           
 11260                           	psect	text89
 11261  004B70                     __ptext89:
 11262                           	opt callstack 0
 11263  004B70                     _DMA1_DMAOR_ISR:
 11264                           	opt callstack 20
 11265                           
 11266                           ; BSR set to: 57
 11267                           ;incstack = 0
 11268  004B70  EE13  F05A         	lfsr	1,___inthi_sp
 11269                           
 11270                           ;mcc_generated_files/dma1.c: 157:  PIR2bits.DMA1ORIF = 0;
 11271  004B74  0139               	movlb	57	; () banked
 11272  004B76  95A2               	bcf	162,2,b	;volatile
 11273                           
 11274                           ;mcc_generated_files/dma1.c: 159:  LATEbits.LATE1 = 0;
 11275  004B78  92BE               	bcf	16318,1,c	;volatile
 11276                           
 11277                           ; BSR set to: 57
 11278  004B7A  0011               	retfie		f
 11279  004B7C                     __end_of_DMA1_DMAOR_ISR:
 11280                           	opt callstack 0
 11281                           
 11282                           ;
 11283                           ; Interrupt Vector Table @ 0x8
 11284                           ;
 11285                           
 11286                           	psect	ivt0x8
 11287  000008                     __pivt0x8:
 11288                           	opt callstack 0
 11289  000008                     ivt0x8_base:
 11290                           	opt callstack 0
 11291                           
 11292                           ; Vector 0 : SWINT
 11293  000008  12EB               	dw	_Default_ISR shr (0+2)
 11294                           
 11295                           ; Vector 1 : HLVD
 11296  00000A  12EB               	dw	_Default_ISR shr (0+2)
 11297                           
 11298                           ; Vector 2 : OSF
 11299  00000C  12EB               	dw	_Default_ISR shr (0+2)
 11300                           
 11301                           ; Vector 3 : CSW
 11302  00000E  12EB               	dw	_Default_ISR shr (0+2)
 11303                           
 11304                           ; Vector 4 : NVM
 11305  000010  12EB               	dw	_Default_ISR shr (0+2)
 11306                           
 11307                           ; Vector 5 : SCAN
 11308  000012  12EB               	dw	_Default_ISR shr (0+2)
 11309                           
 11310                           ; Vector 6 : CRC
 11311  000014  12EB               	dw	_Default_ISR shr (0+2)
 11312                           
 11313                           ; Vector 7 : IOC
 11314  000016  12EB               	dw	_Default_ISR shr (0+2)
 11315                           
 11316                           ; Vector 8 : INT0
 11317  000018  12CD               	dw	_INT0_ISR shr (0+2)
 11318                           
 11319                           ; Vector 9 : ZCD
 11320  00001A  12EB               	dw	_Default_ISR shr (0+2)
 11321                           
 11322                           ; Vector 10 : AD
 11323  00001C  119C               	dw	_ADCC_ISR shr (0+2)
 11324                           
 11325                           ; Vector 11 : ADT
 11326  00001E  12EB               	dw	_Default_ISR shr (0+2)
 11327                           
 11328                           ; Vector 12 : CMP1
 11329  000020  12EB               	dw	_Default_ISR shr (0+2)
 11330                           
 11331                           ; Vector 13 : SMT1
 11332  000022  12EB               	dw	_Default_ISR shr (0+2)
 11333                           
 11334                           ; Vector 14 : SMT1PRA
 11335  000024  12EB               	dw	_Default_ISR shr (0+2)
 11336                           
 11337                           ; Vector 15 : SMT1PRW
 11338  000026  12EB               	dw	_Default_ISR shr (0+2)
 11339                           
 11340                           ; Vector 16 : DMA1SCNT
 11341  000028  12D9               	dw	_DMA1_DMASCNT_ISR shr (0+2)
 11342                           
 11343                           ; Vector 17 : DMA1DCNT
 11344  00002A  12E2               	dw	_DMA1_DMADCNT_ISR shr (0+2)
 11345                           
 11346                           ; Vector 18 : DMA1OR
 11347  00002C  12DC               	dw	_DMA1_DMAOR_ISR shr (0+2)
 11348                           
 11349                           ; Vector 19 : DMA1A
 11350  00002E  12E5               	dw	_DMA1_DMAA_ISR shr (0+2)
 11351                           
 11352                           ; Vector 20 : SPI1RX
 11353  000030  12EB               	dw	_Default_ISR shr (0+2)
 11354                           
 11355                           ; Vector 21 : SPI1TX
 11356  000032  12EB               	dw	_Default_ISR shr (0+2)
 11357                           
 11358                           ; Vector 22 : SPI1
 11359  000034  12EB               	dw	_Default_ISR shr (0+2)
 11360                           
 11361                           ; Vector 23 : I2C1RX
 11362  000036  12EB               	dw	_Default_ISR shr (0+2)
 11363                           
 11364                           ; Vector 24 : I2C1TX
 11365  000038  12EB               	dw	_Default_ISR shr (0+2)
 11366                           
 11367                           ; Vector 25 : I2C1
 11368  00003A  12EB               	dw	_Default_ISR shr (0+2)
 11369                           
 11370                           ; Vector 26 : I2C1E
 11371  00003C  12EB               	dw	_Default_ISR shr (0+2)
 11372                           
 11373                           ; Vector 27 : U1RX
 11374  00003E  1233               	dw	_UART1_rx_vect_isr shr (0+2)
 11375                           
 11376                           ; Vector 28 : U1TX
 11377  000040  1229               	dw	_UART1_tx_vect_isr shr (0+2)
 11378                           
 11379                           ; Vector 29 : U1E
 11380  000042  12EB               	dw	_Default_ISR shr (0+2)
 11381                           
 11382                           ; Vector 30 : U1
 11383  000044  12EB               	dw	_Default_ISR shr (0+2)
 11384                           
 11385                           ; Vector 31 : TMR0
 11386  000046  12EB               	dw	_Default_ISR shr (0+2)
 11387                           
 11388                           ; Vector 32 : TMR1
 11389  000048  12EB               	dw	_Default_ISR shr (0+2)
 11390                           
 11391                           ; Vector 33 : TMR1G
 11392  00004A  12EB               	dw	_Default_ISR shr (0+2)
 11393                           
 11394                           ; Vector 34 : TMR2
 11395  00004C  12EB               	dw	_Default_ISR shr (0+2)
 11396                           
 11397                           ; Vector 35 : CCP1
 11398  00004E  12EB               	dw	_Default_ISR shr (0+2)
 11399                           
 11400                           ; Vector 36 : Undefined
 11401  000050  002B               	dw	ivt0x8_undefint shr (0+2)
 11402                           
 11403                           ; Vector 37 : NCO1
 11404  000052  12EB               	dw	_Default_ISR shr (0+2)
 11405                           
 11406                           ; Vector 38 : CWG1
 11407  000054  12EB               	dw	_Default_ISR shr (0+2)
 11408                           
 11409                           ; Vector 39 : CLC1
 11410  000056  12EB               	dw	_Default_ISR shr (0+2)
 11411                           
 11412                           ; Vector 40 : INT1
 11413  000058  12D1               	dw	_INT1_ISR shr (0+2)
 11414                           
 11415                           ; Vector 41 : CMP2
 11416  00005A  12EB               	dw	_Default_ISR shr (0+2)
 11417                           
 11418                           ; Vector 42 : DMA2SCNT
 11419  00005C  12EB               	dw	_Default_ISR shr (0+2)
 11420                           
 11421                           ; Vector 43 : DMA2DCNT
 11422  00005E  12EB               	dw	_Default_ISR shr (0+2)
 11423                           
 11424                           ; Vector 44 : DMA2OR
 11425  000060  12EB               	dw	_Default_ISR shr (0+2)
 11426                           
 11427                           ; Vector 45 : DMA2A
 11428  000062  12EB               	dw	_Default_ISR shr (0+2)
 11429                           
 11430                           ; Vector 46 : I2C2RX
 11431  000064  12EB               	dw	_Default_ISR shr (0+2)
 11432                           
 11433                           ; Vector 47 : I2C2TX
 11434  000066  12EB               	dw	_Default_ISR shr (0+2)
 11435                           
 11436                           ; Vector 48 : I2C2
 11437  000068  12EB               	dw	_Default_ISR shr (0+2)
 11438                           
 11439                           ; Vector 49 : I2C2E
 11440  00006A  12EB               	dw	_Default_ISR shr (0+2)
 11441                           
 11442                           ; Vector 50 : U2RX
 11443  00006C  1247               	dw	_UART2_rx_vect_isr shr (0+2)
 11444                           
 11445                           ; Vector 51 : U2TX
 11446  00006E  123D               	dw	_UART2_tx_vect_isr shr (0+2)
 11447                           
 11448                           ; Vector 52 : U2E
 11449  000070  12EB               	dw	_Default_ISR shr (0+2)
 11450                           
 11451                           ; Vector 53 : U2
 11452  000072  12EB               	dw	_Default_ISR shr (0+2)
 11453                           
 11454                           ; Vector 54 : TMR3
 11455  000074  12EB               	dw	_Default_ISR shr (0+2)
 11456                           
 11457                           ; Vector 55 : TMR3G
 11458  000076  12EB               	dw	_Default_ISR shr (0+2)
 11459                           
 11460                           ; Vector 56 : TMR4
 11461  000078  12EB               	dw	_Default_ISR shr (0+2)
 11462                           
 11463                           ; Vector 57 : CCP2
 11464  00007A  12EB               	dw	_Default_ISR shr (0+2)
 11465                           
 11466                           ; Vector 58 : Undefined
 11467  00007C  002B               	dw	ivt0x8_undefint shr (0+2)
 11468                           
 11469                           ; Vector 59 : CWG2
 11470  00007E  12EB               	dw	_Default_ISR shr (0+2)
 11471                           
 11472                           ; Vector 60 : CLC2
 11473  000080  12EB               	dw	_Default_ISR shr (0+2)
 11474                           
 11475                           ; Vector 61 : INT2
 11476  000082  12D5               	dw	_INT2_ISR shr (0+2)
 11477                           
 11478                           ; Vector 62 : Undefined
 11479  000084  002B               	dw	ivt0x8_undefint shr (0+2)
 11480                           
 11481                           ; Vector 63 : Undefined
 11482  000086  002B               	dw	ivt0x8_undefint shr (0+2)
 11483                           
 11484                           ; Vector 64 : Undefined
 11485  000088  002B               	dw	ivt0x8_undefint shr (0+2)
 11486                           
 11487                           ; Vector 65 : Undefined
 11488  00008A  002B               	dw	ivt0x8_undefint shr (0+2)
 11489                           
 11490                           ; Vector 66 : Undefined
 11491  00008C  002B               	dw	ivt0x8_undefint shr (0+2)
 11492                           
 11493                           ; Vector 67 : Undefined
 11494  00008E  002B               	dw	ivt0x8_undefint shr (0+2)
 11495                           
 11496                           ; Vector 68 : Undefined
 11497  000090  002B               	dw	ivt0x8_undefint shr (0+2)
 11498                           
 11499                           ; Vector 69 : Undefined
 11500  000092  002B               	dw	ivt0x8_undefint shr (0+2)
 11501                           
 11502                           ; Vector 70 : TMR5
 11503  000094  12EB               	dw	_Default_ISR shr (0+2)
 11504                           
 11505                           ; Vector 71 : TMR5G
 11506  000096  12EB               	dw	_Default_ISR shr (0+2)
 11507                           
 11508                           ; Vector 72 : TMR6
 11509  000098  12AE               	dw	_TMR6_ISR shr (0+2)
 11510                           
 11511                           ; Vector 73 : CCP3
 11512  00009A  12EB               	dw	_Default_ISR shr (0+2)
 11513                           
 11514                           ; Vector 74 : CWG3
 11515  00009C  12EB               	dw	_Default_ISR shr (0+2)
 11516                           
 11517                           ; Vector 75 : CLC3
 11518  00009E  12EB               	dw	_Default_ISR shr (0+2)
 11519                           
 11520                           ; Vector 76 : Undefined
 11521  0000A0  002B               	dw	ivt0x8_undefint shr (0+2)
 11522                           
 11523                           ; Vector 77 : Undefined
 11524  0000A2  002B               	dw	ivt0x8_undefint shr (0+2)
 11525                           
 11526                           ; Vector 78 : Undefined
 11527  0000A4  002B               	dw	ivt0x8_undefint shr (0+2)
 11528                           
 11529                           ; Vector 79 : Undefined
 11530  0000A6  002B               	dw	ivt0x8_undefint shr (0+2)
 11531                           
 11532                           ; Vector 80 : CCP4
 11533  0000A8  12EB               	dw	_Default_ISR shr (0+2)
 11534                           
 11535                           ; Vector 81 : CLC4
 11536  0000AA  12EB               	dw	_Default_ISR shr (0+2)
 11537  0000AC                     ivt0x8_undefint:
 11538                           	opt callstack 0
 11539  0000AC  00FF               	reset	
 11540                           
 11541                           	psect	text90
 11542  000000                     __ptext90:
 11543                           	opt callstack 0
 11544                           
 11545                           	psect	rparam
 11546  0000                     
 11547                           	psect	temp
 11548  00003C                     btemp:
 11549                           	opt callstack 0
 11550  00003C                     	ds	32
 11551  0000                     wtemp0	set	btemp
 11552  0000                     wtemp1	set	btemp+2
 11553  0000                     wtemp2	set	btemp+4
 11554  0000                     wtemp3	set	btemp+6
 11555  0000                     wtemp4	set	btemp+8
 11556  0000                     wtemp5	set	btemp+10
 11557  0000                     wtemp8	set	btemp+1
 11558  0000                     ttemp0	set	btemp
 11559  0000                     ttemp1	set	btemp+3
 11560  0000                     ttemp2	set	btemp+6
 11561  0000                     ttemp3	set	btemp+9
 11562  0000                     ttemp5	set	btemp+1
 11563  0000                     ttemp6	set	btemp+4
 11564  0000                     ttemp7	set	btemp+8
 11565  0000                     ltemp0	set	btemp
 11566  0000                     ltemp1	set	btemp+4
 11567  0000                     ltemp2	set	btemp+8
 11568  0000                     lltemp0	set	btemp
 11569  0000                     lltemp1	set	btemp+8
 11570  0000                     lltemp2	set	btemp+16
 11571  0000                     lltemp3	set	btemp+24
 11572                           tosu	equ	0x3FFF
 11573                           tosh	equ	0x3FFE
 11574                           tosl	equ	0x3FFD
 11575                           stkptr	equ	0x3FFC
 11576                           pclatu	equ	0x3FFB
 11577                           pclath	equ	0x3FFA
 11578                           pcl	equ	0x3FF9
 11579                           tblptru	equ	0x3FF8
 11580                           tblptrh	equ	0x3FF7
 11581                           tblptrl	equ	0x3FF6
 11582                           tablat	equ	0x3FF5
 11583                           prodh	equ	0x3FF4
 11584                           prodl	equ	0x3FF3
 11585                           indf0	equ	0x3FEF
 11586                           postinc0	equ	0x3FEE
 11587                           postdec0	equ	0x3FED
 11588                           preinc0	equ	0x3FEC
 11589                           plusw0	equ	0x3FEB
 11590                           fsr0h	equ	0x3FEA
 11591                           fsr0l	equ	0x3FE9
 11592                           wreg	equ	0x3FE8
 11593                           indf1	equ	0x3FE7
 11594                           postinc1	equ	0x3FE6
 11595                           postdec1	equ	0x3FE5
 11596                           preinc1	equ	0x3FE4
 11597                           plusw1	equ	0x3FE3
 11598                           fsr1h	equ	0x3FE2
 11599                           fsr1l	equ	0x3FE1
 11600                           bsr	equ	0x3FE0
 11601                           indf2	equ	0x3FDF
 11602                           postinc2	equ	0x3FDE
 11603                           postdec2	equ	0x3FDD
 11604                           preinc2	equ	0x3FDC
 11605                           plusw2	equ	0x3FDB
 11606                           fsr2h	equ	0x3FDA
 11607                           fsr2l	equ	0x3FD9
 11608                           status	equ	0x3FD8


Data Sizes:
    Strings     18
    Constant    0
    Data        20
    BSS         554
    Persistent  0
    Stack       0

Auto Spaces:
    Space          Size  Autos    Used
    COMRAM           63      1      60
    BANK0           160      0     125
    BANK1           256      0     256
    BANK2           256      0     134
    BANK3           256      0       0
    BANK4           256      0       0
    BANK5           256      0       0
    BANK6           256      0       0
    BANK7           256      0       0
    BANK8           256      0       0
    BANK9           256      0       0
    BANK10          256      0       0
    BANK11          256      0       0
    BANK12          256      0       0
    BANK13          256      0       0
    BANK14          256      0       0
    BANK15          256      0       0
    BANK16          256      0       0
    BANK17          256      0       0
    BANK18          256      0       0
    BANK19          256      0       0
    BANK20          256      0       0
    BANK21          256      0       0
    BANK22          256      0       0
    BANK23          256      0       0
    BANK24          256      0       0
    BANK25          256      0       0
    BANK26          256      0       0
    BANK27          256      0       0
    BANK28          256      0       0
    BANK29          256      0       0
    BANK30          256      0       0
    BANK31          256      0       0

Pointer List with Targets:

    s	PTR const unsigned char  size(2) Largest target is 69
		 -> ?_printf(COMRAM[2]), ?_sprintf(COMRAM[2]), nuls(STACK[7]), dbuf(BANK0[32]), 
		 -> V(BANK0[69]), 

    a	PTR const unsigned char  size(2) Largest target is 69
		 -> ?_printf(COMRAM[2]), ?_sprintf(COMRAM[2]), nuls(STACK[7]), dbuf(BANK0[32]), 
		 -> V(BANK0[69]), 

    dest	PTR unsigned char  size(1) Largest target is 69
		 -> V(BANK0[69]), 

    d	PTR unsigned char  size(1) Largest target is 69
		 -> V(BANK0[69]), 

    src	PTR const unsigned char  size(1) Largest target is 5
		 -> STR_2(CODE[5]), 

    s	PTR const unsigned char  size(1) Largest target is 5
		 -> STR_2(CODE[5]), 

    fmt	PTR const unsigned char  size(1) Largest target is 3
		 -> STR_4(CODE[3]), STR_3(CODE[3]), 

    ap	PTR void [1] size(2) Largest target is 2
		 -> ?_printf(COMRAM[2]), ?_sprintf(COMRAM[2]), 

    fmt	PTR const unsigned char  size(1) Largest target is 10
		 -> STR_1(CODE[10]), 

    s	PTR unsigned char  size(1) Largest target is 69
		 -> V(BANK0[69]), 

    ap	PTR void [1] size(2) Largest target is 2
		 -> ?_printf(COMRAM[2]), ?_sprintf(COMRAM[2]), 

    f.buffer	PTR unsigned char  size(1) Largest target is 69
		 -> V(BANK0[69]), 

    s	PTR const unsigned char  size(1) Largest target is 32
		 -> dbuf(BANK0[32]), 

    fp	PTR struct _IO_FILE size(2) Largest target is 7
		 -> f(STACK[5]), NULL(NULL[0]), 

    S3482_IO_FILE$buffer	PTR unsigned char  size(1) Largest target is 69
		 -> V(BANK0[69]), 

    fp.buffer	PTR unsigned char  size(1) Largest target is 69
		 -> V(BANK0[69]), 

    fp	PTR struct _IO_FILE size(2) Largest target is 7
		 -> f(STACK[5]), NULL(NULL[0]), 

    dest	PTR void  size(2) Largest target is 67
		 -> ring_buf2(BANK2[67]), ring_buf1(BANK2[67]), 

    s	PTR unsigned char  size(2) Largest target is 67
		 -> ring_buf2(BANK2[67]), ring_buf1(BANK2[67]), 

    ap	PTR PTR void  size(2) Largest target is 2
		 -> ap(STACK[2]), ap(STACK[2]), 

    fp	PTR struct _IO_FILE size(2) Largest target is 7
		 -> f(STACK[5]), NULL(NULL[0]), 

    fmt	PTR const unsigned char  size(1) Largest target is 10
		 -> STR_4(CODE[3]), STR_3(CODE[3]), STR_1(CODE[10]), 

    cfmt	PTR unsigned char  size(1) Largest target is 10
		 -> STR_4(CODE[3]), STR_3(CODE[3]), STR_1(CODE[10]), 

    cp	PTR unsigned char  size(2) Largest target is 2
		 -> ?_printf(COMRAM[2]), ?_sprintf(COMRAM[2]), V(BANK0[69]), 

    fp	PTR struct _IO_FILE size(2) Largest target is 7
		 -> f(STACK[5]), NULL(NULL[0]), 

    ap	PTR PTR void  size(2) Largest target is 2
		 -> ap(STACK[2]), ap(STACK[2]), 

    fmt	PTR PTR unsigned char  size(2) Largest target is 1
		 -> cfmt(STACK[1]), 

    fp	PTR struct _IO_FILE size(2) Largest target is 7
		 -> f(STACK[5]), NULL(NULL[0]), 

    fp	PTR struct _IO_FILE size(2) Largest target is 7
		 -> f(STACK[5]), NULL(NULL[0]), 

    s	PTR unsigned char  size(2) Largest target is 2
		 -> ?_printf(COMRAM[2]), ?_sprintf(COMRAM[2]), V(BANK0[69]), 

    cp	PTR unsigned char  size(2) Largest target is 7
		 -> ?_printf(COMRAM[2]), ?_sprintf(COMRAM[2]), nuls(STACK[7]), V(BANK0[69]), 

    fp	PTR struct _IO_FILE size(2) Largest target is 7
		 -> f(STACK[5]), NULL(NULL[0]), 

    fp	PTR struct _IO_FILE size(2) Largest target is 7
		 -> f(STACK[5]), NULL(NULL[0]), 

    buf	PTR unsigned char  size(1) Largest target is 32
		 -> dbuf(BANK0[32]), 

    byte_block	PTR unsigned char  size(1) Largest target is 13
		 -> H10(BANK0[13]), 

    _this	PTR struct ringBufS_t size(2) Largest target is 67
		 -> ring_buf1(BANK2[67]), 

    _this	PTR struct ringBufS_t size(2) Largest target is 67
		 -> ring_buf1(BANK2[67]), 

    sp__memset	PTR void  size(2) Largest target is 67
		 -> ring_buf2(BANK2[67]), ring_buf1(BANK2[67]), 

    _this	PTR volatile struct ringBufS_t size(2) Largest target is 67
		 -> ring_buf2(BANK2[67]), ring_buf1(BANK2[67]), 

    strPtr	PTR unsigned char  size(1) Largest target is 69
		 -> V(BANK0[69]), 

    sp__strcpy	PTR unsigned char  size(1) Largest target is 69
		 -> V(BANK0[69]), 

    S1992spi_link_type$tx1a	PTR struct ringBufS_t size(2) Largest target is 67
		 -> ring_buf1(BANK2[67]), 

    spi_link.tx1a	PTR struct ringBufS_t size(2) Largest target is 67
		 -> ring_buf1(BANK2[67]), 

    S1992spi_link_type$tx1b	PTR struct ringBufS_t size(2) Largest target is 67
		 -> ring_buf2(BANK2[67]), 

    spi_link.tx1b	PTR struct ringBufS_t size(2) Largest target is 67
		 -> ring_buf2(BANK2[67]), 

    InterruptHandler	PTR FTN()void  size(3) Largest target is 1
		 -> TMR6_DefaultInterruptHandler(), 

    TMR6_InterruptHandler	PTR FTN()void  size(3) Largest target is 1
		 -> TMR6_DefaultInterruptHandler(), Absolute function(), 

    InterruptHandler	PTR FTN()void  size(3) Largest target is 1
		 -> UART2_Transmit_ISR(), 

    InterruptHandler	PTR FTN()void  size(3) Largest target is 1
		 -> UART2_Receive_ISR(), 

    UART2_RxInterruptHandler	PTR FTN()void  size(3) Largest target is 1
		 -> UART2_Receive_ISR(), Absolute function(), 

    UART2_TxInterruptHandler	PTR FTN()void  size(3) Largest target is 1
		 -> UART2_Transmit_ISR(), Absolute function(), 

    InterruptHandler	PTR FTN()void  size(3) Largest target is 1
		 -> UART1_Transmit_ISR(), 

    InterruptHandler	PTR FTN()void  size(3) Largest target is 1
		 -> UART1_Receive_ISR(), 

    UART1_RxInterruptHandler	PTR FTN()void  size(3) Largest target is 1
		 -> UART1_Receive_ISR(), Absolute function(), 

    UART1_TxInterruptHandler	PTR FTN()void  size(3) Largest target is 1
		 -> UART1_Transmit_ISR(), Absolute function(), 

    InterruptHandler	PTR FTN()void  size(3) Largest target is 1
		 -> ADCC_DefaultInterruptHandler(), 

    ADCC_ADI_InterruptHandler	PTR FTN()void  size(3) Largest target is 1
		 -> ADCC_DefaultInterruptHandler(), Absolute function(), 

    InterruptHandler	PTR FTN()void  size(3) Largest target is 1
		 -> INT2_DefaultInterruptHandler(), 

    INT2_InterruptHandler	PTR FTN()void  size(3) Largest target is 1
		 -> INT2_DefaultInterruptHandler(), Absolute function(), 

    InterruptHandler	PTR FTN()void  size(3) Largest target is 1
		 -> INT1_DefaultInterruptHandler(), 

    INT1_InterruptHandler	PTR FTN()void  size(3) Largest target is 1
		 -> INT1_DefaultInterruptHandler(), Absolute function(), 

    InterruptHandler	PTR FTN()void  size(3) Largest target is 1
		 -> INT0_DefaultInterruptHandler(), 

    INT0_InterruptHandler	PTR FTN()void  size(3) Largest target is 1
		 -> INT0_DefaultInterruptHandler(), Absolute function(), 


Critical Paths under _main in COMRAM

    None.

Critical Paths under _INT0_ISR in COMRAM

    None.

Critical Paths under _INT1_ISR in COMRAM

    None.

Critical Paths under _INT2_ISR in COMRAM

    None.

Critical Paths under _Default_ISR in COMRAM

    None.

Critical Paths under _ADCC_ISR in COMRAM

    None.

Critical Paths under _UART1_tx_vect_isr in COMRAM

    None.

Critical Paths under _UART1_rx_vect_isr in COMRAM

    None.

Critical Paths under _UART2_tx_vect_isr in COMRAM

    None.

Critical Paths under _UART2_rx_vect_isr in COMRAM

    None.

Critical Paths under _TMR6_ISR in COMRAM

    None.

Critical Paths under _DMA1_DMASCNT_ISR in COMRAM

    None.

Critical Paths under _DMA1_DMADCNT_ISR in COMRAM

    None.

Critical Paths under _DMA1_DMAA_ISR in COMRAM

    None.

Critical Paths under _DMA1_DMAOR_ISR in COMRAM

    None.

Critical Paths under _main in BANK0

    None.

Critical Paths under _INT0_ISR in BANK0

    None.

Critical Paths under _INT1_ISR in BANK0

    None.

Critical Paths under _INT2_ISR in BANK0

    None.

Critical Paths under _Default_ISR in BANK0

    None.

Critical Paths under _ADCC_ISR in BANK0

    None.

Critical Paths under _UART1_tx_vect_isr in BANK0

    None.

Critical Paths under _UART1_rx_vect_isr in BANK0

    None.

Critical Paths under _UART2_tx_vect_isr in BANK0

    None.

Critical Paths under _UART2_rx_vect_isr in BANK0

    None.

Critical Paths under _TMR6_ISR in BANK0

    None.

Critical Paths under _DMA1_DMASCNT_ISR in BANK0

    None.

Critical Paths under _DMA1_DMADCNT_ISR in BANK0

    None.

Critical Paths under _DMA1_DMAA_ISR in BANK0

    None.

Critical Paths under _DMA1_DMAOR_ISR in BANK0

    None.

Critical Paths under _main in BANK1

    None.

Critical Paths under _INT0_ISR in BANK1

    None.

Critical Paths under _INT1_ISR in BANK1

    None.

Critical Paths under _INT2_ISR in BANK1

    None.

Critical Paths under _Default_ISR in BANK1

    None.

Critical Paths under _ADCC_ISR in BANK1

    None.

Critical Paths under _UART1_tx_vect_isr in BANK1

    None.

Critical Paths under _UART1_rx_vect_isr in BANK1

    None.

Critical Paths under _UART2_tx_vect_isr in BANK1

    None.

Critical Paths under _UART2_rx_vect_isr in BANK1

    None.

Critical Paths under _TMR6_ISR in BANK1

    None.

Critical Paths under _DMA1_DMASCNT_ISR in BANK1

    None.

Critical Paths under _DMA1_DMADCNT_ISR in BANK1

    None.

Critical Paths under _DMA1_DMAA_ISR in BANK1

    None.

Critical Paths under _DMA1_DMAOR_ISR in BANK1

    None.

Critical Paths under _main in BANK2

    None.

Critical Paths under _INT0_ISR in BANK2

    None.

Critical Paths under _INT1_ISR in BANK2

    None.

Critical Paths under _INT2_ISR in BANK2

    None.

Critical Paths under _Default_ISR in BANK2

    None.

Critical Paths under _ADCC_ISR in BANK2

    None.

Critical Paths under _UART1_tx_vect_isr in BANK2

    None.

Critical Paths under _UART1_rx_vect_isr in BANK2

    None.

Critical Paths under _UART2_tx_vect_isr in BANK2

    None.

Critical Paths under _UART2_rx_vect_isr in BANK2

    None.

Critical Paths under _TMR6_ISR in BANK2

    None.

Critical Paths under _DMA1_DMASCNT_ISR in BANK2

    None.

Critical Paths under _DMA1_DMADCNT_ISR in BANK2

    None.

Critical Paths under _DMA1_DMAA_ISR in BANK2

    None.

Critical Paths under _DMA1_DMAOR_ISR in BANK2

    None.

Critical Paths under _main in BANK3

    None.

Critical Paths under _INT0_ISR in BANK3

    None.

Critical Paths under _INT1_ISR in BANK3

    None.

Critical Paths under _INT2_ISR in BANK3

    None.

Critical Paths under _Default_ISR in BANK3

    None.

Critical Paths under _ADCC_ISR in BANK3

    None.

Critical Paths under _UART1_tx_vect_isr in BANK3

    None.

Critical Paths under _UART1_rx_vect_isr in BANK3

    None.

Critical Paths under _UART2_tx_vect_isr in BANK3

    None.

Critical Paths under _UART2_rx_vect_isr in BANK3

    None.

Critical Paths under _TMR6_ISR in BANK3

    None.

Critical Paths under _DMA1_DMASCNT_ISR in BANK3

    None.

Critical Paths under _DMA1_DMADCNT_ISR in BANK3

    None.

Critical Paths under _DMA1_DMAA_ISR in BANK3

    None.

Critical Paths under _DMA1_DMAOR_ISR in BANK3

    None.

Critical Paths under _main in BANK4

    None.

Critical Paths under _INT0_ISR in BANK4

    None.

Critical Paths under _INT1_ISR in BANK4

    None.

Critical Paths under _INT2_ISR in BANK4

    None.

Critical Paths under _Default_ISR in BANK4

    None.

Critical Paths under _ADCC_ISR in BANK4

    None.

Critical Paths under _UART1_tx_vect_isr in BANK4

    None.

Critical Paths under _UART1_rx_vect_isr in BANK4

    None.

Critical Paths under _UART2_tx_vect_isr in BANK4

    None.

Critical Paths under _UART2_rx_vect_isr in BANK4

    None.

Critical Paths under _TMR6_ISR in BANK4

    None.

Critical Paths under _DMA1_DMASCNT_ISR in BANK4

    None.

Critical Paths under _DMA1_DMADCNT_ISR in BANK4

    None.

Critical Paths under _DMA1_DMAA_ISR in BANK4

    None.

Critical Paths under _DMA1_DMAOR_ISR in BANK4

    None.

Critical Paths under _main in BANK5

    None.

Critical Paths under _INT0_ISR in BANK5

    None.

Critical Paths under _INT1_ISR in BANK5

    None.

Critical Paths under _INT2_ISR in BANK5

    None.

Critical Paths under _Default_ISR in BANK5

    None.

Critical Paths under _ADCC_ISR in BANK5

    None.

Critical Paths under _UART1_tx_vect_isr in BANK5

    None.

Critical Paths under _UART1_rx_vect_isr in BANK5

    None.

Critical Paths under _UART2_tx_vect_isr in BANK5

    None.

Critical Paths under _UART2_rx_vect_isr in BANK5

    None.

Critical Paths under _TMR6_ISR in BANK5

    None.

Critical Paths under _DMA1_DMASCNT_ISR in BANK5

    None.

Critical Paths under _DMA1_DMADCNT_ISR in BANK5

    None.

Critical Paths under _DMA1_DMAA_ISR in BANK5

    None.

Critical Paths under _DMA1_DMAOR_ISR in BANK5

    None.

Critical Paths under _main in BANK6

    None.

Critical Paths under _INT0_ISR in BANK6

    None.

Critical Paths under _INT1_ISR in BANK6

    None.

Critical Paths under _INT2_ISR in BANK6

    None.

Critical Paths under _Default_ISR in BANK6

    None.

Critical Paths under _ADCC_ISR in BANK6

    None.

Critical Paths under _UART1_tx_vect_isr in BANK6

    None.

Critical Paths under _UART1_rx_vect_isr in BANK6

    None.

Critical Paths under _UART2_tx_vect_isr in BANK6

    None.

Critical Paths under _UART2_rx_vect_isr in BANK6

    None.

Critical Paths under _TMR6_ISR in BANK6

    None.

Critical Paths under _DMA1_DMASCNT_ISR in BANK6

    None.

Critical Paths under _DMA1_DMADCNT_ISR in BANK6

    None.

Critical Paths under _DMA1_DMAA_ISR in BANK6

    None.

Critical Paths under _DMA1_DMAOR_ISR in BANK6

    None.

Critical Paths under _main in BANK7

    None.

Critical Paths under _INT0_ISR in BANK7

    None.

Critical Paths under _INT1_ISR in BANK7

    None.

Critical Paths under _INT2_ISR in BANK7

    None.

Critical Paths under _Default_ISR in BANK7

    None.

Critical Paths under _ADCC_ISR in BANK7

    None.

Critical Paths under _UART1_tx_vect_isr in BANK7

    None.

Critical Paths under _UART1_rx_vect_isr in BANK7

    None.

Critical Paths under _UART2_tx_vect_isr in BANK7

    None.

Critical Paths under _UART2_rx_vect_isr in BANK7

    None.

Critical Paths under _TMR6_ISR in BANK7

    None.

Critical Paths under _DMA1_DMASCNT_ISR in BANK7

    None.

Critical Paths under _DMA1_DMADCNT_ISR in BANK7

    None.

Critical Paths under _DMA1_DMAA_ISR in BANK7

    None.

Critical Paths under _DMA1_DMAOR_ISR in BANK7

    None.

Critical Paths under _main in BANK8

    None.

Critical Paths under _INT0_ISR in BANK8

    None.

Critical Paths under _INT1_ISR in BANK8

    None.

Critical Paths under _INT2_ISR in BANK8

    None.

Critical Paths under _Default_ISR in BANK8

    None.

Critical Paths under _ADCC_ISR in BANK8

    None.

Critical Paths under _UART1_tx_vect_isr in BANK8

    None.

Critical Paths under _UART1_rx_vect_isr in BANK8

    None.

Critical Paths under _UART2_tx_vect_isr in BANK8

    None.

Critical Paths under _UART2_rx_vect_isr in BANK8

    None.

Critical Paths under _TMR6_ISR in BANK8

    None.

Critical Paths under _DMA1_DMASCNT_ISR in BANK8

    None.

Critical Paths under _DMA1_DMADCNT_ISR in BANK8

    None.

Critical Paths under _DMA1_DMAA_ISR in BANK8

    None.

Critical Paths under _DMA1_DMAOR_ISR in BANK8

    None.

Critical Paths under _main in BANK9

    None.

Critical Paths under _INT0_ISR in BANK9

    None.

Critical Paths under _INT1_ISR in BANK9

    None.

Critical Paths under _INT2_ISR in BANK9

    None.

Critical Paths under _Default_ISR in BANK9

    None.

Critical Paths under _ADCC_ISR in BANK9

    None.

Critical Paths under _UART1_tx_vect_isr in BANK9

    None.

Critical Paths under _UART1_rx_vect_isr in BANK9

    None.

Critical Paths under _UART2_tx_vect_isr in BANK9

    None.

Critical Paths under _UART2_rx_vect_isr in BANK9

    None.

Critical Paths under _TMR6_ISR in BANK9

    None.

Critical Paths under _DMA1_DMASCNT_ISR in BANK9

    None.

Critical Paths under _DMA1_DMADCNT_ISR in BANK9

    None.

Critical Paths under _DMA1_DMAA_ISR in BANK9

    None.

Critical Paths under _DMA1_DMAOR_ISR in BANK9

    None.

Critical Paths under _main in BANK10

    None.

Critical Paths under _INT0_ISR in BANK10

    None.

Critical Paths under _INT1_ISR in BANK10

    None.

Critical Paths under _INT2_ISR in BANK10

    None.

Critical Paths under _Default_ISR in BANK10

    None.

Critical Paths under _ADCC_ISR in BANK10

    None.

Critical Paths under _UART1_tx_vect_isr in BANK10

    None.

Critical Paths under _UART1_rx_vect_isr in BANK10

    None.

Critical Paths under _UART2_tx_vect_isr in BANK10

    None.

Critical Paths under _UART2_rx_vect_isr in BANK10

    None.

Critical Paths under _TMR6_ISR in BANK10

    None.

Critical Paths under _DMA1_DMASCNT_ISR in BANK10

    None.

Critical Paths under _DMA1_DMADCNT_ISR in BANK10

    None.

Critical Paths under _DMA1_DMAA_ISR in BANK10

    None.

Critical Paths under _DMA1_DMAOR_ISR in BANK10

    None.

Critical Paths under _main in BANK11

    None.

Critical Paths under _INT0_ISR in BANK11

    None.

Critical Paths under _INT1_ISR in BANK11

    None.

Critical Paths under _INT2_ISR in BANK11

    None.

Critical Paths under _Default_ISR in BANK11

    None.

Critical Paths under _ADCC_ISR in BANK11

    None.

Critical Paths under _UART1_tx_vect_isr in BANK11

    None.

Critical Paths under _UART1_rx_vect_isr in BANK11

    None.

Critical Paths under _UART2_tx_vect_isr in BANK11

    None.

Critical Paths under _UART2_rx_vect_isr in BANK11

    None.

Critical Paths under _TMR6_ISR in BANK11

    None.

Critical Paths under _DMA1_DMASCNT_ISR in BANK11

    None.

Critical Paths under _DMA1_DMADCNT_ISR in BANK11

    None.

Critical Paths under _DMA1_DMAA_ISR in BANK11

    None.

Critical Paths under _DMA1_DMAOR_ISR in BANK11

    None.

Critical Paths under _main in BANK12

    None.

Critical Paths under _INT0_ISR in BANK12

    None.

Critical Paths under _INT1_ISR in BANK12

    None.

Critical Paths under _INT2_ISR in BANK12

    None.

Critical Paths under _Default_ISR in BANK12

    None.

Critical Paths under _ADCC_ISR in BANK12

    None.

Critical Paths under _UART1_tx_vect_isr in BANK12

    None.

Critical Paths under _UART1_rx_vect_isr in BANK12

    None.

Critical Paths under _UART2_tx_vect_isr in BANK12

    None.

Critical Paths under _UART2_rx_vect_isr in BANK12

    None.

Critical Paths under _TMR6_ISR in BANK12

    None.

Critical Paths under _DMA1_DMASCNT_ISR in BANK12

    None.

Critical Paths under _DMA1_DMADCNT_ISR in BANK12

    None.

Critical Paths under _DMA1_DMAA_ISR in BANK12

    None.

Critical Paths under _DMA1_DMAOR_ISR in BANK12

    None.

Critical Paths under _main in BANK13

    None.

Critical Paths under _INT0_ISR in BANK13

    None.

Critical Paths under _INT1_ISR in BANK13

    None.

Critical Paths under _INT2_ISR in BANK13

    None.

Critical Paths under _Default_ISR in BANK13

    None.

Critical Paths under _ADCC_ISR in BANK13

    None.

Critical Paths under _UART1_tx_vect_isr in BANK13

    None.

Critical Paths under _UART1_rx_vect_isr in BANK13

    None.

Critical Paths under _UART2_tx_vect_isr in BANK13

    None.

Critical Paths under _UART2_rx_vect_isr in BANK13

    None.

Critical Paths under _TMR6_ISR in BANK13

    None.

Critical Paths under _DMA1_DMASCNT_ISR in BANK13

    None.

Critical Paths under _DMA1_DMADCNT_ISR in BANK13

    None.

Critical Paths under _DMA1_DMAA_ISR in BANK13

    None.

Critical Paths under _DMA1_DMAOR_ISR in BANK13

    None.

Critical Paths under _main in BANK14

    None.

Critical Paths under _INT0_ISR in BANK14

    None.

Critical Paths under _INT1_ISR in BANK14

    None.

Critical Paths under _INT2_ISR in BANK14

    None.

Critical Paths under _Default_ISR in BANK14

    None.

Critical Paths under _ADCC_ISR in BANK14

    None.

Critical Paths under _UART1_tx_vect_isr in BANK14

    None.

Critical Paths under _UART1_rx_vect_isr in BANK14

    None.

Critical Paths under _UART2_tx_vect_isr in BANK14

    None.

Critical Paths under _UART2_rx_vect_isr in BANK14

    None.

Critical Paths under _TMR6_ISR in BANK14

    None.

Critical Paths under _DMA1_DMASCNT_ISR in BANK14

    None.

Critical Paths under _DMA1_DMADCNT_ISR in BANK14

    None.

Critical Paths under _DMA1_DMAA_ISR in BANK14

    None.

Critical Paths under _DMA1_DMAOR_ISR in BANK14

    None.

Critical Paths under _main in BANK15

    None.

Critical Paths under _INT0_ISR in BANK15

    None.

Critical Paths under _INT1_ISR in BANK15

    None.

Critical Paths under _INT2_ISR in BANK15

    None.

Critical Paths under _Default_ISR in BANK15

    None.

Critical Paths under _ADCC_ISR in BANK15

    None.

Critical Paths under _UART1_tx_vect_isr in BANK15

    None.

Critical Paths under _UART1_rx_vect_isr in BANK15

    None.

Critical Paths under _UART2_tx_vect_isr in BANK15

    None.

Critical Paths under _UART2_rx_vect_isr in BANK15

    None.

Critical Paths under _TMR6_ISR in BANK15

    None.

Critical Paths under _DMA1_DMASCNT_ISR in BANK15

    None.

Critical Paths under _DMA1_DMADCNT_ISR in BANK15

    None.

Critical Paths under _DMA1_DMAA_ISR in BANK15

    None.

Critical Paths under _DMA1_DMAOR_ISR in BANK15

    None.

Critical Paths under _main in BANK16

    None.

Critical Paths under _INT0_ISR in BANK16

    None.

Critical Paths under _INT1_ISR in BANK16

    None.

Critical Paths under _INT2_ISR in BANK16

    None.

Critical Paths under _Default_ISR in BANK16

    None.

Critical Paths under _ADCC_ISR in BANK16

    None.

Critical Paths under _UART1_tx_vect_isr in BANK16

    None.

Critical Paths under _UART1_rx_vect_isr in BANK16

    None.

Critical Paths under _UART2_tx_vect_isr in BANK16

    None.

Critical Paths under _UART2_rx_vect_isr in BANK16

    None.

Critical Paths under _TMR6_ISR in BANK16

    None.

Critical Paths under _DMA1_DMASCNT_ISR in BANK16

    None.

Critical Paths under _DMA1_DMADCNT_ISR in BANK16

    None.

Critical Paths under _DMA1_DMAA_ISR in BANK16

    None.

Critical Paths under _DMA1_DMAOR_ISR in BANK16

    None.

Critical Paths under _main in BANK17

    None.

Critical Paths under _INT0_ISR in BANK17

    None.

Critical Paths under _INT1_ISR in BANK17

    None.

Critical Paths under _INT2_ISR in BANK17

    None.

Critical Paths under _Default_ISR in BANK17

    None.

Critical Paths under _ADCC_ISR in BANK17

    None.

Critical Paths under _UART1_tx_vect_isr in BANK17

    None.

Critical Paths under _UART1_rx_vect_isr in BANK17

    None.

Critical Paths under _UART2_tx_vect_isr in BANK17

    None.

Critical Paths under _UART2_rx_vect_isr in BANK17

    None.

Critical Paths under _TMR6_ISR in BANK17

    None.

Critical Paths under _DMA1_DMASCNT_ISR in BANK17

    None.

Critical Paths under _DMA1_DMADCNT_ISR in BANK17

    None.

Critical Paths under _DMA1_DMAA_ISR in BANK17

    None.

Critical Paths under _DMA1_DMAOR_ISR in BANK17

    None.

Critical Paths under _main in BANK18

    None.

Critical Paths under _INT0_ISR in BANK18

    None.

Critical Paths under _INT1_ISR in BANK18

    None.

Critical Paths under _INT2_ISR in BANK18

    None.

Critical Paths under _Default_ISR in BANK18

    None.

Critical Paths under _ADCC_ISR in BANK18

    None.

Critical Paths under _UART1_tx_vect_isr in BANK18

    None.

Critical Paths under _UART1_rx_vect_isr in BANK18

    None.

Critical Paths under _UART2_tx_vect_isr in BANK18

    None.

Critical Paths under _UART2_rx_vect_isr in BANK18

    None.

Critical Paths under _TMR6_ISR in BANK18

    None.

Critical Paths under _DMA1_DMASCNT_ISR in BANK18

    None.

Critical Paths under _DMA1_DMADCNT_ISR in BANK18

    None.

Critical Paths under _DMA1_DMAA_ISR in BANK18

    None.

Critical Paths under _DMA1_DMAOR_ISR in BANK18

    None.

Critical Paths under _main in BANK19

    None.

Critical Paths under _INT0_ISR in BANK19

    None.

Critical Paths under _INT1_ISR in BANK19

    None.

Critical Paths under _INT2_ISR in BANK19

    None.

Critical Paths under _Default_ISR in BANK19

    None.

Critical Paths under _ADCC_ISR in BANK19

    None.

Critical Paths under _UART1_tx_vect_isr in BANK19

    None.

Critical Paths under _UART1_rx_vect_isr in BANK19

    None.

Critical Paths under _UART2_tx_vect_isr in BANK19

    None.

Critical Paths under _UART2_rx_vect_isr in BANK19

    None.

Critical Paths under _TMR6_ISR in BANK19

    None.

Critical Paths under _DMA1_DMASCNT_ISR in BANK19

    None.

Critical Paths under _DMA1_DMADCNT_ISR in BANK19

    None.

Critical Paths under _DMA1_DMAA_ISR in BANK19

    None.

Critical Paths under _DMA1_DMAOR_ISR in BANK19

    None.

Critical Paths under _main in BANK20

    None.

Critical Paths under _INT0_ISR in BANK20

    None.

Critical Paths under _INT1_ISR in BANK20

    None.

Critical Paths under _INT2_ISR in BANK20

    None.

Critical Paths under _Default_ISR in BANK20

    None.

Critical Paths under _ADCC_ISR in BANK20

    None.

Critical Paths under _UART1_tx_vect_isr in BANK20

    None.

Critical Paths under _UART1_rx_vect_isr in BANK20

    None.

Critical Paths under _UART2_tx_vect_isr in BANK20

    None.

Critical Paths under _UART2_rx_vect_isr in BANK20

    None.

Critical Paths under _TMR6_ISR in BANK20

    None.

Critical Paths under _DMA1_DMASCNT_ISR in BANK20

    None.

Critical Paths under _DMA1_DMADCNT_ISR in BANK20

    None.

Critical Paths under _DMA1_DMAA_ISR in BANK20

    None.

Critical Paths under _DMA1_DMAOR_ISR in BANK20

    None.

Critical Paths under _main in BANK21

    None.

Critical Paths under _INT0_ISR in BANK21

    None.

Critical Paths under _INT1_ISR in BANK21

    None.

Critical Paths under _INT2_ISR in BANK21

    None.

Critical Paths under _Default_ISR in BANK21

    None.

Critical Paths under _ADCC_ISR in BANK21

    None.

Critical Paths under _UART1_tx_vect_isr in BANK21

    None.

Critical Paths under _UART1_rx_vect_isr in BANK21

    None.

Critical Paths under _UART2_tx_vect_isr in BANK21

    None.

Critical Paths under _UART2_rx_vect_isr in BANK21

    None.

Critical Paths under _TMR6_ISR in BANK21

    None.

Critical Paths under _DMA1_DMASCNT_ISR in BANK21

    None.

Critical Paths under _DMA1_DMADCNT_ISR in BANK21

    None.

Critical Paths under _DMA1_DMAA_ISR in BANK21

    None.

Critical Paths under _DMA1_DMAOR_ISR in BANK21

    None.

Critical Paths under _main in BANK22

    None.

Critical Paths under _INT0_ISR in BANK22

    None.

Critical Paths under _INT1_ISR in BANK22

    None.

Critical Paths under _INT2_ISR in BANK22

    None.

Critical Paths under _Default_ISR in BANK22

    None.

Critical Paths under _ADCC_ISR in BANK22

    None.

Critical Paths under _UART1_tx_vect_isr in BANK22

    None.

Critical Paths under _UART1_rx_vect_isr in BANK22

    None.

Critical Paths under _UART2_tx_vect_isr in BANK22

    None.

Critical Paths under _UART2_rx_vect_isr in BANK22

    None.

Critical Paths under _TMR6_ISR in BANK22

    None.

Critical Paths under _DMA1_DMASCNT_ISR in BANK22

    None.

Critical Paths under _DMA1_DMADCNT_ISR in BANK22

    None.

Critical Paths under _DMA1_DMAA_ISR in BANK22

    None.

Critical Paths under _DMA1_DMAOR_ISR in BANK22

    None.

Critical Paths under _main in BANK23

    None.

Critical Paths under _INT0_ISR in BANK23

    None.

Critical Paths under _INT1_ISR in BANK23

    None.

Critical Paths under _INT2_ISR in BANK23

    None.

Critical Paths under _Default_ISR in BANK23

    None.

Critical Paths under _ADCC_ISR in BANK23

    None.

Critical Paths under _UART1_tx_vect_isr in BANK23

    None.

Critical Paths under _UART1_rx_vect_isr in BANK23

    None.

Critical Paths under _UART2_tx_vect_isr in BANK23

    None.

Critical Paths under _UART2_rx_vect_isr in BANK23

    None.

Critical Paths under _TMR6_ISR in BANK23

    None.

Critical Paths under _DMA1_DMASCNT_ISR in BANK23

    None.

Critical Paths under _DMA1_DMADCNT_ISR in BANK23

    None.

Critical Paths under _DMA1_DMAA_ISR in BANK23

    None.

Critical Paths under _DMA1_DMAOR_ISR in BANK23

    None.

Critical Paths under _main in BANK24

    None.

Critical Paths under _INT0_ISR in BANK24

    None.

Critical Paths under _INT1_ISR in BANK24

    None.

Critical Paths under _INT2_ISR in BANK24

    None.

Critical Paths under _Default_ISR in BANK24

    None.

Critical Paths under _ADCC_ISR in BANK24

    None.

Critical Paths under _UART1_tx_vect_isr in BANK24

    None.

Critical Paths under _UART1_rx_vect_isr in BANK24

    None.

Critical Paths under _UART2_tx_vect_isr in BANK24

    None.

Critical Paths under _UART2_rx_vect_isr in BANK24

    None.

Critical Paths under _TMR6_ISR in BANK24

    None.

Critical Paths under _DMA1_DMASCNT_ISR in BANK24

    None.

Critical Paths under _DMA1_DMADCNT_ISR in BANK24

    None.

Critical Paths under _DMA1_DMAA_ISR in BANK24

    None.

Critical Paths under _DMA1_DMAOR_ISR in BANK24

    None.

Critical Paths under _main in BANK25

    None.

Critical Paths under _INT0_ISR in BANK25

    None.

Critical Paths under _INT1_ISR in BANK25

    None.

Critical Paths under _INT2_ISR in BANK25

    None.

Critical Paths under _Default_ISR in BANK25

    None.

Critical Paths under _ADCC_ISR in BANK25

    None.

Critical Paths under _UART1_tx_vect_isr in BANK25

    None.

Critical Paths under _UART1_rx_vect_isr in BANK25

    None.

Critical Paths under _UART2_tx_vect_isr in BANK25

    None.

Critical Paths under _UART2_rx_vect_isr in BANK25

    None.

Critical Paths under _TMR6_ISR in BANK25

    None.

Critical Paths under _DMA1_DMASCNT_ISR in BANK25

    None.

Critical Paths under _DMA1_DMADCNT_ISR in BANK25

    None.

Critical Paths under _DMA1_DMAA_ISR in BANK25

    None.

Critical Paths under _DMA1_DMAOR_ISR in BANK25

    None.

Critical Paths under _main in BANK26

    None.

Critical Paths under _INT0_ISR in BANK26

    None.

Critical Paths under _INT1_ISR in BANK26

    None.

Critical Paths under _INT2_ISR in BANK26

    None.

Critical Paths under _Default_ISR in BANK26

    None.

Critical Paths under _ADCC_ISR in BANK26

    None.

Critical Paths under _UART1_tx_vect_isr in BANK26

    None.

Critical Paths under _UART1_rx_vect_isr in BANK26

    None.

Critical Paths under _UART2_tx_vect_isr in BANK26

    None.

Critical Paths under _UART2_rx_vect_isr in BANK26

    None.

Critical Paths under _TMR6_ISR in BANK26

    None.

Critical Paths under _DMA1_DMASCNT_ISR in BANK26

    None.

Critical Paths under _DMA1_DMADCNT_ISR in BANK26

    None.

Critical Paths under _DMA1_DMAA_ISR in BANK26

    None.

Critical Paths under _DMA1_DMAOR_ISR in BANK26

    None.

Critical Paths under _main in BANK27

    None.

Critical Paths under _INT0_ISR in BANK27

    None.

Critical Paths under _INT1_ISR in BANK27

    None.

Critical Paths under _INT2_ISR in BANK27

    None.

Critical Paths under _Default_ISR in BANK27

    None.

Critical Paths under _ADCC_ISR in BANK27

    None.

Critical Paths under _UART1_tx_vect_isr in BANK27

    None.

Critical Paths under _UART1_rx_vect_isr in BANK27

    None.

Critical Paths under _UART2_tx_vect_isr in BANK27

    None.

Critical Paths under _UART2_rx_vect_isr in BANK27

    None.

Critical Paths under _TMR6_ISR in BANK27

    None.

Critical Paths under _DMA1_DMASCNT_ISR in BANK27

    None.

Critical Paths under _DMA1_DMADCNT_ISR in BANK27

    None.

Critical Paths under _DMA1_DMAA_ISR in BANK27

    None.

Critical Paths under _DMA1_DMAOR_ISR in BANK27

    None.

Critical Paths under _main in BANK28

    None.

Critical Paths under _INT0_ISR in BANK28

    None.

Critical Paths under _INT1_ISR in BANK28

    None.

Critical Paths under _INT2_ISR in BANK28

    None.

Critical Paths under _Default_ISR in BANK28

    None.

Critical Paths under _ADCC_ISR in BANK28

    None.

Critical Paths under _UART1_tx_vect_isr in BANK28

    None.

Critical Paths under _UART1_rx_vect_isr in BANK28

    None.

Critical Paths under _UART2_tx_vect_isr in BANK28

    None.

Critical Paths under _UART2_rx_vect_isr in BANK28

    None.

Critical Paths under _TMR6_ISR in BANK28

    None.

Critical Paths under _DMA1_DMASCNT_ISR in BANK28

    None.

Critical Paths under _DMA1_DMADCNT_ISR in BANK28

    None.

Critical Paths under _DMA1_DMAA_ISR in BANK28

    None.

Critical Paths under _DMA1_DMAOR_ISR in BANK28

    None.

Critical Paths under _main in BANK29

    None.

Critical Paths under _INT0_ISR in BANK29

    None.

Critical Paths under _INT1_ISR in BANK29

    None.

Critical Paths under _INT2_ISR in BANK29

    None.

Critical Paths under _Default_ISR in BANK29

    None.

Critical Paths under _ADCC_ISR in BANK29

    None.

Critical Paths under _UART1_tx_vect_isr in BANK29

    None.

Critical Paths under _UART1_rx_vect_isr in BANK29

    None.

Critical Paths under _UART2_tx_vect_isr in BANK29

    None.

Critical Paths under _UART2_rx_vect_isr in BANK29

    None.

Critical Paths under _TMR6_ISR in BANK29

    None.

Critical Paths under _DMA1_DMASCNT_ISR in BANK29

    None.

Critical Paths under _DMA1_DMADCNT_ISR in BANK29

    None.

Critical Paths under _DMA1_DMAA_ISR in BANK29

    None.

Critical Paths under _DMA1_DMAOR_ISR in BANK29

    None.

Critical Paths under _main in BANK30

    None.

Critical Paths under _INT0_ISR in BANK30

    None.

Critical Paths under _INT1_ISR in BANK30

    None.

Critical Paths under _INT2_ISR in BANK30

    None.

Critical Paths under _Default_ISR in BANK30

    None.

Critical Paths under _ADCC_ISR in BANK30

    None.

Critical Paths under _UART1_tx_vect_isr in BANK30

    None.

Critical Paths under _UART1_rx_vect_isr in BANK30

    None.

Critical Paths under _UART2_tx_vect_isr in BANK30

    None.

Critical Paths under _UART2_rx_vect_isr in BANK30

    None.

Critical Paths under _TMR6_ISR in BANK30

    None.

Critical Paths under _DMA1_DMASCNT_ISR in BANK30

    None.

Critical Paths under _DMA1_DMADCNT_ISR in BANK30

    None.

Critical Paths under _DMA1_DMAA_ISR in BANK30

    None.

Critical Paths under _DMA1_DMAOR_ISR in BANK30

    None.

Critical Paths under _main in BANK31

    None.

Critical Paths under _INT0_ISR in BANK31

    None.

Critical Paths under _INT1_ISR in BANK31

    None.

Critical Paths under _INT2_ISR in BANK31

    None.

Critical Paths under _Default_ISR in BANK31

    None.

Critical Paths under _ADCC_ISR in BANK31

    None.

Critical Paths under _UART1_tx_vect_isr in BANK31

    None.

Critical Paths under _UART1_rx_vect_isr in BANK31

    None.

Critical Paths under _UART2_tx_vect_isr in BANK31

    None.

Critical Paths under _UART2_rx_vect_isr in BANK31

    None.

Critical Paths under _TMR6_ISR in BANK31

    None.

Critical Paths under _DMA1_DMASCNT_ISR in BANK31

    None.

Critical Paths under _DMA1_DMADCNT_ISR in BANK31

    None.

Critical Paths under _DMA1_DMAA_ISR in BANK31

    None.

Critical Paths under _DMA1_DMAOR_ISR in BANK31

    None.

Call Graph Tables:

 ---------------------------------------------------------------------------------
 (Depth) Function   	        Calls       Base Space   Used Autos Params    Refs
 ---------------------------------------------------------------------------------
 (0) _main                                                 3     3      0   20837
                  _SYSTEM_Initialize
                        _UART1_Write
                  _UART1_is_tx_ready
                    _block_checkmark
                 _eaDogM_WriteString
                       _init_display
                            _sprintf
                             _strcpy
                     _wait_lcd_check
                      _wait_lcd_done
 ---------------------------------------------------------------------------------
 (1) _wait_lcd_done                                        0     0      0      31
                           _wdtdelay
 ---------------------------------------------------------------------------------
 (1) _wait_lcd_check                                       0     0      0       0
 ---------------------------------------------------------------------------------
 (1) _strcpy                                               4     2      2     137
 ---------------------------------------------------------------------------------
 (1) _sprintf                                             15     9      6    8890
                           _vfprintf
 ---------------------------------------------------------------------------------
 (1) _init_display                                         0     0      0    1247
                      _ringBufS_init
                       _send_lcd_cmd
                  _send_lcd_cmd_long
                           _wdtdelay
 ---------------------------------------------------------------------------------
 (2) _send_lcd_cmd_long                                    1     0      1      84
                  _SPI1_Exchange8bit
                           _wdtdelay
 ---------------------------------------------------------------------------------
 (2) _send_lcd_cmd                                         1     0      1      84
                  _SPI1_Exchange8bit
                           _wdtdelay
 ---------------------------------------------------------------------------------
 (2) _wdtdelay                                             4     0      4      31
 ---------------------------------------------------------------------------------
 (3) _SPI1_Exchange8bit                                    1     0      1      22
 ---------------------------------------------------------------------------------
 (2) _ringBufS_init                                        2     0      2    1048
                             _memset
 ---------------------------------------------------------------------------------
 (1) _eaDogM_WriteString                                   1     0      1   10051
                             _printf
                     _ringBufS_flush
                          _start_lcd
                             _strlen
                       _wait_lcd_set
 ---------------------------------------------------------------------------------
 (2) _wait_lcd_set                                         0     0      0       0
 ---------------------------------------------------------------------------------
 (2) _start_lcd                                            0     0      0       0
 ---------------------------------------------------------------------------------
 (2) _ringBufS_flush                                       3     0      3    1172
                             _memset
 ---------------------------------------------------------------------------------
 (3) _memset                                              10     4      6    1017
 ---------------------------------------------------------------------------------
 (2) _printf                                               7     4      3    8665
                           _vfprintf
 ---------------------------------------------------------------------------------
 (2) _vfprintf                                             6     1      5    8572
                          _vfpfcnvrt
 ---------------------------------------------------------------------------------
 (3) _vfpfcnvrt                                           39    33      6    8345
                               _dtoa
                              _fputc
                               _stoa
                               _xtoa
 ---------------------------------------------------------------------------------
 (4) _xtoa                                                31    20     11    2664
                            _isalpha
                            _isupper
                                _pad
                            _toupper
 ---------------------------------------------------------------------------------
 (5) _toupper                                              4     2      2     134
                            _islower
 ---------------------------------------------------------------------------------
 (6) _islower                                              2     0      2      22
 ---------------------------------------------------------------------------------
 (5) _isupper                                              2     0      2      22
 ---------------------------------------------------------------------------------
 (5) _isalpha                                              2     0      2      22
 ---------------------------------------------------------------------------------
 (4) _stoa                                                21    17      4    1289
                              _fputc
                             _strlen
 ---------------------------------------------------------------------------------
 (4) _dtoa                                                28    18     10    2978
                            ___aodiv
                            ___aomod
                                _abs
                                _pad
 ---------------------------------------------------------------------------------
 (5) _pad                                                  9     4      5    1651
                              _fputc
                              _fputs
                             _strlen
 ---------------------------------------------------------------------------------
 (6) _strlen                                               4     2      2      90
 ---------------------------------------------------------------------------------
 (6) _fputs                                                6     3      3     674
                              _fputc
 ---------------------------------------------------------------------------------
 (7) _fputc                                                4     0      4     534
                              _putch
 ---------------------------------------------------------------------------------
 (8) _putch                                                1     0      1     217
                   _ringBufS_put_dma
 ---------------------------------------------------------------------------------
 (9) _ringBufS_put_dma                                     3     0      3     186
 ---------------------------------------------------------------------------------
 (5) _abs                                                  2     0      2      66
 ---------------------------------------------------------------------------------
 (5) ___aomod                                             18     2     16     296
 ---------------------------------------------------------------------------------
 (5) ___aodiv                                             26    10     16     300
 ---------------------------------------------------------------------------------
 (1) _block_checkmark                                      7     4      3     114
 ---------------------------------------------------------------------------------
 (1) _UART1_is_tx_ready                                    0     0      0       0
 ---------------------------------------------------------------------------------
 (1) _UART1_Write                                          1     0      1      44
 ---------------------------------------------------------------------------------
 (1) _SYSTEM_Initialize                                    0     0      0     221
                    _ADCC_Initialize
                    _CLC1_Initialize
                  _CLKREF_Initialize
                    _DMA1_Initialize
                     _DSM_Initialize
                 _EXT_INT_Initialize
               _INTERRUPT_Initialize
                    _NCO1_Initialize
              _OSCILLATOR_Initialize
             _PIN_MANAGER_Initialize
                     _PMD_Initialize
                    _SPI1_Initialize
                    _TMR6_Initialize
                   _UART1_Initialize
                   _UART2_Initialize
 ---------------------------------------------------------------------------------
 (2) _UART2_Initialize                                     0     0      0      44
        _UART2_SetRxInterruptHandler
        _UART2_SetTxInterruptHandler
 ---------------------------------------------------------------------------------
 (3) _UART2_SetTxInterruptHandler                          3     0      3      22
 ---------------------------------------------------------------------------------
 (3) _UART2_SetRxInterruptHandler                          3     0      3      22
 ---------------------------------------------------------------------------------
 (2) _UART1_Initialize                                     0     0      0      44
        _UART1_SetRxInterruptHandler
        _UART1_SetTxInterruptHandler
 ---------------------------------------------------------------------------------
 (3) _UART1_SetTxInterruptHandler                          3     0      3      22
 ---------------------------------------------------------------------------------
 (3) _UART1_SetRxInterruptHandler                          3     0      3      22
 ---------------------------------------------------------------------------------
 (2) _TMR6_Initialize                                      0     0      0      22
           _TMR6_SetInterruptHandler
 ---------------------------------------------------------------------------------
 (3) _TMR6_SetInterruptHandler                             3     0      3      22
 ---------------------------------------------------------------------------------
 (2) _SPI1_Initialize                                      0     0      0       0
 ---------------------------------------------------------------------------------
 (2) _PMD_Initialize                                       0     0      0       0
 ---------------------------------------------------------------------------------
 (2) _PIN_MANAGER_Initialize                               0     0      0       0
 ---------------------------------------------------------------------------------
 (2) _OSCILLATOR_Initialize                                0     0      0       0
 ---------------------------------------------------------------------------------
 (2) _NCO1_Initialize                                      0     0      0       0
 ---------------------------------------------------------------------------------
 (2) _INTERRUPT_Initialize                                 1     1      0      23
 ---------------------------------------------------------------------------------
 (2) _EXT_INT_Initialize                                   0     0      0      66
           _INT0_SetInterruptHandler
           _INT1_SetInterruptHandler
           _INT2_SetInterruptHandler
 ---------------------------------------------------------------------------------
 (3) _INT2_SetInterruptHandler                             3     0      3      22
 ---------------------------------------------------------------------------------
 (3) _INT1_SetInterruptHandler                             3     0      3      22
 ---------------------------------------------------------------------------------
 (3) _INT0_SetInterruptHandler                             3     0      3      22
 ---------------------------------------------------------------------------------
 (2) _DSM_Initialize                                       0     0      0       0
 ---------------------------------------------------------------------------------
 (2) _DMA1_Initialize                                      0     0      0       0
 ---------------------------------------------------------------------------------
 (2) _CLKREF_Initialize                                    0     0      0       0
 ---------------------------------------------------------------------------------
 (2) _CLC1_Initialize                                      0     0      0       0
 ---------------------------------------------------------------------------------
 (2) _ADCC_Initialize                                      0     0      0      22
        _ADCC_SetADIInterruptHandler
 ---------------------------------------------------------------------------------
 (3) _ADCC_SetADIInterruptHandler                          3     0      3      22
 ---------------------------------------------------------------------------------
 (Depth) Function   	        Calls       Base Space   Used Autos Params    Refs
 ---------------------------------------------------------------------------------
 (11) _INT0_ISR                                            0     0      0       0
                      _INT0_CallBack
 ---------------------------------------------------------------------------------
 (12) _INT0_CallBack                                       0     0      0       0
                   Absolute function *
       _INT0_DefaultInterruptHandler *
 ---------------------------------------------------------------------------------
 (13) _INT0_DefaultInterruptHandler                        0     0      0       0
 ---------------------------------------------------------------------------------
 (13) Absolute function(Fake)                              0     0      0       0
 ---------------------------------------------------------------------------------
 (Depth) Function   	        Calls       Base Space   Used Autos Params    Refs
 ---------------------------------------------------------------------------------
 (11) _INT1_ISR                                            0     0      0       0
                      _INT1_CallBack
 ---------------------------------------------------------------------------------
 (12) _INT1_CallBack                                       0     0      0       0
                   Absolute function *
       _INT1_DefaultInterruptHandler *
 ---------------------------------------------------------------------------------
 (13) _INT1_DefaultInterruptHandler                        0     0      0       0
 ---------------------------------------------------------------------------------
 (13) Absolute function(Fake)                              0     0      0       0
 ---------------------------------------------------------------------------------
 (Depth) Function   	        Calls       Base Space   Used Autos Params    Refs
 ---------------------------------------------------------------------------------
 (11) _INT2_ISR                                            0     0      0       0
                      _INT2_CallBack
 ---------------------------------------------------------------------------------
 (12) _INT2_CallBack                                       0     0      0       0
                   Absolute function *
       _INT2_DefaultInterruptHandler *
 ---------------------------------------------------------------------------------
 (13) _INT2_DefaultInterruptHandler                        0     0      0       0
 ---------------------------------------------------------------------------------
 (13) Absolute function(Fake)                              0     0      0       0
 ---------------------------------------------------------------------------------
 (Depth) Function   	        Calls       Base Space   Used Autos Params    Refs
 ---------------------------------------------------------------------------------
 (11) _Default_ISR                                         0     0      0       0
 ---------------------------------------------------------------------------------
 (Depth) Function   	        Calls       Base Space   Used Autos Params    Refs
 ---------------------------------------------------------------------------------
 (11) _ADCC_ISR                                            0     0      0       0
                   Absolute function *
       _ADCC_DefaultInterruptHandler *
 ---------------------------------------------------------------------------------
 (12) _ADCC_DefaultInterruptHandler                        0     0      0       0
 ---------------------------------------------------------------------------------
 (13) Absolute function(Fake)                              0     0      0       0
 ---------------------------------------------------------------------------------
 (Depth) Function   	        Calls       Base Space   Used Autos Params    Refs
 ---------------------------------------------------------------------------------
 (11) _UART1_tx_vect_isr                                   0     0      0       0
                   Absolute function *
                 _UART1_Transmit_ISR *
 ---------------------------------------------------------------------------------
 (12) _UART1_Transmit_ISR                                  0     0      0       0
 ---------------------------------------------------------------------------------
 (13) Absolute function(Fake)                              0     0      0       0
 ---------------------------------------------------------------------------------
 (Depth) Function   	        Calls       Base Space   Used Autos Params    Refs
 ---------------------------------------------------------------------------------
 (11) _UART1_rx_vect_isr                                   0     0      0       0
                   Absolute function *
                  _UART1_Receive_ISR *
 ---------------------------------------------------------------------------------
 (12) _UART1_Receive_ISR                                   0     0      0       0
 ---------------------------------------------------------------------------------
 (13) Absolute function(Fake)                              0     0      0       0
 ---------------------------------------------------------------------------------
 (Depth) Function   	        Calls       Base Space   Used Autos Params    Refs
 ---------------------------------------------------------------------------------
 (11) _UART2_tx_vect_isr                                   0     0      0       0
                   Absolute function *
                 _UART2_Transmit_ISR *
 ---------------------------------------------------------------------------------
 (12) _UART2_Transmit_ISR                                  0     0      0       0
 ---------------------------------------------------------------------------------
 (13) Absolute function(Fake)                              0     0      0       0
 ---------------------------------------------------------------------------------
 (Depth) Function   	        Calls       Base Space   Used Autos Params    Refs
 ---------------------------------------------------------------------------------
 (11) _UART2_rx_vect_isr                                   0     0      0       0
                   Absolute function *
                  _UART2_Receive_ISR *
 ---------------------------------------------------------------------------------
 (12) _UART2_Receive_ISR                                   0     0      0       0
 ---------------------------------------------------------------------------------
 (13) Absolute function(Fake)                              0     0      0       0
 ---------------------------------------------------------------------------------
 (Depth) Function   	        Calls       Base Space   Used Autos Params    Refs
 ---------------------------------------------------------------------------------
 (11) _TMR6_ISR                                            1     1      0       0
                                              0 COMRAM     1     1      0
                      _TMR6_CallBack
 ---------------------------------------------------------------------------------
 (12) _TMR6_CallBack                                       0     0      0       0
                   Absolute function *
       _TMR6_DefaultInterruptHandler *
 ---------------------------------------------------------------------------------
 (13) _TMR6_DefaultInterruptHandler                        0     0      0       0
 ---------------------------------------------------------------------------------
 (13) Absolute function(Fake)                              0     0      0       0
 ---------------------------------------------------------------------------------
 (Depth) Function   	        Calls       Base Space   Used Autos Params    Refs
 ---------------------------------------------------------------------------------
 (11) _DMA1_DMASCNT_ISR                                    0     0      0       0
 ---------------------------------------------------------------------------------
 (Depth) Function   	        Calls       Base Space   Used Autos Params    Refs
 ---------------------------------------------------------------------------------
 (11) _DMA1_DMADCNT_ISR                                    0     0      0       0
 ---------------------------------------------------------------------------------
 (Depth) Function   	        Calls       Base Space   Used Autos Params    Refs
 ---------------------------------------------------------------------------------
 (11) _DMA1_DMAA_ISR                                       0     0      0       0
 ---------------------------------------------------------------------------------
 (Depth) Function   	        Calls       Base Space   Used Autos Params    Refs
 ---------------------------------------------------------------------------------
 (11) _DMA1_DMAOR_ISR                                      0     0      0       0
 ---------------------------------------------------------------------------------
 Estimated maximum stack depth 11
 ---------------------------------------------------------------------------------

 Call Graph Graphs:

 _main (ROOT)
   _SYSTEM_Initialize
     _ADCC_Initialize
       _ADCC_SetADIInterruptHandler
     _CLC1_Initialize
     _CLKREF_Initialize
     _DMA1_Initialize
     _DSM_Initialize
     _EXT_INT_Initialize
       _INT0_SetInterruptHandler
       _INT1_SetInterruptHandler
       _INT2_SetInterruptHandler
     _INTERRUPT_Initialize
     _NCO1_Initialize
     _OSCILLATOR_Initialize
     _PIN_MANAGER_Initialize
     _PMD_Initialize
     _SPI1_Initialize
     _TMR6_Initialize
       _TMR6_SetInterruptHandler
     _UART1_Initialize
       _UART1_SetRxInterruptHandler
       _UART1_SetTxInterruptHandler
     _UART2_Initialize
       _UART2_SetRxInterruptHandler
       _UART2_SetTxInterruptHandler
   _UART1_Write
   _UART1_is_tx_ready
   _block_checkmark
   _eaDogM_WriteString
     _printf
       _vfprintf
         _vfpfcnvrt
           _dtoa
             ___aodiv
             ___aomod
             _abs
             _pad
               _fputc
                 _putch
                   _ringBufS_put_dma
               _fputs
                 _fputc
                   _putch
                     _ringBufS_put_dma
               _strlen
           _fputc
             _putch
               _ringBufS_put_dma
           _stoa
             _fputc
               _putch
                 _ringBufS_put_dma
             _strlen
           _xtoa
             _isalpha
             _isupper
             _pad
               _fputc
                 _putch
                   _ringBufS_put_dma
               _fputs
                 _fputc
                   _putch
                     _ringBufS_put_dma
               _strlen
             _toupper
               _islower
     _ringBufS_flush
       _memset
     _start_lcd
     _strlen
     _wait_lcd_set
   _init_display
     _ringBufS_init
       _memset
     _send_lcd_cmd
       _SPI1_Exchange8bit
       _wdtdelay
     _send_lcd_cmd_long
       _SPI1_Exchange8bit
       _wdtdelay
     _wdtdelay
   _sprintf
     _vfprintf
       _vfpfcnvrt
         _dtoa
           ___aodiv
           ___aomod
           _abs
           _pad
             _fputc
               _putch
                 _ringBufS_put_dma
             _fputs
               _fputc
                 _putch
                   _ringBufS_put_dma
             _strlen
         _fputc
           _putch
             _ringBufS_put_dma
         _stoa
           _fputc
             _putch
               _ringBufS_put_dma
           _strlen
         _xtoa
           _isalpha
           _isupper
           _pad
             _fputc
               _putch
                 _ringBufS_put_dma
             _fputs
               _fputc
                 _putch
                   _ringBufS_put_dma
             _strlen
           _toupper
             _islower
   _strcpy
   _wait_lcd_check
   _wait_lcd_done
     _wdtdelay

 _INT0_ISR (ROOT)
   _INT0_CallBack
     Absolute function(Fake) *
     _INT0_DefaultInterruptHandler *

 _INT1_ISR (ROOT)
   _INT1_CallBack
     Absolute function(Fake) *
     _INT1_DefaultInterruptHandler *

 _INT2_ISR (ROOT)
   _INT2_CallBack
     Absolute function(Fake) *
     _INT2_DefaultInterruptHandler *

 _Default_ISR (ROOT)

 _ADCC_ISR (ROOT)
   Absolute function(Fake) *
   _ADCC_DefaultInterruptHandler *

 _UART1_tx_vect_isr (ROOT)
   Absolute function(Fake) *
   _UART1_Transmit_ISR *

 _UART1_rx_vect_isr (ROOT)
   Absolute function(Fake) *
   _UART1_Receive_ISR *

 _UART2_tx_vect_isr (ROOT)
   Absolute function(Fake) *
   _UART2_Transmit_ISR *

 _UART2_rx_vect_isr (ROOT)
   Absolute function(Fake) *
   _UART2_Receive_ISR *

 _TMR6_ISR (ROOT)
   _TMR6_CallBack
     Absolute function(Fake) *
     _TMR6_DefaultInterruptHandler *

 _DMA1_DMASCNT_ISR (ROOT)

 _DMA1_DMADCNT_ISR (ROOT)

 _DMA1_DMAA_ISR (ROOT)

 _DMA1_DMAOR_ISR (ROOT)

 Address spaces:
Name               Size   Autos  Total    Cost      Usage
BIGRAM            1FFF      0       0      69        0.0%
EEDATA             400      0       0       0        0.0%
BITBANK31          100      0       0      67        0.0%
BANK31             100      0       0      68        0.0%
BITBANK30          100      0       0      65        0.0%
BANK30             100      0       0      66        0.0%
BITBANK29          100      0       0      63        0.0%
BANK29             100      0       0      64        0.0%
BITBANK28          100      0       0      61        0.0%
BANK28             100      0       0      62        0.0%
BITBANK27          100      0       0      59        0.0%
BANK27             100      0       0      60        0.0%
BITBANK26          100      0       0      56        0.0%
BANK26             100      0       0      57        0.0%
BITBANK25          100      0       0      54        0.0%
BANK25             100      0       0      55        0.0%
BITBANK24          100      0       0      52        0.0%
BANK24             100      0       0      53        0.0%
BITBANK23          100      0       0      50        0.0%
BANK23             100      0       0      51        0.0%
BITBANK22          100      0       0      48        0.0%
BANK22             100      0       0      49        0.0%
BITBANK21          100      0       0      46        0.0%
BANK21             100      0       0      47        0.0%
BITBANK20          100      0       0      44        0.0%
BANK20             100      0       0      45        0.0%
BITBANK19          100      0       0      42        0.0%
BANK19             100      0       0      43        0.0%
BITBANK18          100      0       0      40        0.0%
BANK18             100      0       0      41        0.0%
BITBANK17          100      0       0      38        0.0%
BANK17             100      0       0      39        0.0%
BITBANK16          100      0       0      36        0.0%
BANK16             100      0       0      37        0.0%
BITBANK15          100      0       0      34        0.0%
BANK15             100      0       0      35        0.0%
BITBANK14          100      0       0      32        0.0%
BANK14             100      0       0      33        0.0%
BITBANK13          100      0       0      30        0.0%
BANK13             100      0       0      31        0.0%
BITBANK12          100      0       0      28        0.0%
BANK12             100      0       0      29        0.0%
BITBANK11          100      0       0      26        0.0%
BANK11             100      0       0      27        0.0%
BITBANK10          100      0       0      24        0.0%
BANK10             100      0       0      25        0.0%
BITBANK9           100      0       0      22        0.0%
BANK9              100      0       0      23        0.0%
BITBANK8           100      0       0      20        0.0%
BANK8              100      0       0      21        0.0%
BITBANK7           100      0       0      18        0.0%
BANK7              100      0       0      19        0.0%
BITBANK6           100      0       0      16        0.0%
BANK6              100      0       0      17        0.0%
BITBANK5           100      0       0      14        0.0%
BANK5              100      0       0      15        0.0%
BITBANK4           100      0       0      12        0.0%
BANK4              100      0       0      13        0.0%
BITBANK3           100      0       0      10        0.0%
BANK3              100      0       0      11        0.0%
BITBANK2           100      0       0       8        0.0%
BANK2              100      0      86       9       52.3%
BITBANK1           100      0       0       6        0.0%
BANK1              100      0     100       7      100.0%
BITBANK0            A0      0       0       4        0.0%
BANK0               A0      0      7D       5       78.1%
BITCOMRAM           3F      0       0       0        0.0%
COMRAM              3F      1      3C       1       95.2%
BITSFR_8             0      0       0     200        0.0%
SFR_8                0      0       0     200        0.0%
BITSFR_7             0      0       0     200        0.0%
SFR_7                0      0       0     200        0.0%
BITSFR_6             0      0       0     200        0.0%
SFR_6                0      0       0     200        0.0%
BITSFR_5             0      0       0     200        0.0%
SFR_5                0      0       0     200        0.0%
BITSFR_4             0      0       0     200        0.0%
SFR_4                0      0       0     200        0.0%
BITSFR_3             0      0       0     200        0.0%
SFR_3                0      0       0     200        0.0%
BITSFR_2             0      0       0     200        0.0%
SFR_2                0      0       0     200        0.0%
BITSFR_1             0      0       0     200        0.0%
SFR_1                0      0       0     200        0.0%
BITSFR               0      0       0     200        0.0%
SFR                  0      0       0     200        0.0%
STACK                0      0       0       2        0.0%
NULL                 0      0       0       0        0.0%
ABS                  0      0     23F      58        0.0%
DATA                 0      0     23F       3        0.0%
CODE                 0      0       0       0        0.0%


Microchip Technology PIC18 Macro Assembler V2.05 build -831301201 
Symbol Table                                                                                   Mon Mar  4 03:36:25 2019

                    _SPI1_Exchange8bit 4A2C                                      _V 0064  
                          __CFG_CP$OFF 000000                __size_of_ringBufS_flush 0092  
                          __CFG_LVP$ON 000000                                    _H10 00D0  
                                  l190 4AF8                                    l709 4640  
                                  l575 4528                                    l593 4614  
                                  l838 4A3A                                    _GIE 01FE97  
                                  _abs 4488                                    _pad 38D2  
              __size_of_PMD_Initialize 0014                                    tosl 003FFD  
                                  wreg 003FE8                          _INT0_CallBack 4964  
                   _UART1_Transmit_ISR 45EE                          __CFG_BBEN$OFF 000000  
                        _INT1_CallBack 4986                           __CFG_ZCD$OFF 000000  
                                 l1300 3F42                                   l1117 3770  
                                 l1126 3790                                   l2200 3FC4  
                                 l1400 2918                                   l2122 44C8  
                                 l1430 2474                                   l1352 255C  
                                 l1339 3926                                   l1179 43A2  
                                 l2156 38C8                                   l1296 3CE4  
                                 l1379 302E                                   l5011 2E18  
                                 l5005 2DAE                                   l5031 3E3C  
                                 l4401 4A08                                   l5033 3E7C  
                                 l3611 34C4                                   l5019 2EC6  
                                 l4413 463C                                   l3533 44B8  
                                 l4423 4A28                                   l5223 378C  
                                 l5207 3756                                   l5217 3782  
                                 l5209 375E                                   l3627 35F8  
                                 l3619 354C                                   l3555 3FB4  
                                 l5219 3786                                   l5227 3792  
                                 l3573 329C                                   l5149 3D38  
                                 l4391 4610                                   l3591 33B4  
                                 l3567 3248                                   l3487 3FF4  
                                 l4703 38F6                                   l5167 41CA  
                                 l4377 4548                                   l3489 4016  
                                 l4713 396C                                   l4379 454A  
                                 l4491 3BA4                                   l3579 32E2  
                                 l4707 391E                                   l4811 3064  
                                 l4717 39AE                                   l4709 3930  
                                 l5197 3726                                   l5189 3718  
                                 l4495 3BFC                                   l4815 30A0  
                                 l4745 2596                                   l4737 254C  
                                 l4833 31A6                                   l4825 313E  
                                 l4683 37F6                                   l4819 30D0  
                                 l4907 2C20                                   l4931 2198  
                                 l4693 4062                                   l4749 25B4  
                                 l4829 316A                                   l4853 2942  
                                 l4941 2240                                   l4783 289C  
                                 l4759 27BA                                   l4847 2908  
                                 l4697 40A0                                   l4961 2406  
                                 l4779 286C                                   l4795 2FB0  
                                 l4883 2AD4                                   l4867 29DE  
                                 l4859 297E                                   l4891 2B4E  
                                 l4955 23B2                                   l4971 2426  
                                 l4965 240A                                   l4983 43B4  
                                 l4999 2CF0                                   STR_1 2001  
                                 STR_2 200B                                   STR_3 2010  
                                 u3010 2582                                   u3020 27CE  
                                 _LATA 003FBA                                   _LATB 003FBB  
                                 u3031 27FE                                   _LATC 003FBC  
                                 u3040 2814                                   u1600 45E2  
                                 u3200 28EE                                   _LATD 003FBD  
                                 u3041 2812                                   _LATE 003FBE  
                                 u3050 2828                                   u1610 45E4  
                                 u1530 45B2                                   _LATF 003FBF  
                                 u1700 3298                                   u3060 282C  
                                 u1620 4506                                   u1540 45B4  
                                 u3300 2B4A                                   u3150 30C6  
                                 u1630 4508                                   u3310 2B6A  
                                 u3230 29D6                                   u1711 32A2  
                                 u1720 32DC                                   u1800 34BE  
                                 u3080 2842                                   u1640 3F72  
                                 u3240 2A2A                                   u3321 2B9A  
                                 u3305 2B2C                                   u1730 330E  
                                 u1650 3F74                                   u3330 2BB0  
                                 u3250 2A2C                                   u2515 42B4  
                                 u3331 2BAE                                   u2516 42B6  
                                 u2508 4282                                   u1820 3514  
                                 u3180 31CC                                   u3340 2BC4  
                                 u3420 2290                                   u2700 4B30  
                                 u1750 33EC                                   u1830 3546  
                                 u1590 449C                                   u3350 2BC8  
                                 u3270 2A8A                                   u1680 3242  
                                 u1840 3578                                   u3280 2A8C  
                                 u3520 3D28                                   u2490 4280  
                                 u1770 343E                                   u1860 3630  
                                 u3390 20B2                                   u1880 3682  
                                 u3560 3740                                   u2850 37EA  
                                 u3490 2F3A                                   _T6PR 003F93  
                                 u2940 24AE                                   _PMD0 0039C0  
                                 _PMD1 0039C1                                   u2870 3866  
                                 u2950 24B0                                   _PMD2 0039C2  
                                 _PMD3 0039C3                                   _PMD4 0039C4  
                                 _PMD5 0039C5                                   u2970 2520  
                                 _PMD6 0039C6                                   _PMD7 0039C7  
                                 u2990 2532                                   _PLLR 01CEE0  
                                 _WPUA 003A41                                   _WPUB 003A51  
                                 _WPUC 003A61                                   _WPUD 003A71  
                                 _WPUE 003A81                                   _WPUF 003A91  
                        _INT2_CallBack 49A8                       __end_of_ADCC_ISR 469A  
                        __CFG_FCMEN$ON 000000                                   _dbuf 00A9  
                                 _main 36A6                                   _dtoa 247E  
                                 _prec 002C                                   _nout 0028  
                                 fsr1h 003FE2                                   fsr2h 003FDA  
                                 fsr0l 003FE9                                   indf1 003FE7  
                                 indf2 003FDF                                   fsr1l 003FE1  
                                 fsr2l 003FD9                                   _stoa 2F44  
                                 btemp 003C                                   _xtoa 28D4  
    __size_of_INT2_SetInterruptHandler 0028                                   start 00AE  
            __end_of_SPI1_Exchange8bit 4A4A                          __CFG_CSWEN$ON 000000  
                    _UART1_rx_vect_isr 48CC                           ___param_bank 000000  
                   ?_UART1_rx_vect_isr 005C             __size_of_UART1_is_tx_ready 0008  
                     __end_of_INT0_ISR 4B42                       __end_of_INT1_ISR 4B52  
                     __end_of_INT2_ISR 4B62         __size_of_OSCILLATOR_Initialize 0016  
             __end_of_ringBufS_put_dma 3CEC                __end_of_block_checkmark 3C42  
        __end_of_OSCILLATOR_Initialize 4AFE                                  PRLOCK 0039EF  
                      __end_of___aodiv 3466                                  _ADCAP 003EF5  
                                _ADACT 003EFE                                  _ADCLK 003EFF  
                      __end_of___aomod 36A6                                  _ADPCH 003EF1  
                                _ADREF 003EFD                          __CFG_WDTE$OFF 000000  
                                _ADRPT 003EEC                                  _U1P1H 003DED  
                                _U1P2H 003DEF                                  _U1P1L 003DEC  
                                _U1P3H 003DF1                                  _U1P2L 003DEE  
                                _U1P3L 003DF0                                  _U2P1L 003DD4  
                                _U2P2L 003DD6                                  _U2P3L 003DD8  
                                _T6CON 003F94                         __CFG_DEBUG$OFF 000000  
                                _T6HLT 003F95                                  _U1UIR 003DF8  
                                _U1RXB 003DE8                                  _U2UIR 003DE0  
                                _U1TXB 003DEA                                  _U2RXB 003DD0  
                                _U2TXB 003DD2                                  _T6TMR 003F92  
                                _T6RST 003F97                    ??_UART1_rx_vect_isr 005C  
                                _ISRPR 0039F1                                  _OSCEN 0039DD  
                                _TRISA 003FC2                                  _TRISB 003FC3  
                                _TRISC 003FC4                                  _TRISD 003FC5  
                                _TRISE 003FC6                                  _TRISF 003FC7  
                          _Default_ISR 4BAC      __size_of_TMR6_SetInterruptHandler 0028  
                    _UART1_tx_vect_isr 48A4                          __CFG_WRTB$OFF 000000  
                        __CFG_WRTC$OFF 000000                          __CFG_WRTD$OFF 000000  
                         _DMA1CON0bits 003BFC                       __end_of_TMR6_ISR 4AD2  
                         _DMA1CON1bits 003BFD                                  _flags 002E  
                                _fputc 37C6             __size_of_send_lcd_cmd_long 0028  
                      __end_of_isalpha 4512                                  _fputs 4052  
                   __CFG_MCLRE$EXTMCLR 000000                     ?_UART1_tx_vect_isr 005C  
                                _width 002A                                  _putch 4A9C  
                      __end_of_islower 45BE               _INT1_SetInterruptHandler 4802  
                      __end_of_isupper 45EE                                  pclath 003FFA  
                                tablat 003FF5                __size_of_DSM_Initialize 001C  
                                ltemp0 003C                                  ltemp1 0040  
                                ltemp2 0044               __size_of_DMA1_Initialize 006A  
                                plusw1 003FE3                                  ttemp0 003C  
                                ttemp1 003F                                  ttemp2 0042  
                                ttemp3 0045                                  ttemp5 003D  
                                ttemp6 0040                                  ttemp7 0044  
                                status 003FD8    __end_of_UART1_SetRxInterruptHandler 47B2  
          _UART1_SetRxInterruptHandler 478A                                  wtemp0 003C  
                                wtemp1 003E                                  wtemp2 0040  
                                wtemp3 0042                                  wtemp4 0044  
                                wtemp5 0046                                  wtemp8 003D  
                      __end_of_sprintf 3B8A                        __end_of_toupper 3FCE  
                  ??_UART1_tx_vect_isr 005C              __size_of_DMA1_DMADCNT_ISR 000A  
            __end_of_UART1_rx_vect_isr 48F2               __size_of_SPI1_Initialize 0016  
                __end_of_ringBufS_init 4712                        __initialization 40D0  
                    _UART2_rx_vect_isr 491C                           __end_of_main 37C6  
                         __end_of_dtoa 28D4                           __end_of_stoa 31E6  
                         __end_of_xtoa 2C58                         __CFG_SAFEN$OFF 000000  
                   ?_UART2_rx_vect_isr 005C                          __activetblptr 000003  
            __size_of_DMA1_DMASCNT_ISR 000C   __size_of_UART1_SetTxInterruptHandler 0028  
                  ??_UART2_rx_vect_isr 005C              __end_of_UART1_tx_vect_isr 48CA  
                               INTCON0 003FD2   __size_of_UART2_SetRxInterruptHandler 0028  
                       __CFG_MVECEN$ON 000000                        _TMR6_Initialize 4646  
                     _UART1_Initialize 420C                      _UART2_tx_vect_isr 48F4  
                   _UART2_Transmit_ISR 461A                                 _ADACCU 003EEA  
                               _ADACQH 003EF4                                 _ADACQL 003EF3  
                               _ADCON0 003EF8                                 _ADCON1 003EF9  
                               _ADCON2 003EFA                                 _ADCON3 003EFB  
                               _ADLTHH 003EDF                                 _ADLTHL 003EDE  
                               _ADPREH 003EF7                                 _ADPREL 003EF6  
                               _DMA1PR 0039F3                                 _DMA2PR 0039F4  
                               _ADSTAT 003EFC                                 _ADUTHH 003EE1  
                               _ADUTHL 003EE0                                 _ANSELA 003A40  
                               _ANSELB 003A50                                 _ANSELC 003A60  
                               _ANSELD 003A70                                 _ANSELE 003A80  
                               _ANSELF 003A90                     ?_UART2_tx_vect_isr 005C  
                               _MD1SRC 003CFC                                 _U1CON0 003DF2  
                               _U1CON1 003DF3                                 _U1CON2 003DF4  
                               _U1BRGH 003DF6                                 _U1FIFO 003DF7  
                               _U2CON0 003DDA                                 _U2CON1 003DDB  
                               _U1BRGL 003DF5                                 _U2CON2 003DDC  
                               _U2BRGH 003DDE                                 _U2FIFO 003DDF  
                               _U2BRGL 003DDD                                 _MAINPR 0039F2  
                               _RA4PPS 003A04                                 _RA5PPS 003A05  
                               _RA6PPS 003A06                                 _RC3PPS 003A13  
                               _RB6PPS 003A0E                                 _RC5PPS 003A15  
                               _ODCONA 003A42                                 _ODCONB 003A52  
                               _ODCONC 003A62                                 _RC6PPS 003A16  
                               u111_48 4972                                 _ODCOND 003A72  
                               _ODCONE 003A82                                 _ODCONF 003A92  
                               u113_48 4994                         __CFG_WDTCCS$SC 000000  
                               u115_48 49B6                                 u253_40 4882  
                               u253_46 4884                                 _SCANPR 0039F7  
                               u265_48 49D8                                 _IVTADH 00389E  
                               _IVTADL 00389D                                 _IVTADU 00389F  
                               _OSCFRQ 0039DF                    ??_UART2_tx_vect_isr 005C  
            __end_of_UART2_rx_vect_isr 4942             __size_of_SPI1_Exchange8bit 001E  
               __size_of_DMA1_DMAA_ISR 000A                         __CFG_XINST$OFF 000000  
                    _CLKREF_Initialize 4B7C                       _UART2_Initialize 4338  
 __size_of_ADCC_SetADIInterruptHandler 0028                         __CFG_STVREN$ON 000000  
                       _ringBufS_flush 3EB8                                 _memset 2C58  
                               clear_0 40F8                                 clear_1 4106  
                               clear_2 4118                                 clear_3 4124  
                               _printf 42D6                     _eaDogM_WriteString 3CEC  
                               _strcpy 41A6                              ?_ADCC_ISR 005C  
                               _strlen 3FCE                        _ADCC_Initialize 443E  
                       _PMD_Initialize 4B12   __end_of_INT2_DefaultInterruptHandler 4BBC  
__size_of_INT2_DefaultInterruptHandler 0002           _INT2_DefaultInterruptHandler 4BBA  
            __end_of_UART2_tx_vect_isr 491A                                 lltemp0 003C  
                               lltemp1 0044                                 lltemp2 004C  
                               lltemp3 0054                           __mediumconst 0000  
                               tblptrh 003FF7                                 tblptrl 003FF6  
                               tblptru 003FF8                       __end_of_wdtdelay 43F2  
                     __end_of_vfprintf 3EB8                        _CLC1_Initialize 4942  
        __size_of_INTERRUPT_Initialize 0064                      _SYSTEM_Initialize 4550  
                           __accesstop 0060                __end_of__initialization 4136  
                            ?_INT0_ISR 005C                              ?_INT1_ISR 005C  
                            ?_INT2_ISR 005C              __end_of_CLKREF_Initialize 4B86  
                        ___rparam_used 000001             __size_of_UART1_rx_vect_isr 0026  
               __end_of_ringBufS_flush 3F4A                         __pcstackCOMRAM 005C  
                           ___inthi_sp 0C5A                           __pidataBANK0 4AFE  
                            ?_TMR6_ISR 005C                         ivt0x8_undefint 00AC  
                        __end_of_fputc 38D2                          __end_of_fputs 40D0  
                        __end_of_putch 4AB6                __end_of_TMR6_Initialize 4670  
               __end_of_PMD_Initialize 4B26                             ??_ADCC_ISR 005C  
                __end_of_TMR6_CallBack 49EC            __size_of_EXT_INT_Initialize 004C  
           __size_of_UART1_tx_vect_isr 0026                          _DMA1_DMAA_ISR 4B94  
     __end_of_INT2_SetInterruptHandler 4802               _UART2_RxInterruptHandler 001C  
            __end_of_SYSTEM_Initialize 458E                        __CFG_PR1WAY$OFF 000000  
                      __CFG_IVT1WAY$ON 000000                         _DSM_Initialize 4A66  
                           __pbssBANK0 0060                             __pbssBANK1 0100  
                           __pbssBANK2 0200                  _INT0_InterruptHandler 0025  
                           ??_INT0_ISR 005C                             ??_INT1_ISR 005C  
                           ??_INT2_ISR 005C                       _DMA1_DMADCNT_ISR 4B88  
           __size_of_UART2_rx_vect_isr 0026                                IVTBASEH 003FD6  
                              IVTBASEL 003FD5                                IVTBASEU 003FD7  
                __end_of_wait_lcd_done 4A9C                        __CFG_PPS1WAY$ON 000000  
     __end_of_TMR6_SetInterruptHandler 47DA                __end_of_ADCC_Initialize 4488  
                           ??_TMR6_ISR 005C                                _CLC1CON 003C74  
                              _CLC1POL 003C75                                _DMA1DSA 003BF0  
                              _DMA1DSZ 003BEE                                _DMA1SSA 003BF9  
                              _DMA1SSZ 003BF7                                _ADSTPTH 003EE5  
                              _ADSTPTL 003EE4                                _MD1CARH 003CFE  
                              _MD1CARL 003CFD                      _UART1_Receive_ISR 49EC  
                              _CLKRCLK 003CE6                                _CLKRCON 003CE5  
                              _NCO1CLK 003F3F                         ?_DMA1_DMAA_ISR 005C  
                     _DMA1_DMASCNT_ISR 4B64                                _NCO1CON 003F3E  
                              _U1ERRIE 003DFA                                _U1ERRIR 003DF9  
              __end_of_CLC1_Initialize 4964                                _U2ERRIE 003DE2  
                              _U2ERRIR 003DE1                                _INT0PPS 003AC0  
                  __CFG_PWRTS$PWRT_OFF 000000                                _INT1PPS 003AC1  
                              _INT2PPS 003AC2                           ?_Default_ISR 005C  
                 __size_of_UART1_Write 003E             __size_of_UART2_tx_vect_isr 0026  
                              _U1RXPPS 003AE5                                _U2RXPPS 003AE8  
                              _OSCCON1 0039D9                                _OSCCON3 0039DB  
                              _IVTLOCK 003FD4                     __size_of_vfpfcnvrt 046A  
                              _SPI1CLK 003D1C                                _SPI1RXB 003D10  
                              _SPI1TXB 003D11                                _OSCTUNE 0039DE  
               __end_of_DSM_Initialize 4A82                                _SLRCONA 003A43  
                              _SLRCONB 003A53                                _SLRCONC 003A63  
                              _SLRCOND 003A73                                _SLRCONE 003A83  
                              _SLRCONF 003A93                     __size_of_start_lcd 0006  
    __size_of_INT0_SetInterruptHandler 0028             __size_of_CLKREF_Initialize 000A  
              __size_of_DMA1_DMAOR_ISR 000C                                __Hparam 0000  
                              __Lparam 0000               __end_of_UART1_Initialize 4272  
                              ___aodiv 31E6                                ___aomod 3466  
            __end_of_UART1_Receive_ISR 4A0C                           __psmallconst 2000  
              __size_of_wait_lcd_check 000E                   __end_of_init_display 3AC2  
                              __pcinit 40D0                        __size_of_memset 02EC  
                              __ramtop 2000            __size_of_UART1_Transmit_ISR 002C  
             __size_of_NCO1_Initialize 001C                                __ptext0 36A6  
                              __ptext1 4A82                                __ptext2 4B26  
                              __ptext3 41A6                                __ptext4 3AC2  
                              __ptext5 39DA                                __ptext6 469A  
                              __ptext7 46C2                                __ptext8 4396  
                              __ptext9 4A2C                      _UART2_Receive_ISR 4A0C  
                      __size_of_printf 0062                        __CFG_WRTAPP$OFF 000000  
                      __size_of_strcpy 0066                        __size_of_strlen 0084  
                              us310999 2F56                                us322999 2954  
                              us178999 3450                  _OSCILLATOR_Initialize 4AE8  
                              us189999 3694                                us293999 2498  
                         __size_of_abs 0046                           __size_of_pad 0108  
                              _isalpha 44CE                                _islower 458E  
                      __CFG_WRTSAF$OFF 000000               __end_of_UART2_Initialize 4396  
                              _isupper 45BE             __size_of_SYSTEM_Initialize 003E  
                              _sprintf 3AC2                                _toupper 3F4A  
                 end_of_initialization 4136               _INT2_SetInterruptHandler 47DA  
  __end_of_UART1_SetTxInterruptHandler 478A            _UART1_SetTxInterruptHandler 4762  
  __end_of_UART2_SetRxInterruptHandler 4762            _UART2_SetRxInterruptHandler 473A  
                    __end_of_vfpfcnvrt 247E                              _SPI1TCNTL 003D12  
                              postdec1 003FE5                                postdec2 003FDD  
                              postinc0 003FEE                                postinc1 003FE6  
                              postinc2 003FDE                      __end_of_start_lcd 4BAC  
            __end_of_UART2_Receive_ISR 4A2C                         wdtdelay@dcount 0060  
                __CFG_WDTCPS$WDTCPS_31 000000                        ??_DMA1_DMAA_ISR 005D  
                _INT1_InterruptHandler 0022               _TMR6_SetInterruptHandler 47B2  
 __size_of_UART2_SetTxInterruptHandler 0028                      __size_of_ADCC_ISR 002A  
  __end_of_ADCC_SetADIInterruptHandler 487A            _ADCC_SetADIInterruptHandler 4852  
               __size_of_ringBufS_init 0028                       __CFG_FEXTOSC$ECH 000000  
                      _DMA1_Initialize 413C                        _SPI1_Initialize 4AD2  
                    __size_of_INT0_ISR 000E                      __size_of_INT1_ISR 000E  
                    __size_of_INT2_ISR 000E           __end_of_INTERRUPT_Initialize 42D6  
 __end_of_INT0_DefaultInterruptHandler 4BB8  __size_of_INT0_DefaultInterruptHandler 0002  
         _INT0_DefaultInterruptHandler 4BB6             __size_of_UART1_Receive_ISR 0020  
                    __size_of_TMR6_ISR 001A            __size_of_UART2_Transmit_ISR 002C  
                       __end_of_memset 2F44                         __end_of_printf 4338  
             __end_of_DMA1_DMADCNT_ISR 4B92                  __end_of_INT0_CallBack 4986  
                       __end_of_strcpy 420C                         __end_of_strlen 4052  
                  start_initialization 40D0        __size_of_PIN_MANAGER_Initialize 009A  
                          __end_of_abs 44CE                  __end_of_INT1_CallBack 49A8  
                          __end_of_pad 39DA                   __size_of_Default_ISR 0006  
             __size_of_block_checkmark 00B8                   __end_of_send_lcd_cmd 46EA  
                           ivt0x8_base 0008                  __end_of_INT2_CallBack 49CA  
                        _uart1RxBuffer 0180                          _uart1TxBuffer 01C0  
                        _uart2RxBuffer 0100               __end_of_DMA1_DMASCNT_ISR 4B70  
                        _uart2TxBuffer 0140                         _DMA1_DMAOR_ISR 4B70  
                     __CFG_LPBOREN$OFF 000000                  __size_of_init_display 00E8  
          __size_of_eaDogM_WriteString 009E                          _ringBufS_init 46EA  
                          _MD1CON0bits 003CFA                            _MD1CON1bits 003CFB  
                          __pdataBANK0 00C9                         _wait_lcd_check 4B26  
           __size_of_UART2_Receive_ISR 0020             __end_of_EXT_INT_Initialize 443E  
              __end_of_DMA1_Initialize 41A6                            __pbssCOMRAM 0001  
     __end_of_INT0_SetInterruptHandler 4852                __end_of_SPI1_Initialize 4AE8  
             _UART1_RxInterruptHandler 0016               _UART2_TxInterruptHandler 0019  
            __size_of_ringBufS_put_dma 00AA                           _init_display 39DA  
               __end_of_DMA1_DMAOR_ISR 4B7C                  _INT2_InterruptHandler 001F  
                _TMR6_InterruptHandler 000D                 __size_of_TMR6_CallBack 0022  
               _PIN_MANAGER_Initialize 3D8A                   __end_of_wait_lcd_set 4BB6  
               __end_of_wait_lcd_check 4B34                      __size_of_wdtdelay 005C  
                    __size_of_vfprintf 0094                               _ADCC_ISR 4670  
               __CFG_BBSIZE$BBSIZE_512 000000                            __smallconst 2000  
                             _CLC1GLS0 003C7A                               _CLC1GLS1 003C7B  
                             _CLC1GLS2 003C7C                               _CLC1GLS3 003C7D  
                             _CLC1SEL0 003C76                               _CLC1SEL1 003C77  
                             _CLC1SEL2 003C78                               _CLC1SEL3 003C79  
                             _DMA1CON0 003BFC                               _DMA1CON1 003BFD  
                             _DMA1AIRQ 003BFE                               _DMA1SIRQ 003BFF  
                          _NCO1CONbits 003F3E                 __size_of_wait_lcd_done 001A  
                       __size_of_fputc 010C                         __size_of_fputs 007E  
                             _NCO1ACCH 003F39                         __size_of_putch 001A  
                             _NCO1ACCL 003F38                               _NCO1ACCU 003F3A  
                 _INTERRUPT_Initialize 4272                               _T6CLKCON 003F96  
                             _NCO1INCH 003F3C                               _NCO1INCL 003F3B  
                             _NCO1INCU 003F3D                        ?_DMA1_DMAOR_ISR 005C  
                             _INT0_ISR 4B34                               _INT1_ISR 4B44  
                             _INT2_ISR 4B54                               _LATCbits 003FBC  
                             _LATEbits 003FBE      __size_of_INT1_SetInterruptHandler 0028  
                             _IPR1bits 003981                               _IPR2bits 003982  
                             _PIE1bits 003991                               _IPR3bits 003983  
                             _PIE2bits 003992                               _IPR5bits 003985  
                             _PIE3bits 003993                               _IPR6bits 003986  
                             _PIE5bits 003995                               _IPR7bits 003987  
                             _PIE6bits 003996                               _PIE7bits 003997  
                             _IPR9bits 003989                    __CFG_BORV$VBOR_2P45 000000  
                             _PIE9bits 003999                               i2u133_48 4686  
                            _ring_buf1 0243                              _ring_buf2 0200  
                             i2u272_48 48B6                               _PIR1bits 0039A1  
                             i2u274_48 48DE                               _PIR2bits 0039A2  
                             _SPI1BAUD 003D19                               i2u276_48 4906  
                             i2u278_48 492E                               _SPI1CON0 003D14  
                             _SPI1CON1 003D15                               _SPI1CON2 003D16  
                             _PIR5bits 0039A5                               _PIR7bits 0039A7  
                             _PIR9bits 0039A9             __end_of_UART1_Transmit_ISR 461A  
                             _TMR6_ISR 4AB8                              _vfpfcnvrt 2014  
                         _SPI1INTFbits 003D1A                              _start_lcd 4BA6  
                        _TMR6_CallBack 49CA                  __size_of_send_lcd_cmd 0028  
                  __end_of_UART1_Write 4550               __size_of_TMR6_Initialize 002A  
                          _INTCON0bits 003FD2                              copy_data0 40E4  
             _INT0_SetInterruptHandler 482A                 _uart1TxBufferRemaining 0039  
  __end_of_UART2_SetTxInterruptHandler 473A            _UART2_SetTxInterruptHandler 4712  
                         _uart1RxCount 0036                           _uart2RxCount 0030  
                             __Hrparam 0000                __CFG_RSTOSC$EXTOSC_4PLL 000000  
                             __Lrparam 0000                     __CFG_BOREN$SBORDIS 000000  
                        _wait_lcd_done 4A82                           _send_lcd_cmd 46C2  
                     __size_of___aodiv 0280                       __size_of___aomod 0240  
                      _NCO1_Initialize 4A4A                  __end_of_DMA1_DMAA_ISR 4B9E  
 __size_of_UART1_SetRxInterruptHandler 0028                      ?_DMA1_DMADCNT_ISR 005C  
             __size_of_ADCC_Initialize 004A                       __size_of_isalpha 0044  
                             __pivt0x8 0008                       __size_of_islower 0030  
                   ??_DMA1_DMADCNT_ISR 005D                               __ptext10 46EA  
                             __ptext11 3CEC                               __ptext20 3F4A  
                             __ptext12 4BB2                               __ptext21 458E  
                             __ptext13 4BA6                               __ptext30 4A9C  
                             __ptext22 45BE                               __ptext14 3EB8  
                             __ptext31 3C42                               __ptext23 44CE  
                             __ptext15 2C58                               __ptext40 4712  
                             __ptext32 4488                               __ptext24 2F44  
                             __ptext16 42D6                               __ptext41 473A  
                             __ptext33 3466                               __ptext25 247E  
                             __ptext17 3E24                               __ptext50 4AE8  
                             __ptext42 420C                               __ptext34 31E6  
                             __ptext26 38D2                               __ptext18 2014  
                             __ptext51 4A4A                               __ptext43 4762  
                             __ptext35 3B8A                               __ptext27 3FCE  
                             __ptext19 28D4                               __ptext60 4942  
                             __ptext52 4272                               __ptext44 478A  
                             __ptext36 4B9E                               __ptext28 4052  
                             __ptext61 443E                               __ptext53 43F2  
                             __ptext45 4646                               __ptext37 4512  
                             __ptext29 37C6                               __ptext70 49A8  
                             __ptext62 4852                               __ptext54 47DA  
                             __ptext46 47B2                               __ptext38 4550  
                             __ptext71 4BBA                               __ptext63 4B34  
                             __ptext55 4802                               __ptext47 4AD2  
                             __ptext39 4338                               __ptext80 461A  
                             __ptext72 4BAC                               __ptext64 4964  
                             __ptext56 482A                               __ptext48 4B12  
                             __ptext81 491C                               __ptext73 4670  
                             __ptext65 4BB6                               __ptext57 4A66  
                             __ptext49 3D8A                               __ptext90 0000  
                             __ptext82 4A0C                               __ptext74 4BBC  
                             __ptext66 4B44                               __ptext58 413C  
                             __ptext83 4AB8                               __ptext75 48A4  
                             __ptext67 4986                               __ptext59 4B7C  
                             __ptext84 49CA                               __ptext76 45EE  
                             __ptext68 4BB8                               __ptext85 487A  
                             __ptext77 48CC                               __ptext69 4B54  
                             __ptext86 4B64                               __ptext78 49EC  
                             __ptext87 4B88                               __ptext79 48F4  
                             __ptext88 4B94                               __ptext89 4B70  
                     __size_of_isupper 0030               __size_of_CLC1_Initialize 0022  
                     __size_of_sprintf 00C8                       __size_of_toupper 0084  
                     _ringBufS_put_dma 3C42                          __size_of_main 0120  
                        __size_of_dtoa 0456                  __size_of_wait_lcd_set 0004  
                        __size_of_stoa 02A2                          __size_of_xtoa 0384  
                 __CFG_WDTCWS$WDTCWS_7 000000                      ?_DMA1_DMASCNT_ISR 005C  
                          _IVTLOCKbits 003FD4              _ADCC_ADI_InterruptHandler 0010  
                            stoa@F1139 00C9                     ??_DMA1_DMASCNT_ISR 005D  
                             _spi_link 0001                               _wdtdelay 4396  
           __end_of_UART2_Transmit_ISR 4646                               _vfprintf 3E24  
                          _UART1_Write 4512   __end_of_INT1_DefaultInterruptHandler 4BBA  
__size_of_INT1_DefaultInterruptHandler 0002           _INT1_DefaultInterruptHandler 4BB8  
                    _UART1_is_tx_ready 4B9E                          ??_Default_ISR 005C  
                          _uart1RxHead 0038                            _uart1TxHead 003B  
                          _uart2RxHead 0032                            _uart1RxTail 0037  
                          _uart2TxHead 0035                            _uart1TxTail 003A  
                          _uart2RxTail 0031                            _uart2TxTail 0034  
                         _wait_lcd_set 4BB2                     _EXT_INT_Initialize 43F2  
 __end_of_TMR6_DefaultInterruptHandler 48A2  __size_of_TMR6_DefaultInterruptHandler 0028  
         _TMR6_DefaultInterruptHandler 487A   __end_of_ADCC_DefaultInterruptHandler 4BBE  
__size_of_ADCC_DefaultInterruptHandler 0002           _ADCC_DefaultInterruptHandler 4BBC  
                             intlevel2 0000                      _send_lcd_cmd_long 469A  
                    __CFG_CLKOUTEN$OFF 000000             __end_of_eaDogM_WriteString 3D8A  
              __end_of_NCO1_Initialize 4A66                 __size_of_INT0_CallBack 0022  
                           _SPI1SCKPPS 003ADE                             _SPI1SDIPPS 003ADF  
               __size_of_INT1_CallBack 0022              __end_of_UART1_is_tx_ready 4BA6  
               __size_of_INT2_CallBack 0022                 _uart2TxBufferRemaining 0033  
                           _PRLOCKbits 0039EF       __end_of_INT1_SetInterruptHandler 482A  
                      _block_checkmark 3B8A              __size_of_UART1_Initialize 0066  
                     ??_DMA1_DMAOR_ISR 005D               _UART1_TxInterruptHandler 0013  
            __end_of_send_lcd_cmd_long 46C2                    __end_of_Default_ISR 4BB2  
       __end_of_PIN_MANAGER_Initialize 3E24              __size_of_UART2_Initialize 005E  
