

Microchip MPLAB XC8 Assembler V2.05 build -831301201 
                                                                                               Wed Feb 20 05:51:28 2019

Microchip MPLAB XC8 C Compiler v2.05 (Free license) build 20181220022703 Og1 
     1                           	processor	18F57K42
     2                           	fnconf	rparam,??,?,0
     3                           	opt	pw 120
     4                           	opt	flic
     5                           	psect	smallconst,global,reloc=2,class=SMALLCONST,delta=1,noexec
     6                           	psect	cinit,global,reloc=2,class=CODE,delta=1
     7                           	psect	bssCOMRAM,global,class=COMRAM,space=1,delta=1,noexec
     8                           	psect	bssBANK0,global,class=BANK0,space=1,delta=1,lowdata,noexec
     9                           	psect	cstackCOMRAM,global,class=COMRAM,space=1,delta=1,noexec
    10                           	psect	text0,global,reloc=2,class=CODE,delta=1
    11                           	psect	text1,global,reloc=2,class=CODE,delta=1
    12                           	psect	text2,global,reloc=2,class=CODE,delta=1
    13                           	psect	text3,global,reloc=2,class=CODE,delta=1
    14                           	psect	text4,global,reloc=2,class=CODE,delta=1
    15                           	psect	text5,global,reloc=2,class=CODE,delta=1
    16                           	psect	text6,global,reloc=2,class=CODE,delta=1,group=2
    17                           	psect	text7,global,reloc=2,class=CODE,delta=1
    18                           	psect	text8,global,reloc=2,class=CODE,delta=1
    19                           	psect	text9,global,reloc=2,class=CODE,delta=1
    20                           	psect	text10,global,reloc=2,class=CODE,delta=1
    21                           	psect	text11,global,reloc=2,class=CODE,delta=1
    22                           	psect	text12,global,reloc=2,class=CODE,delta=1
    23                           	psect	text13,global,reloc=2,class=CODE,delta=1
    24                           	psect	text14,global,reloc=2,class=CODE,delta=1
    25                           	psect	text15,global,reloc=2,class=CODE,delta=1
    26                           	psect	text16,global,reloc=2,class=CODE,delta=1
    27                           	psect	text17,global,reloc=2,class=CODE,delta=1
    28                           	psect	text18,global,reloc=2,class=CODE,delta=1
    29                           	psect	text19,global,reloc=2,class=CODE,delta=1
    30                           	psect	text20,global,reloc=2,class=CODE,delta=1
    31                           	psect	text21,global,reloc=2,class=CODE,delta=1
    32                           	psect	text22,global,reloc=2,class=CODE,delta=1
    33                           	psect	text23,global,reloc=2,class=CODE,delta=1
    34                           	psect	text24,global,reloc=2,class=CODE,delta=1
    35                           	psect	text25,global,reloc=2,class=CODE,delta=1
    36                           	psect	text26,global,reloc=2,class=CODE,delta=1
    37                           	psect	text27,global,reloc=2,class=CODE,delta=1
    38                           	psect	text28,global,reloc=2,class=CODE,delta=1
    39                           	psect	text29,global,reloc=2,class=CODE,delta=1
    40                           	psect	text30,global,reloc=2,class=CODE,delta=1
    41                           	psect	text31,global,reloc=2,class=CODE,delta=1
    42                           	psect	text32,global,reloc=2,class=CODE,delta=1
    43                           	psect	text33,global,reloc=4,class=CODE,delta=1
    44                           	psect	text34,global,reloc=2,class=CODE,delta=1
    45                           	psect	text35,global,reloc=2,class=CODE,delta=1
    46                           	psect	text36,global,reloc=4,class=CODE,delta=1
    47                           	psect	text37,global,reloc=2,class=CODE,delta=1
    48                           	psect	text38,global,reloc=2,class=CODE,delta=1
    49                           	psect	text39,global,reloc=4,class=CODE,delta=1
    50                           	psect	text40,global,reloc=2,class=CODE,delta=1
    51                           	psect	text41,global,reloc=2,class=CODE,delta=1
    52                           	psect	text42,global,reloc=4,class=CODE,delta=1
    53                           	psect	text43,global,reloc=4,class=CODE,delta=1
    54                           	psect	text44,global,reloc=2,class=CODE,delta=1
    55                           	psect	text45,global,reloc=4,class=CODE,delta=1
    56                           	psect	text46,global,reloc=2,class=CODE,delta=1
    57                           	psect	text47,global,reloc=4,class=CODE,delta=1
    58                           	psect	text48,global,reloc=2,class=CODE,delta=1
    59                           	psect	text49,global,reloc=4,class=CODE,delta=1
    60                           	psect	text50,global,reloc=2,class=CODE,delta=1
    61                           	psect	text51,global,reloc=4,class=CODE,delta=1
    62                           	psect	text52,global,reloc=2,class=CODE,delta=1
    63                           	psect	text53,global,reloc=4,class=CODE,delta=1
    64                           	psect	text54,global,reloc=2,class=CODE,delta=1
    65                           	psect	text55,global,reloc=2,class=CODE,delta=1
    66                           	psect	ivt0x8,global,reloc=2,class=CODE,delta=1,noexec,keep,optim=
    67                           	psect	intsave_regs,global,class=BIGRAM,space=1,delta=1,noexec
    68                           	psect	text56,global,reloc=2,class=CODE,delta=1
    69                           	psect	rparam,global,class=COMRAM,space=1,delta=1,noexec
    70  0000                     
    71                           ; Version 2.05
    72                           ; Generated 20/12/2018 GMT
    73                           ; 
    74                           ; Copyright © 2018, Microchip Technology Inc. and its subsidiaries ("Microchip")
    75                           ; All rights reserved.
    76                           ; 
    77                           ; This software is developed by Microchip Technology Inc. and its subsidiaries ("Microch
      +                          ip").
    78                           ; 
    79                           ; Redistribution and use in source and binary forms, with or without modification, are
    80                           ; permitted provided that the following conditions are met:
    81                           ; 
    82                           ;     1. Redistributions of source code must retain the above copyright notice, this lis
      +                          t of
    83                           ;        conditions and the following disclaimer.
    84                           ; 
    85                           ;     2. Redistributions in binary form must reproduce the above copyright notice, this 
      +                          list
    86                           ;        of conditions and the following disclaimer in the documentation and/or other
    87                           ;        materials provided with the distribution.
    88                           ; 
    89                           ;     3. Microchip's name may not be used to endorse or promote products derived from th
      +                          is
    90                           ;        software without specific prior written permission.
    91                           ; 
    92                           ; THIS SOFTWARE IS PROVIDED BY MICROCHIP "AS IS" AND ANY EXPRESS OR IMPLIED WARRANTIES,
    93                           ; INCLUDING, BUT NOT LIMITED TO, THE IMPLIED WARRANTIES OF MERCHANTABILITY AND FITNESS F
      +                          OR
    94                           ; PURPOSE ARE DISCLAIMED.  IN NO EVENT SHALL MICROCHIP BE LIABLE FOR ANY DIRECT, INDIREC
      +                          T,
    95                           ; INCIDENTAL, SPECIAL, EXEMPLARY, OR CONSEQUENTIAL DAMAGES (INCLUDING BUT NOT LIMITED TO
    96                           ; PROCUREMENT OF SUBSTITUTE GOODS OR SERVICES; LOSS OF USE, DATA OR PROFITS; OR BUSINESS
    97                           ; INTERRUPTION) HOWSOEVER CAUSED AND ON ANY THEORY OF LIABILITY, WHETHER IN CONTRACT, ST
      +                          RICT
    98                           ; LIABILITY, OR TORT (INCLUDING NEGLIGENCE OR OTHERWISE) ARISING IN ANY WAY OUT OF THE U
      +                          SE OF
    99                           ; THIS SOFTWARE, EVEN IF ADVISED OF THE POSSIBILITY OF SUCH DAMAGE.
   100                           ; 
   101                           ; 
   102                           ; Code-generator required, PIC18F57K42 Definitions
   103                           ; 
   104                           ; SFR Addresses
   105  0000                     _IVTADL	set	14493
   106  0000                     _IVTADH	set	14494
   107  0000                     _IVTADU	set	14495
   108  0000                     _PIR2bits	set	14754
   109  0000                     _PIE9bits	set	14745
   110  0000                     _PIR9bits	set	14761
   111  0000                     _PIE6bits	set	14742
   112  0000                     _PIE3bits	set	14739
   113  0000                     _PMD7	set	14791
   114  0000                     _PMD6	set	14790
   115  0000                     _PMD5	set	14789
   116  0000                     _PMD4	set	14788
   117  0000                     _PMD3	set	14787
   118  0000                     _PMD2	set	14786
   119  0000                     _PMD1	set	14785
   120  0000                     _PMD0	set	14784
   121  0000                     _OSCTUNE	set	14814
   122  0000                     _OSCFRQ	set	14815
   123  0000                     _OSCEN	set	14813
   124  0000                     _OSCCON3	set	14811
   125  0000                     _OSCCON1	set	14809
   126  0000                     _IPR3bits	set	14723
   127  0000                     _IPR9bits	set	14729
   128  0000                     _IPR6bits	set	14726
   129  0000                     _IPR7bits	set	14727
   130  0000                     _IPR5bits	set	14725
   131  0000                     _IPR1bits	set	14721
   132  0000                     _PIE7bits	set	14743
   133  0000                     _PIE5bits	set	14741
   134  0000                     _PIE1bits	set	14737
   135  0000                     _PIR7bits	set	14759
   136  0000                     _PIR5bits	set	14757
   137  0000                     _PIR1bits	set	14753
   138  0000                     _PLLR	set	118496
   139  0000                     _SPI1SDIPPS	set	15071
   140  0000                     _U1RXPPS	set	15077
   141  0000                     _RC6PPS	set	14870
   142  0000                     _RC5PPS	set	14869
   143  0000                     _INT1PPS	set	15041
   144  0000                     _INT2PPS	set	15042
   145  0000                     _INT0PPS	set	15040
   146  0000                     _RC3PPS	set	14867
   147  0000                     _RB6PPS	set	14862
   148  0000                     _SPI1SCKPPS	set	15070
   149  0000                     _U2RXPPS	set	15080
   150  0000                     _SLRCONF	set	14995
   151  0000                     _SLRCONE	set	14979
   152  0000                     _SLRCOND	set	14963
   153  0000                     _SLRCONC	set	14947
   154  0000                     _SLRCONB	set	14931
   155  0000                     _SLRCONA	set	14915
   156  0000                     _ODCOND	set	14962
   157  0000                     _ODCONC	set	14946
   158  0000                     _ODCONB	set	14930
   159  0000                     _ODCONA	set	14914
   160  0000                     _ODCONF	set	14994
   161  0000                     _ODCONE	set	14978
   162  0000                     _WPUC	set	14945
   163  0000                     _WPUA	set	14913
   164  0000                     _WPUB	set	14929
   165  0000                     _WPUE	set	14977
   166  0000                     _WPUF	set	14993
   167  0000                     _WPUD	set	14961
   168  0000                     _ANSELA	set	14912
   169  0000                     _ANSELF	set	14992
   170  0000                     _ANSELE	set	14976
   171  0000                     _ANSELB	set	14928
   172  0000                     _ANSELC	set	14944
   173  0000                     _ANSELD	set	14960
   174  0000                     _SPI1RXB	set	15632
   175  0000                     _SPI1TXB	set	15633
   176  0000                     _SPI1TCNTL	set	15634
   177  0000                     _SPI1CON0	set	15636
   178  0000                     _SPI1CLK	set	15644
   179  0000                     _SPI1BAUD	set	15641
   180  0000                     _SPI1CON2	set	15638
   181  0000                     _SPI1CON1	set	15637
   182  0000                     _U2RXB	set	15824
   183  0000                     _U2TXB	set	15826
   184  0000                     _U2ERRIRbits	set	15841
   185  0000                     _U2ERRIE	set	15842
   186  0000                     _U2ERRIR	set	15841
   187  0000                     _U2UIR	set	15840
   188  0000                     _U2FIFO	set	15839
   189  0000                     _U2BRGH	set	15838
   190  0000                     _U2BRGL	set	15837
   191  0000                     _U2CON2	set	15836
   192  0000                     _U2CON1	set	15835
   193  0000                     _U2CON0	set	15834
   194  0000                     _U2P3L	set	15832
   195  0000                     _U2P2L	set	15830
   196  0000                     _U2P1L	set	15828
   197  0000                     _U1RXB	set	15848
   198  0000                     _U1TXB	set	15850
   199  0000                     _U1ERRIRbits	set	15865
   200  0000                     _U1ERRIE	set	15866
   201  0000                     _U1ERRIR	set	15865
   202  0000                     _U1UIR	set	15864
   203  0000                     _U1FIFO	set	15863
   204  0000                     _U1BRGH	set	15862
   205  0000                     _U1BRGL	set	15861
   206  0000                     _U1CON2	set	15860
   207  0000                     _U1CON1	set	15859
   208  0000                     _U1CON0	set	15858
   209  0000                     _U1P3H	set	15857
   210  0000                     _U1P3L	set	15856
   211  0000                     _U1P2H	set	15855
   212  0000                     _U1P2L	set	15854
   213  0000                     _U1P1H	set	15853
   214  0000                     _U1P1L	set	15852
   215  0000                     _ADCON1bits	set	16121
   216  0000                     _ADERRL	set	16098
   217  0000                     _ADERRH	set	16099
   218  0000                     _ADPREVL	set	16109
   219  0000                     _ADPREVH	set	16110
   220  0000                     _ADFLTRL	set	16102
   221  0000                     _ADFLTRH	set	16103
   222  0000                     _ADSTATbits	set	16124
   223  0000                     _ADACCL	set	16104
   224  0000                     _ADACCH	set	16105
   225  0000                     _ADCON2bits	set	16122
   226  0000                     _ADCNT	set	16107
   227  0000                     _ADCON3bits	set	16123
   228  0000                     _ADRESL	set	16111
   229  0000                     _ADRESH	set	16112
   230  0000                     _ADCON0bits	set	16120
   231  0000                     _ADCON0	set	16120
   232  0000                     _ADCLK	set	16127
   233  0000                     _ADACT	set	16126
   234  0000                     _ADREF	set	16125
   235  0000                     _ADSTAT	set	16124
   236  0000                     _ADCON3	set	16123
   237  0000                     _ADCON2	set	16122
   238  0000                     _ADCON1	set	16121
   239  0000                     _ADPREH	set	16119
   240  0000                     _ADPREL	set	16118
   241  0000                     _ADCAP	set	16117
   242  0000                     _ADACQH	set	16116
   243  0000                     _ADACQL	set	16115
   244  0000                     _ADPCH	set	16113
   245  0000                     _ADRPT	set	16108
   246  0000                     _ADACCU	set	16106
   247  0000                     _ADSTPTH	set	16101
   248  0000                     _ADSTPTL	set	16100
   249  0000                     _ADUTHH	set	16097
   250  0000                     _ADUTHL	set	16096
   251  0000                     _ADLTHH	set	16095
   252  0000                     _ADLTHL	set	16094
   253  0000                     _LATCbits	set	16316
   254  0000                     _LATEbits	set	16318
   255  0000                     _PR6	set	16275
   256  0000                     _TMR6	set	16274
   257  0000                     _T6CONbits	set	16276
   258  0000                     _T6RSTbits	set	16279
   259  0000                     _T6HLTbits	set	16277
   260  0000                     _T6CON	set	16276
   261  0000                     _T6TMR	set	16274
   262  0000                     _T6PR	set	16275
   263  0000                     _T6RST	set	16279
   264  0000                     _T6HLT	set	16277
   265  0000                     _T6CLKCON	set	16278
   266  0000                     _TRISD	set	16325
   267  0000                     _TRISC	set	16324
   268  0000                     _TRISB	set	16323
   269  0000                     _TRISA	set	16322
   270  0000                     _TRISF	set	16327
   271  0000                     _TRISE	set	16326
   272  0000                     _LATC	set	16316
   273  0000                     _LATB	set	16315
   274  0000                     _LATF	set	16319
   275  0000                     _LATA	set	16314
   276  0000                     _LATD	set	16317
   277  0000                     _LATE	set	16318
   278  0000                     _IVTLOCKbits	set	16340
   279  0000                     _IVTLOCK	set	16340
   280  0000                     _INTCON0bits	set	16338
   281  0000                     _GIE	set	130711
   282                           
   283                           	psect	smallconst
   284  002000                     __psmallconst:
   285                           	opt callstack 0
   286  002000  00                 	db	0
   287  002001                     STR_1:
   288  002001  54                 	db	84	;'T'
   289  002002  65                 	db	101	;'e'
   290  002003  73                 	db	115	;'s'
   291  002004  74                 	db	116	;'t'
   292  002005  69                 	db	105	;'i'
   293  002006  6E                 	db	110	;'n'
   294  002007  67                 	db	103	;'g'
   295  002008  20                 	db	32
   296  002009  31                 	db	49	;'1'
   297  00200A  32                 	db	50	;'2'
   298  00200B  33                 	db	51	;'3'
   299  00200C  34                 	db	52	;'4'
   300  00200D  35                 	db	53	;'5'
   301  00200E  36                 	db	54	;'6'
   302  00200F  37                 	db	55	;'7'
   303  002010  38                 	db	56	;'8'
   304  002011  39                 	db	57	;'9'
   305  002012  30                 	db	48	;'0'
   306  002013  00                 	db	0
   307  002014                     STR_4:
   308  002014  28                 	db	40
   309  002015  6E                 	db	110	;'n'
   310  002016  75                 	db	117	;'u'
   311  002017  6C                 	db	108	;'l'
   312  002018  6C                 	db	108	;'l'
   313  002019  29                 	db	41
   314  00201A  00                 	db	0
   315  00201B                     STR_2:
   316  00201B  25                 	db	37
   317  00201C  73                 	db	115	;'s'
   318  00201D  00                 	db	0
   319  0000                     
   320                           ; #config settings
   321  00201E  00                 	db	0	; dummy byte at the end
   322  0000                     
   323                           	psect	cinit
   324  00258C                     __pcinit:
   325                           	opt callstack 0
   326  00258C                     start_initialization:
   327                           	opt callstack 0
   328  00258C                     __initialization:
   329                           	opt callstack 0
   330                           
   331                           ; Clear objects allocated to BANK0 (8 bytes)
   332  00258C  EE00  F060         	lfsr	0,__pbssBANK0
   333  002590  0E08               	movlw	8
   334  002592                     clear_0:
   335  002592  6AEE               	clrf	postinc0,c
   336  002594  06E8               	decf	wreg,f,c
   337  002596  E1FD               	bnz	clear_0
   338                           
   339                           ; Clear objects allocated to COMRAM (69 bytes)
   340  002598  EE00  F001         	lfsr	0,__pbssCOMRAM
   341  00259C  0E45               	movlw	69
   342  00259E                     clear_1:
   343  00259E  6AEE               	clrf	postinc0,c
   344  0025A0  06E8               	decf	wreg,f,c
   345  0025A2  E1FD               	bnz	clear_1
   346                           
   347                           ;
   348                           ; Setup IVTBASE
   349                           ;
   350  0025A4  0E08               	movlw	(ivt0x8_base shr 0)& (0+255)
   351  0025A6  6ED5               	movwf	213,c
   352  0025A8  0E00               	movlw	(ivt0x8_base shr (0+8))& (0+255)
   353  0025AA  6ED6               	movwf	214,c
   354  0025AC  0E00               	movlw	(ivt0x8_base shr (0+16))& (0+255)
   355  0025AE  6ED7               	movwf	215,c
   356  0025B0                     end_of_initialization:
   357                           	opt callstack 0
   358  0025B0                     __end_of__initialization:
   359                           	opt callstack 0
   360  0025B0  0100               	movlb	0
   361  0025B2  EF16  F014         	goto	_main	;jump to C main() function
   362                           
   363                           	psect	bssCOMRAM
   364  000001                     __pbssCOMRAM:
   365                           	opt callstack 0
   366  000001                     _uart2TxBuffer:
   367                           	opt callstack 0
   368  000001                     	ds	8
   369  000009                     _uart1RxBuffer:
   370                           	opt callstack 0
   371  000009                     	ds	8
   372  000011                     _uart1TxBuffer:
   373                           	opt callstack 0
   374  000011                     	ds	8
   375  000019                     wdtdelay@dcount:
   376                           	opt callstack 0
   377  000019                     	ds	4
   378  00001D                     _TMR6_InterruptHandler:
   379                           	opt callstack 0
   380  00001D                     	ds	3
   381  000020                     _ADCC_ADI_InterruptHandler:
   382                           	opt callstack 0
   383  000020                     	ds	3
   384  000023                     _UART1_TxInterruptHandler:
   385                           	opt callstack 0
   386  000023                     	ds	3
   387  000026                     _UART1_RxInterruptHandler:
   388                           	opt callstack 0
   389  000026                     	ds	3
   390  000029                     _UART2_TxInterruptHandler:
   391                           	opt callstack 0
   392  000029                     	ds	3
   393  00002C                     _UART2_RxInterruptHandler:
   394                           	opt callstack 0
   395  00002C                     	ds	3
   396  00002F                     _INT2_InterruptHandler:
   397                           	opt callstack 0
   398  00002F                     	ds	3
   399  000032                     _INT1_InterruptHandler:
   400                           	opt callstack 0
   401  000032                     	ds	3
   402  000035                     _INT0_InterruptHandler:
   403                           	opt callstack 0
   404  000035                     	ds	3
   405  000038                     TMR6_ISR@CountCallBack:
   406                           	opt callstack 0
   407  000038                     	ds	2
   408  00003A                     _uart2RxCount:
   409                           	opt callstack 0
   410  00003A                     	ds	1
   411  00003B                     _uart2RxTail:
   412                           	opt callstack 0
   413  00003B                     	ds	1
   414  00003C                     _uart2RxHead:
   415                           	opt callstack 0
   416  00003C                     	ds	1
   417  00003D                     _uart2TxBufferRemaining:
   418                           	opt callstack 0
   419  00003D                     	ds	1
   420  00003E                     _uart2TxTail:
   421                           	opt callstack 0
   422  00003E                     	ds	1
   423  00003F                     _uart2TxHead:
   424                           	opt callstack 0
   425  00003F                     	ds	1
   426  000040                     _uart1RxCount:
   427                           	opt callstack 0
   428  000040                     	ds	1
   429  000041                     _uart1RxTail:
   430                           	opt callstack 0
   431  000041                     	ds	1
   432  000042                     _uart1RxHead:
   433                           	opt callstack 0
   434  000042                     	ds	1
   435  000043                     _uart1TxBufferRemaining:
   436                           	opt callstack 0
   437  000043                     	ds	1
   438  000044                     _uart1TxTail:
   439                           	opt callstack 0
   440  000044                     	ds	1
   441  000045                     _uart1TxHead:
   442                           	opt callstack 0
   443  000045                     	ds	1
   444                           
   445                           	psect	bssBANK0
   446  000060                     __pbssBANK0:
   447                           	opt callstack 0
   448  000060                     _uart2RxBuffer:
   449                           	opt callstack 0
   450  000060                     	ds	8
   451                           
   452                           	psect	cstackCOMRAM
   453  000046                     __pcstackCOMRAM:
   454                           	opt callstack 0
   455  000046                     ??_TMR6_DefaultInterruptHandler:
   456  000046                     
   457                           ; 1 bytes @ 0x0
   458  000046                     	ds	1
   459  000047                     ?_strlen:
   460                           	opt callstack 0
   461  000047                     INTERRUPT_Initialize@state:
   462                           	opt callstack 0
   463  000047                     SPI1_Exchange8bit@data:
   464                           	opt callstack 0
   465  000047                     strlen@s:
   466                           	opt callstack 0
   467  000047                     INT0_SetInterruptHandler@InterruptHandler:
   468                           	opt callstack 0
   469  000047                     INT1_SetInterruptHandler@InterruptHandler:
   470                           	opt callstack 0
   471  000047                     INT2_SetInterruptHandler@InterruptHandler:
   472                           	opt callstack 0
   473  000047                     ADCC_SetADIInterruptHandler@InterruptHandler:
   474                           	opt callstack 0
   475  000047                     UART1_SetRxInterruptHandler@InterruptHandler:
   476                           	opt callstack 0
   477  000047                     UART1_SetTxInterruptHandler@InterruptHandler:
   478                           	opt callstack 0
   479  000047                     UART2_SetRxInterruptHandler@InterruptHandler:
   480                           	opt callstack 0
   481  000047                     UART2_SetTxInterruptHandler@InterruptHandler:
   482                           	opt callstack 0
   483  000047                     TMR6_SetInterruptHandler@InterruptHandler:
   484                           	opt callstack 0
   485  000047                     wdtdelay@delay:
   486                           	opt callstack 0
   487                           
   488                           ; 4 bytes @ 0x1
   489  000047                     	ds	2
   490  000049                     strlen@cp:
   491                           	opt callstack 0
   492                           
   493                           ; 2 bytes @ 0x3
   494  000049                     	ds	1
   495  00004A                     
   496                           ; 1 bytes @ 0x4
   497  00004A                     	ds	1
   498  00004B                     send_lcd_data@data:
   499                           	opt callstack 0
   500  00004B                     send_lcd_cmd@cmd:
   501                           	opt callstack 0
   502  00004B                     send_lcd_cmd_long@cmd:
   503                           	opt callstack 0
   504                           
   505                           ; 1 bytes @ 0x5
   506  00004B                     	ds	1
   507  00004C                     putch@c:
   508                           	opt callstack 0
   509                           
   510                           ; 1 bytes @ 0x6
   511  00004C                     	ds	1
   512  00004D                     ?_printf:
   513                           	opt callstack 0
   514  00004D                     printf@f:
   515                           	opt callstack 0
   516                           
   517                           ; 2 bytes @ 0x7
   518  00004D                     	ds	4
   519  000051                     
   520                           ; 1 bytes @ 0xB
   521  000051                     	ds	1
   522  000052                     printf@ap:
   523                           	opt callstack 0
   524                           
   525                           ; 2 bytes @ 0xC
   526  000052                     	ds	2
   527  000054                     printf@c:
   528                           	opt callstack 0
   529                           
   530                           ; 1 bytes @ 0xE
   531  000054                     	ds	1
   532  000055                     printf@cp:
   533                           	opt callstack 0
   534                           
   535                           ; 2 bytes @ 0xF
   536  000055                     	ds	2
   537  000057                     eaDogM_WriteString@strPtr:
   538                           	opt callstack 0
   539                           
   540                           ; 2 bytes @ 0x11
   541  000057                     	ds	2
   542  000059                     ??_eaDogM_WriteString:
   543                           
   544                           ; 1 bytes @ 0x13
   545  000059                     	ds	2
   546  00005B                     
   547                           ; 1 bytes @ 0x15
   548 ;;
   549 ;;Main: autosize = 0, tempsize = 0, incstack = 0, save=0
   550 ;;
   551 ;; *************** function _main *****************
   552 ;; Defined at:
   553 ;;		line 50 in file "main.c"
   554 ;; Parameters:    Size  Location     Type
   555 ;;		None
   556 ;; Auto vars:     Size  Location     Type
   557 ;;		None
   558 ;; Return value:  Size  Location     Type
   559 ;;                  1    wreg      void 
   560 ;; Registers used:
   561 ;;		wreg, fsr0l, fsr0h, fsr2l, fsr2h, status,2, status,0, tblptrl, tblptrh, tblptru, cstack
   562 ;; Tracked objects:
   563 ;;		On entry : 0/0
   564 ;;		On exit  : 0/0
   565 ;;		Unchanged: 0/0
   566 ;; Data sizes:     COMRAM   BANK0   BANK1   BANK2   BANK3   BANK4   BANK5   BANK6   BANK7   BANK8   BANK9  BANK10  BANK1
      +1  BANK12  BANK13  BANK14  BANK15  BANK16  BANK17  BANK18  BANK19  BANK20  BANK21  BANK22  BANK23  BANK24  BANK25  BANK2
      +6  BANK27  BANK28  BANK29  BANK30  BANK31
   567 ;;      Params:         0       0       0       0       0       0       0       0       0       0       0       0       
      +0       0       0       0       0       0       0       0       0       0       0       0       0       0       0       
      +0       0       0       0       0       0
   568 ;;      Locals:         0       0       0       0       0       0       0       0       0       0       0       0       
      +0       0       0       0       0       0       0       0       0       0       0       0       0       0       0       
      +0       0       0       0       0       0
   569 ;;      Temps:          0       0       0       0       0       0       0       0       0       0       0       0       
      +0       0       0       0       0       0       0       0       0       0       0       0       0       0       0       
      +0       0       0       0       0       0
   570 ;;      Totals:         0       0       0       0       0       0       0       0       0       0       0       0       
      +0       0       0       0       0       0       0       0       0       0       0       0       0       0       0       
      +0       0       0       0       0       0
   571 ;;Total ram usage:        0 bytes
   572 ;; Hardware stack levels required when called:    8
   573 ;; This function calls:
   574 ;;		_SYSTEM_Initialize
   575 ;;		_eaDogM_WriteString
   576 ;;		_init_display
   577 ;; This function is called by:
   578 ;;		Startup code after reset
   579 ;; This function uses a non-reentrant model
   580 ;;
   581                           
   582                           	psect	text0
   583  00282C                     __ptext0:
   584                           	opt callstack 0
   585  00282C                     _main:
   586                           	opt callstack 23
   587                           
   588                           ;main.c: 53: SYSTEM_Initialize();
   589                           
   590                           ;incstack = 0
   591  00282C  ECDB  F012         	call	_SYSTEM_Initialize	;wreg free
   592                           
   593                           ;main.c: 60: (INTCON0bits.GIEH = 1);
   594  002830  8ED2               	bsf	16338,7,c	;volatile
   595                           
   596                           ;main.c: 63: (INTCON0bits.GIEL = 1);
   597  002832  8CD2               	bsf	16338,6,c	;volatile
   598                           
   599                           ;main.c: 72: init_display();
   600  002834  EC9B  F011         	call	_init_display	;wreg free
   601                           
   602                           ;main.c: 74: eaDogM_WriteString("Testing 1234567890");
   603  002838  0E01               	movlw	low STR_1
   604  00283A  6E57               	movwf	eaDogM_WriteString@strPtr,c
   605  00283C  0E20               	movlw	high STR_1
   606  00283E  6E58               	movwf	eaDogM_WriteString@strPtr+1,c
   607  002840  ECCB  F011         	call	_eaDogM_WriteString	;wreg free
   608  002844                     l860:
   609  002844  D7FF               	goto	l860
   610  002846                     __end_of_main:
   611                           	opt callstack 0
   612                           
   613 ;; *************** function _init_display *****************
   614 ;; Defined at:
   615 ;;		line 28 in file "eadog.c"
   616 ;; Parameters:    Size  Location     Type
   617 ;;		None
   618 ;; Auto vars:     Size  Location     Type
   619 ;;		None
   620 ;; Return value:  Size  Location     Type
   621 ;;                  1    wreg      void 
   622 ;; Registers used:
   623 ;;		wreg, status,2, status,0, cstack
   624 ;; Tracked objects:
   625 ;;		On entry : 0/0
   626 ;;		On exit  : 0/0
   627 ;;		Unchanged: 0/0
   628 ;; Data sizes:     COMRAM   BANK0   BANK1   BANK2   BANK3   BANK4   BANK5   BANK6   BANK7   BANK8   BANK9  BANK10  BANK1
      +1  BANK12  BANK13  BANK14  BANK15  BANK16  BANK17  BANK18  BANK19  BANK20  BANK21  BANK22  BANK23  BANK24  BANK25  BANK2
      +6  BANK27  BANK28  BANK29  BANK30  BANK31
   629 ;;      Params:         0       0       0       0       0       0       0       0       0       0       0       0       
      +0       0       0       0       0       0       0       0       0       0       0       0       0       0       0       
      +0       0       0       0       0       0
   630 ;;      Locals:         0       0       0       0       0       0       0       0       0       0       0       0       
      +0       0       0       0       0       0       0       0       0       0       0       0       0       0       0       
      +0       0       0       0       0       0
   631 ;;      Temps:          0       0       0       0       0       0       0       0       0       0       0       0       
      +0       0       0       0       0       0       0       0       0       0       0       0       0       0       0       
      +0       0       0       0       0       0
   632 ;;      Totals:         0       0       0       0       0       0       0       0       0       0       0       0       
      +0       0       0       0       0       0       0       0       0       0       0       0       0       0       0       
      +0       0       0       0       0       0
   633 ;;Total ram usage:        0 bytes
   634 ;; Hardware stack levels used:    1
   635 ;; Hardware stack levels required when called:    5
   636 ;; This function calls:
   637 ;;		_send_lcd_cmd
   638 ;;		_send_lcd_cmd_long
   639 ;;		_start_lcd
   640 ;;		_wait_lcd
   641 ;;		_wdtdelay
   642 ;; This function is called by:
   643 ;;		_main
   644 ;; This function uses a non-reentrant model
   645 ;;
   646                           
   647                           	psect	text1
   648  002336                     __ptext1:
   649                           	opt callstack 0
   650  002336                     _init_display:
   651                           	opt callstack 25
   652                           
   653                           ;eadog.c: 30: LATEbits.LATE0 = 1;
   654                           
   655                           ;incstack = 0
   656  002336  80BE               	bsf	16318,0,c	;volatile
   657                           
   658                           ;eadog.c: 31: do { LATCbits.LATC2 = 1; } while(0);
   659  002338  84BC               	bsf	16316,2,c	;volatile
   660                           
   661                           ;eadog.c: 32: wdtdelay(350000);
   662  00233A  0E30               	movlw	48
   663  00233C  6E47               	movwf	wdtdelay@delay,c
   664  00233E  0E57               	movlw	87
   665  002340  6E48               	movwf	wdtdelay@delay+1,c
   666  002342  0E05               	movlw	5
   667  002344  6E49               	movwf	wdtdelay@delay+2,c
   668  002346  0E00               	movlw	0
   669  002348  6E4A               	movwf	wdtdelay@delay+3,c
   670  00234A  EC65  F012         	call	_wdtdelay	;wreg free
   671                           
   672                           ;eadog.c: 33: send_lcd_cmd(0x39);
   673  00234E  0E39               	movlw	57
   674  002350  EC15  F013         	call	_send_lcd_cmd
   675                           
   676                           ;eadog.c: 34: send_lcd_cmd(0x1d);
   677  002354  0E1D               	movlw	29
   678  002356  EC15  F013         	call	_send_lcd_cmd
   679                           
   680                           ;eadog.c: 35: send_lcd_cmd(0x50);
   681  00235A  0E50               	movlw	80
   682  00235C  EC15  F013         	call	_send_lcd_cmd
   683                           
   684                           ;eadog.c: 36: send_lcd_cmd(0x6c);
   685  002360  0E6C               	movlw	108
   686  002362  EC15  F013         	call	_send_lcd_cmd
   687                           
   688                           ;eadog.c: 37: send_lcd_cmd(0x76);
   689  002366  0E76               	movlw	118
   690  002368  EC15  F013         	call	_send_lcd_cmd
   691                           
   692                           ;eadog.c: 38: send_lcd_cmd_long(0x38);
   693  00236C  0E38               	movlw	56
   694  00236E  EC03  F013         	call	_send_lcd_cmd_long
   695                           
   696                           ;eadog.c: 39: send_lcd_cmd(0x0f);
   697  002372  0E0F               	movlw	15
   698  002374  EC15  F013         	call	_send_lcd_cmd
   699                           
   700                           ;eadog.c: 40: send_lcd_cmd_long(0x01);
   701  002378  0E01               	movlw	1
   702  00237A  EC03  F013         	call	_send_lcd_cmd_long
   703                           
   704                           ;eadog.c: 41: send_lcd_cmd(0x02);
   705  00237E  0E02               	movlw	2
   706  002380  EC15  F013         	call	_send_lcd_cmd
   707                           
   708                           ;eadog.c: 42: send_lcd_cmd(0x06);
   709  002384  0E06               	movlw	6
   710  002386  EC15  F013         	call	_send_lcd_cmd
   711                           
   712                           ;eadog.c: 43: start_lcd();
   713  00238A  ECBA  F014         	call	_start_lcd	;wreg free
   714                           
   715                           ;eadog.c: 44: wait_lcd();
   716  00238E  ECB9  F014         	call	_wait_lcd	;wreg free
   717                           
   718                           ;eadog.c: 45: LATEbits.LATE0 = 0;
   719  002392  90BE               	bcf	16318,0,c	;volatile
   720  002394  0012               	return		;funcret
   721  002396                     __end_of_init_display:
   722                           	opt callstack 0
   723                           
   724 ;; *************** function _send_lcd_cmd_long *****************
   725 ;; Defined at:
   726 ;;		line 75 in file "eadog.c"
   727 ;; Parameters:    Size  Location     Type
   728 ;;  cmd             1    wreg     unsigned char 
   729 ;; Auto vars:     Size  Location     Type
   730 ;;  cmd             1    5[COMRAM] unsigned char 
   731 ;; Return value:  Size  Location     Type
   732 ;;                  1    wreg      void 
   733 ;; Registers used:
   734 ;;		wreg, status,2, status,0, cstack
   735 ;; Tracked objects:
   736 ;;		On entry : 0/0
   737 ;;		On exit  : 0/0
   738 ;;		Unchanged: 0/0
   739 ;; Data sizes:     COMRAM   BANK0   BANK1   BANK2   BANK3   BANK4   BANK5   BANK6   BANK7   BANK8   BANK9  BANK10  BANK1
      +1  BANK12  BANK13  BANK14  BANK15  BANK16  BANK17  BANK18  BANK19  BANK20  BANK21  BANK22  BANK23  BANK24  BANK25  BANK2
      +6  BANK27  BANK28  BANK29  BANK30  BANK31
   740 ;;      Params:         0       0       0       0       0       0       0       0       0       0       0       0       
      +0       0       0       0       0       0       0       0       0       0       0       0       0       0       0       
      +0       0       0       0       0       0
   741 ;;      Locals:         1       0       0       0       0       0       0       0       0       0       0       0       
      +0       0       0       0       0       0       0       0       0       0       0       0       0       0       0       
      +0       0       0       0       0       0
   742 ;;      Temps:          0       0       0       0       0       0       0       0       0       0       0       0       
      +0       0       0       0       0       0       0       0       0       0       0       0       0       0       0       
      +0       0       0       0       0       0
   743 ;;      Totals:         1       0       0       0       0       0       0       0       0       0       0       0       
      +0       0       0       0       0       0       0       0       0       0       0       0       0       0       0       
      +0       0       0       0       0       0
   744 ;;Total ram usage:        1 bytes
   745 ;; Hardware stack levels used:    1
   746 ;; Hardware stack levels required when called:    4
   747 ;; This function calls:
   748 ;;		_SPI1_Exchange8bit
   749 ;;		_wdtdelay
   750 ;; This function is called by:
   751 ;;		_init_display
   752 ;; This function uses a non-reentrant model
   753 ;;
   754                           
   755                           	psect	text2
   756  002606                     __ptext2:
   757                           	opt callstack 0
   758  002606                     _send_lcd_cmd_long:
   759                           	opt callstack 25
   760                           
   761                           ;incstack = 0
   762                           ;send_lcd_cmd_long@cmd stored from wreg
   763  002606  6E4B               	movwf	send_lcd_cmd_long@cmd,c
   764                           
   765                           ;eadog.c: 77: do { LATCbits.LATC1 = 0; } while(0);
   766  002608  92BC               	bcf	16316,1,c	;volatile
   767                           
   768                           ;eadog.c: 78: do { LATCbits.LATC2 = 0; } while(0);
   769  00260A  94BC               	bcf	16316,2,c	;volatile
   770                           
   771                           ;eadog.c: 79: SPI1_Exchange8bit(cmd);
   772  00260C  504B               	movf	send_lcd_cmd_long@cmd,w,c
   773  00260E  EC23  F014         	call	_SPI1_Exchange8bit
   774  002612  84BC               	bsf	16316,2,c	;volatile
   775                           
   776                           ;eadog.c: 81: wdtdelay(800);
   777  002614  0E20               	movlw	32
   778  002616  6E47               	movwf	wdtdelay@delay,c
   779  002618  0E03               	movlw	3
   780  00261A  6E48               	movwf	wdtdelay@delay+1,c
   781  00261C  0E00               	movlw	0
   782  00261E  6E49               	movwf	wdtdelay@delay+2,c
   783  002620  0E00               	movlw	0
   784  002622  6E4A               	movwf	wdtdelay@delay+3,c
   785  002624  EC65  F012         	call	_wdtdelay	;wreg free
   786  002628  0012               	return		;funcret
   787  00262A                     __end_of_send_lcd_cmd_long:
   788                           	opt callstack 0
   789                           
   790 ;; *************** function _send_lcd_cmd *****************
   791 ;; Defined at:
   792 ;;		line 63 in file "eadog.c"
   793 ;; Parameters:    Size  Location     Type
   794 ;;  cmd             1    wreg     unsigned char 
   795 ;; Auto vars:     Size  Location     Type
   796 ;;  cmd             1    5[COMRAM] unsigned char 
   797 ;; Return value:  Size  Location     Type
   798 ;;                  1    wreg      void 
   799 ;; Registers used:
   800 ;;		wreg, status,2, status,0, cstack
   801 ;; Tracked objects:
   802 ;;		On entry : 0/0
   803 ;;		On exit  : 0/0
   804 ;;		Unchanged: 0/0
   805 ;; Data sizes:     COMRAM   BANK0   BANK1   BANK2   BANK3   BANK4   BANK5   BANK6   BANK7   BANK8   BANK9  BANK10  BANK1
      +1  BANK12  BANK13  BANK14  BANK15  BANK16  BANK17  BANK18  BANK19  BANK20  BANK21  BANK22  BANK23  BANK24  BANK25  BANK2
      +6  BANK27  BANK28  BANK29  BANK30  BANK31
   806 ;;      Params:         0       0       0       0       0       0       0       0       0       0       0       0       
      +0       0       0       0       0       0       0       0       0       0       0       0       0       0       0       
      +0       0       0       0       0       0
   807 ;;      Locals:         1       0       0       0       0       0       0       0       0       0       0       0       
      +0       0       0       0       0       0       0       0       0       0       0       0       0       0       0       
      +0       0       0       0       0       0
   808 ;;      Temps:          0       0       0       0       0       0       0       0       0       0       0       0       
      +0       0       0       0       0       0       0       0       0       0       0       0       0       0       0       
      +0       0       0       0       0       0
   809 ;;      Totals:         1       0       0       0       0       0       0       0       0       0       0       0       
      +0       0       0       0       0       0       0       0       0       0       0       0       0       0       0       
      +0       0       0       0       0       0
   810 ;;Total ram usage:        1 bytes
   811 ;; Hardware stack levels used:    1
   812 ;; Hardware stack levels required when called:    4
   813 ;; This function calls:
   814 ;;		_SPI1_Exchange8bit
   815 ;;		_wdtdelay
   816 ;; This function is called by:
   817 ;;		_init_display
   818 ;;		_eaDogM_WriteCommand
   819 ;;		_eaDogM_WriteStringAtPos
   820 ;; This function uses a non-reentrant model
   821 ;;
   822                           
   823                           	psect	text3
   824  00262A                     __ptext3:
   825                           	opt callstack 0
   826  00262A                     _send_lcd_cmd:
   827                           	opt callstack 25
   828                           
   829                           ;incstack = 0
   830                           ;send_lcd_cmd@cmd stored from wreg
   831  00262A  6E4B               	movwf	send_lcd_cmd@cmd,c
   832                           
   833                           ;eadog.c: 65: do { LATCbits.LATC1 = 0; } while(0);
   834  00262C  92BC               	bcf	16316,1,c	;volatile
   835                           
   836                           ;eadog.c: 66: do { LATCbits.LATC2 = 0; } while(0);
   837  00262E  94BC               	bcf	16316,2,c	;volatile
   838                           
   839                           ;eadog.c: 67: SPI1_Exchange8bit(cmd);
   840  002630  504B               	movf	send_lcd_cmd@cmd,w,c
   841  002632  EC23  F014         	call	_SPI1_Exchange8bit
   842  002636  84BC               	bsf	16316,2,c	;volatile
   843                           
   844                           ;eadog.c: 69: wdtdelay(30);
   845  002638  0E1E               	movlw	30
   846  00263A  6E47               	movwf	wdtdelay@delay,c
   847  00263C  0E00               	movlw	0
   848  00263E  6E48               	movwf	wdtdelay@delay+1,c
   849  002640  0E00               	movlw	0
   850  002642  6E49               	movwf	wdtdelay@delay+2,c
   851  002644  0E00               	movlw	0
   852  002646  6E4A               	movwf	wdtdelay@delay+3,c
   853  002648  EC65  F012         	call	_wdtdelay	;wreg free
   854  00264C  0012               	return		;funcret
   855  00264E                     __end_of_send_lcd_cmd:
   856                           	opt callstack 0
   857                           
   858 ;; *************** function _eaDogM_WriteString *****************
   859 ;; Defined at:
   860 ;;		line 139 in file "eadog.c"
   861 ;; Parameters:    Size  Location     Type
   862 ;;  strPtr          2   17[COMRAM] PTR unsigned char 
   863 ;;		 -> STR_1(19), 
   864 ;; Auto vars:     Size  Location     Type
   865 ;;		None
   866 ;; Return value:  Size  Location     Type
   867 ;;                  1    wreg      void 
   868 ;; Registers used:
   869 ;;		wreg, fsr0l, fsr0h, fsr2l, fsr2h, status,2, status,0, tblptrl, tblptrh, tblptru, cstack
   870 ;; Tracked objects:
   871 ;;		On entry : 0/0
   872 ;;		On exit  : 0/0
   873 ;;		Unchanged: 0/0
   874 ;; Data sizes:     COMRAM   BANK0   BANK1   BANK2   BANK3   BANK4   BANK5   BANK6   BANK7   BANK8   BANK9  BANK10  BANK1
      +1  BANK12  BANK13  BANK14  BANK15  BANK16  BANK17  BANK18  BANK19  BANK20  BANK21  BANK22  BANK23  BANK24  BANK25  BANK2
      +6  BANK27  BANK28  BANK29  BANK30  BANK31
   875 ;;      Params:         2       0       0       0       0       0       0       0       0       0       0       0       
      +0       0       0       0       0       0       0       0       0       0       0       0       0       0       0       
      +0       0       0       0       0       0
   876 ;;      Locals:         0       0       0       0       0       0       0       0       0       0       0       0       
      +0       0       0       0       0       0       0       0       0       0       0       0       0       0       0       
      +0       0       0       0       0       0
   877 ;;      Temps:          2       0       0       0       0       0       0       0       0       0       0       0       
      +0       0       0       0       0       0       0       0       0       0       0       0       0       0       0       
      +0       0       0       0       0       0
   878 ;;      Totals:         4       0       0       0       0       0       0       0       0       0       0       0       
      +0       0       0       0       0       0       0       0       0       0       0       0       0       0       0       
      +0       0       0       0       0       0
   879 ;;Total ram usage:        4 bytes
   880 ;; Hardware stack levels used:    1
   881 ;; Hardware stack levels required when called:    7
   882 ;; This function calls:
   883 ;;		_printf
   884 ;;		_start_lcd
   885 ;;		_strlen
   886 ;;		_wait_lcd
   887 ;; This function is called by:
   888 ;;		_main
   889 ;; This function uses a non-reentrant model
   890 ;;
   891                           
   892                           	psect	text4
   893  002396                     __ptext4:
   894                           	opt callstack 0
   895  002396                     _eaDogM_WriteString:
   896                           	opt callstack 23
   897                           
   898                           ;eadog.c: 141: if (strlen(strPtr) > 16) strPtr[16] = 0;
   899                           
   900                           ;incstack = 0
   901  002396  0060  F15C  F047   	movff	eaDogM_WriteString@strPtr,strlen@s
   902  00239C  0060  F160  F048   	movff	eaDogM_WriteString@strPtr+1,strlen@s+1
   903  0023A2  EC48  F012         	call	_strlen	;wreg free
   904  0023A6  5048               	movf	?_strlen+1,w,c
   905  0023A8  E104               	bnz	u670
   906  0023AA  0E11               	movlw	17
   907  0023AC  5C47               	subwf	?_strlen,w,c
   908  0023AE  A0D8               	btfss	status,0,c
   909  0023B0  D011               	goto	l2712
   910  0023B2                     u670:
   911  0023B2  0E10               	movlw	16
   912  0023B4  2457               	addwf	eaDogM_WriteString@strPtr,w,c
   913  0023B6  6E59               	movwf	??_eaDogM_WriteString& (0+255),c
   914  0023B8  0E00               	movlw	0
   915  0023BA  2058               	addwfc	eaDogM_WriteString@strPtr+1,w,c
   916  0023BC  6E5A               	movwf	(??_eaDogM_WriteString+1)& (0+255),c
   917  0023BE  0060  F167  FFF6   	movff	??_eaDogM_WriteString,tblptrl
   918  0023C4  0060  F16B  FFF7   	movff	??_eaDogM_WriteString+1,tblptrh
   919  0023CA                     	if	0	;tblptru may be non-zero
   920  0023CA                     	endif
   921  0023CA                     	if	1	;Program memory is > 0xFFFF, there are 3 active tblptr bytes
   922  0023CA  0E00               	movlw	low (__mediumconst shr (0+16))
   923  0023CC  6EF8               	movwf	tblptru,c
   924  0023CE                     	endif
   925  0023CE  0E00               	movlw	0
   926  0023D0  6EF5               	movwf	tablat,c
   927  0023D2  000C               	tblwt		*
   928  0023D4                     l2712:
   929                           
   930                           ;eadog.c: 142: printf("%s", strPtr);
   931  0023D4  0E1B               	movlw	low STR_2
   932  0023D6  6E4D               	movwf	printf@f,c
   933  0023D8  0E20               	movlw	high STR_2
   934  0023DA  6E4E               	movwf	printf@f+1,c
   935  0023DC  0060  F15C  F04F   	movff	eaDogM_WriteString@strPtr,?_printf+2
   936  0023E2  0060  F160  F050   	movff	eaDogM_WriteString@strPtr+1,?_printf+3
   937  0023E8  EC10  F010         	call	_printf	;wreg free
   938                           
   939                           ;eadog.c: 143: start_lcd();
   940  0023EC  ECBA  F014         	call	_start_lcd	;wreg free
   941                           
   942                           ;eadog.c: 144: wait_lcd();
   943  0023F0  ECB9  F014         	call	_wait_lcd	;wreg free
   944  0023F4  0012               	return		;funcret
   945  0023F6                     __end_of_eaDogM_WriteString:
   946                           	opt callstack 0
   947                           
   948 ;; *************** function _wait_lcd *****************
   949 ;; Defined at:
   950 ;;		line 94 in file "eadog.c"
   951 ;; Parameters:    Size  Location     Type
   952 ;;		None
   953 ;; Auto vars:     Size  Location     Type
   954 ;;		None
   955 ;; Return value:  Size  Location     Type
   956 ;;                  1    wreg      void 
   957 ;; Registers used:
   958 ;;		None
   959 ;; Tracked objects:
   960 ;;		On entry : 0/0
   961 ;;		On exit  : 0/0
   962 ;;		Unchanged: 0/0
   963 ;; Data sizes:     COMRAM   BANK0   BANK1   BANK2   BANK3   BANK4   BANK5   BANK6   BANK7   BANK8   BANK9  BANK10  BANK1
      +1  BANK12  BANK13  BANK14  BANK15  BANK16  BANK17  BANK18  BANK19  BANK20  BANK21  BANK22  BANK23  BANK24  BANK25  BANK2
      +6  BANK27  BANK28  BANK29  BANK30  BANK31
   964 ;;      Params:         0       0       0       0       0       0       0       0       0       0       0       0       
      +0       0       0       0       0       0       0       0       0       0       0       0       0       0       0       
      +0       0       0       0       0       0
   965 ;;      Locals:         0       0       0       0       0       0       0       0       0       0       0       0       
      +0       0       0       0       0       0       0       0       0       0       0       0       0       0       0       
      +0       0       0       0       0       0
   966 ;;      Temps:          0       0       0       0       0       0       0       0       0       0       0       0       
      +0       0       0       0       0       0       0       0       0       0       0       0       0       0       0       
      +0       0       0       0       0       0
   967 ;;      Totals:         0       0       0       0       0       0       0       0       0       0       0       0       
      +0       0       0       0       0       0       0       0       0       0       0       0       0       0       0       
      +0       0       0       0       0       0
   968 ;;Total ram usage:        0 bytes
   969 ;; Hardware stack levels used:    1
   970 ;; Hardware stack levels required when called:    3
   971 ;; This function calls:
   972 ;;		Nothing
   973 ;; This function is called by:
   974 ;;		_init_display
   975 ;;		_eaDogM_WriteString
   976 ;;		_eaDogM_WriteChr
   977 ;;		_eaDogM_WriteCommand
   978 ;;		_eaDogM_WriteStringAtPos
   979 ;; This function uses a non-reentrant model
   980 ;;
   981                           
   982                           	psect	text5
   983  002972                     __ptext5:
   984                           	opt callstack 0
   985  002972                     _wait_lcd:
   986                           	opt callstack 26
   987                           
   988                           ;eadog.c: 98: while (0);
   989                           
   990                           ;incstack = 0
   991  002972  0012               	return		;funcret
   992  002974                     __end_of_wait_lcd:
   993                           	opt callstack 0
   994                           
   995 ;; *************** function _strlen *****************
   996 ;; Defined at:
   997 ;;		line 4 in file "/opt/microchip/xc8/v2.05/pic/sources/c90/common/strlen.c"
   998 ;; Parameters:    Size  Location     Type
   999 ;;  s               2    1[COMRAM] PTR const unsigned char 
  1000 ;;		 -> STR_1(19), 
  1001 ;; Auto vars:     Size  Location     Type
  1002 ;;  cp              2    3[COMRAM] PTR const unsigned char 
  1003 ;;		 -> STR_1(19), 
  1004 ;; Return value:  Size  Location     Type
  1005 ;;                  2    1[COMRAM] unsigned int 
  1006 ;; Registers used:
  1007 ;;		wreg, status,2, status,0, tblptrl, tblptrh, tblptru
  1008 ;; Tracked objects:
  1009 ;;		On entry : 0/0
  1010 ;;		On exit  : 0/0
  1011 ;;		Unchanged: 0/0
  1012 ;; Data sizes:     COMRAM   BANK0   BANK1   BANK2   BANK3   BANK4   BANK5   BANK6   BANK7   BANK8   BANK9  BANK10  BANK1
      +1  BANK12  BANK13  BANK14  BANK15  BANK16  BANK17  BANK18  BANK19  BANK20  BANK21  BANK22  BANK23  BANK24  BANK25  BANK2
      +6  BANK27  BANK28  BANK29  BANK30  BANK31
  1013 ;;      Params:         2       0       0       0       0       0       0       0       0       0       0       0       
      +0       0       0       0       0       0       0       0       0       0       0       0       0       0       0       
      +0       0       0       0       0       0
  1014 ;;      Locals:         2       0       0       0       0       0       0       0       0       0       0       0       
      +0       0       0       0       0       0       0       0       0       0       0       0       0       0       0       
      +0       0       0       0       0       0
  1015 ;;      Temps:          0       0       0       0       0       0       0       0       0       0       0       0       
      +0       0       0       0       0       0       0       0       0       0       0       0       0       0       0       
      +0       0       0       0       0       0
  1016 ;;      Totals:         4       0       0       0       0       0       0       0       0       0       0       0       
      +0       0       0       0       0       0       0       0       0       0       0       0       0       0       0       
      +0       0       0       0       0       0
  1017 ;;Total ram usage:        4 bytes
  1018 ;; Hardware stack levels used:    1
  1019 ;; Hardware stack levels required when called:    3
  1020 ;; This function calls:
  1021 ;;		Nothing
  1022 ;; This function is called by:
  1023 ;;		_eaDogM_WriteString
  1024 ;;		_eaDogM_WriteStringAtPos
  1025 ;; This function uses a non-reentrant model
  1026 ;;
  1027                           
  1028                           	psect	text6
  1029  002490                     __ptext6:
  1030                           	opt callstack 0
  1031  002490                     _strlen:
  1032                           	opt callstack 26
  1033                           
  1034                           ;incstack = 0
  1035  002490  0060  F11C  F049   	movff	strlen@s,strlen@cp
  1036  002496  0060  F120  F04A   	movff	strlen@s+1,strlen@cp+1
  1037  00249C  D002               	goto	l2640
  1038  00249E                     l2638:
  1039  00249E  4A49               	infsnz	strlen@cp,f,c
  1040  0024A0  2A4A               	incf	strlen@cp+1,f,c
  1041  0024A2                     l2640:
  1042  0024A2  0060  F127  FFF6   	movff	strlen@cp,tblptrl
  1043  0024A8  0060  F12B  FFF7   	movff	strlen@cp+1,tblptrh
  1044  0024AE                     	if	0	;tblptru may be non-zero
  1045  0024AE                     	endif
  1046  0024AE                     	if	1	;Program memory is > 0xFFFF, there are 3 active tblptr bytes
  1047  0024AE  0E00               	movlw	low (__mediumconst shr (0+16))
  1048  0024B0  6EF8               	movwf	tblptru,c
  1049  0024B2                     	endif
  1050  0024B2  0008               	tblrd		*
  1051  0024B4  50F5               	movf	tablat,w,c
  1052  0024B6  0900               	iorlw	0
  1053  0024B8  A4D8               	btfss	status,2,c
  1054  0024BA  D7F1               	goto	l2638
  1055  0024BC  5047               	movf	strlen@s,w,c
  1056  0024BE  5C49               	subwf	strlen@cp,w,c
  1057  0024C0  6E47               	movwf	?_strlen,c
  1058  0024C2  5048               	movf	strlen@s+1,w,c
  1059  0024C4  584A               	subwfb	strlen@cp+1,w,c
  1060  0024C6  6E48               	movwf	?_strlen+1,c
  1061  0024C8  0012               	return		;funcret
  1062  0024CA                     __end_of_strlen:
  1063                           	opt callstack 0
  1064                           
  1065 ;; *************** function _start_lcd *****************
  1066 ;; Defined at:
  1067 ;;		line 87 in file "eadog.c"
  1068 ;; Parameters:    Size  Location     Type
  1069 ;;		None
  1070 ;; Auto vars:     Size  Location     Type
  1071 ;;		None
  1072 ;; Return value:  Size  Location     Type
  1073 ;;                  1    wreg      void 
  1074 ;; Registers used:
  1075 ;;		None
  1076 ;; Tracked objects:
  1077 ;;		On entry : 0/0
  1078 ;;		On exit  : 0/0
  1079 ;;		Unchanged: 0/0
  1080 ;; Data sizes:     COMRAM   BANK0   BANK1   BANK2   BANK3   BANK4   BANK5   BANK6   BANK7   BANK8   BANK9  BANK10  BANK1
      +1  BANK12  BANK13  BANK14  BANK15  BANK16  BANK17  BANK18  BANK19  BANK20  BANK21  BANK22  BANK23  BANK24  BANK25  BANK2
      +6  BANK27  BANK28  BANK29  BANK30  BANK31
  1081 ;;      Params:         0       0       0       0       0       0       0       0       0       0       0       0       
      +0       0       0       0       0       0       0       0       0       0       0       0       0       0       0       
      +0       0       0       0       0       0
  1082 ;;      Locals:         0       0       0       0       0       0       0       0       0       0       0       0       
      +0       0       0       0       0       0       0       0       0       0       0       0       0       0       0       
      +0       0       0       0       0       0
  1083 ;;      Temps:          0       0       0       0       0       0       0       0       0       0       0       0       
      +0       0       0       0       0       0       0       0       0       0       0       0       0       0       0       
      +0       0       0       0       0       0
  1084 ;;      Totals:         0       0       0       0       0       0       0       0       0       0       0       0       
      +0       0       0       0       0       0       0       0       0       0       0       0       0       0       0       
      +0       0       0       0       0       0
  1085 ;;Total ram usage:        0 bytes
  1086 ;; Hardware stack levels used:    1
  1087 ;; Hardware stack levels required when called:    3
  1088 ;; This function calls:
  1089 ;;		Nothing
  1090 ;; This function is called by:
  1091 ;;		_init_display
  1092 ;;		_eaDogM_WriteString
  1093 ;;		_eaDogM_WriteChr
  1094 ;;		_eaDogM_WriteCommand
  1095 ;;		_eaDogM_WriteStringAtPos
  1096 ;; This function uses a non-reentrant model
  1097 ;;
  1098                           
  1099                           	psect	text7
  1100  002974                     __ptext7:
  1101                           	opt callstack 0
  1102  002974                     _start_lcd:
  1103                           	opt callstack 26
  1104                           
  1105                           ;incstack = 0
  1106  002974  0012               	return		;funcret
  1107  002976                     __end_of_start_lcd:
  1108                           	opt callstack 0
  1109                           
  1110 ;; *************** function _printf *****************
  1111 ;; Defined at:
  1112 ;;		line 472 in file "/opt/microchip/xc8/v2.05/pic/sources/c90/common/doprnt.c"
  1113 ;; Parameters:    Size  Location     Type
  1114 ;;  f               2    7[COMRAM] PTR const unsigned char 
  1115 ;;		 -> STR_3(3), STR_2(3), 
  1116 ;; Auto vars:     Size  Location     Type
  1117 ;;  tmpval          4    0        struct .
  1118 ;;  cp              2   15[COMRAM] PTR const unsigned char 
  1119 ;;		 -> STR_4(7), ?_printf(2), STR_1(19), 
  1120 ;;  ap              2   12[COMRAM] PTR void [1]
  1121 ;;		 -> ?_printf(2), 
  1122 ;;  len             2    0        unsigned int 
  1123 ;;  val             2    0        unsigned int 
  1124 ;;  c               1   14[COMRAM] unsigned char 
  1125 ;;  flag            1    0        unsigned char 
  1126 ;;  prec            1    0        char 
  1127 ;; Return value:  Size  Location     Type
  1128 ;;                  2    7[COMRAM] int 
  1129 ;; Registers used:
  1130 ;;		wreg, fsr0l, fsr0h, fsr2l, fsr2h, status,2, status,0, tblptrl, tblptrh, tblptru, cstack
  1131 ;; Tracked objects:
  1132 ;;		On entry : 0/0
  1133 ;;		On exit  : 0/0
  1134 ;;		Unchanged: 0/0
  1135 ;; Data sizes:     COMRAM   BANK0   BANK1   BANK2   BANK3   BANK4   BANK5   BANK6   BANK7   BANK8   BANK9  BANK10  BANK1
      +1  BANK12  BANK13  BANK14  BANK15  BANK16  BANK17  BANK18  BANK19  BANK20  BANK21  BANK22  BANK23  BANK24  BANK25  BANK2
      +6  BANK27  BANK28  BANK29  BANK30  BANK31
  1136 ;;      Params:         4       0       0       0       0       0       0       0       0       0       0       0       
      +0       0       0       0       0       0       0       0       0       0       0       0       0       0       0       
      +0       0       0       0       0       0
  1137 ;;      Locals:         6       0       0       0       0       0       0       0       0       0       0       0       
      +0       0       0       0       0       0       0       0       0       0       0       0       0       0       0       
      +0       0       0       0       0       0
  1138 ;;      Temps:          0       0       0       0       0       0       0       0       0       0       0       0       
      +0       0       0       0       0       0       0       0       0       0       0       0       0       0       0       
      +0       0       0       0       0       0
  1139 ;;      Totals:        10       0       0       0       0       0       0       0       0       0       0       0       
      +0       0       0       0       0       0       0       0       0       0       0       0       0       0       0       
      +0       0       0       0       0       0
  1140 ;;Total ram usage:       10 bytes
  1141 ;; Hardware stack levels used:    1
  1142 ;; Hardware stack levels required when called:    6
  1143 ;; This function calls:
  1144 ;;		_putch
  1145 ;; This function is called by:
  1146 ;;		_eaDogM_WriteString
  1147 ;;		_eaDogM_WriteStringAtPos
  1148 ;; This function uses a non-reentrant model
  1149 ;;
  1150                           
  1151                           	psect	text8
  1152  002020                     __ptext8:
  1153                           	opt callstack 0
  1154  002020                     _printf:
  1155                           	opt callstack 23
  1156                           
  1157                           ;doprnt.c: 474: va_list ap;;doprnt.c: 507: char c;;doprnt.c: 516: signed char prec;;dopr
      +                          nt.c: 520: unsigned char flag;;doprnt.c: 535: union {;doprnt.c: 536: unsigned long vd;;d
      +                          oprnt.c: 537: double integ;;doprnt.c: 538: } tmpval;;doprnt.c: 540: unsigned int val;;do
      +                          prnt.c: 541: unsigned len;;doprnt.c: 542: const char * cp;;doprnt.c: 545: *ap = __va_sta
      +                          rt();
  1158                           
  1159                           ;incstack = 0
  1160  002020  0E4F               	movlw	low (?_printf+2)
  1161  002022  6E52               	movwf	printf@ap,c
  1162  002024  0E00               	movlw	high (?_printf+2)
  1163  002026  6E53               	movwf	printf@ap+1,c
  1164                           
  1165                           ;doprnt.c: 548: while((c = *f++)) {
  1166  002028  D068               	goto	l2672
  1167  00202A                     l2648:
  1168                           
  1169                           ;doprnt.c: 550: if(c != '%')
  1170  00202A  0E25               	movlw	37
  1171  00202C  1854               	xorwf	printf@c,w,c
  1172  00202E  B4D8               	btfsc	status,2,c
  1173  002030  D04F               	goto	l2670
  1174                           
  1175                           ;doprnt.c: 552: {;doprnt.c: 553: (putch(c) );
  1176  002032  5054               	movf	printf@c,w,c
  1177  002034  ECA3  F014         	call	_putch
  1178                           
  1179                           ;doprnt.c: 554: continue;
  1180  002038  D060               	goto	l2672
  1181  00203A                     l2654:
  1182                           
  1183                           ;doprnt.c: 753: cp = (*(const char * *)__va_arg((*(const char * **)ap), (const char *)0)
      +                          );
  1184  00203A  0060  F14B  FFD9   	movff	printf@ap,fsr2l
  1185  002040  0060  F14F  FFDA   	movff	printf@ap+1,fsr2h
  1186  002046  006F FF78  F055    	movff	postinc2,printf@cp
  1187  00204C  006F FF74  F056    	movff	postdec2,printf@cp+1
  1188  002052  0E02               	movlw	2
  1189  002054  2652               	addwf	printf@ap,f,c
  1190  002056  0E00               	movlw	0
  1191  002058  2253               	addwfc	printf@ap+1,f,c
  1192                           
  1193                           ;doprnt.c: 759: if(!cp)
  1194  00205A  5055               	movf	printf@cp,w,c
  1195  00205C  1056               	iorwf	printf@cp+1,w,c
  1196  00205E  A4D8               	btfss	status,2,c
  1197  002060  D01E               	goto	l2666
  1198                           
  1199                           ;doprnt.c: 760: cp = "(null)";
  1200  002062  0E14               	movlw	low STR_4
  1201  002064  6E55               	movwf	printf@cp,c
  1202  002066  0E20               	movlw	high STR_4
  1203  002068  6E56               	movwf	printf@cp+1,c
  1204  00206A  D019               	goto	l2666
  1205  00206C                     l2662:
  1206                           
  1207                           ;doprnt.c: 797: (putch(*cp++) );
  1208  00206C  0060  F157  FFF6   	movff	printf@cp,tblptrl
  1209  002072  0060  F15B  FFF7   	movff	printf@cp+1,tblptrh
  1210  002078  0E00               	movlw	low (__smallconst shr (0+16))
  1211  00207A  6EF8               	movwf	tblptru,c
  1212  00207C  0E1F               	movlw	(high __ramtop+-1)
  1213  00207E  64F7               	cpfsgt	tblptrh,c
  1214  002080  D003               	bra	u627
  1215  002082  0008               	tblrd		*
  1216  002084  50F5               	movf	tablat,w,c
  1217  002086  D007               	bra	u620
  1218  002088                     u627:
  1219  002088  006F FFDB FFE9     	movff	tblptrl,fsr0l
  1220  00208E  006F FFDF FFEA     	movff	tblptrh,fsr0h
  1221  002094  50EF               	movf	indf0,w,c
  1222  002096                     u620:
  1223  002096  ECA3  F014         	call	_putch
  1224  00209A  4A55               	infsnz	printf@cp,f,c
  1225  00209C  2A56               	incf	printf@cp+1,f,c
  1226  00209E                     l2666:
  1227  00209E  0060  F157  FFF6   	movff	printf@cp,tblptrl
  1228  0020A4  0060  F15B  FFF7   	movff	printf@cp+1,tblptrh
  1229  0020AA  0E00               	movlw	low (__smallconst shr (0+16))
  1230  0020AC  6EF8               	movwf	tblptru,c
  1231  0020AE  0E1F               	movlw	(high __ramtop+-1)
  1232  0020B0  64F7               	cpfsgt	tblptrh,c
  1233  0020B2  D003               	bra	u637
  1234  0020B4  0008               	tblrd		*
  1235  0020B6  50F5               	movf	tablat,w,c
  1236  0020B8  D007               	bra	u630
  1237  0020BA                     u637:
  1238  0020BA  006F FFDB FFE9     	movff	tblptrl,fsr0l
  1239  0020C0  006F FFDF FFEA     	movff	tblptrh,fsr0h
  1240  0020C6  50EF               	movf	indf0,w,c
  1241  0020C8                     u630:
  1242  0020C8  0900               	iorlw	0
  1243  0020CA  B4D8               	btfsc	status,2,c
  1244  0020CC  D016               	goto	l2672
  1245  0020CE  D7CE               	goto	l2662
  1246  0020D0                     l2670:
  1247  0020D0  0060  F137  FFF6   	movff	printf@f,tblptrl
  1248  0020D6  0060  F13B  FFF7   	movff	printf@f+1,tblptrh
  1249  0020DC  4A4D               	infsnz	printf@f,f,c
  1250  0020DE  2A4E               	incf	printf@f+1,f,c
  1251  0020E0                     	if	0	;tblptru may be non-zero
  1252  0020E0                     	endif
  1253  0020E0                     	if	1	;Program memory is > 0xFFFF, there are 3 active tblptr bytes
  1254  0020E0  0E00               	movlw	low (__mediumconst shr (0+16))
  1255  0020E2  6EF8               	movwf	tblptru,c
  1256  0020E4                     	endif
  1257  0020E4  0008               	tblrd		*
  1258  0020E6  006F FFD4  F054    	movff	tablat,printf@c
  1259  0020EC  5054               	movf	printf@c,w,c
  1260                           
  1261                           ; Switch size 1, requested type "simple"
  1262                           ; Number of cases is 2, Range of values is 0 to 115
  1263                           ; switch strategies available:
  1264                           ; Name         Instructions Cycles
  1265                           ; simple_byte            7     4 (average)
  1266                           ;	Chosen strategy is simple_byte
  1267  0020EE  0A00               	xorlw	0	; case 0
  1268  0020F0  B4D8               	btfsc	status,2,c
  1269  0020F2  0012               	return	
  1270  0020F4  0A73               	xorlw	115	; case 115
  1271  0020F6  B4D8               	btfsc	status,2,c
  1272  0020F8  D7A0               	goto	l2654
  1273  0020FA                     l2672:
  1274  0020FA  0060  F137  FFF6   	movff	printf@f,tblptrl
  1275  002100  0060  F13B  FFF7   	movff	printf@f+1,tblptrh
  1276  002106  4A4D               	infsnz	printf@f,f,c
  1277  002108  2A4E               	incf	printf@f+1,f,c
  1278  00210A                     	if	0	;tblptru may be non-zero
  1279  00210A                     	endif
  1280  00210A                     	if	1	;Program memory is > 0xFFFF, there are 3 active tblptr bytes
  1281  00210A  0E00               	movlw	low (__mediumconst shr (0+16))
  1282  00210C  6EF8               	movwf	tblptru,c
  1283  00210E                     	endif
  1284  00210E  0008               	tblrd		*
  1285  002110  006F FFD4  F054    	movff	tablat,printf@c
  1286  002116  5054               	movf	printf@c,w,c
  1287  002118  B4D8               	btfsc	status,2,c
  1288  00211A  0012               	return	
  1289  00211C  D786               	goto	l2648
  1290  00211E                     __end_of_printf:
  1291                           	opt callstack 0
  1292                           
  1293 ;; *************** function _putch *****************
  1294 ;; Defined at:
  1295 ;;		line 111 in file "eadog.c"
  1296 ;; Parameters:    Size  Location     Type
  1297 ;;  c               1    wreg     unsigned char 
  1298 ;; Auto vars:     Size  Location     Type
  1299 ;;  c               1    6[COMRAM] unsigned char 
  1300 ;; Return value:  Size  Location     Type
  1301 ;;                  1    wreg      void 
  1302 ;; Registers used:
  1303 ;;		wreg, status,2, status,0, cstack
  1304 ;; Tracked objects:
  1305 ;;		On entry : 0/0
  1306 ;;		On exit  : 0/0
  1307 ;;		Unchanged: 0/0
  1308 ;; Data sizes:     COMRAM   BANK0   BANK1   BANK2   BANK3   BANK4   BANK5   BANK6   BANK7   BANK8   BANK9  BANK10  BANK1
      +1  BANK12  BANK13  BANK14  BANK15  BANK16  BANK17  BANK18  BANK19  BANK20  BANK21  BANK22  BANK23  BANK24  BANK25  BANK2
      +6  BANK27  BANK28  BANK29  BANK30  BANK31
  1309 ;;      Params:         0       0       0       0       0       0       0       0       0       0       0       0       
      +0       0       0       0       0       0       0       0       0       0       0       0       0       0       0       
      +0       0       0       0       0       0
  1310 ;;      Locals:         1       0       0       0       0       0       0       0       0       0       0       0       
      +0       0       0       0       0       0       0       0       0       0       0       0       0       0       0       
      +0       0       0       0       0       0
  1311 ;;      Temps:          0       0       0       0       0       0       0       0       0       0       0       0       
      +0       0       0       0       0       0       0       0       0       0       0       0       0       0       0       
      +0       0       0       0       0       0
  1312 ;;      Totals:         1       0       0       0       0       0       0       0       0       0       0       0       
      +0       0       0       0       0       0       0       0       0       0       0       0       0       0       0       
      +0       0       0       0       0       0
  1313 ;;Total ram usage:        1 bytes
  1314 ;; Hardware stack levels used:    1
  1315 ;; Hardware stack levels required when called:    5
  1316 ;; This function calls:
  1317 ;;		_send_lcd_data
  1318 ;; This function is called by:
  1319 ;;		_printf
  1320 ;; This function uses a non-reentrant model
  1321 ;;
  1322                           
  1323                           	psect	text9
  1324  002946                     __ptext9:
  1325                           	opt callstack 0
  1326  002946                     _putch:
  1327                           	opt callstack 23
  1328                           
  1329                           ;incstack = 0
  1330                           ;putch@c stored from wreg
  1331  002946  6E4C               	movwf	putch@c,c
  1332                           
  1333                           ;eadog.c: 113: send_lcd_data((uint8_t) c);
  1334  002948  504C               	movf	putch@c,w,c
  1335  00294A  EC27  F013         	call	_send_lcd_data
  1336  00294E  0012               	return		;funcret
  1337  002950                     __end_of_putch:
  1338                           	opt callstack 0
  1339                           
  1340 ;; *************** function _send_lcd_data *****************
  1341 ;; Defined at:
  1342 ;;		line 51 in file "eadog.c"
  1343 ;; Parameters:    Size  Location     Type
  1344 ;;  data            1    wreg     unsigned char 
  1345 ;; Auto vars:     Size  Location     Type
  1346 ;;  data            1    5[COMRAM] unsigned char 
  1347 ;; Return value:  Size  Location     Type
  1348 ;;                  1    wreg      void 
  1349 ;; Registers used:
  1350 ;;		wreg, status,2, status,0, cstack
  1351 ;; Tracked objects:
  1352 ;;		On entry : 0/0
  1353 ;;		On exit  : 0/0
  1354 ;;		Unchanged: 0/0
  1355 ;; Data sizes:     COMRAM   BANK0   BANK1   BANK2   BANK3   BANK4   BANK5   BANK6   BANK7   BANK8   BANK9  BANK10  BANK1
      +1  BANK12  BANK13  BANK14  BANK15  BANK16  BANK17  BANK18  BANK19  BANK20  BANK21  BANK22  BANK23  BANK24  BANK25  BANK2
      +6  BANK27  BANK28  BANK29  BANK30  BANK31
  1356 ;;      Params:         0       0       0       0       0       0       0       0       0       0       0       0       
      +0       0       0       0       0       0       0       0       0       0       0       0       0       0       0       
      +0       0       0       0       0       0
  1357 ;;      Locals:         1       0       0       0       0       0       0       0       0       0       0       0       
      +0       0       0       0       0       0       0       0       0       0       0       0       0       0       0       
      +0       0       0       0       0       0
  1358 ;;      Temps:          0       0       0       0       0       0       0       0       0       0       0       0       
      +0       0       0       0       0       0       0       0       0       0       0       0       0       0       0       
      +0       0       0       0       0       0
  1359 ;;      Totals:         1       0       0       0       0       0       0       0       0       0       0       0       
      +0       0       0       0       0       0       0       0       0       0       0       0       0       0       0       
      +0       0       0       0       0       0
  1360 ;;Total ram usage:        1 bytes
  1361 ;; Hardware stack levels used:    1
  1362 ;; Hardware stack levels required when called:    4
  1363 ;; This function calls:
  1364 ;;		_SPI1_Exchange8bit
  1365 ;;		_wdtdelay
  1366 ;; This function is called by:
  1367 ;;		_putch
  1368 ;;		_eaDogM_WriteChr
  1369 ;; This function uses a non-reentrant model
  1370 ;;
  1371                           
  1372                           	psect	text10
  1373  00264E                     __ptext10:
  1374                           	opt callstack 0
  1375  00264E                     _send_lcd_data:
  1376                           	opt callstack 23
  1377                           
  1378                           ;incstack = 0
  1379                           ;send_lcd_data@data stored from wreg
  1380  00264E  6E4B               	movwf	send_lcd_data@data,c
  1381                           
  1382                           ;eadog.c: 53: do { LATCbits.LATC1 = 1; } while(0);
  1383  002650  82BC               	bsf	16316,1,c	;volatile
  1384                           
  1385                           ;eadog.c: 54: do { LATCbits.LATC2 = 0; } while(0);
  1386  002652  94BC               	bcf	16316,2,c	;volatile
  1387                           
  1388                           ;eadog.c: 55: SPI1_Exchange8bit(data);
  1389  002654  504B               	movf	send_lcd_data@data,w,c
  1390  002656  EC23  F014         	call	_SPI1_Exchange8bit
  1391  00265A  84BC               	bsf	16316,2,c	;volatile
  1392                           
  1393                           ;eadog.c: 57: wdtdelay(5);
  1394  00265C  0E05               	movlw	5
  1395  00265E  6E47               	movwf	wdtdelay@delay,c
  1396  002660  0E00               	movlw	0
  1397  002662  6E48               	movwf	wdtdelay@delay+1,c
  1398  002664  0E00               	movlw	0
  1399  002666  6E49               	movwf	wdtdelay@delay+2,c
  1400  002668  0E00               	movlw	0
  1401  00266A  6E4A               	movwf	wdtdelay@delay+3,c
  1402  00266C  EC65  F012         	call	_wdtdelay	;wreg free
  1403  002670  0012               	return		;funcret
  1404  002672                     __end_of_send_lcd_data:
  1405                           	opt callstack 0
  1406                           
  1407 ;; *************** function _wdtdelay *****************
  1408 ;; Defined at:
  1409 ;;		line 14 in file "eadog.c"
  1410 ;; Parameters:    Size  Location     Type
  1411 ;;  delay           4    1[COMRAM] unsigned long 
  1412 ;; Auto vars:     Size  Location     Type
  1413 ;;		None
  1414 ;; Return value:  Size  Location     Type
  1415 ;;                  1    wreg      void 
  1416 ;; Registers used:
  1417 ;;		wreg, status,2, status,0
  1418 ;; Tracked objects:
  1419 ;;		On entry : 0/0
  1420 ;;		On exit  : 0/0
  1421 ;;		Unchanged: 0/0
  1422 ;; Data sizes:     COMRAM   BANK0   BANK1   BANK2   BANK3   BANK4   BANK5   BANK6   BANK7   BANK8   BANK9  BANK10  BANK1
      +1  BANK12  BANK13  BANK14  BANK15  BANK16  BANK17  BANK18  BANK19  BANK20  BANK21  BANK22  BANK23  BANK24  BANK25  BANK2
      +6  BANK27  BANK28  BANK29  BANK30  BANK31
  1423 ;;      Params:         4       0       0       0       0       0       0       0       0       0       0       0       
      +0       0       0       0       0       0       0       0       0       0       0       0       0       0       0       
      +0       0       0       0       0       0
  1424 ;;      Locals:         0       0       0       0       0       0       0       0       0       0       0       0       
      +0       0       0       0       0       0       0       0       0       0       0       0       0       0       0       
      +0       0       0       0       0       0
  1425 ;;      Temps:          0       0       0       0       0       0       0       0       0       0       0       0       
      +0       0       0       0       0       0       0       0       0       0       0       0       0       0       0       
      +0       0       0       0       0       0
  1426 ;;      Totals:         4       0       0       0       0       0       0       0       0       0       0       0       
      +0       0       0       0       0       0       0       0       0       0       0       0       0       0       0       
      +0       0       0       0       0       0
  1427 ;;Total ram usage:        4 bytes
  1428 ;; Hardware stack levels used:    1
  1429 ;; Hardware stack levels required when called:    3
  1430 ;; This function calls:
  1431 ;;		Nothing
  1432 ;; This function is called by:
  1433 ;;		_init_display
  1434 ;;		_send_lcd_data
  1435 ;;		_send_lcd_cmd
  1436 ;;		_send_lcd_cmd_long
  1437 ;; This function uses a non-reentrant model
  1438 ;;
  1439                           
  1440                           	psect	text11
  1441  0024CA                     __ptext11:
  1442                           	opt callstack 0
  1443  0024CA                     _wdtdelay:
  1444                           	opt callstack 26
  1445                           
  1446                           ;eadog.c: 16: static uint32_t dcount;;eadog.c: 18: for (dcount = 0; dcount <= delay; dco
      +                          unt++) {
  1447                           
  1448                           ;incstack = 0
  1449  0024CA  0E00               	movlw	0
  1450  0024CC  6E19               	movwf	wdtdelay@dcount,c
  1451  0024CE  0E00               	movlw	0
  1452  0024D0  6E1A               	movwf	wdtdelay@dcount+1,c
  1453  0024D2  0E00               	movlw	0
  1454  0024D4  6E1B               	movwf	wdtdelay@dcount+2,c
  1455  0024D6  0E00               	movlw	0
  1456  0024D8  6E1C               	movwf	wdtdelay@dcount+3,c
  1457  0024DA  D008               	goto	l888
  1458  0024DC                     l889:
  1459                           
  1460                           ;eadog.c: 19: __nop();
  1461  0024DC  F000               	nop	
  1462  0024DE  0004               	clrwdt		;# 
  1463  0024E0  0E01               	movlw	1
  1464  0024E2  2619               	addwf	wdtdelay@dcount,f,c
  1465  0024E4  0E00               	movlw	0
  1466  0024E6  221A               	addwfc	wdtdelay@dcount+1,f,c
  1467  0024E8  221B               	addwfc	wdtdelay@dcount+2,f,c
  1468  0024EA  221C               	addwfc	wdtdelay@dcount+3,f,c
  1469  0024EC                     l888:
  1470  0024EC  5019               	movf	wdtdelay@dcount,w,c
  1471  0024EE  5C47               	subwf	wdtdelay@delay,w,c
  1472  0024F0  501A               	movf	wdtdelay@dcount+1,w,c
  1473  0024F2  5848               	subwfb	wdtdelay@delay+1,w,c
  1474  0024F4  501B               	movf	wdtdelay@dcount+2,w,c
  1475  0024F6  5849               	subwfb	wdtdelay@delay+2,w,c
  1476  0024F8  501C               	movf	wdtdelay@dcount+3,w,c
  1477  0024FA  584A               	subwfb	wdtdelay@delay+3,w,c
  1478  0024FC  A0D8               	btfss	status,0,c
  1479  0024FE  0012               	return	
  1480  002500  D7ED               	goto	l889
  1481  002502                     __end_of_wdtdelay:
  1482                           	opt callstack 0
  1483                           
  1484 ;; *************** function _SPI1_Exchange8bit *****************
  1485 ;; Defined at:
  1486 ;;		line 79 in file "mcc_generated_files/spi1.c"
  1487 ;; Parameters:    Size  Location     Type
  1488 ;;  data            1    wreg     unsigned char 
  1489 ;; Auto vars:     Size  Location     Type
  1490 ;;  data            1    1[COMRAM] unsigned char 
  1491 ;; Return value:  Size  Location     Type
  1492 ;;                  1    wreg      unsigned char 
  1493 ;; Registers used:
  1494 ;;		wreg, status,2
  1495 ;; Tracked objects:
  1496 ;;		On entry : 0/0
  1497 ;;		On exit  : 0/0
  1498 ;;		Unchanged: 0/0
  1499 ;; Data sizes:     COMRAM   BANK0   BANK1   BANK2   BANK3   BANK4   BANK5   BANK6   BANK7   BANK8   BANK9  BANK10  BANK1
      +1  BANK12  BANK13  BANK14  BANK15  BANK16  BANK17  BANK18  BANK19  BANK20  BANK21  BANK22  BANK23  BANK24  BANK25  BANK2
      +6  BANK27  BANK28  BANK29  BANK30  BANK31
  1500 ;;      Params:         0       0       0       0       0       0       0       0       0       0       0       0       
      +0       0       0       0       0       0       0       0       0       0       0       0       0       0       0       
      +0       0       0       0       0       0
  1501 ;;      Locals:         1       0       0       0       0       0       0       0       0       0       0       0       
      +0       0       0       0       0       0       0       0       0       0       0       0       0       0       0       
      +0       0       0       0       0       0
  1502 ;;      Temps:          0       0       0       0       0       0       0       0       0       0       0       0       
      +0       0       0       0       0       0       0       0       0       0       0       0       0       0       0       
      +0       0       0       0       0       0
  1503 ;;      Totals:         1       0       0       0       0       0       0       0       0       0       0       0       
      +0       0       0       0       0       0       0       0       0       0       0       0       0       0       0       
      +0       0       0       0       0       0
  1504 ;;Total ram usage:        1 bytes
  1505 ;; Hardware stack levels used:    1
  1506 ;; Hardware stack levels required when called:    3
  1507 ;; This function calls:
  1508 ;;		Nothing
  1509 ;; This function is called by:
  1510 ;;		_send_lcd_data
  1511 ;;		_send_lcd_cmd
  1512 ;;		_send_lcd_cmd_long
  1513 ;;		_SPI1_Exchange8bitBuffer
  1514 ;; This function uses a non-reentrant model
  1515 ;;
  1516                           
  1517                           	psect	text12
  1518  002846                     __ptext12:
  1519                           	opt callstack 0
  1520  002846                     _SPI1_Exchange8bit:
  1521                           	opt callstack 25
  1522                           
  1523                           ;incstack = 0
  1524                           ;SPI1_Exchange8bit@data stored from wreg
  1525  002846  6E47               	movwf	SPI1_Exchange8bit@data,c
  1526                           
  1527                           ;spi1.c: 82: SPI1TCNTL = 1;
  1528  002848  0E01               	movlw	1
  1529  00284A  013D               	movlb	61	; () banked
  1530  00284C  6F12               	movwf	18,b	;volatile
  1531                           
  1532                           ; BSR set to: 61
  1533                           ;spi1.c: 83: SPI1TXB = data;
  1534  00284E  0060  F11F  FD11   	movff	SPI1_Exchange8bit@data,15633	;volatile
  1535  002854                     l821:
  1536  002854  0139               	movlb	57	; () banked
  1537  002856  A9A2               	btfss	162,4,b	;volatile
  1538  002858  D7FD               	goto	l821
  1539                           
  1540                           ; BSR set to: 57
  1541                           ;spi1.c: 87: };spi1.c: 89: return (SPI1RXB);
  1542  00285A  013D               	movlb	61	; () banked
  1543  00285C  5110               	movf	16,w,b	;volatile
  1544                           
  1545                           ; BSR set to: 61
  1546  00285E  0012               	return		;funcret
  1547  002860                     __end_of_SPI1_Exchange8bit:
  1548                           	opt callstack 0
  1549                           
  1550 ;; *************** function _SYSTEM_Initialize *****************
  1551 ;; Defined at:
  1552 ;;		line 50 in file "mcc_generated_files/mcc.c"
  1553 ;; Parameters:    Size  Location     Type
  1554 ;;		None
  1555 ;; Auto vars:     Size  Location     Type
  1556 ;;		None
  1557 ;; Return value:  Size  Location     Type
  1558 ;;                  1    wreg      void 
  1559 ;; Registers used:
  1560 ;;		wreg, status,2, status,0, cstack
  1561 ;; Tracked objects:
  1562 ;;		On entry : 0/0
  1563 ;;		On exit  : 0/0
  1564 ;;		Unchanged: 0/0
  1565 ;; Data sizes:     COMRAM   BANK0   BANK1   BANK2   BANK3   BANK4   BANK5   BANK6   BANK7   BANK8   BANK9  BANK10  BANK1
      +1  BANK12  BANK13  BANK14  BANK15  BANK16  BANK17  BANK18  BANK19  BANK20  BANK21  BANK22  BANK23  BANK24  BANK25  BANK2
      +6  BANK27  BANK28  BANK29  BANK30  BANK31
  1566 ;;      Params:         0       0       0       0       0       0       0       0       0       0       0       0       
      +0       0       0       0       0       0       0       0       0       0       0       0       0       0       0       
      +0       0       0       0       0       0
  1567 ;;      Locals:         0       0       0       0       0       0       0       0       0       0       0       0       
      +0       0       0       0       0       0       0       0       0       0       0       0       0       0       0       
      +0       0       0       0       0       0
  1568 ;;      Temps:          0       0       0       0       0       0       0       0       0       0       0       0       
      +0       0       0       0       0       0       0       0       0       0       0       0       0       0       0       
      +0       0       0       0       0       0
  1569 ;;      Totals:         0       0       0       0       0       0       0       0       0       0       0       0       
      +0       0       0       0       0       0       0       0       0       0       0       0       0       0       0       
      +0       0       0       0       0       0
  1570 ;;Total ram usage:        0 bytes
  1571 ;; Hardware stack levels used:    1
  1572 ;; Hardware stack levels required when called:    5
  1573 ;; This function calls:
  1574 ;;		_ADCC_Initialize
  1575 ;;		_EXT_INT_Initialize
  1576 ;;		_INTERRUPT_Initialize
  1577 ;;		_OSCILLATOR_Initialize
  1578 ;;		_PIN_MANAGER_Initialize
  1579 ;;		_PMD_Initialize
  1580 ;;		_SPI1_Initialize
  1581 ;;		_TMR6_Initialize
  1582 ;;		_UART1_Initialize
  1583 ;;		_UART2_Initialize
  1584 ;; This function is called by:
  1585 ;;		_main
  1586 ;; This function uses a non-reentrant model
  1587 ;;
  1588                           
  1589                           	psect	text13
  1590  0025B6                     __ptext13:
  1591                           	opt callstack 0
  1592  0025B6                     _SYSTEM_Initialize:
  1593                           	opt callstack 25
  1594                           
  1595                           ;mcc.c: 52: INTERRUPT_Initialize();
  1596                           
  1597                           ; BSR set to: 61
  1598                           ;incstack = 0
  1599  0025B6  ECFB  F011         	call	_INTERRUPT_Initialize	;wreg free
  1600                           
  1601                           ;mcc.c: 53: PMD_Initialize();
  1602  0025BA  EC39  F013         	call	_PMD_Initialize	;wreg free
  1603                           
  1604                           ;mcc.c: 54: PIN_MANAGER_Initialize();
  1605  0025BE  EC8F  F010         	call	_PIN_MANAGER_Initialize	;wreg free
  1606                           
  1607                           ;mcc.c: 55: OSCILLATOR_Initialize();
  1608  0025C2  EC08  F014         	call	_OSCILLATOR_Initialize	;wreg free
  1609                           
  1610                           ;mcc.c: 56: TMR6_Initialize();
  1611  0025C6  EC81  F012         	call	_TMR6_Initialize	;wreg free
  1612                           
  1613                           ;mcc.c: 57: ADCC_Initialize();
  1614  0025CA  EC62  F011         	call	_ADCC_Initialize	;wreg free
  1615                           
  1616                           ;mcc.c: 58: EXT_INT_Initialize();
  1617  0025CE  EC22  F012         	call	_EXT_INT_Initialize	;wreg free
  1618                           
  1619                           ;mcc.c: 59: UART2_Initialize();
  1620  0025D2  EC26  F011         	call	_UART2_Initialize	;wreg free
  1621                           
  1622                           ;mcc.c: 60: UART1_Initialize();
  1623  0025D6  ECE4  F010         	call	_UART1_Initialize	;wreg free
  1624                           
  1625                           ;mcc.c: 61: SPI1_Initialize();
  1626  0025DA  EC3D  F014         	call	_SPI1_Initialize	;wreg free
  1627  0025DE  0012               	return		;funcret
  1628  0025E0                     __end_of_SYSTEM_Initialize:
  1629                           	opt callstack 0
  1630                           
  1631 ;; *************** function _UART2_Initialize *****************
  1632 ;; Defined at:
  1633 ;;		line 78 in file "mcc_generated_files/uart2.c"
  1634 ;; Parameters:    Size  Location     Type
  1635 ;;		None
  1636 ;; Auto vars:     Size  Location     Type
  1637 ;;		None
  1638 ;; Return value:  Size  Location     Type
  1639 ;;                  1    wreg      void 
  1640 ;; Registers used:
  1641 ;;		wreg, status,2, status,0, cstack
  1642 ;; Tracked objects:
  1643 ;;		On entry : 0/0
  1644 ;;		On exit  : 0/0
  1645 ;;		Unchanged: 0/0
  1646 ;; Data sizes:     COMRAM   BANK0   BANK1   BANK2   BANK3   BANK4   BANK5   BANK6   BANK7   BANK8   BANK9  BANK10  BANK1
      +1  BANK12  BANK13  BANK14  BANK15  BANK16  BANK17  BANK18  BANK19  BANK20  BANK21  BANK22  BANK23  BANK24  BANK25  BANK2
      +6  BANK27  BANK28  BANK29  BANK30  BANK31
  1647 ;;      Params:         0       0       0       0       0       0       0       0       0       0       0       0       
      +0       0       0       0       0       0       0       0       0       0       0       0       0       0       0       
      +0       0       0       0       0       0
  1648 ;;      Locals:         0       0       0       0       0       0       0       0       0       0       0       0       
      +0       0       0       0       0       0       0       0       0       0       0       0       0       0       0       
      +0       0       0       0       0       0
  1649 ;;      Temps:          0       0       0       0       0       0       0       0       0       0       0       0       
      +0       0       0       0       0       0       0       0       0       0       0       0       0       0       0       
      +0       0       0       0       0       0
  1650 ;;      Totals:         0       0       0       0       0       0       0       0       0       0       0       0       
      +0       0       0       0       0       0       0       0       0       0       0       0       0       0       0       
      +0       0       0       0       0       0
  1651 ;;Total ram usage:        0 bytes
  1652 ;; Hardware stack levels used:    1
  1653 ;; Hardware stack levels required when called:    4
  1654 ;; This function calls:
  1655 ;;		_UART2_SetRxInterruptHandler
  1656 ;;		_UART2_SetTxInterruptHandler
  1657 ;; This function is called by:
  1658 ;;		_SYSTEM_Initialize
  1659 ;; This function uses a non-reentrant model
  1660 ;;
  1661                           
  1662                           	psect	text14
  1663  00224C                     __ptext14:
  1664                           	opt callstack 0
  1665  00224C                     _UART2_Initialize:
  1666                           	opt callstack 25
  1667                           
  1668                           ;uart2.c: 81: PIE6bits.U2RXIE = 0;
  1669                           
  1670                           ;incstack = 0
  1671  00224C  0139               	movlb	57	; () banked
  1672  00224E  9596               	bcf	150,2,b	;volatile
  1673                           
  1674                           ; BSR set to: 57
  1675                           ;uart2.c: 82: UART2_SetRxInterruptHandler(UART2_Receive_ISR);
  1676  002250  0EAA               	movlw	low _UART2_Receive_ISR
  1677  002252  6E47               	movwf	UART2_SetRxInterruptHandler@InterruptHandler,c
  1678  002254  0E27               	movlw	high _UART2_Receive_ISR
  1679  002256  6E48               	movwf	UART2_SetRxInterruptHandler@InterruptHandler+1,c
  1680  002258  0E00               	movlw	low (_UART2_Receive_ISR shr (0+16))
  1681  00225A  6E49               	movwf	UART2_SetRxInterruptHandler@InterruptHandler+2,c
  1682  00225C  EC53  F014         	call	_UART2_SetRxInterruptHandler	;wreg free
  1683                           
  1684                           ;uart2.c: 83: PIE6bits.U2TXIE = 0;
  1685  002260  0139               	movlb	57	; () banked
  1686  002262  9796               	bcf	150,3,b	;volatile
  1687                           
  1688                           ;uart2.c: 84: UART2_SetTxInterruptHandler(UART2_Transmit_ISR);
  1689  002264  0E5E               	movlw	low _UART2_Transmit_ISR
  1690  002266  6E47               	movwf	UART2_SetTxInterruptHandler@InterruptHandler,c
  1691  002268  0E25               	movlw	high _UART2_Transmit_ISR
  1692  00226A  6E48               	movwf	UART2_SetTxInterruptHandler@InterruptHandler+1,c
  1693  00226C  0E00               	movlw	low (_UART2_Transmit_ISR shr (0+16))
  1694  00226E  6E49               	movwf	UART2_SetTxInterruptHandler@InterruptHandler+2,c
  1695  002270  EC49  F014         	call	_UART2_SetTxInterruptHandler	;wreg free
  1696                           
  1697                           ;uart2.c: 89: U2P1L = 0x00;
  1698  002274  0E00               	movlw	0
  1699  002276  013D               	movlb	61	; () banked
  1700  002278  6FD4               	movwf	212,b	;volatile
  1701                           
  1702                           ; BSR set to: 61
  1703                           ;uart2.c: 92: U2P2L = 0x00;
  1704  00227A  0E00               	movlw	0
  1705  00227C  6FD6               	movwf	214,b	;volatile
  1706                           
  1707                           ; BSR set to: 61
  1708                           ;uart2.c: 95: U2P3L = 0x00;
  1709  00227E  0E00               	movlw	0
  1710  002280  6FD8               	movwf	216,b	;volatile
  1711                           
  1712                           ; BSR set to: 61
  1713                           ;uart2.c: 98: U2CON0 = 0xB0;
  1714  002282  0EB0               	movlw	176
  1715  002284  6FDA               	movwf	218,b	;volatile
  1716                           
  1717                           ; BSR set to: 61
  1718                           ;uart2.c: 101: U2CON1 = 0x80;
  1719  002286  0E80               	movlw	128
  1720  002288  6FDB               	movwf	219,b	;volatile
  1721                           
  1722                           ; BSR set to: 61
  1723                           ;uart2.c: 104: U2CON2 = 0x00;
  1724  00228A  0E00               	movlw	0
  1725  00228C  6FDC               	movwf	220,b	;volatile
  1726                           
  1727                           ; BSR set to: 61
  1728                           ;uart2.c: 107: U2BRGL = 0x40;
  1729  00228E  0E40               	movlw	64
  1730  002290  6FDD               	movwf	221,b	;volatile
  1731                           
  1732                           ; BSR set to: 61
  1733                           ;uart2.c: 110: U2BRGH = 0x03;
  1734  002292  0E03               	movlw	3
  1735  002294  6FDE               	movwf	222,b	;volatile
  1736                           
  1737                           ; BSR set to: 61
  1738                           ;uart2.c: 113: U2FIFO = 0x00;
  1739  002296  0E00               	movlw	0
  1740  002298  6FDF               	movwf	223,b	;volatile
  1741                           
  1742                           ; BSR set to: 61
  1743                           ;uart2.c: 116: U2UIR = 0x00;
  1744  00229A  0E00               	movlw	0
  1745  00229C  6FE0               	movwf	224,b	;volatile
  1746                           
  1747                           ; BSR set to: 61
  1748                           ;uart2.c: 119: U2ERRIR = 0x00;
  1749  00229E  0E00               	movlw	0
  1750  0022A0  6FE1               	movwf	225,b	;volatile
  1751                           
  1752                           ; BSR set to: 61
  1753                           ;uart2.c: 122: U2ERRIE = 0x00;
  1754  0022A2  0E00               	movlw	0
  1755  0022A4  6FE2               	movwf	226,b	;volatile
  1756                           
  1757                           ; BSR set to: 61
  1758                           ;uart2.c: 126: uart2TxHead = 0;
  1759  0022A6  0E00               	movlw	0
  1760  0022A8  6E3F               	movwf	_uart2TxHead,c	;volatile
  1761                           
  1762                           ; BSR set to: 61
  1763                           ;uart2.c: 127: uart2TxTail = 0;
  1764  0022AA  0E00               	movlw	0
  1765  0022AC  6E3E               	movwf	_uart2TxTail,c	;volatile
  1766                           
  1767                           ; BSR set to: 61
  1768                           ;uart2.c: 128: uart2TxBufferRemaining = sizeof(uart2TxBuffer);
  1769  0022AE  0E08               	movlw	8
  1770  0022B0  6E3D               	movwf	_uart2TxBufferRemaining,c	;volatile
  1771                           
  1772                           ; BSR set to: 61
  1773                           ;uart2.c: 129: uart2RxHead = 0;
  1774  0022B2  0E00               	movlw	0
  1775  0022B4  6E3C               	movwf	_uart2RxHead,c	;volatile
  1776                           
  1777                           ; BSR set to: 61
  1778                           ;uart2.c: 130: uart2RxTail = 0;
  1779  0022B6  0E00               	movlw	0
  1780  0022B8  6E3B               	movwf	_uart2RxTail,c	;volatile
  1781                           
  1782                           ; BSR set to: 61
  1783                           ;uart2.c: 131: uart2RxCount = 0;
  1784  0022BA  0E00               	movlw	0
  1785  0022BC  6E3A               	movwf	_uart2RxCount,c	;volatile
  1786                           
  1787                           ; BSR set to: 61
  1788                           ;uart2.c: 134: PIE6bits.U2RXIE = 1;
  1789  0022BE  0139               	movlb	57	; () banked
  1790  0022C0  8596               	bsf	150,2,b	;volatile
  1791                           
  1792                           ; BSR set to: 57
  1793  0022C2  0012               	return		;funcret
  1794  0022C4                     __end_of_UART2_Initialize:
  1795                           	opt callstack 0
  1796                           
  1797 ;; *************** function _UART2_SetTxInterruptHandler *****************
  1798 ;; Defined at:
  1799 ;;		line 252 in file "mcc_generated_files/uart2.c"
  1800 ;; Parameters:    Size  Location     Type
  1801 ;;  InterruptHan    3    1[COMRAM] PTR FTN()void 
  1802 ;;		 -> UART2_Transmit_ISR(1), 
  1803 ;; Auto vars:     Size  Location     Type
  1804 ;;		None
  1805 ;; Return value:  Size  Location     Type
  1806 ;;                  1    wreg      void 
  1807 ;; Registers used:
  1808 ;;		wreg, status,2, status,0
  1809 ;; Tracked objects:
  1810 ;;		On entry : 0/0
  1811 ;;		On exit  : 0/0
  1812 ;;		Unchanged: 0/0
  1813 ;; Data sizes:     COMRAM   BANK0   BANK1   BANK2   BANK3   BANK4   BANK5   BANK6   BANK7   BANK8   BANK9  BANK10  BANK1
      +1  BANK12  BANK13  BANK14  BANK15  BANK16  BANK17  BANK18  BANK19  BANK20  BANK21  BANK22  BANK23  BANK24  BANK25  BANK2
      +6  BANK27  BANK28  BANK29  BANK30  BANK31
  1814 ;;      Params:         3       0       0       0       0       0       0       0       0       0       0       0       
      +0       0       0       0       0       0       0       0       0       0       0       0       0       0       0       
      +0       0       0       0       0       0
  1815 ;;      Locals:         0       0       0       0       0       0       0       0       0       0       0       0       
      +0       0       0       0       0       0       0       0       0       0       0       0       0       0       0       
      +0       0       0       0       0       0
  1816 ;;      Temps:          0       0       0       0       0       0       0       0       0       0       0       0       
      +0       0       0       0       0       0       0       0       0       0       0       0       0       0       0       
      +0       0       0       0       0       0
  1817 ;;      Totals:         3       0       0       0       0       0       0       0       0       0       0       0       
      +0       0       0       0       0       0       0       0       0       0       0       0       0       0       0       
      +0       0       0       0       0       0
  1818 ;;Total ram usage:        3 bytes
  1819 ;; Hardware stack levels used:    1
  1820 ;; Hardware stack levels required when called:    3
  1821 ;; This function calls:
  1822 ;;		Nothing
  1823 ;; This function is called by:
  1824 ;;		_UART2_Initialize
  1825 ;; This function uses a non-reentrant model
  1826 ;;
  1827                           
  1828                           	psect	text15
  1829  002892                     __ptext15:
  1830                           	opt callstack 0
  1831  002892                     _UART2_SetTxInterruptHandler:
  1832                           	opt callstack 25
  1833                           
  1834                           ;uart2.c: 253: UART2_TxInterruptHandler = InterruptHandler;
  1835                           
  1836                           ; BSR set to: 57
  1837                           ;incstack = 0
  1838  002892  0060  F11C  F029   	movff	UART2_SetTxInterruptHandler@InterruptHandler,_UART2_TxInterruptHandler
  1839  002898  0060  F120  F02A   	movff	UART2_SetTxInterruptHandler@InterruptHandler+1,_UART2_TxInterruptHandler+1
  1840  00289E  0060  F124  F02B   	movff	UART2_SetTxInterruptHandler@InterruptHandler+2,_UART2_TxInterruptHandler+2
  1841  0028A4  0012               	return		;funcret
  1842  0028A6                     __end_of_UART2_SetTxInterruptHandler:
  1843                           	opt callstack 0
  1844                           
  1845 ;; *************** function _UART2_SetRxInterruptHandler *****************
  1846 ;; Defined at:
  1847 ;;		line 248 in file "mcc_generated_files/uart2.c"
  1848 ;; Parameters:    Size  Location     Type
  1849 ;;  InterruptHan    3    1[COMRAM] PTR FTN()void 
  1850 ;;		 -> UART2_Receive_ISR(1), 
  1851 ;; Auto vars:     Size  Location     Type
  1852 ;;		None
  1853 ;; Return value:  Size  Location     Type
  1854 ;;                  1    wreg      void 
  1855 ;; Registers used:
  1856 ;;		wreg, status,2, status,0
  1857 ;; Tracked objects:
  1858 ;;		On entry : 0/0
  1859 ;;		On exit  : 0/0
  1860 ;;		Unchanged: 0/0
  1861 ;; Data sizes:     COMRAM   BANK0   BANK1   BANK2   BANK3   BANK4   BANK5   BANK6   BANK7   BANK8   BANK9  BANK10  BANK1
      +1  BANK12  BANK13  BANK14  BANK15  BANK16  BANK17  BANK18  BANK19  BANK20  BANK21  BANK22  BANK23  BANK24  BANK25  BANK2
      +6  BANK27  BANK28  BANK29  BANK30  BANK31
  1862 ;;      Params:         3       0       0       0       0       0       0       0       0       0       0       0       
      +0       0       0       0       0       0       0       0       0       0       0       0       0       0       0       
      +0       0       0       0       0       0
  1863 ;;      Locals:         0       0       0       0       0       0       0       0       0       0       0       0       
      +0       0       0       0       0       0       0       0       0       0       0       0       0       0       0       
      +0       0       0       0       0       0
  1864 ;;      Temps:          0       0       0       0       0       0       0       0       0       0       0       0       
      +0       0       0       0       0       0       0       0       0       0       0       0       0       0       0       
      +0       0       0       0       0       0
  1865 ;;      Totals:         3       0       0       0       0       0       0       0       0       0       0       0       
      +0       0       0       0       0       0       0       0       0       0       0       0       0       0       0       
      +0       0       0       0       0       0
  1866 ;;Total ram usage:        3 bytes
  1867 ;; Hardware stack levels used:    1
  1868 ;; Hardware stack levels required when called:    3
  1869 ;; This function calls:
  1870 ;;		Nothing
  1871 ;; This function is called by:
  1872 ;;		_UART2_Initialize
  1873 ;; This function uses a non-reentrant model
  1874 ;;
  1875                           
  1876                           	psect	text16
  1877  0028A6                     __ptext16:
  1878                           	opt callstack 0
  1879  0028A6                     _UART2_SetRxInterruptHandler:
  1880                           	opt callstack 25
  1881                           
  1882                           ;uart2.c: 249: UART2_RxInterruptHandler = InterruptHandler;
  1883                           
  1884                           ;incstack = 0
  1885  0028A6  0060  F11C  F02C   	movff	UART2_SetRxInterruptHandler@InterruptHandler,_UART2_RxInterruptHandler
  1886  0028AC  0060  F120  F02D   	movff	UART2_SetRxInterruptHandler@InterruptHandler+1,_UART2_RxInterruptHandler+1
  1887  0028B2  0060  F124  F02E   	movff	UART2_SetRxInterruptHandler@InterruptHandler+2,_UART2_RxInterruptHandler+2
  1888  0028B8  0012               	return		;funcret
  1889  0028BA                     __end_of_UART2_SetRxInterruptHandler:
  1890                           	opt callstack 0
  1891                           
  1892 ;; *************** function _UART1_Initialize *****************
  1893 ;; Defined at:
  1894 ;;		line 78 in file "mcc_generated_files/uart1.c"
  1895 ;; Parameters:    Size  Location     Type
  1896 ;;		None
  1897 ;; Auto vars:     Size  Location     Type
  1898 ;;		None
  1899 ;; Return value:  Size  Location     Type
  1900 ;;                  1    wreg      void 
  1901 ;; Registers used:
  1902 ;;		wreg, status,2, status,0, cstack
  1903 ;; Tracked objects:
  1904 ;;		On entry : 0/0
  1905 ;;		On exit  : 0/0
  1906 ;;		Unchanged: 0/0
  1907 ;; Data sizes:     COMRAM   BANK0   BANK1   BANK2   BANK3   BANK4   BANK5   BANK6   BANK7   BANK8   BANK9  BANK10  BANK1
      +1  BANK12  BANK13  BANK14  BANK15  BANK16  BANK17  BANK18  BANK19  BANK20  BANK21  BANK22  BANK23  BANK24  BANK25  BANK2
      +6  BANK27  BANK28  BANK29  BANK30  BANK31
  1908 ;;      Params:         0       0       0       0       0       0       0       0       0       0       0       0       
      +0       0       0       0       0       0       0       0       0       0       0       0       0       0       0       
      +0       0       0       0       0       0
  1909 ;;      Locals:         0       0       0       0       0       0       0       0       0       0       0       0       
      +0       0       0       0       0       0       0       0       0       0       0       0       0       0       0       
      +0       0       0       0       0       0
  1910 ;;      Temps:          0       0       0       0       0       0       0       0       0       0       0       0       
      +0       0       0       0       0       0       0       0       0       0       0       0       0       0       0       
      +0       0       0       0       0       0
  1911 ;;      Totals:         0       0       0       0       0       0       0       0       0       0       0       0       
      +0       0       0       0       0       0       0       0       0       0       0       0       0       0       0       
      +0       0       0       0       0       0
  1912 ;;Total ram usage:        0 bytes
  1913 ;; Hardware stack levels used:    1
  1914 ;; Hardware stack levels required when called:    4
  1915 ;; This function calls:
  1916 ;;		_UART1_SetRxInterruptHandler
  1917 ;;		_UART1_SetTxInterruptHandler
  1918 ;; This function is called by:
  1919 ;;		_SYSTEM_Initialize
  1920 ;; This function uses a non-reentrant model
  1921 ;;
  1922                           
  1923                           	psect	text17
  1924  0021C8                     __ptext17:
  1925                           	opt callstack 0
  1926  0021C8                     _UART1_Initialize:
  1927                           	opt callstack 25
  1928                           
  1929                           ;uart1.c: 81: PIE3bits.U1RXIE = 0;
  1930                           
  1931                           ;incstack = 0
  1932  0021C8  0139               	movlb	57	; () banked
  1933  0021CA  9793               	bcf	147,3,b	;volatile
  1934                           
  1935                           ; BSR set to: 57
  1936                           ;uart1.c: 82: UART1_SetRxInterruptHandler(UART1_Receive_ISR);
  1937  0021CC  0E42               	movlw	low _UART1_Receive_ISR
  1938  0021CE  6E47               	movwf	UART1_SetRxInterruptHandler@InterruptHandler,c
  1939  0021D0  0E27               	movlw	high _UART1_Receive_ISR
  1940  0021D2  6E48               	movwf	UART1_SetRxInterruptHandler@InterruptHandler+1,c
  1941  0021D4  0E00               	movlw	low (_UART1_Receive_ISR shr (0+16))
  1942  0021D6  6E49               	movwf	UART1_SetRxInterruptHandler@InterruptHandler+2,c
  1943  0021D8  EC67  F014         	call	_UART1_SetRxInterruptHandler	;wreg free
  1944                           
  1945                           ;uart1.c: 83: PIE3bits.U1TXIE = 0;
  1946  0021DC  0139               	movlb	57	; () banked
  1947  0021DE  9993               	bcf	147,4,b	;volatile
  1948                           
  1949                           ;uart1.c: 84: UART1_SetTxInterruptHandler(UART1_Transmit_ISR);
  1950  0021E0  0E30               	movlw	low _UART1_Transmit_ISR
  1951  0021E2  6E47               	movwf	UART1_SetTxInterruptHandler@InterruptHandler,c
  1952  0021E4  0E25               	movlw	high _UART1_Transmit_ISR
  1953  0021E6  6E48               	movwf	UART1_SetTxInterruptHandler@InterruptHandler+1,c
  1954  0021E8  0E00               	movlw	low (_UART1_Transmit_ISR shr (0+16))
  1955  0021EA  6E49               	movwf	UART1_SetTxInterruptHandler@InterruptHandler+2,c
  1956  0021EC  EC5D  F014         	call	_UART1_SetTxInterruptHandler	;wreg free
  1957                           
  1958                           ;uart1.c: 89: U1P1L = 0x00;
  1959  0021F0  0E00               	movlw	0
  1960  0021F2  013D               	movlb	61	; () banked
  1961  0021F4  6FEC               	movwf	236,b	;volatile
  1962                           
  1963                           ; BSR set to: 61
  1964                           ;uart1.c: 92: U1P1H = 0x00;
  1965  0021F6  0E00               	movlw	0
  1966  0021F8  6FED               	movwf	237,b	;volatile
  1967                           
  1968                           ; BSR set to: 61
  1969                           ;uart1.c: 95: U1P2L = 0x00;
  1970  0021FA  0E00               	movlw	0
  1971  0021FC  6FEE               	movwf	238,b	;volatile
  1972                           
  1973                           ; BSR set to: 61
  1974                           ;uart1.c: 98: U1P2H = 0x00;
  1975  0021FE  0E00               	movlw	0
  1976  002200  6FEF               	movwf	239,b	;volatile
  1977                           
  1978                           ; BSR set to: 61
  1979                           ;uart1.c: 101: U1P3L = 0x00;
  1980  002202  0E00               	movlw	0
  1981  002204  6FF0               	movwf	240,b	;volatile
  1982                           
  1983                           ; BSR set to: 61
  1984                           ;uart1.c: 104: U1P3H = 0x00;
  1985  002206  0E00               	movlw	0
  1986  002208  6FF1               	movwf	241,b	;volatile
  1987                           
  1988                           ; BSR set to: 61
  1989                           ;uart1.c: 107: U1CON0 = 0xB0;
  1990  00220A  0EB0               	movlw	176
  1991  00220C  6FF2               	movwf	242,b	;volatile
  1992                           
  1993                           ; BSR set to: 61
  1994                           ;uart1.c: 110: U1CON1 = 0x80;
  1995  00220E  0E80               	movlw	128
  1996  002210  6FF3               	movwf	243,b	;volatile
  1997                           
  1998                           ; BSR set to: 61
  1999                           ;uart1.c: 113: U1CON2 = 0x00;
  2000  002212  0E00               	movlw	0
  2001  002214  6FF4               	movwf	244,b	;volatile
  2002                           
  2003                           ; BSR set to: 61
  2004                           ;uart1.c: 116: U1BRGL = 0x40;
  2005  002216  0E40               	movlw	64
  2006  002218  6FF5               	movwf	245,b	;volatile
  2007                           
  2008                           ; BSR set to: 61
  2009                           ;uart1.c: 119: U1BRGH = 0x03;
  2010  00221A  0E03               	movlw	3
  2011  00221C  6FF6               	movwf	246,b	;volatile
  2012                           
  2013                           ; BSR set to: 61
  2014                           ;uart1.c: 122: U1FIFO = 0x00;
  2015  00221E  0E00               	movlw	0
  2016  002220  6FF7               	movwf	247,b	;volatile
  2017                           
  2018                           ; BSR set to: 61
  2019                           ;uart1.c: 125: U1UIR = 0x00;
  2020  002222  0E00               	movlw	0
  2021  002224  6FF8               	movwf	248,b	;volatile
  2022                           
  2023                           ; BSR set to: 61
  2024                           ;uart1.c: 128: U1ERRIR = 0x00;
  2025  002226  0E00               	movlw	0
  2026  002228  6FF9               	movwf	249,b	;volatile
  2027                           
  2028                           ; BSR set to: 61
  2029                           ;uart1.c: 131: U1ERRIE = 0x00;
  2030  00222A  0E00               	movlw	0
  2031  00222C  6FFA               	movwf	250,b	;volatile
  2032                           
  2033                           ; BSR set to: 61
  2034                           ;uart1.c: 135: uart1TxHead = 0;
  2035  00222E  0E00               	movlw	0
  2036  002230  6E45               	movwf	_uart1TxHead,c	;volatile
  2037                           
  2038                           ; BSR set to: 61
  2039                           ;uart1.c: 136: uart1TxTail = 0;
  2040  002232  0E00               	movlw	0
  2041  002234  6E44               	movwf	_uart1TxTail,c	;volatile
  2042                           
  2043                           ; BSR set to: 61
  2044                           ;uart1.c: 137: uart1TxBufferRemaining = sizeof(uart1TxBuffer);
  2045  002236  0E08               	movlw	8
  2046  002238  6E43               	movwf	_uart1TxBufferRemaining,c	;volatile
  2047                           
  2048                           ; BSR set to: 61
  2049                           ;uart1.c: 138: uart1RxHead = 0;
  2050  00223A  0E00               	movlw	0
  2051  00223C  6E42               	movwf	_uart1RxHead,c	;volatile
  2052                           
  2053                           ; BSR set to: 61
  2054                           ;uart1.c: 139: uart1RxTail = 0;
  2055  00223E  0E00               	movlw	0
  2056  002240  6E41               	movwf	_uart1RxTail,c	;volatile
  2057                           
  2058                           ; BSR set to: 61
  2059                           ;uart1.c: 140: uart1RxCount = 0;
  2060  002242  0E00               	movlw	0
  2061  002244  6E40               	movwf	_uart1RxCount,c	;volatile
  2062                           
  2063                           ; BSR set to: 61
  2064                           ;uart1.c: 143: PIE3bits.U1RXIE = 1;
  2065  002246  0139               	movlb	57	; () banked
  2066  002248  8793               	bsf	147,3,b	;volatile
  2067                           
  2068                           ; BSR set to: 57
  2069  00224A  0012               	return		;funcret
  2070  00224C                     __end_of_UART1_Initialize:
  2071                           	opt callstack 0
  2072                           
  2073 ;; *************** function _UART1_SetTxInterruptHandler *****************
  2074 ;; Defined at:
  2075 ;;		line 261 in file "mcc_generated_files/uart1.c"
  2076 ;; Parameters:    Size  Location     Type
  2077 ;;  InterruptHan    3    1[COMRAM] PTR FTN()void 
  2078 ;;		 -> UART1_Transmit_ISR(1), 
  2079 ;; Auto vars:     Size  Location     Type
  2080 ;;		None
  2081 ;; Return value:  Size  Location     Type
  2082 ;;                  1    wreg      void 
  2083 ;; Registers used:
  2084 ;;		wreg, status,2, status,0
  2085 ;; Tracked objects:
  2086 ;;		On entry : 0/0
  2087 ;;		On exit  : 0/0
  2088 ;;		Unchanged: 0/0
  2089 ;; Data sizes:     COMRAM   BANK0   BANK1   BANK2   BANK3   BANK4   BANK5   BANK6   BANK7   BANK8   BANK9  BANK10  BANK1
      +1  BANK12  BANK13  BANK14  BANK15  BANK16  BANK17  BANK18  BANK19  BANK20  BANK21  BANK22  BANK23  BANK24  BANK25  BANK2
      +6  BANK27  BANK28  BANK29  BANK30  BANK31
  2090 ;;      Params:         3       0       0       0       0       0       0       0       0       0       0       0       
      +0       0       0       0       0       0       0       0       0       0       0       0       0       0       0       
      +0       0       0       0       0       0
  2091 ;;      Locals:         0       0       0       0       0       0       0       0       0       0       0       0       
      +0       0       0       0       0       0       0       0       0       0       0       0       0       0       0       
      +0       0       0       0       0       0
  2092 ;;      Temps:          0       0       0       0       0       0       0       0       0       0       0       0       
      +0       0       0       0       0       0       0       0       0       0       0       0       0       0       0       
      +0       0       0       0       0       0
  2093 ;;      Totals:         3       0       0       0       0       0       0       0       0       0       0       0       
      +0       0       0       0       0       0       0       0       0       0       0       0       0       0       0       
      +0       0       0       0       0       0
  2094 ;;Total ram usage:        3 bytes
  2095 ;; Hardware stack levels used:    1
  2096 ;; Hardware stack levels required when called:    3
  2097 ;; This function calls:
  2098 ;;		Nothing
  2099 ;; This function is called by:
  2100 ;;		_UART1_Initialize
  2101 ;; This function uses a non-reentrant model
  2102 ;;
  2103                           
  2104                           	psect	text18
  2105  0028BA                     __ptext18:
  2106                           	opt callstack 0
  2107  0028BA                     _UART1_SetTxInterruptHandler:
  2108                           	opt callstack 25
  2109                           
  2110                           ;uart1.c: 262: UART1_TxInterruptHandler = InterruptHandler;
  2111                           
  2112                           ; BSR set to: 57
  2113                           ;incstack = 0
  2114  0028BA  0060  F11C  F023   	movff	UART1_SetTxInterruptHandler@InterruptHandler,_UART1_TxInterruptHandler
  2115  0028C0  0060  F120  F024   	movff	UART1_SetTxInterruptHandler@InterruptHandler+1,_UART1_TxInterruptHandler+1
  2116  0028C6  0060  F124  F025   	movff	UART1_SetTxInterruptHandler@InterruptHandler+2,_UART1_TxInterruptHandler+2
  2117  0028CC  0012               	return		;funcret
  2118  0028CE                     __end_of_UART1_SetTxInterruptHandler:
  2119                           	opt callstack 0
  2120                           
  2121 ;; *************** function _UART1_SetRxInterruptHandler *****************
  2122 ;; Defined at:
  2123 ;;		line 257 in file "mcc_generated_files/uart1.c"
  2124 ;; Parameters:    Size  Location     Type
  2125 ;;  InterruptHan    3    1[COMRAM] PTR FTN()void 
  2126 ;;		 -> UART1_Receive_ISR(1), 
  2127 ;; Auto vars:     Size  Location     Type
  2128 ;;		None
  2129 ;; Return value:  Size  Location     Type
  2130 ;;                  1    wreg      void 
  2131 ;; Registers used:
  2132 ;;		wreg, status,2, status,0
  2133 ;; Tracked objects:
  2134 ;;		On entry : 0/0
  2135 ;;		On exit  : 0/0
  2136 ;;		Unchanged: 0/0
  2137 ;; Data sizes:     COMRAM   BANK0   BANK1   BANK2   BANK3   BANK4   BANK5   BANK6   BANK7   BANK8   BANK9  BANK10  BANK1
      +1  BANK12  BANK13  BANK14  BANK15  BANK16  BANK17  BANK18  BANK19  BANK20  BANK21  BANK22  BANK23  BANK24  BANK25  BANK2
      +6  BANK27  BANK28  BANK29  BANK30  BANK31
  2138 ;;      Params:         3       0       0       0       0       0       0       0       0       0       0       0       
      +0       0       0       0       0       0       0       0       0       0       0       0       0       0       0       
      +0       0       0       0       0       0
  2139 ;;      Locals:         0       0       0       0       0       0       0       0       0       0       0       0       
      +0       0       0       0       0       0       0       0       0       0       0       0       0       0       0       
      +0       0       0       0       0       0
  2140 ;;      Temps:          0       0       0       0       0       0       0       0       0       0       0       0       
      +0       0       0       0       0       0       0       0       0       0       0       0       0       0       0       
      +0       0       0       0       0       0
  2141 ;;      Totals:         3       0       0       0       0       0       0       0       0       0       0       0       
      +0       0       0       0       0       0       0       0       0       0       0       0       0       0       0       
      +0       0       0       0       0       0
  2142 ;;Total ram usage:        3 bytes
  2143 ;; Hardware stack levels used:    1
  2144 ;; Hardware stack levels required when called:    3
  2145 ;; This function calls:
  2146 ;;		Nothing
  2147 ;; This function is called by:
  2148 ;;		_UART1_Initialize
  2149 ;; This function uses a non-reentrant model
  2150 ;;
  2151                           
  2152                           	psect	text19
  2153  0028CE                     __ptext19:
  2154                           	opt callstack 0
  2155  0028CE                     _UART1_SetRxInterruptHandler:
  2156                           	opt callstack 25
  2157                           
  2158                           ;uart1.c: 258: UART1_RxInterruptHandler = InterruptHandler;
  2159                           
  2160                           ;incstack = 0
  2161  0028CE  0060  F11C  F026   	movff	UART1_SetRxInterruptHandler@InterruptHandler,_UART1_RxInterruptHandler
  2162  0028D4  0060  F120  F027   	movff	UART1_SetRxInterruptHandler@InterruptHandler+1,_UART1_RxInterruptHandler+1
  2163  0028DA  0060  F124  F028   	movff	UART1_SetRxInterruptHandler@InterruptHandler+2,_UART1_RxInterruptHandler+2
  2164  0028E0  0012               	return		;funcret
  2165  0028E2                     __end_of_UART1_SetRxInterruptHandler:
  2166                           	opt callstack 0
  2167                           
  2168 ;; *************** function _TMR6_Initialize *****************
  2169 ;; Defined at:
  2170 ;;		line 67 in file "mcc_generated_files/tmr6.c"
  2171 ;; Parameters:    Size  Location     Type
  2172 ;;		None
  2173 ;; Auto vars:     Size  Location     Type
  2174 ;;		None
  2175 ;; Return value:  Size  Location     Type
  2176 ;;                  1    wreg      void 
  2177 ;; Registers used:
  2178 ;;		wreg, status,2, status,0, cstack
  2179 ;; Tracked objects:
  2180 ;;		On entry : 0/0
  2181 ;;		On exit  : 0/0
  2182 ;;		Unchanged: 0/0
  2183 ;; Data sizes:     COMRAM   BANK0   BANK1   BANK2   BANK3   BANK4   BANK5   BANK6   BANK7   BANK8   BANK9  BANK10  BANK1
      +1  BANK12  BANK13  BANK14  BANK15  BANK16  BANK17  BANK18  BANK19  BANK20  BANK21  BANK22  BANK23  BANK24  BANK25  BANK2
      +6  BANK27  BANK28  BANK29  BANK30  BANK31
  2184 ;;      Params:         0       0       0       0       0       0       0       0       0       0       0       0       
      +0       0       0       0       0       0       0       0       0       0       0       0       0       0       0       
      +0       0       0       0       0       0
  2185 ;;      Locals:         0       0       0       0       0       0       0       0       0       0       0       0       
      +0       0       0       0       0       0       0       0       0       0       0       0       0       0       0       
      +0       0       0       0       0       0
  2186 ;;      Temps:          0       0       0       0       0       0       0       0       0       0       0       0       
      +0       0       0       0       0       0       0       0       0       0       0       0       0       0       0       
      +0       0       0       0       0       0
  2187 ;;      Totals:         0       0       0       0       0       0       0       0       0       0       0       0       
      +0       0       0       0       0       0       0       0       0       0       0       0       0       0       0       
      +0       0       0       0       0       0
  2188 ;;Total ram usage:        0 bytes
  2189 ;; Hardware stack levels used:    1
  2190 ;; Hardware stack levels required when called:    4
  2191 ;; This function calls:
  2192 ;;		_TMR6_SetInterruptHandler
  2193 ;; This function is called by:
  2194 ;;		_SYSTEM_Initialize
  2195 ;; This function uses a non-reentrant model
  2196 ;;
  2197                           
  2198                           	psect	text20
  2199  002502                     __ptext20:
  2200                           	opt callstack 0
  2201  002502                     _TMR6_Initialize:
  2202                           	opt callstack 25
  2203                           
  2204                           ;tmr6.c: 72: T6CLKCON = 0x01;
  2205                           
  2206                           ;incstack = 0
  2207  002502  0E01               	movlw	1
  2208  002504  6E96               	movwf	16278,c	;volatile
  2209                           
  2210                           ;tmr6.c: 75: T6HLT = 0x00;
  2211  002506  0E00               	movlw	0
  2212  002508  6E95               	movwf	16277,c	;volatile
  2213                           
  2214                           ;tmr6.c: 78: T6RST = 0x00;
  2215  00250A  0E00               	movlw	0
  2216  00250C  6E97               	movwf	16279,c	;volatile
  2217                           
  2218                           ;tmr6.c: 81: T6PR = 0x4D;
  2219  00250E  0E4D               	movlw	77
  2220  002510  6E93               	movwf	16275,c	;volatile
  2221                           
  2222                           ;tmr6.c: 84: T6TMR = 0x00;
  2223  002512  0E00               	movlw	0
  2224  002514  6E92               	movwf	16274,c	;volatile
  2225                           
  2226                           ;tmr6.c: 87: PIR9bits.TMR6IF = 0;
  2227  002516  0139               	movlb	57	; () banked
  2228  002518  91A9               	bcf	169,0,b	;volatile
  2229                           
  2230                           ; BSR set to: 57
  2231                           ;tmr6.c: 90: PIE9bits.TMR6IE = 1;
  2232  00251A  8199               	bsf	153,0,b	;volatile
  2233                           
  2234                           ; BSR set to: 57
  2235                           ;tmr6.c: 93: TMR6_SetInterruptHandler(TMR6_DefaultInterruptHandler);
  2236  00251C  0E60               	movlw	low _TMR6_DefaultInterruptHandler
  2237  00251E  6E47               	movwf	TMR6_SetInterruptHandler@InterruptHandler,c
  2238  002520  0E28               	movlw	high _TMR6_DefaultInterruptHandler
  2239  002522  6E48               	movwf	TMR6_SetInterruptHandler@InterruptHandler+1,c
  2240  002524  0E00               	movlw	low (_TMR6_DefaultInterruptHandler shr (0+16))
  2241  002526  6E49               	movwf	TMR6_SetInterruptHandler@InterruptHandler+2,c
  2242  002528  EC71  F014         	call	_TMR6_SetInterruptHandler	;wreg free
  2243                           
  2244                           ;tmr6.c: 96: T6CON = 0xFF;
  2245  00252C  6894               	setf	16276,c	;volatile
  2246  00252E  0012               	return		;funcret
  2247  002530                     __end_of_TMR6_Initialize:
  2248                           	opt callstack 0
  2249                           
  2250 ;; *************** function _TMR6_SetInterruptHandler *****************
  2251 ;; Defined at:
  2252 ;;		line 196 in file "mcc_generated_files/tmr6.c"
  2253 ;; Parameters:    Size  Location     Type
  2254 ;;  InterruptHan    3    1[COMRAM] PTR FTN()void 
  2255 ;;		 -> TMR6_DefaultInterruptHandler(1), 
  2256 ;; Auto vars:     Size  Location     Type
  2257 ;;		None
  2258 ;; Return value:  Size  Location     Type
  2259 ;;                  1    wreg      void 
  2260 ;; Registers used:
  2261 ;;		wreg, status,2, status,0
  2262 ;; Tracked objects:
  2263 ;;		On entry : 0/0
  2264 ;;		On exit  : 0/0
  2265 ;;		Unchanged: 0/0
  2266 ;; Data sizes:     COMRAM   BANK0   BANK1   BANK2   BANK3   BANK4   BANK5   BANK6   BANK7   BANK8   BANK9  BANK10  BANK1
      +1  BANK12  BANK13  BANK14  BANK15  BANK16  BANK17  BANK18  BANK19  BANK20  BANK21  BANK22  BANK23  BANK24  BANK25  BANK2
      +6  BANK27  BANK28  BANK29  BANK30  BANK31
  2267 ;;      Params:         3       0       0       0       0       0       0       0       0       0       0       0       
      +0       0       0       0       0       0       0       0       0       0       0       0       0       0       0       
      +0       0       0       0       0       0
  2268 ;;      Locals:         0       0       0       0       0       0       0       0       0       0       0       0       
      +0       0       0       0       0       0       0       0       0       0       0       0       0       0       0       
      +0       0       0       0       0       0
  2269 ;;      Temps:          0       0       0       0       0       0       0       0       0       0       0       0       
      +0       0       0       0       0       0       0       0       0       0       0       0       0       0       0       
      +0       0       0       0       0       0
  2270 ;;      Totals:         3       0       0       0       0       0       0       0       0       0       0       0       
      +0       0       0       0       0       0       0       0       0       0       0       0       0       0       0       
      +0       0       0       0       0       0
  2271 ;;Total ram usage:        3 bytes
  2272 ;; Hardware stack levels used:    1
  2273 ;; Hardware stack levels required when called:    3
  2274 ;; This function calls:
  2275 ;;		Nothing
  2276 ;; This function is called by:
  2277 ;;		_TMR6_Initialize
  2278 ;; This function uses a non-reentrant model
  2279 ;;
  2280                           
  2281                           	psect	text21
  2282  0028E2                     __ptext21:
  2283                           	opt callstack 0
  2284  0028E2                     _TMR6_SetInterruptHandler:
  2285                           	opt callstack 25
  2286                           
  2287                           ;tmr6.c: 197: TMR6_InterruptHandler = InterruptHandler;
  2288                           
  2289                           ;incstack = 0
  2290  0028E2  0060  F11C  F01D   	movff	TMR6_SetInterruptHandler@InterruptHandler,_TMR6_InterruptHandler
  2291  0028E8  0060  F120  F01E   	movff	TMR6_SetInterruptHandler@InterruptHandler+1,_TMR6_InterruptHandler+1
  2292  0028EE  0060  F124  F01F   	movff	TMR6_SetInterruptHandler@InterruptHandler+2,_TMR6_InterruptHandler+2
  2293  0028F4  0012               	return		;funcret
  2294  0028F6                     __end_of_TMR6_SetInterruptHandler:
  2295                           	opt callstack 0
  2296                           
  2297 ;; *************** function _SPI1_Initialize *****************
  2298 ;; Defined at:
  2299 ;;		line 64 in file "mcc_generated_files/spi1.c"
  2300 ;; Parameters:    Size  Location     Type
  2301 ;;		None
  2302 ;; Auto vars:     Size  Location     Type
  2303 ;;		None
  2304 ;; Return value:  Size  Location     Type
  2305 ;;                  1    wreg      void 
  2306 ;; Registers used:
  2307 ;;		wreg, status,2
  2308 ;; Tracked objects:
  2309 ;;		On entry : 0/0
  2310 ;;		On exit  : 0/0
  2311 ;;		Unchanged: 0/0
  2312 ;; Data sizes:     COMRAM   BANK0   BANK1   BANK2   BANK3   BANK4   BANK5   BANK6   BANK7   BANK8   BANK9  BANK10  BANK1
      +1  BANK12  BANK13  BANK14  BANK15  BANK16  BANK17  BANK18  BANK19  BANK20  BANK21  BANK22  BANK23  BANK24  BANK25  BANK2
      +6  BANK27  BANK28  BANK29  BANK30  BANK31
  2313 ;;      Params:         0       0       0       0       0       0       0       0       0       0       0       0       
      +0       0       0       0       0       0       0       0       0       0       0       0       0       0       0       
      +0       0       0       0       0       0
  2314 ;;      Locals:         0       0       0       0       0       0       0       0       0       0       0       0       
      +0       0       0       0       0       0       0       0       0       0       0       0       0       0       0       
      +0       0       0       0       0       0
  2315 ;;      Temps:          0       0       0       0       0       0       0       0       0       0       0       0       
      +0       0       0       0       0       0       0       0       0       0       0       0       0       0       0       
      +0       0       0       0       0       0
  2316 ;;      Totals:         0       0       0       0       0       0       0       0       0       0       0       0       
      +0       0       0       0       0       0       0       0       0       0       0       0       0       0       0       
      +0       0       0       0       0       0
  2317 ;;Total ram usage:        0 bytes
  2318 ;; Hardware stack levels used:    1
  2319 ;; Hardware stack levels required when called:    3
  2320 ;; This function calls:
  2321 ;;		Nothing
  2322 ;; This function is called by:
  2323 ;;		_SYSTEM_Initialize
  2324 ;; This function uses a non-reentrant model
  2325 ;;
  2326                           
  2327                           	psect	text22
  2328  00287A                     __ptext22:
  2329                           	opt callstack 0
  2330  00287A                     _SPI1_Initialize:
  2331                           	opt callstack 26
  2332                           
  2333                           ;spi1.c: 68: SPI1CON1 = 0x40;
  2334                           
  2335                           ;incstack = 0
  2336  00287A  0E40               	movlw	64
  2337  00287C  013D               	movlb	61	; () banked
  2338  00287E  6F15               	movwf	21,b	;volatile
  2339                           
  2340                           ;spi1.c: 70: SPI1CON2 = 0x03;
  2341  002880  0E03               	movlw	3
  2342  002882  6F16               	movwf	22,b	;volatile
  2343                           
  2344                           ;spi1.c: 72: SPI1BAUD = 0x07;
  2345  002884  0E07               	movlw	7
  2346  002886  6F19               	movwf	25,b	;volatile
  2347                           
  2348                           ;spi1.c: 74: SPI1CLK = 0x00;
  2349  002888  0E00               	movlw	0
  2350  00288A  6F1C               	movwf	28,b	;volatile
  2351                           
  2352                           ;spi1.c: 76: SPI1CON0 = 0x82;
  2353  00288C  0E82               	movlw	130
  2354  00288E  6F14               	movwf	20,b	;volatile
  2355                           
  2356                           ; BSR set to: 61
  2357  002890  0012               	return		;funcret
  2358  002892                     __end_of_SPI1_Initialize:
  2359                           	opt callstack 0
  2360                           
  2361 ;; *************** function _PMD_Initialize *****************
  2362 ;; Defined at:
  2363 ;;		line 82 in file "mcc_generated_files/mcc.c"
  2364 ;; Parameters:    Size  Location     Type
  2365 ;;		None
  2366 ;; Auto vars:     Size  Location     Type
  2367 ;;		None
  2368 ;; Return value:  Size  Location     Type
  2369 ;;                  1    wreg      void 
  2370 ;; Registers used:
  2371 ;;		wreg, status,2
  2372 ;; Tracked objects:
  2373 ;;		On entry : 0/0
  2374 ;;		On exit  : 0/0
  2375 ;;		Unchanged: 0/0
  2376 ;; Data sizes:     COMRAM   BANK0   BANK1   BANK2   BANK3   BANK4   BANK5   BANK6   BANK7   BANK8   BANK9  BANK10  BANK1
      +1  BANK12  BANK13  BANK14  BANK15  BANK16  BANK17  BANK18  BANK19  BANK20  BANK21  BANK22  BANK23  BANK24  BANK25  BANK2
      +6  BANK27  BANK28  BANK29  BANK30  BANK31
  2377 ;;      Params:         0       0       0       0       0       0       0       0       0       0       0       0       
      +0       0       0       0       0       0       0       0       0       0       0       0       0       0       0       
      +0       0       0       0       0       0
  2378 ;;      Locals:         0       0       0       0       0       0       0       0       0       0       0       0       
      +0       0       0       0       0       0       0       0       0       0       0       0       0       0       0       
      +0       0       0       0       0       0
  2379 ;;      Temps:          0       0       0       0       0       0       0       0       0       0       0       0       
      +0       0       0       0       0       0       0       0       0       0       0       0       0       0       0       
      +0       0       0       0       0       0
  2380 ;;      Totals:         0       0       0       0       0       0       0       0       0       0       0       0       
      +0       0       0       0       0       0       0       0       0       0       0       0       0       0       0       
      +0       0       0       0       0       0
  2381 ;;Total ram usage:        0 bytes
  2382 ;; Hardware stack levels used:    1
  2383 ;; Hardware stack levels required when called:    3
  2384 ;; This function calls:
  2385 ;;		Nothing
  2386 ;; This function is called by:
  2387 ;;		_SYSTEM_Initialize
  2388 ;; This function uses a non-reentrant model
  2389 ;;
  2390                           
  2391                           	psect	text23
  2392  002672                     __ptext23:
  2393                           	opt callstack 0
  2394  002672                     _PMD_Initialize:
  2395                           	opt callstack 26
  2396                           
  2397                           ;mcc.c: 85: PMD0 = 0x00;
  2398                           
  2399                           ; BSR set to: 61
  2400                           ;incstack = 0
  2401  002672  0E00               	movlw	0
  2402  002674  0139               	movlb	57	; () banked
  2403  002676  6FC0               	movwf	192,b	;volatile
  2404                           
  2405                           ;mcc.c: 87: PMD1 = 0x00;
  2406  002678  0E00               	movlw	0
  2407  00267A  6FC1               	movwf	193,b	;volatile
  2408                           
  2409                           ;mcc.c: 89: PMD2 = 0x00;
  2410  00267C  0E00               	movlw	0
  2411  00267E  6FC2               	movwf	194,b	;volatile
  2412                           
  2413                           ;mcc.c: 91: PMD3 = 0x00;
  2414  002680  0E00               	movlw	0
  2415  002682  6FC3               	movwf	195,b	;volatile
  2416                           
  2417                           ;mcc.c: 93: PMD4 = 0x00;
  2418  002684  0E00               	movlw	0
  2419  002686  6FC4               	movwf	196,b	;volatile
  2420                           
  2421                           ;mcc.c: 95: PMD5 = 0x00;
  2422  002688  0E00               	movlw	0
  2423  00268A  6FC5               	movwf	197,b	;volatile
  2424                           
  2425                           ;mcc.c: 97: PMD6 = 0x00;
  2426  00268C  0E00               	movlw	0
  2427  00268E  6FC6               	movwf	198,b	;volatile
  2428                           
  2429                           ;mcc.c: 99: PMD7 = 0x00;
  2430  002690  0E00               	movlw	0
  2431  002692  6FC7               	movwf	199,b	;volatile
  2432                           
  2433                           ; BSR set to: 57
  2434  002694  0012               	return		;funcret
  2435  002696                     __end_of_PMD_Initialize:
  2436                           	opt callstack 0
  2437                           
  2438 ;; *************** function _PIN_MANAGER_Initialize *****************
  2439 ;; Defined at:
  2440 ;;		line 57 in file "mcc_generated_files/pin_manager.c"
  2441 ;; Parameters:    Size  Location     Type
  2442 ;;		None
  2443 ;; Auto vars:     Size  Location     Type
  2444 ;;		None
  2445 ;; Return value:  Size  Location     Type
  2446 ;;                  1    wreg      void 
  2447 ;; Registers used:
  2448 ;;		wreg, status,2
  2449 ;; Tracked objects:
  2450 ;;		On entry : 0/0
  2451 ;;		On exit  : 0/0
  2452 ;;		Unchanged: 0/0
  2453 ;; Data sizes:     COMRAM   BANK0   BANK1   BANK2   BANK3   BANK4   BANK5   BANK6   BANK7   BANK8   BANK9  BANK10  BANK1
      +1  BANK12  BANK13  BANK14  BANK15  BANK16  BANK17  BANK18  BANK19  BANK20  BANK21  BANK22  BANK23  BANK24  BANK25  BANK2
      +6  BANK27  BANK28  BANK29  BANK30  BANK31
  2454 ;;      Params:         0       0       0       0       0       0       0       0       0       0       0       0       
      +0       0       0       0       0       0       0       0       0       0       0       0       0       0       0       
      +0       0       0       0       0       0
  2455 ;;      Locals:         0       0       0       0       0       0       0       0       0       0       0       0       
      +0       0       0       0       0       0       0       0       0       0       0       0       0       0       0       
      +0       0       0       0       0       0
  2456 ;;      Temps:          0       0       0       0       0       0       0       0       0       0       0       0       
      +0       0       0       0       0       0       0       0       0       0       0       0       0       0       0       
      +0       0       0       0       0       0
  2457 ;;      Totals:         0       0       0       0       0       0       0       0       0       0       0       0       
      +0       0       0       0       0       0       0       0       0       0       0       0       0       0       0       
      +0       0       0       0       0       0
  2458 ;;Total ram usage:        0 bytes
  2459 ;; Hardware stack levels used:    1
  2460 ;; Hardware stack levels required when called:    3
  2461 ;; This function calls:
  2462 ;;		Nothing
  2463 ;; This function is called by:
  2464 ;;		_SYSTEM_Initialize
  2465 ;; This function uses a non-reentrant model
  2466 ;;
  2467                           
  2468                           	psect	text24
  2469  00211E                     __ptext24:
  2470                           	opt callstack 0
  2471  00211E                     _PIN_MANAGER_Initialize:
  2472                           	opt callstack 26
  2473                           
  2474                           ;pin_manager.c: 62: LATE = 0x01;
  2475                           
  2476                           ; BSR set to: 57
  2477                           ;incstack = 0
  2478  00211E  0E01               	movlw	1
  2479  002120  6EBE               	movwf	16318,c	;volatile
  2480                           
  2481                           ;pin_manager.c: 63: LATD = 0x00;
  2482  002122  0E00               	movlw	0
  2483  002124  6EBD               	movwf	16317,c	;volatile
  2484                           
  2485                           ;pin_manager.c: 64: LATA = 0x00;
  2486  002126  0E00               	movlw	0
  2487  002128  6EBA               	movwf	16314,c	;volatile
  2488                           
  2489                           ;pin_manager.c: 65: LATF = 0x00;
  2490  00212A  0E00               	movlw	0
  2491  00212C  6EBF               	movwf	16319,c	;volatile
  2492                           
  2493                           ;pin_manager.c: 66: LATB = 0x00;
  2494  00212E  0E00               	movlw	0
  2495  002130  6EBB               	movwf	16315,c	;volatile
  2496                           
  2497                           ;pin_manager.c: 67: LATC = 0x06;
  2498  002132  0E06               	movlw	6
  2499  002134  6EBC               	movwf	16316,c	;volatile
  2500                           
  2501                           ;pin_manager.c: 72: TRISE = 0x06;
  2502  002136  0E06               	movlw	6
  2503  002138  6EC6               	movwf	16326,c	;volatile
  2504                           
  2505                           ;pin_manager.c: 73: TRISF = 0xFF;
  2506  00213A  68C7               	setf	16327,c	;volatile
  2507                           
  2508                           ;pin_manager.c: 74: TRISA = 0xFF;
  2509  00213C  68C2               	setf	16322,c	;volatile
  2510                           
  2511                           ;pin_manager.c: 75: TRISB = 0xBF;
  2512  00213E  0EBF               	movlw	191
  2513  002140  6EC3               	movwf	16323,c	;volatile
  2514                           
  2515                           ;pin_manager.c: 76: TRISC = 0x91;
  2516  002142  0E91               	movlw	145
  2517  002144  6EC4               	movwf	16324,c	;volatile
  2518                           
  2519                           ;pin_manager.c: 77: TRISD = 0xFF;
  2520  002146  68C5               	setf	16325,c	;volatile
  2521                           
  2522                           ;pin_manager.c: 82: ANSELD = 0xFF;
  2523  002148  013A               	movlb	58	; () banked
  2524  00214A  6970               	setf	112,b	;volatile
  2525                           
  2526                           ;pin_manager.c: 83: ANSELC = 0x01;
  2527  00214C  0E01               	movlw	1
  2528  00214E  6F60               	movwf	96,b	;volatile
  2529                           
  2530                           ;pin_manager.c: 84: ANSELB = 0x38;
  2531  002150  0E38               	movlw	56
  2532  002152  6F50               	movwf	80,b	;volatile
  2533                           
  2534                           ;pin_manager.c: 85: ANSELE = 0x06;
  2535  002154  0E06               	movlw	6
  2536  002156  6F80               	movwf	128,b	;volatile
  2537                           
  2538                           ; BSR set to: 58
  2539                           ;pin_manager.c: 86: ANSELF = 0xFF;
  2540  002158  6990               	setf	144,b	;volatile
  2541                           
  2542                           ; BSR set to: 58
  2543                           ;pin_manager.c: 87: ANSELA = 0xFF;
  2544  00215A  6940               	setf	64,b	;volatile
  2545                           
  2546                           ;pin_manager.c: 92: WPUD = 0x00;
  2547  00215C  0E00               	movlw	0
  2548  00215E  6F71               	movwf	113,b	;volatile
  2549                           
  2550                           ;pin_manager.c: 93: WPUF = 0x00;
  2551  002160  0E00               	movlw	0
  2552  002162  6F91               	movwf	145,b	;volatile
  2553                           
  2554                           ;pin_manager.c: 94: WPUE = 0x00;
  2555  002164  0E00               	movlw	0
  2556  002166  6F81               	movwf	129,b	;volatile
  2557                           
  2558                           ;pin_manager.c: 95: WPUB = 0x00;
  2559  002168  0E00               	movlw	0
  2560  00216A  6F51               	movwf	81,b	;volatile
  2561                           
  2562                           ;pin_manager.c: 96: WPUA = 0x00;
  2563  00216C  0E00               	movlw	0
  2564  00216E  6F41               	movwf	65,b	;volatile
  2565                           
  2566                           ;pin_manager.c: 97: WPUC = 0x00;
  2567  002170  0E00               	movlw	0
  2568  002172  6F61               	movwf	97,b	;volatile
  2569                           
  2570                           ;pin_manager.c: 102: ODCONE = 0x00;
  2571  002174  0E00               	movlw	0
  2572  002176  6F82               	movwf	130,b	;volatile
  2573                           
  2574                           ;pin_manager.c: 103: ODCONF = 0x00;
  2575  002178  0E00               	movlw	0
  2576  00217A  6F92               	movwf	146,b	;volatile
  2577                           
  2578                           ;pin_manager.c: 104: ODCONA = 0x00;
  2579  00217C  0E00               	movlw	0
  2580  00217E  6F42               	movwf	66,b	;volatile
  2581                           
  2582                           ;pin_manager.c: 105: ODCONB = 0x00;
  2583  002180  0E00               	movlw	0
  2584  002182  6F52               	movwf	82,b	;volatile
  2585                           
  2586                           ;pin_manager.c: 106: ODCONC = 0x00;
  2587  002184  0E00               	movlw	0
  2588  002186  6F62               	movwf	98,b	;volatile
  2589                           
  2590                           ;pin_manager.c: 107: ODCOND = 0x00;
  2591  002188  0E00               	movlw	0
  2592  00218A  6F72               	movwf	114,b	;volatile
  2593                           
  2594                           ; BSR set to: 58
  2595                           ;pin_manager.c: 112: SLRCONA = 0xFF;
  2596  00218C  6943               	setf	67,b	;volatile
  2597                           
  2598                           ; BSR set to: 58
  2599                           ;pin_manager.c: 113: SLRCONB = 0xFF;
  2600  00218E  6953               	setf	83,b	;volatile
  2601                           
  2602                           ; BSR set to: 58
  2603                           ;pin_manager.c: 114: SLRCONC = 0xFF;
  2604  002190  6963               	setf	99,b	;volatile
  2605                           
  2606                           ; BSR set to: 58
  2607                           ;pin_manager.c: 115: SLRCOND = 0xFF;
  2608  002192  6973               	setf	115,b	;volatile
  2609                           
  2610                           ;pin_manager.c: 116: SLRCONE = 0x07;
  2611  002194  0E07               	movlw	7
  2612  002196  6F83               	movwf	131,b	;volatile
  2613                           
  2614                           ; BSR set to: 58
  2615                           ;pin_manager.c: 117: SLRCONF = 0xFF;
  2616  002198  6993               	setf	147,b	;volatile
  2617                           
  2618                           ;pin_manager.c: 126: U2RXPPS = 0x0F;
  2619  00219A  0E0F               	movlw	15
  2620  00219C  6FE8               	movwf	232,b	;volatile
  2621                           
  2622                           ;pin_manager.c: 127: SPI1SCKPPS = 0x13;
  2623  00219E  0E13               	movlw	19
  2624  0021A0  6FDE               	movwf	222,b	;volatile
  2625                           
  2626                           ;pin_manager.c: 128: RB6PPS = 0x16;
  2627  0021A2  0E16               	movlw	22
  2628  0021A4  6F0E               	movwf	14,b	;volatile
  2629                           
  2630                           ;pin_manager.c: 129: RC3PPS = 0x1E;
  2631  0021A6  0E1E               	movlw	30
  2632  0021A8  6F13               	movwf	19,b	;volatile
  2633                           
  2634                           ;pin_manager.c: 130: INT0PPS = 0x08;
  2635  0021AA  0E08               	movlw	8
  2636  0021AC  6FC0               	movwf	192,b	;volatile
  2637                           
  2638                           ;pin_manager.c: 131: INT2PPS = 0x0A;
  2639  0021AE  0E0A               	movlw	10
  2640  0021B0  6FC2               	movwf	194,b	;volatile
  2641                           
  2642                           ;pin_manager.c: 132: INT1PPS = 0x09;
  2643  0021B2  0E09               	movlw	9
  2644  0021B4  6FC1               	movwf	193,b	;volatile
  2645                           
  2646                           ;pin_manager.c: 133: RC5PPS = 0x1F;
  2647  0021B6  0E1F               	movlw	31
  2648  0021B8  6F15               	movwf	21,b	;volatile
  2649                           
  2650                           ;pin_manager.c: 134: RC6PPS = 0x13;
  2651  0021BA  0E13               	movlw	19
  2652  0021BC  6F16               	movwf	22,b	;volatile
  2653                           
  2654                           ;pin_manager.c: 135: U1RXPPS = 0x17;
  2655  0021BE  0E17               	movlw	23
  2656  0021C0  6FE5               	movwf	229,b	;volatile
  2657                           
  2658                           ;pin_manager.c: 136: SPI1SDIPPS = 0x14;
  2659  0021C2  0E14               	movlw	20
  2660  0021C4  6FDF               	movwf	223,b	;volatile
  2661                           
  2662                           ; BSR set to: 58
  2663  0021C6  0012               	return		;funcret
  2664  0021C8                     __end_of_PIN_MANAGER_Initialize:
  2665                           	opt callstack 0
  2666                           
  2667 ;; *************** function _OSCILLATOR_Initialize *****************
  2668 ;; Defined at:
  2669 ;;		line 64 in file "mcc_generated_files/mcc.c"
  2670 ;; Parameters:    Size  Location     Type
  2671 ;;		None
  2672 ;; Auto vars:     Size  Location     Type
  2673 ;;		None
  2674 ;; Return value:  Size  Location     Type
  2675 ;;                  1    wreg      void 
  2676 ;; Registers used:
  2677 ;;		wreg, status,2
  2678 ;; Tracked objects:
  2679 ;;		On entry : 0/0
  2680 ;;		On exit  : 0/0
  2681 ;;		Unchanged: 0/0
  2682 ;; Data sizes:     COMRAM   BANK0   BANK1   BANK2   BANK3   BANK4   BANK5   BANK6   BANK7   BANK8   BANK9  BANK10  BANK1
      +1  BANK12  BANK13  BANK14  BANK15  BANK16  BANK17  BANK18  BANK19  BANK20  BANK21  BANK22  BANK23  BANK24  BANK25  BANK2
      +6  BANK27  BANK28  BANK29  BANK30  BANK31
  2683 ;;      Params:         0       0       0       0       0       0       0       0       0       0       0       0       
      +0       0       0       0       0       0       0       0       0       0       0       0       0       0       0       
      +0       0       0       0       0       0
  2684 ;;      Locals:         0       0       0       0       0       0       0       0       0       0       0       0       
      +0       0       0       0       0       0       0       0       0       0       0       0       0       0       0       
      +0       0       0       0       0       0
  2685 ;;      Temps:          0       0       0       0       0       0       0       0       0       0       0       0       
      +0       0       0       0       0       0       0       0       0       0       0       0       0       0       0       
      +0       0       0       0       0       0
  2686 ;;      Totals:         0       0       0       0       0       0       0       0       0       0       0       0       
      +0       0       0       0       0       0       0       0       0       0       0       0       0       0       0       
      +0       0       0       0       0       0
  2687 ;;Total ram usage:        0 bytes
  2688 ;; Hardware stack levels used:    1
  2689 ;; Hardware stack levels required when called:    3
  2690 ;; This function calls:
  2691 ;;		Nothing
  2692 ;; This function is called by:
  2693 ;;		_SYSTEM_Initialize
  2694 ;; This function uses a non-reentrant model
  2695 ;;
  2696                           
  2697                           	psect	text25
  2698  002810                     __ptext25:
  2699                           	opt callstack 0
  2700  002810                     _OSCILLATOR_Initialize:
  2701                           	opt callstack 26
  2702                           
  2703                           ;mcc.c: 67: OSCCON1 = 0x20;
  2704                           
  2705                           ; BSR set to: 58
  2706                           ;incstack = 0
  2707  002810  0E20               	movlw	32
  2708  002812  0139               	movlb	57	; () banked
  2709  002814  6FD9               	movwf	217,b	;volatile
  2710                           
  2711                           ;mcc.c: 69: OSCCON3 = 0x00;
  2712  002816  0E00               	movlw	0
  2713  002818  6FDB               	movwf	219,b	;volatile
  2714                           
  2715                           ;mcc.c: 71: OSCEN = 0x00;
  2716  00281A  0E00               	movlw	0
  2717  00281C  6FDD               	movwf	221,b	;volatile
  2718                           
  2719                           ;mcc.c: 73: OSCFRQ = 0x02;
  2720  00281E  0E02               	movlw	2
  2721  002820  6FDF               	movwf	223,b	;volatile
  2722                           
  2723                           ;mcc.c: 75: OSCTUNE = 0x00;
  2724  002822  0E00               	movlw	0
  2725  002824  6FDE               	movwf	222,b	;volatile
  2726  002826                     l178:
  2727                           
  2728                           ; BSR set to: 57
  2729  002826  B1DC               	btfsc	220,0,b	;volatile
  2730  002828  0012               	return	
  2731  00282A  D7FD               	goto	l178
  2732  00282C                     __end_of_OSCILLATOR_Initialize:
  2733                           	opt callstack 0
  2734                           
  2735 ;; *************** function _INTERRUPT_Initialize *****************
  2736 ;; Defined at:
  2737 ;;		line 52 in file "mcc_generated_files/interrupt_manager.c"
  2738 ;; Parameters:    Size  Location     Type
  2739 ;;		None
  2740 ;; Auto vars:     Size  Location     Type
  2741 ;;  state           1    1[COMRAM] unsigned char 
  2742 ;; Return value:  Size  Location     Type
  2743 ;;                  1    wreg      void 
  2744 ;; Registers used:
  2745 ;;		wreg, status,2
  2746 ;; Tracked objects:
  2747 ;;		On entry : 0/0
  2748 ;;		On exit  : 0/0
  2749 ;;		Unchanged: 0/0
  2750 ;; Data sizes:     COMRAM   BANK0   BANK1   BANK2   BANK3   BANK4   BANK5   BANK6   BANK7   BANK8   BANK9  BANK10  BANK1
      +1  BANK12  BANK13  BANK14  BANK15  BANK16  BANK17  BANK18  BANK19  BANK20  BANK21  BANK22  BANK23  BANK24  BANK25  BANK2
      +6  BANK27  BANK28  BANK29  BANK30  BANK31
  2751 ;;      Params:         0       0       0       0       0       0       0       0       0       0       0       0       
      +0       0       0       0       0       0       0       0       0       0       0       0       0       0       0       
      +0       0       0       0       0       0
  2752 ;;      Locals:         1       0       0       0       0       0       0       0       0       0       0       0       
      +0       0       0       0       0       0       0       0       0       0       0       0       0       0       0       
      +0       0       0       0       0       0
  2753 ;;      Temps:          0       0       0       0       0       0       0       0       0       0       0       0       
      +0       0       0       0       0       0       0       0       0       0       0       0       0       0       0       
      +0       0       0       0       0       0
  2754 ;;      Totals:         1       0       0       0       0       0       0       0       0       0       0       0       
      +0       0       0       0       0       0       0       0       0       0       0       0       0       0       0       
      +0       0       0       0       0       0
  2755 ;;Total ram usage:        1 bytes
  2756 ;; Hardware stack levels used:    1
  2757 ;; Hardware stack levels required when called:    3
  2758 ;; This function calls:
  2759 ;;		Nothing
  2760 ;; This function is called by:
  2761 ;;		_SYSTEM_Initialize
  2762 ;; This function uses a non-reentrant model
  2763 ;;
  2764                           
  2765                           	psect	text26
  2766  0023F6                     __ptext26:
  2767                           	opt callstack 0
  2768  0023F6                     _INTERRUPT_Initialize:
  2769                           	opt callstack 26
  2770                           
  2771                           ;interrupt_manager.c: 54: INTCON0bits.IPEN = 1;
  2772                           
  2773                           ; BSR set to: 57
  2774                           ;incstack = 0
  2775  0023F6  8AD2               	bsf	16338,5,c	;volatile
  2776                           
  2777                           ;interrupt_manager.c: 56: bool state = (unsigned char)GIE;
  2778  0023F8  0E00               	movlw	0
  2779  0023FA  BED2               	btfsc	16338,7,c	;volatile
  2780  0023FC  0E01               	movlw	1
  2781  0023FE  6E47               	movwf	INTERRUPT_Initialize@state,c
  2782                           
  2783                           ;interrupt_manager.c: 57: GIE = 0;
  2784  002400  9ED2               	bcf	16338,7,c	;volatile
  2785                           
  2786                           ;interrupt_manager.c: 58: IVTLOCK = 0x55;
  2787  002402  0E55               	movlw	85
  2788  002404  6ED4               	movwf	16340,c	;volatile
  2789                           
  2790                           ;interrupt_manager.c: 59: IVTLOCK = 0xAA;
  2791  002406  0EAA               	movlw	170
  2792  002408  6ED4               	movwf	16340,c	;volatile
  2793                           
  2794                           ;interrupt_manager.c: 60: IVTLOCKbits.IVTLOCKED = 0x00;
  2795  00240A  90D4               	bcf	16340,0,c	;volatile
  2796                           
  2797                           ;interrupt_manager.c: 62: IVTADU = 0;
  2798  00240C  0E00               	movlw	0
  2799  00240E  0138               	movlb	56	; () banked
  2800  002410  6F9F               	movwf	159,b	;volatile
  2801                           
  2802                           ;interrupt_manager.c: 63: IVTADH = 0;
  2803  002412  0E00               	movlw	0
  2804  002414  6F9E               	movwf	158,b	;volatile
  2805                           
  2806                           ;interrupt_manager.c: 64: IVTADL = 8;
  2807  002416  0E08               	movlw	8
  2808  002418  6F9D               	movwf	157,b	;volatile
  2809                           
  2810                           ;interrupt_manager.c: 66: IVTLOCK = 0x55;
  2811  00241A  0E55               	movlw	85
  2812  00241C  6ED4               	movwf	16340,c	;volatile
  2813                           
  2814                           ;interrupt_manager.c: 67: IVTLOCK = 0xAA;
  2815  00241E  0EAA               	movlw	170
  2816  002420  6ED4               	movwf	16340,c	;volatile
  2817                           
  2818                           ; BSR set to: 56
  2819                           ;interrupt_manager.c: 68: IVTLOCKbits.IVTLOCKED = 0x01;
  2820  002422  80D4               	bsf	16340,0,c	;volatile
  2821                           
  2822                           ; BSR set to: 56
  2823                           ;interrupt_manager.c: 70: GIE = state;
  2824  002424  A047               	btfss	INTERRUPT_Initialize@state,0,c
  2825  002426  D002               	goto	u30
  2826  002428  8ED2               	bsf	16338,7,c	;volatile
  2827  00242A  D001               	goto	u45
  2828  00242C                     u30:
  2829  00242C  9ED2               	bcf	16338,7,c	;volatile
  2830  00242E                     u45:
  2831                           
  2832                           ;interrupt_manager.c: 72: IPR1bits.INT0IP = 1;
  2833  00242E  0139               	movlb	57	; () banked
  2834  002430  8181               	bsf	129,0,b	;volatile
  2835                           
  2836                           ; BSR set to: 57
  2837                           ;interrupt_manager.c: 73: IPR5bits.INT1IP = 1;
  2838  002432  8185               	bsf	133,0,b	;volatile
  2839                           
  2840                           ; BSR set to: 57
  2841                           ;interrupt_manager.c: 74: IPR7bits.INT2IP = 1;
  2842  002434  8B87               	bsf	135,5,b	;volatile
  2843                           
  2844                           ; BSR set to: 57
  2845                           ;interrupt_manager.c: 75: IPR6bits.U2TXIP = 1;
  2846  002436  8786               	bsf	134,3,b	;volatile
  2847                           
  2848                           ; BSR set to: 57
  2849                           ;interrupt_manager.c: 76: IPR6bits.U2RXIP = 1;
  2850  002438  8586               	bsf	134,2,b	;volatile
  2851                           
  2852                           ; BSR set to: 57
  2853                           ;interrupt_manager.c: 77: IPR9bits.TMR6IP = 1;
  2854  00243A  8189               	bsf	137,0,b	;volatile
  2855                           
  2856                           ; BSR set to: 57
  2857                           ;interrupt_manager.c: 78: IPR1bits.ADIP = 1;
  2858  00243C  8581               	bsf	129,2,b	;volatile
  2859                           
  2860                           ; BSR set to: 57
  2861                           ;interrupt_manager.c: 79: IPR3bits.U1TXIP = 1;
  2862  00243E  8983               	bsf	131,4,b	;volatile
  2863                           
  2864                           ; BSR set to: 57
  2865                           ;interrupt_manager.c: 80: IPR3bits.U1RXIP = 1;
  2866  002440  8783               	bsf	131,3,b	;volatile
  2867                           
  2868                           ; BSR set to: 57
  2869  002442  0012               	return		;funcret
  2870  002444                     __end_of_INTERRUPT_Initialize:
  2871                           	opt callstack 0
  2872                           
  2873 ;; *************** function _EXT_INT_Initialize *****************
  2874 ;; Defined at:
  2875 ;;		line 114 in file "mcc_generated_files/ext_int.c"
  2876 ;; Parameters:    Size  Location     Type
  2877 ;;		None
  2878 ;; Auto vars:     Size  Location     Type
  2879 ;;		None
  2880 ;; Return value:  Size  Location     Type
  2881 ;;                  1    wreg      void 
  2882 ;; Registers used:
  2883 ;;		wreg, status,2, status,0, cstack
  2884 ;; Tracked objects:
  2885 ;;		On entry : 0/0
  2886 ;;		On exit  : 0/0
  2887 ;;		Unchanged: 0/0
  2888 ;; Data sizes:     COMRAM   BANK0   BANK1   BANK2   BANK3   BANK4   BANK5   BANK6   BANK7   BANK8   BANK9  BANK10  BANK1
      +1  BANK12  BANK13  BANK14  BANK15  BANK16  BANK17  BANK18  BANK19  BANK20  BANK21  BANK22  BANK23  BANK24  BANK25  BANK2
      +6  BANK27  BANK28  BANK29  BANK30  BANK31
  2889 ;;      Params:         0       0       0       0       0       0       0       0       0       0       0       0       
      +0       0       0       0       0       0       0       0       0       0       0       0       0       0       0       
      +0       0       0       0       0       0
  2890 ;;      Locals:         0       0       0       0       0       0       0       0       0       0       0       0       
      +0       0       0       0       0       0       0       0       0       0       0       0       0       0       0       
      +0       0       0       0       0       0
  2891 ;;      Temps:          0       0       0       0       0       0       0       0       0       0       0       0       
      +0       0       0       0       0       0       0       0       0       0       0       0       0       0       0       
      +0       0       0       0       0       0
  2892 ;;      Totals:         0       0       0       0       0       0       0       0       0       0       0       0       
      +0       0       0       0       0       0       0       0       0       0       0       0       0       0       0       
      +0       0       0       0       0       0
  2893 ;;Total ram usage:        0 bytes
  2894 ;; Hardware stack levels used:    1
  2895 ;; Hardware stack levels required when called:    4
  2896 ;; This function calls:
  2897 ;;		_INT0_SetInterruptHandler
  2898 ;;		_INT1_SetInterruptHandler
  2899 ;;		_INT2_SetInterruptHandler
  2900 ;; This function is called by:
  2901 ;;		_SYSTEM_Initialize
  2902 ;; This function uses a non-reentrant model
  2903 ;;
  2904                           
  2905                           	psect	text27
  2906  002444                     __ptext27:
  2907                           	opt callstack 0
  2908  002444                     _EXT_INT_Initialize:
  2909                           	opt callstack 25
  2910                           
  2911                           ;ext_int.c: 119: (PIR1bits.INT0IF = 0);
  2912                           
  2913                           ; BSR set to: 57
  2914                           ;incstack = 0
  2915  002444  0139               	movlb	57	; () banked
  2916  002446  91A1               	bcf	161,0,b	;volatile
  2917                           
  2918                           ;ext_int.c: 120: (INTCON0bits.INT0EDG = 0);
  2919  002448  90D2               	bcf	16338,0,c	;volatile
  2920                           
  2921                           ; BSR set to: 57
  2922                           ;ext_int.c: 122: INT0_SetInterruptHandler(INT0_DefaultInterruptHandler);
  2923  00244A  0E76               	movlw	low _INT0_DefaultInterruptHandler
  2924  00244C  6E47               	movwf	INT0_SetInterruptHandler@InterruptHandler,c
  2925  00244E  0E29               	movlw	high _INT0_DefaultInterruptHandler
  2926  002450  6E48               	movwf	INT0_SetInterruptHandler@InterruptHandler+1,c
  2927  002452  0E00               	movlw	low (_INT0_DefaultInterruptHandler shr (0+16))
  2928  002454  6E49               	movwf	INT0_SetInterruptHandler@InterruptHandler+2,c
  2929  002456  EC8F  F014         	call	_INT0_SetInterruptHandler	;wreg free
  2930                           
  2931                           ;ext_int.c: 123: (PIE1bits.INT0IE = 1);
  2932  00245A  0139               	movlb	57	; () banked
  2933  00245C  8191               	bsf	145,0,b	;volatile
  2934                           
  2935                           ; BSR set to: 57
  2936                           ;ext_int.c: 128: (PIR5bits.INT1IF = 0);
  2937  00245E  91A5               	bcf	165,0,b	;volatile
  2938                           
  2939                           ; BSR set to: 57
  2940                           ;ext_int.c: 129: (INTCON0bits.INT1EDG = 0);
  2941  002460  92D2               	bcf	16338,1,c	;volatile
  2942                           
  2943                           ;ext_int.c: 131: INT1_SetInterruptHandler(INT1_DefaultInterruptHandler);
  2944  002462  0E78               	movlw	low _INT1_DefaultInterruptHandler
  2945  002464  6E47               	movwf	INT1_SetInterruptHandler@InterruptHandler,c
  2946  002466  0E29               	movlw	high _INT1_DefaultInterruptHandler
  2947  002468  6E48               	movwf	INT1_SetInterruptHandler@InterruptHandler+1,c
  2948  00246A  0E00               	movlw	low (_INT1_DefaultInterruptHandler shr (0+16))
  2949  00246C  6E49               	movwf	INT1_SetInterruptHandler@InterruptHandler+2,c
  2950  00246E  EC85  F014         	call	_INT1_SetInterruptHandler	;wreg free
  2951                           
  2952                           ;ext_int.c: 132: (PIE5bits.INT1IE = 1);
  2953  002472  0139               	movlb	57	; () banked
  2954  002474  8195               	bsf	149,0,b	;volatile
  2955                           
  2956                           ; BSR set to: 57
  2957                           ;ext_int.c: 137: (PIR7bits.INT2IF = 0);
  2958  002476  9BA7               	bcf	167,5,b	;volatile
  2959                           
  2960                           ; BSR set to: 57
  2961                           ;ext_int.c: 138: (INTCON0bits.INT2EDG = 0);
  2962  002478  94D2               	bcf	16338,2,c	;volatile
  2963                           
  2964                           ;ext_int.c: 140: INT2_SetInterruptHandler(INT2_DefaultInterruptHandler);
  2965  00247A  0E7A               	movlw	low _INT2_DefaultInterruptHandler
  2966  00247C  6E47               	movwf	INT2_SetInterruptHandler@InterruptHandler,c
  2967  00247E  0E29               	movlw	high _INT2_DefaultInterruptHandler
  2968  002480  6E48               	movwf	INT2_SetInterruptHandler@InterruptHandler+1,c
  2969  002482  0E00               	movlw	low (_INT2_DefaultInterruptHandler shr (0+16))
  2970  002484  6E49               	movwf	INT2_SetInterruptHandler@InterruptHandler+2,c
  2971  002486  EC7B  F014         	call	_INT2_SetInterruptHandler	;wreg free
  2972                           
  2973                           ;ext_int.c: 141: (PIE7bits.INT2IE = 1);
  2974  00248A  0139               	movlb	57	; () banked
  2975  00248C  8B97               	bsf	151,5,b	;volatile
  2976                           
  2977                           ; BSR set to: 57
  2978  00248E  0012               	return		;funcret
  2979  002490                     __end_of_EXT_INT_Initialize:
  2980                           	opt callstack 0
  2981                           
  2982 ;; *************** function _INT2_SetInterruptHandler *****************
  2983 ;; Defined at:
  2984 ;;		line 105 in file "mcc_generated_files/ext_int.c"
  2985 ;; Parameters:    Size  Location     Type
  2986 ;;  InterruptHan    3    1[COMRAM] PTR FTN()void 
  2987 ;;		 -> INT2_DefaultInterruptHandler(1), 
  2988 ;; Auto vars:     Size  Location     Type
  2989 ;;		None
  2990 ;; Return value:  Size  Location     Type
  2991 ;;                  1    wreg      void 
  2992 ;; Registers used:
  2993 ;;		wreg, status,2, status,0
  2994 ;; Tracked objects:
  2995 ;;		On entry : 0/0
  2996 ;;		On exit  : 0/0
  2997 ;;		Unchanged: 0/0
  2998 ;; Data sizes:     COMRAM   BANK0   BANK1   BANK2   BANK3   BANK4   BANK5   BANK6   BANK7   BANK8   BANK9  BANK10  BANK1
      +1  BANK12  BANK13  BANK14  BANK15  BANK16  BANK17  BANK18  BANK19  BANK20  BANK21  BANK22  BANK23  BANK24  BANK25  BANK2
      +6  BANK27  BANK28  BANK29  BANK30  BANK31
  2999 ;;      Params:         3       0       0       0       0       0       0       0       0       0       0       0       
      +0       0       0       0       0       0       0       0       0       0       0       0       0       0       0       
      +0       0       0       0       0       0
  3000 ;;      Locals:         0       0       0       0       0       0       0       0       0       0       0       0       
      +0       0       0       0       0       0       0       0       0       0       0       0       0       0       0       
      +0       0       0       0       0       0
  3001 ;;      Temps:          0       0       0       0       0       0       0       0       0       0       0       0       
      +0       0       0       0       0       0       0       0       0       0       0       0       0       0       0       
      +0       0       0       0       0       0
  3002 ;;      Totals:         3       0       0       0       0       0       0       0       0       0       0       0       
      +0       0       0       0       0       0       0       0       0       0       0       0       0       0       0       
      +0       0       0       0       0       0
  3003 ;;Total ram usage:        3 bytes
  3004 ;; Hardware stack levels used:    1
  3005 ;; Hardware stack levels required when called:    3
  3006 ;; This function calls:
  3007 ;;		Nothing
  3008 ;; This function is called by:
  3009 ;;		_EXT_INT_Initialize
  3010 ;; This function uses a non-reentrant model
  3011 ;;
  3012                           
  3013                           	psect	text28
  3014  0028F6                     __ptext28:
  3015                           	opt callstack 0
  3016  0028F6                     _INT2_SetInterruptHandler:
  3017                           	opt callstack 25
  3018                           
  3019                           ;ext_int.c: 106: INT2_InterruptHandler = InterruptHandler;
  3020                           
  3021                           ; BSR set to: 57
  3022                           ;incstack = 0
  3023  0028F6  0060  F11C  F02F   	movff	INT2_SetInterruptHandler@InterruptHandler,_INT2_InterruptHandler
  3024  0028FC  0060  F120  F030   	movff	INT2_SetInterruptHandler@InterruptHandler+1,_INT2_InterruptHandler+1
  3025  002902  0060  F124  F031   	movff	INT2_SetInterruptHandler@InterruptHandler+2,_INT2_InterruptHandler+2
  3026  002908  0012               	return		;funcret
  3027  00290A                     __end_of_INT2_SetInterruptHandler:
  3028                           	opt callstack 0
  3029                           
  3030 ;; *************** function _INT1_SetInterruptHandler *****************
  3031 ;; Defined at:
  3032 ;;		line 79 in file "mcc_generated_files/ext_int.c"
  3033 ;; Parameters:    Size  Location     Type
  3034 ;;  InterruptHan    3    1[COMRAM] PTR FTN()void 
  3035 ;;		 -> INT1_DefaultInterruptHandler(1), 
  3036 ;; Auto vars:     Size  Location     Type
  3037 ;;		None
  3038 ;; Return value:  Size  Location     Type
  3039 ;;                  1    wreg      void 
  3040 ;; Registers used:
  3041 ;;		wreg, status,2, status,0
  3042 ;; Tracked objects:
  3043 ;;		On entry : 0/0
  3044 ;;		On exit  : 0/0
  3045 ;;		Unchanged: 0/0
  3046 ;; Data sizes:     COMRAM   BANK0   BANK1   BANK2   BANK3   BANK4   BANK5   BANK6   BANK7   BANK8   BANK9  BANK10  BANK1
      +1  BANK12  BANK13  BANK14  BANK15  BANK16  BANK17  BANK18  BANK19  BANK20  BANK21  BANK22  BANK23  BANK24  BANK25  BANK2
      +6  BANK27  BANK28  BANK29  BANK30  BANK31
  3047 ;;      Params:         3       0       0       0       0       0       0       0       0       0       0       0       
      +0       0       0       0       0       0       0       0       0       0       0       0       0       0       0       
      +0       0       0       0       0       0
  3048 ;;      Locals:         0       0       0       0       0       0       0       0       0       0       0       0       
      +0       0       0       0       0       0       0       0       0       0       0       0       0       0       0       
      +0       0       0       0       0       0
  3049 ;;      Temps:          0       0       0       0       0       0       0       0       0       0       0       0       
      +0       0       0       0       0       0       0       0       0       0       0       0       0       0       0       
      +0       0       0       0       0       0
  3050 ;;      Totals:         3       0       0       0       0       0       0       0       0       0       0       0       
      +0       0       0       0       0       0       0       0       0       0       0       0       0       0       0       
      +0       0       0       0       0       0
  3051 ;;Total ram usage:        3 bytes
  3052 ;; Hardware stack levels used:    1
  3053 ;; Hardware stack levels required when called:    3
  3054 ;; This function calls:
  3055 ;;		Nothing
  3056 ;; This function is called by:
  3057 ;;		_EXT_INT_Initialize
  3058 ;; This function uses a non-reentrant model
  3059 ;;
  3060                           
  3061                           	psect	text29
  3062  00290A                     __ptext29:
  3063                           	opt callstack 0
  3064  00290A                     _INT1_SetInterruptHandler:
  3065                           	opt callstack 25
  3066                           
  3067                           ;ext_int.c: 80: INT1_InterruptHandler = InterruptHandler;
  3068                           
  3069                           ;incstack = 0
  3070  00290A  0060  F11C  F032   	movff	INT1_SetInterruptHandler@InterruptHandler,_INT1_InterruptHandler
  3071  002910  0060  F120  F033   	movff	INT1_SetInterruptHandler@InterruptHandler+1,_INT1_InterruptHandler+1
  3072  002916  0060  F124  F034   	movff	INT1_SetInterruptHandler@InterruptHandler+2,_INT1_InterruptHandler+2
  3073  00291C  0012               	return		;funcret
  3074  00291E                     __end_of_INT1_SetInterruptHandler:
  3075                           	opt callstack 0
  3076                           
  3077 ;; *************** function _INT0_SetInterruptHandler *****************
  3078 ;; Defined at:
  3079 ;;		line 53 in file "mcc_generated_files/ext_int.c"
  3080 ;; Parameters:    Size  Location     Type
  3081 ;;  InterruptHan    3    1[COMRAM] PTR FTN()void 
  3082 ;;		 -> INT0_DefaultInterruptHandler(1), 
  3083 ;; Auto vars:     Size  Location     Type
  3084 ;;		None
  3085 ;; Return value:  Size  Location     Type
  3086 ;;                  1    wreg      void 
  3087 ;; Registers used:
  3088 ;;		wreg, status,2, status,0
  3089 ;; Tracked objects:
  3090 ;;		On entry : 0/0
  3091 ;;		On exit  : 0/0
  3092 ;;		Unchanged: 0/0
  3093 ;; Data sizes:     COMRAM   BANK0   BANK1   BANK2   BANK3   BANK4   BANK5   BANK6   BANK7   BANK8   BANK9  BANK10  BANK1
      +1  BANK12  BANK13  BANK14  BANK15  BANK16  BANK17  BANK18  BANK19  BANK20  BANK21  BANK22  BANK23  BANK24  BANK25  BANK2
      +6  BANK27  BANK28  BANK29  BANK30  BANK31
  3094 ;;      Params:         3       0       0       0       0       0       0       0       0       0       0       0       
      +0       0       0       0       0       0       0       0       0       0       0       0       0       0       0       
      +0       0       0       0       0       0
  3095 ;;      Locals:         0       0       0       0       0       0       0       0       0       0       0       0       
      +0       0       0       0       0       0       0       0       0       0       0       0       0       0       0       
      +0       0       0       0       0       0
  3096 ;;      Temps:          0       0       0       0       0       0       0       0       0       0       0       0       
      +0       0       0       0       0       0       0       0       0       0       0       0       0       0       0       
      +0       0       0       0       0       0
  3097 ;;      Totals:         3       0       0       0       0       0       0       0       0       0       0       0       
      +0       0       0       0       0       0       0       0       0       0       0       0       0       0       0       
      +0       0       0       0       0       0
  3098 ;;Total ram usage:        3 bytes
  3099 ;; Hardware stack levels used:    1
  3100 ;; Hardware stack levels required when called:    3
  3101 ;; This function calls:
  3102 ;;		Nothing
  3103 ;; This function is called by:
  3104 ;;		_EXT_INT_Initialize
  3105 ;; This function uses a non-reentrant model
  3106 ;;
  3107                           
  3108                           	psect	text30
  3109  00291E                     __ptext30:
  3110                           	opt callstack 0
  3111  00291E                     _INT0_SetInterruptHandler:
  3112                           	opt callstack 25
  3113                           
  3114                           ;ext_int.c: 54: INT0_InterruptHandler = InterruptHandler;
  3115                           
  3116                           ;incstack = 0
  3117  00291E  0060  F11C  F035   	movff	INT0_SetInterruptHandler@InterruptHandler,_INT0_InterruptHandler
  3118  002924  0060  F120  F036   	movff	INT0_SetInterruptHandler@InterruptHandler+1,_INT0_InterruptHandler+1
  3119  00292A  0060  F124  F037   	movff	INT0_SetInterruptHandler@InterruptHandler+2,_INT0_InterruptHandler+2
  3120  002930  0012               	return		;funcret
  3121  002932                     __end_of_INT0_SetInterruptHandler:
  3122                           	opt callstack 0
  3123                           
  3124 ;; *************** function _ADCC_Initialize *****************
  3125 ;; Defined at:
  3126 ;;		line 64 in file "mcc_generated_files/adcc.c"
  3127 ;; Parameters:    Size  Location     Type
  3128 ;;		None
  3129 ;; Auto vars:     Size  Location     Type
  3130 ;;		None
  3131 ;; Return value:  Size  Location     Type
  3132 ;;                  1    wreg      void 
  3133 ;; Registers used:
  3134 ;;		wreg, status,2, status,0, cstack
  3135 ;; Tracked objects:
  3136 ;;		On entry : 0/0
  3137 ;;		On exit  : 0/0
  3138 ;;		Unchanged: 0/0
  3139 ;; Data sizes:     COMRAM   BANK0   BANK1   BANK2   BANK3   BANK4   BANK5   BANK6   BANK7   BANK8   BANK9  BANK10  BANK1
      +1  BANK12  BANK13  BANK14  BANK15  BANK16  BANK17  BANK18  BANK19  BANK20  BANK21  BANK22  BANK23  BANK24  BANK25  BANK2
      +6  BANK27  BANK28  BANK29  BANK30  BANK31
  3140 ;;      Params:         0       0       0       0       0       0       0       0       0       0       0       0       
      +0       0       0       0       0       0       0       0       0       0       0       0       0       0       0       
      +0       0       0       0       0       0
  3141 ;;      Locals:         0       0       0       0       0       0       0       0       0       0       0       0       
      +0       0       0       0       0       0       0       0       0       0       0       0       0       0       0       
      +0       0       0       0       0       0
  3142 ;;      Temps:          0       0       0       0       0       0       0       0       0       0       0       0       
      +0       0       0       0       0       0       0       0       0       0       0       0       0       0       0       
      +0       0       0       0       0       0
  3143 ;;      Totals:         0       0       0       0       0       0       0       0       0       0       0       0       
      +0       0       0       0       0       0       0       0       0       0       0       0       0       0       0       
      +0       0       0       0       0       0
  3144 ;;Total ram usage:        0 bytes
  3145 ;; Hardware stack levels used:    1
  3146 ;; Hardware stack levels required when called:    4
  3147 ;; This function calls:
  3148 ;;		_ADCC_SetADIInterruptHandler
  3149 ;; This function is called by:
  3150 ;;		_SYSTEM_Initialize
  3151 ;; This function uses a non-reentrant model
  3152 ;;
  3153                           
  3154                           	psect	text31
  3155  0022C4                     __ptext31:
  3156                           	opt callstack 0
  3157  0022C4                     _ADCC_Initialize:
  3158                           	opt callstack 25
  3159                           
  3160                           ;adcc.c: 68: ADLTHL = 0x00;
  3161                           
  3162                           ;incstack = 0
  3163  0022C4  0E00               	movlw	0
  3164  0022C6  013E               	movlb	62	; () banked
  3165  0022C8  6FDE               	movwf	222,b	;volatile
  3166                           
  3167                           ;adcc.c: 70: ADLTHH = 0x00;
  3168  0022CA  0E00               	movlw	0
  3169  0022CC  6FDF               	movwf	223,b	;volatile
  3170                           
  3171                           ;adcc.c: 72: ADUTHL = 0x00;
  3172  0022CE  0E00               	movlw	0
  3173  0022D0  6FE0               	movwf	224,b	;volatile
  3174                           
  3175                           ;adcc.c: 74: ADUTHH = 0x00;
  3176  0022D2  0E00               	movlw	0
  3177  0022D4  6FE1               	movwf	225,b	;volatile
  3178                           
  3179                           ;adcc.c: 76: ADSTPTL = 0x00;
  3180  0022D6  0E00               	movlw	0
  3181  0022D8  6FE4               	movwf	228,b	;volatile
  3182                           
  3183                           ;adcc.c: 78: ADSTPTH = 0x00;
  3184  0022DA  0E00               	movlw	0
  3185  0022DC  6FE5               	movwf	229,b	;volatile
  3186                           
  3187                           ;adcc.c: 80: ADACCU = 0x00;
  3188  0022DE  0E00               	movlw	0
  3189  0022E0  6FEA               	movwf	234,b	;volatile
  3190                           
  3191                           ;adcc.c: 82: ADRPT = 0x00;
  3192  0022E2  0E00               	movlw	0
  3193  0022E4  6FEC               	movwf	236,b	;volatile
  3194                           
  3195                           ;adcc.c: 84: ADPCH = 0x00;
  3196  0022E6  0E00               	movlw	0
  3197  0022E8  6FF1               	movwf	241,b	;volatile
  3198                           
  3199                           ;adcc.c: 86: ADACQL = 0x32;
  3200  0022EA  0E32               	movlw	50
  3201  0022EC  6FF3               	movwf	243,b	;volatile
  3202                           
  3203                           ;adcc.c: 88: ADACQH = 0x00;
  3204  0022EE  0E00               	movlw	0
  3205  0022F0  6FF4               	movwf	244,b	;volatile
  3206                           
  3207                           ;adcc.c: 90: ADCAP = 0x00;
  3208  0022F2  0E00               	movlw	0
  3209  0022F4  6FF5               	movwf	245,b	;volatile
  3210                           
  3211                           ;adcc.c: 92: ADPREL = 0x00;
  3212  0022F6  0E00               	movlw	0
  3213  0022F8  6FF6               	movwf	246,b	;volatile
  3214                           
  3215                           ;adcc.c: 94: ADPREH = 0x00;
  3216  0022FA  0E00               	movlw	0
  3217  0022FC  6FF7               	movwf	247,b	;volatile
  3218                           
  3219                           ;adcc.c: 96: ADCON1 = 0x00;
  3220  0022FE  0E00               	movlw	0
  3221  002300  6FF9               	movwf	249,b	;volatile
  3222                           
  3223                           ;adcc.c: 98: ADCON2 = 0x00;
  3224  002302  0E00               	movlw	0
  3225  002304  6FFA               	movwf	250,b	;volatile
  3226                           
  3227                           ;adcc.c: 100: ADCON3 = 0x00;
  3228  002306  0E00               	movlw	0
  3229  002308  6FFB               	movwf	251,b	;volatile
  3230                           
  3231                           ;adcc.c: 102: ADSTAT = 0x00;
  3232  00230A  0E00               	movlw	0
  3233  00230C  6FFC               	movwf	252,b	;volatile
  3234                           
  3235                           ;adcc.c: 104: ADREF = 0x02;
  3236  00230E  0E02               	movlw	2
  3237  002310  6FFD               	movwf	253,b	;volatile
  3238                           
  3239                           ;adcc.c: 106: ADACT = 0x00;
  3240  002312  0E00               	movlw	0
  3241  002314  6FFE               	movwf	254,b	;volatile
  3242                           
  3243                           ;adcc.c: 108: ADCLK = 0x00;
  3244  002316  0E00               	movlw	0
  3245  002318  6FFF               	movwf	255,b	;volatile
  3246                           
  3247                           ;adcc.c: 110: ADCON0 = 0x84;
  3248  00231A  0E84               	movlw	132
  3249  00231C  6FF8               	movwf	248,b	;volatile
  3250                           
  3251                           ; BSR set to: 62
  3252                           ;adcc.c: 113: PIR1bits.ADIF = 0;
  3253  00231E  0139               	movlb	57	; () banked
  3254  002320  95A1               	bcf	161,2,b	;volatile
  3255                           
  3256                           ; BSR set to: 57
  3257                           ;adcc.c: 115: PIE1bits.ADIE = 1;
  3258  002322  8591               	bsf	145,2,b	;volatile
  3259                           
  3260                           ; BSR set to: 57
  3261                           ;adcc.c: 117: ADCC_SetADIInterruptHandler(ADCC_DefaultInterruptHandler);
  3262  002324  0E7E               	movlw	low _ADCC_DefaultInterruptHandler
  3263  002326  6E47               	movwf	ADCC_SetADIInterruptHandler@InterruptHandler,c
  3264  002328  0E29               	movlw	high _ADCC_DefaultInterruptHandler
  3265  00232A  6E48               	movwf	ADCC_SetADIInterruptHandler@InterruptHandler+1,c
  3266  00232C  0E00               	movlw	low (_ADCC_DefaultInterruptHandler shr (0+16))
  3267  00232E  6E49               	movwf	ADCC_SetADIInterruptHandler@InterruptHandler+2,c
  3268  002330  EC99  F014         	call	_ADCC_SetADIInterruptHandler	;wreg free
  3269  002334  0012               	return		;funcret
  3270  002336                     __end_of_ADCC_Initialize:
  3271                           	opt callstack 0
  3272                           
  3273 ;; *************** function _ADCC_SetADIInterruptHandler *****************
  3274 ;; Defined at:
  3275 ;;		line 316 in file "mcc_generated_files/adcc.c"
  3276 ;; Parameters:    Size  Location     Type
  3277 ;;  InterruptHan    3    1[COMRAM] PTR FTN()void 
  3278 ;;		 -> ADCC_DefaultInterruptHandler(1), 
  3279 ;; Auto vars:     Size  Location     Type
  3280 ;;		None
  3281 ;; Return value:  Size  Location     Type
  3282 ;;                  1    wreg      void 
  3283 ;; Registers used:
  3284 ;;		wreg, status,2, status,0
  3285 ;; Tracked objects:
  3286 ;;		On entry : 0/0
  3287 ;;		On exit  : 0/0
  3288 ;;		Unchanged: 0/0
  3289 ;; Data sizes:     COMRAM   BANK0   BANK1   BANK2   BANK3   BANK4   BANK5   BANK6   BANK7   BANK8   BANK9  BANK10  BANK1
      +1  BANK12  BANK13  BANK14  BANK15  BANK16  BANK17  BANK18  BANK19  BANK20  BANK21  BANK22  BANK23  BANK24  BANK25  BANK2
      +6  BANK27  BANK28  BANK29  BANK30  BANK31
  3290 ;;      Params:         3       0       0       0       0       0       0       0       0       0       0       0       
      +0       0       0       0       0       0       0       0       0       0       0       0       0       0       0       
      +0       0       0       0       0       0
  3291 ;;      Locals:         0       0       0       0       0       0       0       0       0       0       0       0       
      +0       0       0       0       0       0       0       0       0       0       0       0       0       0       0       
      +0       0       0       0       0       0
  3292 ;;      Temps:          0       0       0       0       0       0       0       0       0       0       0       0       
      +0       0       0       0       0       0       0       0       0       0       0       0       0       0       0       
      +0       0       0       0       0       0
  3293 ;;      Totals:         3       0       0       0       0       0       0       0       0       0       0       0       
      +0       0       0       0       0       0       0       0       0       0       0       0       0       0       0       
      +0       0       0       0       0       0
  3294 ;;Total ram usage:        3 bytes
  3295 ;; Hardware stack levels used:    1
  3296 ;; Hardware stack levels required when called:    3
  3297 ;; This function calls:
  3298 ;;		Nothing
  3299 ;; This function is called by:
  3300 ;;		_ADCC_Initialize
  3301 ;; This function uses a non-reentrant model
  3302 ;;
  3303                           
  3304                           	psect	text32
  3305  002932                     __ptext32:
  3306                           	opt callstack 0
  3307  002932                     _ADCC_SetADIInterruptHandler:
  3308                           	opt callstack 25
  3309                           
  3310                           ;adcc.c: 317: ADCC_ADI_InterruptHandler = InterruptHandler;
  3311                           
  3312                           ;incstack = 0
  3313  002932  0060  F11C  F020   	movff	ADCC_SetADIInterruptHandler@InterruptHandler,_ADCC_ADI_InterruptHandler
  3314  002938  0060  F120  F021   	movff	ADCC_SetADIInterruptHandler@InterruptHandler+1,_ADCC_ADI_InterruptHandler+1
  3315  00293E  0060  F124  F022   	movff	ADCC_SetADIInterruptHandler@InterruptHandler+2,_ADCC_ADI_InterruptHandler+2
  3316  002944  0012               	return		;funcret
  3317  002946                     __end_of_ADCC_SetADIInterruptHandler:
  3318                           	opt callstack 0
  3319                           
  3320 ;; *************** function _INT0_ISR *****************
  3321 ;; Defined at:
  3322 ;;		line 35 in file "mcc_generated_files/ext_int.c"
  3323 ;; Parameters:    Size  Location     Type
  3324 ;;		None
  3325 ;; Auto vars:     Size  Location     Type
  3326 ;;		None
  3327 ;; Return value:  Size  Location     Type
  3328 ;;                  1    wreg      void 
  3329 ;; Registers used:
  3330 ;;		wreg, status,2, status,0, pclath, tosl, cstack
  3331 ;; Tracked objects:
  3332 ;;		On entry : 0/0
  3333 ;;		On exit  : 0/0
  3334 ;;		Unchanged: 0/0
  3335 ;; Data sizes:     COMRAM   BANK0   BANK1   BANK2   BANK3   BANK4   BANK5   BANK6   BANK7   BANK8   BANK9  BANK10  BANK1
      +1  BANK12  BANK13  BANK14  BANK15  BANK16  BANK17  BANK18  BANK19  BANK20  BANK21  BANK22  BANK23  BANK24  BANK25  BANK2
      +6  BANK27  BANK28  BANK29  BANK30  BANK31
  3336 ;;      Params:         0       0       0       0       0       0       0       0       0       0       0       0       
      +0       0       0       0       0       0       0       0       0       0       0       0       0       0       0       
      +0       0       0       0       0       0
  3337 ;;      Locals:         0       0       0       0       0       0       0       0       0       0       0       0       
      +0       0       0       0       0       0       0       0       0       0       0       0       0       0       0       
      +0       0       0       0       0       0
  3338 ;;      Temps:          0       0       0       0       0       0       0       0       0       0       0       0       
      +0       0       0       0       0       0       0       0       0       0       0       0       0       0       0       
      +0       0       0       0       0       0
  3339 ;;      Totals:         0       0       0       0       0       0       0       0       0       0       0       0       
      +0       0       0       0       0       0       0       0       0       0       0       0       0       0       0       
      +0       0       0       0       0       0
  3340 ;;Total ram usage:        0 bytes
  3341 ;; Hardware stack levels used:    1
  3342 ;; Hardware stack levels required when called:    2
  3343 ;; This function calls:
  3344 ;;		_INT0_CallBack
  3345 ;; This function is called by:
  3346 ;;		Interrupt level 2
  3347 ;; This function uses a non-reentrant model
  3348 ;;
  3349                           
  3350                           	psect	text33
  3351  002950                     __ptext33:
  3352                           	opt callstack 0
  3353  002950                     _INT0_ISR:
  3354                           	opt callstack 23
  3355                           
  3356                           ;ext_int.c: 37: (PIR1bits.INT0IF = 0);
  3357                           
  3358                           ;incstack = 0
  3359  002950  0139               	movlb	57	; () banked
  3360  002952  91A1               	bcf	161,0,b	;volatile
  3361                           
  3362                           ; BSR set to: 57
  3363                           ;ext_int.c: 40: INT0_CallBack();
  3364  002954  EC4B  F013         	call	_INT0_CallBack	;wreg free
  3365  002958  0011               	retfie		f
  3366  00295A                     __end_of_INT0_ISR:
  3367                           	opt callstack 0
  3368                           
  3369 ;; *************** function _INT0_CallBack *****************
  3370 ;; Defined at:
  3371 ;;		line 44 in file "mcc_generated_files/ext_int.c"
  3372 ;; Parameters:    Size  Location     Type
  3373 ;;		None
  3374 ;; Auto vars:     Size  Location     Type
  3375 ;;		None
  3376 ;; Return value:  Size  Location     Type
  3377 ;;                  1    wreg      void 
  3378 ;; Registers used:
  3379 ;;		wreg, status,2, status,0, pclath, tosl, cstack
  3380 ;; Tracked objects:
  3381 ;;		On entry : 0/0
  3382 ;;		On exit  : 0/0
  3383 ;;		Unchanged: 0/0
  3384 ;; Data sizes:     COMRAM   BANK0   BANK1   BANK2   BANK3   BANK4   BANK5   BANK6   BANK7   BANK8   BANK9  BANK10  BANK1
      +1  BANK12  BANK13  BANK14  BANK15  BANK16  BANK17  BANK18  BANK19  BANK20  BANK21  BANK22  BANK23  BANK24  BANK25  BANK2
      +6  BANK27  BANK28  BANK29  BANK30  BANK31
  3385 ;;      Params:         0       0       0       0       0       0       0       0       0       0       0       0       
      +0       0       0       0       0       0       0       0       0       0       0       0       0       0       0       
      +0       0       0       0       0       0
  3386 ;;      Locals:         0       0       0       0       0       0       0       0       0       0       0       0       
      +0       0       0       0       0       0       0       0       0       0       0       0       0       0       0       
      +0       0       0       0       0       0
  3387 ;;      Temps:          0       0       0       0       0       0       0       0       0       0       0       0       
      +0       0       0       0       0       0       0       0       0       0       0       0       0       0       0       
      +0       0       0       0       0       0
  3388 ;;      Totals:         0       0       0       0       0       0       0       0       0       0       0       0       
      +0       0       0       0       0       0       0       0       0       0       0       0       0       0       0       
      +0       0       0       0       0       0
  3389 ;;Total ram usage:        0 bytes
  3390 ;; Hardware stack levels used:    1
  3391 ;; Hardware stack levels required when called:    1
  3392 ;; This function calls:
  3393 ;;		Absolute function
  3394 ;;		_INT0_DefaultInterruptHandler
  3395 ;; This function is called by:
  3396 ;;		_INT0_ISR
  3397 ;; This function uses a non-reentrant model
  3398 ;;
  3399                           
  3400                           	psect	text34
  3401  002696                     __ptext34:
  3402                           	opt callstack 0
  3403  002696                     _INT0_CallBack:
  3404                           	opt callstack 23
  3405                           
  3406                           ;ext_int.c: 47: if(INT0_InterruptHandler)
  3407                           
  3408                           ;incstack = 0
  3409  002696  5035               	movf	_INT0_InterruptHandler,w,c
  3410  002698  1036               	iorwf	_INT0_InterruptHandler+1,w,c
  3411  00269A  1037               	iorwf	_INT0_InterruptHandler+2,w,c
  3412  00269C  B4D8               	btfsc	status,2,c
  3413  00269E  0012               	return	
  3414                           
  3415                           ;ext_int.c: 48: {;ext_int.c: 49: INT0_InterruptHandler();
  3416  0026A0  D801               	call	i2u15_48
  3417  0026A2  0012               	return	
  3418  0026A4                     i2u15_48:
  3419  0026A4  0005               	push	
  3420  0026A6  6EFA               	movwf	pclath,c
  3421  0026A8  5035               	movf	_INT0_InterruptHandler,w,c
  3422  0026AA  6EFD               	movwf	tosl,c
  3423  0026AC  5036               	movf	_INT0_InterruptHandler+1,w,c
  3424  0026AE  6EFE               	movwf	tosh,c
  3425  0026B0  5037               	movf	_INT0_InterruptHandler+2,w,c
  3426  0026B2  6EFF               	movwf	tosu,c
  3427  0026B4  50FA               	movf	pclath,w,c
  3428  0026B6  0012               	return		;indir
  3429  0026B8                     __end_of_INT0_CallBack:
  3430                           	opt callstack 0
  3431                           
  3432 ;; *************** function _INT0_DefaultInterruptHandler *****************
  3433 ;; Defined at:
  3434 ;;		line 57 in file "mcc_generated_files/ext_int.c"
  3435 ;; Parameters:    Size  Location     Type
  3436 ;;		None
  3437 ;; Auto vars:     Size  Location     Type
  3438 ;;		None
  3439 ;; Return value:  Size  Location     Type
  3440 ;;                  1    wreg      void 
  3441 ;; Registers used:
  3442 ;;		None
  3443 ;; Tracked objects:
  3444 ;;		On entry : 0/0
  3445 ;;		On exit  : 0/0
  3446 ;;		Unchanged: 0/0
  3447 ;; Data sizes:     COMRAM   BANK0   BANK1   BANK2   BANK3   BANK4   BANK5   BANK6   BANK7   BANK8   BANK9  BANK10  BANK1
      +1  BANK12  BANK13  BANK14  BANK15  BANK16  BANK17  BANK18  BANK19  BANK20  BANK21  BANK22  BANK23  BANK24  BANK25  BANK2
      +6  BANK27  BANK28  BANK29  BANK30  BANK31
  3448 ;;      Params:         0       0       0       0       0       0       0       0       0       0       0       0       
      +0       0       0       0       0       0       0       0       0       0       0       0       0       0       0       
      +0       0       0       0       0       0
  3449 ;;      Locals:         0       0       0       0       0       0       0       0       0       0       0       0       
      +0       0       0       0       0       0       0       0       0       0       0       0       0       0       0       
      +0       0       0       0       0       0
  3450 ;;      Temps:          0       0       0       0       0       0       0       0       0       0       0       0       
      +0       0       0       0       0       0       0       0       0       0       0       0       0       0       0       
      +0       0       0       0       0       0
  3451 ;;      Totals:         0       0       0       0       0       0       0       0       0       0       0       0       
      +0       0       0       0       0       0       0       0       0       0       0       0       0       0       0       
      +0       0       0       0       0       0
  3452 ;;Total ram usage:        0 bytes
  3453 ;; Hardware stack levels used:    1
  3454 ;; This function calls:
  3455 ;;		Nothing
  3456 ;; This function is called by:
  3457 ;;		_EXT_INT_Initialize
  3458 ;;		_INT0_CallBack
  3459 ;; This function uses a non-reentrant model
  3460 ;;
  3461                           
  3462                           	psect	text35
  3463  002976                     __ptext35:
  3464                           	opt callstack 0
  3465  002976                     _INT0_DefaultInterruptHandler:
  3466                           	opt callstack 23
  3467                           
  3468                           ;incstack = 0
  3469  002976  0012               	return		;funcret
  3470  002978                     __end_of_INT0_DefaultInterruptHandler:
  3471                           	opt callstack 0
  3472                           
  3473 ;; *************** function _INT1_ISR *****************
  3474 ;; Defined at:
  3475 ;;		line 61 in file "mcc_generated_files/ext_int.c"
  3476 ;; Parameters:    Size  Location     Type
  3477 ;;		None
  3478 ;; Auto vars:     Size  Location     Type
  3479 ;;		None
  3480 ;; Return value:  Size  Location     Type
  3481 ;;                  1    wreg      void 
  3482 ;; Registers used:
  3483 ;;		wreg, status,2, status,0, pclath, tosl, cstack
  3484 ;; Tracked objects:
  3485 ;;		On entry : 0/0
  3486 ;;		On exit  : 0/0
  3487 ;;		Unchanged: 0/0
  3488 ;; Data sizes:     COMRAM   BANK0   BANK1   BANK2   BANK3   BANK4   BANK5   BANK6   BANK7   BANK8   BANK9  BANK10  BANK1
      +1  BANK12  BANK13  BANK14  BANK15  BANK16  BANK17  BANK18  BANK19  BANK20  BANK21  BANK22  BANK23  BANK24  BANK25  BANK2
      +6  BANK27  BANK28  BANK29  BANK30  BANK31
  3489 ;;      Params:         0       0       0       0       0       0       0       0       0       0       0       0       
      +0       0       0       0       0       0       0       0       0       0       0       0       0       0       0       
      +0       0       0       0       0       0
  3490 ;;      Locals:         0       0       0       0       0       0       0       0       0       0       0       0       
      +0       0       0       0       0       0       0       0       0       0       0       0       0       0       0       
      +0       0       0       0       0       0
  3491 ;;      Temps:          0       0       0       0       0       0       0       0       0       0       0       0       
      +0       0       0       0       0       0       0       0       0       0       0       0       0       0       0       
      +0       0       0       0       0       0
  3492 ;;      Totals:         0       0       0       0       0       0       0       0       0       0       0       0       
      +0       0       0       0       0       0       0       0       0       0       0       0       0       0       0       
      +0       0       0       0       0       0
  3493 ;;Total ram usage:        0 bytes
  3494 ;; Hardware stack levels used:    1
  3495 ;; Hardware stack levels required when called:    2
  3496 ;; This function calls:
  3497 ;;		_INT1_CallBack
  3498 ;; This function is called by:
  3499 ;;		Interrupt level 2
  3500 ;; This function uses a non-reentrant model
  3501 ;;
  3502                           
  3503                           	psect	text36
  3504  00295C                     __ptext36:
  3505                           	opt callstack 0
  3506  00295C                     _INT1_ISR:
  3507                           	opt callstack 23
  3508                           
  3509                           ;ext_int.c: 63: (PIR5bits.INT1IF = 0);
  3510                           
  3511                           ;incstack = 0
  3512  00295C  0139               	movlb	57	; () banked
  3513  00295E  91A5               	bcf	165,0,b	;volatile
  3514                           
  3515                           ; BSR set to: 57
  3516                           ;ext_int.c: 66: INT1_CallBack();
  3517  002960  EC5C  F013         	call	_INT1_CallBack	;wreg free
  3518  002964  0011               	retfie		f
  3519  002966                     __end_of_INT1_ISR:
  3520                           	opt callstack 0
  3521                           
  3522 ;; *************** function _INT1_CallBack *****************
  3523 ;; Defined at:
  3524 ;;		line 70 in file "mcc_generated_files/ext_int.c"
  3525 ;; Parameters:    Size  Location     Type
  3526 ;;		None
  3527 ;; Auto vars:     Size  Location     Type
  3528 ;;		None
  3529 ;; Return value:  Size  Location     Type
  3530 ;;                  1    wreg      void 
  3531 ;; Registers used:
  3532 ;;		wreg, status,2, status,0, pclath, tosl, cstack
  3533 ;; Tracked objects:
  3534 ;;		On entry : 0/0
  3535 ;;		On exit  : 0/0
  3536 ;;		Unchanged: 0/0
  3537 ;; Data sizes:     COMRAM   BANK0   BANK1   BANK2   BANK3   BANK4   BANK5   BANK6   BANK7   BANK8   BANK9  BANK10  BANK1
      +1  BANK12  BANK13  BANK14  BANK15  BANK16  BANK17  BANK18  BANK19  BANK20  BANK21  BANK22  BANK23  BANK24  BANK25  BANK2
      +6  BANK27  BANK28  BANK29  BANK30  BANK31
  3538 ;;      Params:         0       0       0       0       0       0       0       0       0       0       0       0       
      +0       0       0       0       0       0       0       0       0       0       0       0       0       0       0       
      +0       0       0       0       0       0
  3539 ;;      Locals:         0       0       0       0       0       0       0       0       0       0       0       0       
      +0       0       0       0       0       0       0       0       0       0       0       0       0       0       0       
      +0       0       0       0       0       0
  3540 ;;      Temps:          0       0       0       0       0       0       0       0       0       0       0       0       
      +0       0       0       0       0       0       0       0       0       0       0       0       0       0       0       
      +0       0       0       0       0       0
  3541 ;;      Totals:         0       0       0       0       0       0       0       0       0       0       0       0       
      +0       0       0       0       0       0       0       0       0       0       0       0       0       0       0       
      +0       0       0       0       0       0
  3542 ;;Total ram usage:        0 bytes
  3543 ;; Hardware stack levels used:    1
  3544 ;; Hardware stack levels required when called:    1
  3545 ;; This function calls:
  3546 ;;		Absolute function
  3547 ;;		_INT1_DefaultInterruptHandler
  3548 ;; This function is called by:
  3549 ;;		_INT1_ISR
  3550 ;; This function uses a non-reentrant model
  3551 ;;
  3552                           
  3553                           	psect	text37
  3554  0026B8                     __ptext37:
  3555                           	opt callstack 0
  3556  0026B8                     _INT1_CallBack:
  3557                           	opt callstack 23
  3558                           
  3559                           ;ext_int.c: 73: if(INT1_InterruptHandler)
  3560                           
  3561                           ;incstack = 0
  3562  0026B8  5032               	movf	_INT1_InterruptHandler,w,c
  3563  0026BA  1033               	iorwf	_INT1_InterruptHandler+1,w,c
  3564  0026BC  1034               	iorwf	_INT1_InterruptHandler+2,w,c
  3565  0026BE  B4D8               	btfsc	status,2,c
  3566  0026C0  0012               	return	
  3567                           
  3568                           ;ext_int.c: 74: {;ext_int.c: 75: INT1_InterruptHandler();
  3569  0026C2  D801               	call	i2u17_48
  3570  0026C4  0012               	return	
  3571  0026C6                     i2u17_48:
  3572  0026C6  0005               	push	
  3573  0026C8  6EFA               	movwf	pclath,c
  3574  0026CA  5032               	movf	_INT1_InterruptHandler,w,c
  3575  0026CC  6EFD               	movwf	tosl,c
  3576  0026CE  5033               	movf	_INT1_InterruptHandler+1,w,c
  3577  0026D0  6EFE               	movwf	tosh,c
  3578  0026D2  5034               	movf	_INT1_InterruptHandler+2,w,c
  3579  0026D4  6EFF               	movwf	tosu,c
  3580  0026D6  50FA               	movf	pclath,w,c
  3581  0026D8  0012               	return		;indir
  3582  0026DA                     __end_of_INT1_CallBack:
  3583                           	opt callstack 0
  3584                           
  3585 ;; *************** function _INT1_DefaultInterruptHandler *****************
  3586 ;; Defined at:
  3587 ;;		line 83 in file "mcc_generated_files/ext_int.c"
  3588 ;; Parameters:    Size  Location     Type
  3589 ;;		None
  3590 ;; Auto vars:     Size  Location     Type
  3591 ;;		None
  3592 ;; Return value:  Size  Location     Type
  3593 ;;                  1    wreg      void 
  3594 ;; Registers used:
  3595 ;;		None
  3596 ;; Tracked objects:
  3597 ;;		On entry : 0/0
  3598 ;;		On exit  : 0/0
  3599 ;;		Unchanged: 0/0
  3600 ;; Data sizes:     COMRAM   BANK0   BANK1   BANK2   BANK3   BANK4   BANK5   BANK6   BANK7   BANK8   BANK9  BANK10  BANK1
      +1  BANK12  BANK13  BANK14  BANK15  BANK16  BANK17  BANK18  BANK19  BANK20  BANK21  BANK22  BANK23  BANK24  BANK25  BANK2
      +6  BANK27  BANK28  BANK29  BANK30  BANK31
  3601 ;;      Params:         0       0       0       0       0       0       0       0       0       0       0       0       
      +0       0       0       0       0       0       0       0       0       0       0       0       0       0       0       
      +0       0       0       0       0       0
  3602 ;;      Locals:         0       0       0       0       0       0       0       0       0       0       0       0       
      +0       0       0       0       0       0       0       0       0       0       0       0       0       0       0       
      +0       0       0       0       0       0
  3603 ;;      Temps:          0       0       0       0       0       0       0       0       0       0       0       0       
      +0       0       0       0       0       0       0       0       0       0       0       0       0       0       0       
      +0       0       0       0       0       0
  3604 ;;      Totals:         0       0       0       0       0       0       0       0       0       0       0       0       
      +0       0       0       0       0       0       0       0       0       0       0       0       0       0       0       
      +0       0       0       0       0       0
  3605 ;;Total ram usage:        0 bytes
  3606 ;; Hardware stack levels used:    1
  3607 ;; This function calls:
  3608 ;;		Nothing
  3609 ;; This function is called by:
  3610 ;;		_EXT_INT_Initialize
  3611 ;;		_INT1_CallBack
  3612 ;; This function uses a non-reentrant model
  3613 ;;
  3614                           
  3615                           	psect	text38
  3616  002978                     __ptext38:
  3617                           	opt callstack 0
  3618  002978                     _INT1_DefaultInterruptHandler:
  3619                           	opt callstack 23
  3620                           
  3621                           ;incstack = 0
  3622  002978  0012               	return		;funcret
  3623  00297A                     __end_of_INT1_DefaultInterruptHandler:
  3624                           	opt callstack 0
  3625                           
  3626 ;; *************** function _INT2_ISR *****************
  3627 ;; Defined at:
  3628 ;;		line 87 in file "mcc_generated_files/ext_int.c"
  3629 ;; Parameters:    Size  Location     Type
  3630 ;;		None
  3631 ;; Auto vars:     Size  Location     Type
  3632 ;;		None
  3633 ;; Return value:  Size  Location     Type
  3634 ;;                  1    wreg      void 
  3635 ;; Registers used:
  3636 ;;		wreg, status,2, status,0, pclath, tosl, cstack
  3637 ;; Tracked objects:
  3638 ;;		On entry : 0/0
  3639 ;;		On exit  : 0/0
  3640 ;;		Unchanged: 0/0
  3641 ;; Data sizes:     COMRAM   BANK0   BANK1   BANK2   BANK3   BANK4   BANK5   BANK6   BANK7   BANK8   BANK9  BANK10  BANK1
      +1  BANK12  BANK13  BANK14  BANK15  BANK16  BANK17  BANK18  BANK19  BANK20  BANK21  BANK22  BANK23  BANK24  BANK25  BANK2
      +6  BANK27  BANK28  BANK29  BANK30  BANK31
  3642 ;;      Params:         0       0       0       0       0       0       0       0       0       0       0       0       
      +0       0       0       0       0       0       0       0       0       0       0       0       0       0       0       
      +0       0       0       0       0       0
  3643 ;;      Locals:         0       0       0       0       0       0       0       0       0       0       0       0       
      +0       0       0       0       0       0       0       0       0       0       0       0       0       0       0       
      +0       0       0       0       0       0
  3644 ;;      Temps:          0       0       0       0       0       0       0       0       0       0       0       0       
      +0       0       0       0       0       0       0       0       0       0       0       0       0       0       0       
      +0       0       0       0       0       0
  3645 ;;      Totals:         0       0       0       0       0       0       0       0       0       0       0       0       
      +0       0       0       0       0       0       0       0       0       0       0       0       0       0       0       
      +0       0       0       0       0       0
  3646 ;;Total ram usage:        0 bytes
  3647 ;; Hardware stack levels used:    1
  3648 ;; Hardware stack levels required when called:    2
  3649 ;; This function calls:
  3650 ;;		_INT2_CallBack
  3651 ;; This function is called by:
  3652 ;;		Interrupt level 2
  3653 ;; This function uses a non-reentrant model
  3654 ;;
  3655                           
  3656                           	psect	text39
  3657  002968                     __ptext39:
  3658                           	opt callstack 0
  3659  002968                     _INT2_ISR:
  3660                           	opt callstack 23
  3661                           
  3662                           ;ext_int.c: 89: (PIR7bits.INT2IF = 0);
  3663                           
  3664                           ;incstack = 0
  3665  002968  0139               	movlb	57	; () banked
  3666  00296A  9BA7               	bcf	167,5,b	;volatile
  3667                           
  3668                           ; BSR set to: 57
  3669                           ;ext_int.c: 92: INT2_CallBack();
  3670  00296C  EC6D  F013         	call	_INT2_CallBack	;wreg free
  3671  002970  0011               	retfie		f
  3672  002972                     __end_of_INT2_ISR:
  3673                           	opt callstack 0
  3674                           
  3675 ;; *************** function _INT2_CallBack *****************
  3676 ;; Defined at:
  3677 ;;		line 96 in file "mcc_generated_files/ext_int.c"
  3678 ;; Parameters:    Size  Location     Type
  3679 ;;		None
  3680 ;; Auto vars:     Size  Location     Type
  3681 ;;		None
  3682 ;; Return value:  Size  Location     Type
  3683 ;;                  1    wreg      void 
  3684 ;; Registers used:
  3685 ;;		wreg, status,2, status,0, pclath, tosl, cstack
  3686 ;; Tracked objects:
  3687 ;;		On entry : 0/0
  3688 ;;		On exit  : 0/0
  3689 ;;		Unchanged: 0/0
  3690 ;; Data sizes:     COMRAM   BANK0   BANK1   BANK2   BANK3   BANK4   BANK5   BANK6   BANK7   BANK8   BANK9  BANK10  BANK1
      +1  BANK12  BANK13  BANK14  BANK15  BANK16  BANK17  BANK18  BANK19  BANK20  BANK21  BANK22  BANK23  BANK24  BANK25  BANK2
      +6  BANK27  BANK28  BANK29  BANK30  BANK31
  3691 ;;      Params:         0       0       0       0       0       0       0       0       0       0       0       0       
      +0       0       0       0       0       0       0       0       0       0       0       0       0       0       0       
      +0       0       0       0       0       0
  3692 ;;      Locals:         0       0       0       0       0       0       0       0       0       0       0       0       
      +0       0       0       0       0       0       0       0       0       0       0       0       0       0       0       
      +0       0       0       0       0       0
  3693 ;;      Temps:          0       0       0       0       0       0       0       0       0       0       0       0       
      +0       0       0       0       0       0       0       0       0       0       0       0       0       0       0       
      +0       0       0       0       0       0
  3694 ;;      Totals:         0       0       0       0       0       0       0       0       0       0       0       0       
      +0       0       0       0       0       0       0       0       0       0       0       0       0       0       0       
      +0       0       0       0       0       0
  3695 ;;Total ram usage:        0 bytes
  3696 ;; Hardware stack levels used:    1
  3697 ;; Hardware stack levels required when called:    1
  3698 ;; This function calls:
  3699 ;;		Absolute function
  3700 ;;		_INT2_DefaultInterruptHandler
  3701 ;; This function is called by:
  3702 ;;		_INT2_ISR
  3703 ;; This function uses a non-reentrant model
  3704 ;;
  3705                           
  3706                           	psect	text40
  3707  0026DA                     __ptext40:
  3708                           	opt callstack 0
  3709  0026DA                     _INT2_CallBack:
  3710                           	opt callstack 23
  3711                           
  3712                           ;ext_int.c: 99: if(INT2_InterruptHandler)
  3713                           
  3714                           ;incstack = 0
  3715  0026DA  502F               	movf	_INT2_InterruptHandler,w,c
  3716  0026DC  1030               	iorwf	_INT2_InterruptHandler+1,w,c
  3717  0026DE  1031               	iorwf	_INT2_InterruptHandler+2,w,c
  3718  0026E0  B4D8               	btfsc	status,2,c
  3719  0026E2  0012               	return	
  3720                           
  3721                           ;ext_int.c: 100: {;ext_int.c: 101: INT2_InterruptHandler();
  3722  0026E4  D801               	call	i2u19_48
  3723  0026E6  0012               	return	
  3724  0026E8                     i2u19_48:
  3725  0026E8  0005               	push	
  3726  0026EA  6EFA               	movwf	pclath,c
  3727  0026EC  502F               	movf	_INT2_InterruptHandler,w,c
  3728  0026EE  6EFD               	movwf	tosl,c
  3729  0026F0  5030               	movf	_INT2_InterruptHandler+1,w,c
  3730  0026F2  6EFE               	movwf	tosh,c
  3731  0026F4  5031               	movf	_INT2_InterruptHandler+2,w,c
  3732  0026F6  6EFF               	movwf	tosu,c
  3733  0026F8  50FA               	movf	pclath,w,c
  3734  0026FA  0012               	return		;indir
  3735  0026FC                     __end_of_INT2_CallBack:
  3736                           	opt callstack 0
  3737                           
  3738 ;; *************** function _INT2_DefaultInterruptHandler *****************
  3739 ;; Defined at:
  3740 ;;		line 109 in file "mcc_generated_files/ext_int.c"
  3741 ;; Parameters:    Size  Location     Type
  3742 ;;		None
  3743 ;; Auto vars:     Size  Location     Type
  3744 ;;		None
  3745 ;; Return value:  Size  Location     Type
  3746 ;;                  1    wreg      void 
  3747 ;; Registers used:
  3748 ;;		None
  3749 ;; Tracked objects:
  3750 ;;		On entry : 0/0
  3751 ;;		On exit  : 0/0
  3752 ;;		Unchanged: 0/0
  3753 ;; Data sizes:     COMRAM   BANK0   BANK1   BANK2   BANK3   BANK4   BANK5   BANK6   BANK7   BANK8   BANK9  BANK10  BANK1
      +1  BANK12  BANK13  BANK14  BANK15  BANK16  BANK17  BANK18  BANK19  BANK20  BANK21  BANK22  BANK23  BANK24  BANK25  BANK2
      +6  BANK27  BANK28  BANK29  BANK30  BANK31
  3754 ;;      Params:         0       0       0       0       0       0       0       0       0       0       0       0       
      +0       0       0       0       0       0       0       0       0       0       0       0       0       0       0       
      +0       0       0       0       0       0
  3755 ;;      Locals:         0       0       0       0       0       0       0       0       0       0       0       0       
      +0       0       0       0       0       0       0       0       0       0       0       0       0       0       0       
      +0       0       0       0       0       0
  3756 ;;      Temps:          0       0       0       0       0       0       0       0       0       0       0       0       
      +0       0       0       0       0       0       0       0       0       0       0       0       0       0       0       
      +0       0       0       0       0       0
  3757 ;;      Totals:         0       0       0       0       0       0       0       0       0       0       0       0       
      +0       0       0       0       0       0       0       0       0       0       0       0       0       0       0       
      +0       0       0       0       0       0
  3758 ;;Total ram usage:        0 bytes
  3759 ;; Hardware stack levels used:    1
  3760 ;; This function calls:
  3761 ;;		Nothing
  3762 ;; This function is called by:
  3763 ;;		_EXT_INT_Initialize
  3764 ;;		_INT2_CallBack
  3765 ;; This function uses a non-reentrant model
  3766 ;;
  3767                           
  3768                           	psect	text41
  3769  00297A                     __ptext41:
  3770                           	opt callstack 0
  3771  00297A                     _INT2_DefaultInterruptHandler:
  3772                           	opt callstack 23
  3773                           
  3774                           ;incstack = 0
  3775  00297A  0012               	return		;funcret
  3776  00297C                     __end_of_INT2_DefaultInterruptHandler:
  3777                           	opt callstack 0
  3778                           
  3779 ;; *************** function _Default_ISR *****************
  3780 ;; Defined at:
  3781 ;;		line 83 in file "mcc_generated_files/interrupt_manager.c"
  3782 ;; Parameters:    Size  Location     Type
  3783 ;;		None
  3784 ;; Auto vars:     Size  Location     Type
  3785 ;;		None
  3786 ;; Return value:  Size  Location     Type
  3787 ;;                  1    wreg      void 
  3788 ;; Registers used:
  3789 ;;		None
  3790 ;; Tracked objects:
  3791 ;;		On entry : 0/0
  3792 ;;		On exit  : 0/0
  3793 ;;		Unchanged: 0/0
  3794 ;; Data sizes:     COMRAM   BANK0   BANK1   BANK2   BANK3   BANK4   BANK5   BANK6   BANK7   BANK8   BANK9  BANK10  BANK1
      +1  BANK12  BANK13  BANK14  BANK15  BANK16  BANK17  BANK18  BANK19  BANK20  BANK21  BANK22  BANK23  BANK24  BANK25  BANK2
      +6  BANK27  BANK28  BANK29  BANK30  BANK31
  3795 ;;      Params:         0       0       0       0       0       0       0       0       0       0       0       0       
      +0       0       0       0       0       0       0       0       0       0       0       0       0       0       0       
      +0       0       0       0       0       0
  3796 ;;      Locals:         0       0       0       0       0       0       0       0       0       0       0       0       
      +0       0       0       0       0       0       0       0       0       0       0       0       0       0       0       
      +0       0       0       0       0       0
  3797 ;;      Temps:          0       0       0       0       0       0       0       0       0       0       0       0       
      +0       0       0       0       0       0       0       0       0       0       0       0       0       0       0       
      +0       0       0       0       0       0
  3798 ;;      Totals:         0       0       0       0       0       0       0       0       0       0       0       0       
      +0       0       0       0       0       0       0       0       0       0       0       0       0       0       0       
      +0       0       0       0       0       0
  3799 ;;Total ram usage:        0 bytes
  3800 ;; Hardware stack levels used:    1
  3801 ;; This function calls:
  3802 ;;		Nothing
  3803 ;; This function is called by:
  3804 ;;		Interrupt level 2
  3805 ;; This function uses a non-reentrant model
  3806 ;;
  3807                           
  3808                           	psect	text42
  3809  00297C                     __ptext42:
  3810                           	opt callstack 0
  3811  00297C                     _Default_ISR:
  3812                           	opt callstack 25
  3813                           
  3814                           ;incstack = 0
  3815  00297C  0011               	retfie		f
  3816  00297E                     __end_of_Default_ISR:
  3817                           	opt callstack 0
  3818                           
  3819 ;; *************** function _ADCC_ISR *****************
  3820 ;; Defined at:
  3821 ;;		line 307 in file "mcc_generated_files/adcc.c"
  3822 ;; Parameters:    Size  Location     Type
  3823 ;;		None
  3824 ;; Auto vars:     Size  Location     Type
  3825 ;;		None
  3826 ;; Return value:  Size  Location     Type
  3827 ;;                  1    wreg      void 
  3828 ;; Registers used:
  3829 ;;		wreg, status,2, status,0, pclath, tosl, cstack
  3830 ;; Tracked objects:
  3831 ;;		On entry : 0/0
  3832 ;;		On exit  : 0/0
  3833 ;;		Unchanged: 0/0
  3834 ;; Data sizes:     COMRAM   BANK0   BANK1   BANK2   BANK3   BANK4   BANK5   BANK6   BANK7   BANK8   BANK9  BANK10  BANK1
      +1  BANK12  BANK13  BANK14  BANK15  BANK16  BANK17  BANK18  BANK19  BANK20  BANK21  BANK22  BANK23  BANK24  BANK25  BANK2
      +6  BANK27  BANK28  BANK29  BANK30  BANK31
  3835 ;;      Params:         0       0       0       0       0       0       0       0       0       0       0       0       
      +0       0       0       0       0       0       0       0       0       0       0       0       0       0       0       
      +0       0       0       0       0       0
  3836 ;;      Locals:         0       0       0       0       0       0       0       0       0       0       0       0       
      +0       0       0       0       0       0       0       0       0       0       0       0       0       0       0       
      +0       0       0       0       0       0
  3837 ;;      Temps:          0       0       0       0       0       0       0       0       0       0       0       0       
      +0       0       0       0       0       0       0       0       0       0       0       0       0       0       0       
      +0       0       0       0       0       0
  3838 ;;      Totals:         0       0       0       0       0       0       0       0       0       0       0       0       
      +0       0       0       0       0       0       0       0       0       0       0       0       0       0       0       
      +0       0       0       0       0       0
  3839 ;;Total ram usage:        0 bytes
  3840 ;; Hardware stack levels used:    1
  3841 ;; Hardware stack levels required when called:    1
  3842 ;; This function calls:
  3843 ;;		Absolute function
  3844 ;;		_ADCC_DefaultInterruptHandler
  3845 ;; This function is called by:
  3846 ;;		Interrupt level 2
  3847 ;; This function uses a non-reentrant model
  3848 ;;
  3849                           
  3850                           	psect	text43
  3851  0025E0                     __ptext43:
  3852                           	opt callstack 0
  3853  0025E0                     _ADCC_ISR:
  3854                           	opt callstack 24
  3855                           
  3856                           ;adcc.c: 310: PIR1bits.ADIF = 0;
  3857                           
  3858                           ;incstack = 0
  3859  0025E0  0139               	movlb	57	; () banked
  3860  0025E2  95A1               	bcf	161,2,b	;volatile
  3861                           
  3862                           ; BSR set to: 57
  3863                           ;adcc.c: 312: if (ADCC_ADI_InterruptHandler)
  3864  0025E4  5020               	movf	_ADCC_ADI_InterruptHandler,w,c
  3865  0025E6  1021               	iorwf	_ADCC_ADI_InterruptHandler+1,w,c
  3866  0025E8  1022               	iorwf	_ADCC_ADI_InterruptHandler+2,w,c
  3867  0025EA  B4D8               	btfsc	status,2,c
  3868  0025EC  0011               	retfie		f
  3869                           
  3870                           ; BSR set to: 57
  3871                           ;adcc.c: 313: ADCC_ADI_InterruptHandler();
  3872  0025EE  D801               	call	i2u31_48
  3873  0025F0  0011               	retfie		f
  3874  0025F2                     i2u31_48:
  3875  0025F2  0005               	push	
  3876  0025F4  6EFA               	movwf	pclath,c
  3877  0025F6  5020               	movf	_ADCC_ADI_InterruptHandler,w,c
  3878  0025F8  6EFD               	movwf	tosl,c
  3879  0025FA  5021               	movf	_ADCC_ADI_InterruptHandler+1,w,c
  3880  0025FC  6EFE               	movwf	tosh,c
  3881  0025FE  5022               	movf	_ADCC_ADI_InterruptHandler+2,w,c
  3882  002600  6EFF               	movwf	tosu,c
  3883  002602  50FA               	movf	pclath,w,c
  3884  002604  0012               	return		;indir
  3885  002606                     __end_of_ADCC_ISR:
  3886                           	opt callstack 0
  3887                           
  3888 ;; *************** function _ADCC_DefaultInterruptHandler *****************
  3889 ;; Defined at:
  3890 ;;		line 320 in file "mcc_generated_files/adcc.c"
  3891 ;; Parameters:    Size  Location     Type
  3892 ;;		None
  3893 ;; Auto vars:     Size  Location     Type
  3894 ;;		None
  3895 ;; Return value:  Size  Location     Type
  3896 ;;                  1    wreg      void 
  3897 ;; Registers used:
  3898 ;;		None
  3899 ;; Tracked objects:
  3900 ;;		On entry : 0/0
  3901 ;;		On exit  : 0/0
  3902 ;;		Unchanged: 0/0
  3903 ;; Data sizes:     COMRAM   BANK0   BANK1   BANK2   BANK3   BANK4   BANK5   BANK6   BANK7   BANK8   BANK9  BANK10  BANK1
      +1  BANK12  BANK13  BANK14  BANK15  BANK16  BANK17  BANK18  BANK19  BANK20  BANK21  BANK22  BANK23  BANK24  BANK25  BANK2
      +6  BANK27  BANK28  BANK29  BANK30  BANK31
  3904 ;;      Params:         0       0       0       0       0       0       0       0       0       0       0       0       
      +0       0       0       0       0       0       0       0       0       0       0       0       0       0       0       
      +0       0       0       0       0       0
  3905 ;;      Locals:         0       0       0       0       0       0       0       0       0       0       0       0       
      +0       0       0       0       0       0       0       0       0       0       0       0       0       0       0       
      +0       0       0       0       0       0
  3906 ;;      Temps:          0       0       0       0       0       0       0       0       0       0       0       0       
      +0       0       0       0       0       0       0       0       0       0       0       0       0       0       0       
      +0       0       0       0       0       0
  3907 ;;      Totals:         0       0       0       0       0       0       0       0       0       0       0       0       
      +0       0       0       0       0       0       0       0       0       0       0       0       0       0       0       
      +0       0       0       0       0       0
  3908 ;;Total ram usage:        0 bytes
  3909 ;; Hardware stack levels used:    1
  3910 ;; This function calls:
  3911 ;;		Nothing
  3912 ;; This function is called by:
  3913 ;;		_ADCC_Initialize
  3914 ;;		_ADCC_ISR
  3915 ;; This function uses a non-reentrant model
  3916 ;;
  3917                           
  3918                           	psect	text44
  3919  00297E                     __ptext44:
  3920                           	opt callstack 0
  3921  00297E                     _ADCC_DefaultInterruptHandler:
  3922                           	opt callstack 24
  3923                           
  3924                           ;incstack = 0
  3925  00297E  0012               	return		;funcret
  3926  002980                     __end_of_ADCC_DefaultInterruptHandler:
  3927                           	opt callstack 0
  3928                           
  3929 ;; *************** function _UART1_tx_vect_isr *****************
  3930 ;; Defined at:
  3931 ;;		line 204 in file "mcc_generated_files/uart1.c"
  3932 ;; Parameters:    Size  Location     Type
  3933 ;;		None
  3934 ;; Auto vars:     Size  Location     Type
  3935 ;;		None
  3936 ;; Return value:  Size  Location     Type
  3937 ;;                  1    wreg      void 
  3938 ;; Registers used:
  3939 ;;		wreg, fsr2l, fsr2h, status,2, status,0, pclath, tosl, cstack
  3940 ;; Tracked objects:
  3941 ;;		On entry : 0/0
  3942 ;;		On exit  : 0/0
  3943 ;;		Unchanged: 0/0
  3944 ;; Data sizes:     COMRAM   BANK0   BANK1   BANK2   BANK3   BANK4   BANK5   BANK6   BANK7   BANK8   BANK9  BANK10  BANK1
      +1  BANK12  BANK13  BANK14  BANK15  BANK16  BANK17  BANK18  BANK19  BANK20  BANK21  BANK22  BANK23  BANK24  BANK25  BANK2
      +6  BANK27  BANK28  BANK29  BANK30  BANK31
  3945 ;;      Params:         0       0       0       0       0       0       0       0       0       0       0       0       
      +0       0       0       0       0       0       0       0       0       0       0       0       0       0       0       
      +0       0       0       0       0       0
  3946 ;;      Locals:         0       0       0       0       0       0       0       0       0       0       0       0       
      +0       0       0       0       0       0       0       0       0       0       0       0       0       0       0       
      +0       0       0       0       0       0
  3947 ;;      Temps:          0       0       0       0       0       0       0       0       0       0       0       0       
      +0       0       0       0       0       0       0       0       0       0       0       0       0       0       0       
      +0       0       0       0       0       0
  3948 ;;      Totals:         0       0       0       0       0       0       0       0       0       0       0       0       
      +0       0       0       0       0       0       0       0       0       0       0       0       0       0       0       
      +0       0       0       0       0       0
  3949 ;;Total ram usage:        0 bytes
  3950 ;; Hardware stack levels used:    1
  3951 ;; Hardware stack levels required when called:    1
  3952 ;; This function calls:
  3953 ;;		Absolute function
  3954 ;;		_UART1_Transmit_ISR
  3955 ;; This function is called by:
  3956 ;;		Interrupt level 2
  3957 ;; This function uses a non-reentrant model
  3958 ;;
  3959                           
  3960                           	psect	text45
  3961  0026FC                     __ptext45:
  3962                           	opt callstack 0
  3963  0026FC                     _UART1_tx_vect_isr:
  3964                           	opt callstack 24
  3965                           
  3966                           ;uart1.c: 206: if(UART1_TxInterruptHandler)
  3967                           
  3968                           ;incstack = 0
  3969  0026FC  5023               	movf	_UART1_TxInterruptHandler,w,c
  3970  0026FE  1024               	iorwf	_UART1_TxInterruptHandler+1,w,c
  3971  002700  1025               	iorwf	_UART1_TxInterruptHandler+2,w,c
  3972  002702  B4D8               	btfsc	status,2,c
  3973  002704  0011               	retfie		f
  3974                           
  3975                           ;uart1.c: 207: {;uart1.c: 208: UART1_TxInterruptHandler();
  3976  002706  D801               	call	i2u38_48
  3977  002708  0011               	retfie		f
  3978  00270A                     i2u38_48:
  3979  00270A  0005               	push	
  3980  00270C  6EFA               	movwf	pclath,c
  3981  00270E  5023               	movf	_UART1_TxInterruptHandler,w,c
  3982  002710  6EFD               	movwf	tosl,c
  3983  002712  5024               	movf	_UART1_TxInterruptHandler+1,w,c
  3984  002714  6EFE               	movwf	tosh,c
  3985  002716  5025               	movf	_UART1_TxInterruptHandler+2,w,c
  3986  002718  6EFF               	movwf	tosu,c
  3987  00271A  50FA               	movf	pclath,w,c
  3988  00271C  0012               	return		;indir
  3989  00271E                     __end_of_UART1_tx_vect_isr:
  3990                           	opt callstack 0
  3991                           
  3992 ;; *************** function _UART1_Transmit_ISR *****************
  3993 ;; Defined at:
  3994 ;;		line 222 in file "mcc_generated_files/uart1.c"
  3995 ;; Parameters:    Size  Location     Type
  3996 ;;		None
  3997 ;; Auto vars:     Size  Location     Type
  3998 ;;		None
  3999 ;; Return value:  Size  Location     Type
  4000 ;;                  1    wreg      void 
  4001 ;; Registers used:
  4002 ;;		wreg, fsr2l, fsr2h, status,2, status,0
  4003 ;; Tracked objects:
  4004 ;;		On entry : 0/0
  4005 ;;		On exit  : 0/0
  4006 ;;		Unchanged: 0/0
  4007 ;; Data sizes:     COMRAM   BANK0   BANK1   BANK2   BANK3   BANK4   BANK5   BANK6   BANK7   BANK8   BANK9  BANK10  BANK1
      +1  BANK12  BANK13  BANK14  BANK15  BANK16  BANK17  BANK18  BANK19  BANK20  BANK21  BANK22  BANK23  BANK24  BANK25  BANK2
      +6  BANK27  BANK28  BANK29  BANK30  BANK31
  4008 ;;      Params:         0       0       0       0       0       0       0       0       0       0       0       0       
      +0       0       0       0       0       0       0       0       0       0       0       0       0       0       0       
      +0       0       0       0       0       0
  4009 ;;      Locals:         0       0       0       0       0       0       0       0       0       0       0       0       
      +0       0       0       0       0       0       0       0       0       0       0       0       0       0       0       
      +0       0       0       0       0       0
  4010 ;;      Temps:          0       0       0       0       0       0       0       0       0       0       0       0       
      +0       0       0       0       0       0       0       0       0       0       0       0       0       0       0       
      +0       0       0       0       0       0
  4011 ;;      Totals:         0       0       0       0       0       0       0       0       0       0       0       0       
      +0       0       0       0       0       0       0       0       0       0       0       0       0       0       0       
      +0       0       0       0       0       0
  4012 ;;Total ram usage:        0 bytes
  4013 ;; Hardware stack levels used:    1
  4014 ;; This function calls:
  4015 ;;		Nothing
  4016 ;; This function is called by:
  4017 ;;		_UART1_Initialize
  4018 ;;		_UART1_tx_vect_isr
  4019 ;; This function uses a non-reentrant model
  4020 ;;
  4021                           
  4022                           	psect	text46
  4023  002530                     __ptext46:
  4024                           	opt callstack 0
  4025  002530                     _UART1_Transmit_ISR:
  4026                           	opt callstack 24
  4027                           
  4028                           ;uart1.c: 225: if(sizeof(uart1TxBuffer) > uart1TxBufferRemaining)
  4029                           
  4030                           ;incstack = 0
  4031  002530  0E08               	movlw	8
  4032  002532  6043               	cpfslt	_uart1TxBufferRemaining,c	;volatile
  4033  002534  D011               	goto	i2l575
  4034                           
  4035                           ;uart1.c: 226: {;uart1.c: 227: U1TXB = uart1TxBuffer[uart1TxTail++];
  4036  002536  0E11               	movlw	low _uart1TxBuffer
  4037  002538  2444               	addwf	_uart1TxTail,w,c	;volatile
  4038  00253A  6ED9               	movwf	fsr2l,c
  4039  00253C  6ADA               	clrf	fsr2h,c
  4040  00253E  0E00               	movlw	high _uart1TxBuffer
  4041  002540  22DA               	addwfc	fsr2h,f,c
  4042  002542  50DF               	movf	indf2,w,c
  4043  002544  013D               	movlb	61	; () banked
  4044  002546  6FEA               	movwf	234,b	;volatile
  4045                           
  4046                           ; BSR set to: 61
  4047  002548  2A44               	incf	_uart1TxTail,f,c	;volatile
  4048                           
  4049                           ; BSR set to: 61
  4050                           ;uart1.c: 228: if(sizeof(uart1TxBuffer) <= uart1TxTail)
  4051  00254A  0E07               	movlw	7
  4052  00254C  6444               	cpfsgt	_uart1TxTail,c	;volatile
  4053  00254E  D002               	goto	i2l2060
  4054                           
  4055                           ; BSR set to: 61
  4056                           ;uart1.c: 229: {;uart1.c: 230: uart1TxTail = 0;
  4057  002550  0E00               	movlw	0
  4058  002552  6E44               	movwf	_uart1TxTail,c	;volatile
  4059  002554                     i2l2060:
  4060                           
  4061                           ; BSR set to: 61
  4062                           ;uart1.c: 231: };uart1.c: 232: uart1TxBufferRemaining++;
  4063  002554  2A43               	incf	_uart1TxBufferRemaining,f,c	;volatile
  4064                           
  4065                           ;uart1.c: 233: }
  4066  002556  0012               	return	
  4067  002558                     i2l575:
  4068                           
  4069                           ;uart1.c: 234: else;uart1.c: 235: {;uart1.c: 236: PIE3bits.U1TXIE = 0;
  4070  002558  0139               	movlb	57	; () banked
  4071  00255A  9993               	bcf	147,4,b	;volatile
  4072  00255C  0012               	return		;funcret
  4073  00255E                     __end_of_UART1_Transmit_ISR:
  4074                           	opt callstack 0
  4075                           
  4076 ;; *************** function _UART1_rx_vect_isr *****************
  4077 ;; Defined at:
  4078 ;;		line 212 in file "mcc_generated_files/uart1.c"
  4079 ;; Parameters:    Size  Location     Type
  4080 ;;		None
  4081 ;; Auto vars:     Size  Location     Type
  4082 ;;		None
  4083 ;; Return value:  Size  Location     Type
  4084 ;;                  1    wreg      void 
  4085 ;; Registers used:
  4086 ;;		wreg, fsr2l, fsr2h, status,2, status,0, pclath, tosl, cstack
  4087 ;; Tracked objects:
  4088 ;;		On entry : 0/0
  4089 ;;		On exit  : 0/0
  4090 ;;		Unchanged: 0/0
  4091 ;; Data sizes:     COMRAM   BANK0   BANK1   BANK2   BANK3   BANK4   BANK5   BANK6   BANK7   BANK8   BANK9  BANK10  BANK1
      +1  BANK12  BANK13  BANK14  BANK15  BANK16  BANK17  BANK18  BANK19  BANK20  BANK21  BANK22  BANK23  BANK24  BANK25  BANK2
      +6  BANK27  BANK28  BANK29  BANK30  BANK31
  4092 ;;      Params:         0       0       0       0       0       0       0       0       0       0       0       0       
      +0       0       0       0       0       0       0       0       0       0       0       0       0       0       0       
      +0       0       0       0       0       0
  4093 ;;      Locals:         0       0       0       0       0       0       0       0       0       0       0       0       
      +0       0       0       0       0       0       0       0       0       0       0       0       0       0       0       
      +0       0       0       0       0       0
  4094 ;;      Temps:          0       0       0       0       0       0       0       0       0       0       0       0       
      +0       0       0       0       0       0       0       0       0       0       0       0       0       0       0       
      +0       0       0       0       0       0
  4095 ;;      Totals:         0       0       0       0       0       0       0       0       0       0       0       0       
      +0       0       0       0       0       0       0       0       0       0       0       0       0       0       0       
      +0       0       0       0       0       0
  4096 ;;Total ram usage:        0 bytes
  4097 ;; Hardware stack levels used:    1
  4098 ;; Hardware stack levels required when called:    1
  4099 ;; This function calls:
  4100 ;;		Absolute function
  4101 ;;		_UART1_Receive_ISR
  4102 ;; This function is called by:
  4103 ;;		Interrupt level 2
  4104 ;; This function uses a non-reentrant model
  4105 ;;
  4106                           
  4107                           	psect	text47
  4108  002720                     __ptext47:
  4109                           	opt callstack 0
  4110  002720                     _UART1_rx_vect_isr:
  4111                           	opt callstack 24
  4112                           
  4113                           ;uart1.c: 214: if(UART1_RxInterruptHandler)
  4114                           
  4115                           ;incstack = 0
  4116  002720  5026               	movf	_UART1_RxInterruptHandler,w,c
  4117  002722  1027               	iorwf	_UART1_RxInterruptHandler+1,w,c
  4118  002724  1028               	iorwf	_UART1_RxInterruptHandler+2,w,c
  4119  002726  B4D8               	btfsc	status,2,c
  4120  002728  0011               	retfie		f
  4121                           
  4122                           ;uart1.c: 215: {;uart1.c: 216: UART1_RxInterruptHandler();
  4123  00272A  D801               	call	i2u40_48
  4124  00272C  0011               	retfie		f
  4125  00272E                     i2u40_48:
  4126  00272E  0005               	push	
  4127  002730  6EFA               	movwf	pclath,c
  4128  002732  5026               	movf	_UART1_RxInterruptHandler,w,c
  4129  002734  6EFD               	movwf	tosl,c
  4130  002736  5027               	movf	_UART1_RxInterruptHandler+1,w,c
  4131  002738  6EFE               	movwf	tosh,c
  4132  00273A  5028               	movf	_UART1_RxInterruptHandler+2,w,c
  4133  00273C  6EFF               	movwf	tosu,c
  4134  00273E  50FA               	movf	pclath,w,c
  4135  002740  0012               	return		;indir
  4136  002742                     __end_of_UART1_rx_vect_isr:
  4137                           	opt callstack 0
  4138                           
  4139 ;; *************** function _UART1_Receive_ISR *****************
  4140 ;; Defined at:
  4141 ;;		line 242 in file "mcc_generated_files/uart1.c"
  4142 ;; Parameters:    Size  Location     Type
  4143 ;;		None
  4144 ;; Auto vars:     Size  Location     Type
  4145 ;;		None
  4146 ;; Return value:  Size  Location     Type
  4147 ;;                  1    wreg      void 
  4148 ;; Registers used:
  4149 ;;		wreg, fsr2l, fsr2h, status,2, status,0
  4150 ;; Tracked objects:
  4151 ;;		On entry : 0/0
  4152 ;;		On exit  : 0/0
  4153 ;;		Unchanged: 0/0
  4154 ;; Data sizes:     COMRAM   BANK0   BANK1   BANK2   BANK3   BANK4   BANK5   BANK6   BANK7   BANK8   BANK9  BANK10  BANK1
      +1  BANK12  BANK13  BANK14  BANK15  BANK16  BANK17  BANK18  BANK19  BANK20  BANK21  BANK22  BANK23  BANK24  BANK25  BANK2
      +6  BANK27  BANK28  BANK29  BANK30  BANK31
  4155 ;;      Params:         0       0       0       0       0       0       0       0       0       0       0       0       
      +0       0       0       0       0       0       0       0       0       0       0       0       0       0       0       
      +0       0       0       0       0       0
  4156 ;;      Locals:         0       0       0       0       0       0       0       0       0       0       0       0       
      +0       0       0       0       0       0       0       0       0       0       0       0       0       0       0       
      +0       0       0       0       0       0
  4157 ;;      Temps:          0       0       0       0       0       0       0       0       0       0       0       0       
      +0       0       0       0       0       0       0       0       0       0       0       0       0       0       0       
      +0       0       0       0       0       0
  4158 ;;      Totals:         0       0       0       0       0       0       0       0       0       0       0       0       
      +0       0       0       0       0       0       0       0       0       0       0       0       0       0       0       
      +0       0       0       0       0       0
  4159 ;;Total ram usage:        0 bytes
  4160 ;; Hardware stack levels used:    1
  4161 ;; This function calls:
  4162 ;;		Nothing
  4163 ;; This function is called by:
  4164 ;;		_UART1_Initialize
  4165 ;;		_UART1_rx_vect_isr
  4166 ;; This function uses a non-reentrant model
  4167 ;;
  4168                           
  4169                           	psect	text48
  4170  002742                     __ptext48:
  4171                           	opt callstack 0
  4172  002742                     _UART1_Receive_ISR:
  4173                           	opt callstack 24
  4174                           
  4175                           ;uart1.c: 245: uart1RxBuffer[uart1RxHead++] = U1RXB;
  4176                           
  4177                           ;incstack = 0
  4178  002742  0E09               	movlw	low _uart1RxBuffer
  4179  002744  2442               	addwf	_uart1RxHead,w,c	;volatile
  4180  002746  6ED9               	movwf	fsr2l,c
  4181  002748  6ADA               	clrf	fsr2h,c
  4182  00274A  0E00               	movlw	high _uart1RxBuffer
  4183  00274C  22DA               	addwfc	fsr2h,f,c
  4184  00274E  006F F7A3 FFDF     	movff	15848,indf2	;volatile
  4185  002754  2A42               	incf	_uart1RxHead,f,c	;volatile
  4186                           
  4187                           ;uart1.c: 246: if(sizeof(uart1RxBuffer) <= uart1RxHead)
  4188  002756  0E07               	movlw	7
  4189  002758  6442               	cpfsgt	_uart1RxHead,c	;volatile
  4190  00275A  D002               	goto	i2l2070
  4191                           
  4192                           ;uart1.c: 247: {;uart1.c: 248: uart1RxHead = 0;
  4193  00275C  0E00               	movlw	0
  4194  00275E  6E42               	movwf	_uart1RxHead,c	;volatile
  4195  002760                     i2l2070:
  4196                           
  4197                           ;uart1.c: 249: };uart1.c: 250: uart1RxCount++;
  4198  002760  2A40               	incf	_uart1RxCount,f,c	;volatile
  4199  002762  0012               	return		;funcret
  4200  002764                     __end_of_UART1_Receive_ISR:
  4201                           	opt callstack 0
  4202                           
  4203 ;; *************** function _UART2_tx_vect_isr *****************
  4204 ;; Defined at:
  4205 ;;		line 195 in file "mcc_generated_files/uart2.c"
  4206 ;; Parameters:    Size  Location     Type
  4207 ;;		None
  4208 ;; Auto vars:     Size  Location     Type
  4209 ;;		None
  4210 ;; Return value:  Size  Location     Type
  4211 ;;                  1    wreg      void 
  4212 ;; Registers used:
  4213 ;;		wreg, fsr2l, fsr2h, status,2, status,0, pclath, tosl, cstack
  4214 ;; Tracked objects:
  4215 ;;		On entry : 0/0
  4216 ;;		On exit  : 0/0
  4217 ;;		Unchanged: 0/0
  4218 ;; Data sizes:     COMRAM   BANK0   BANK1   BANK2   BANK3   BANK4   BANK5   BANK6   BANK7   BANK8   BANK9  BANK10  BANK1
      +1  BANK12  BANK13  BANK14  BANK15  BANK16  BANK17  BANK18  BANK19  BANK20  BANK21  BANK22  BANK23  BANK24  BANK25  BANK2
      +6  BANK27  BANK28  BANK29  BANK30  BANK31
  4219 ;;      Params:         0       0       0       0       0       0       0       0       0       0       0       0       
      +0       0       0       0       0       0       0       0       0       0       0       0       0       0       0       
      +0       0       0       0       0       0
  4220 ;;      Locals:         0       0       0       0       0       0       0       0       0       0       0       0       
      +0       0       0       0       0       0       0       0       0       0       0       0       0       0       0       
      +0       0       0       0       0       0
  4221 ;;      Temps:          0       0       0       0       0       0       0       0       0       0       0       0       
      +0       0       0       0       0       0       0       0       0       0       0       0       0       0       0       
      +0       0       0       0       0       0
  4222 ;;      Totals:         0       0       0       0       0       0       0       0       0       0       0       0       
      +0       0       0       0       0       0       0       0       0       0       0       0       0       0       0       
      +0       0       0       0       0       0
  4223 ;;Total ram usage:        0 bytes
  4224 ;; Hardware stack levels used:    1
  4225 ;; Hardware stack levels required when called:    1
  4226 ;; This function calls:
  4227 ;;		Absolute function
  4228 ;;		_UART2_Transmit_ISR
  4229 ;; This function is called by:
  4230 ;;		Interrupt level 2
  4231 ;; This function uses a non-reentrant model
  4232 ;;
  4233                           
  4234                           	psect	text49
  4235  002764                     __ptext49:
  4236                           	opt callstack 0
  4237  002764                     _UART2_tx_vect_isr:
  4238                           	opt callstack 24
  4239                           
  4240                           ;uart2.c: 197: if(UART2_TxInterruptHandler)
  4241                           
  4242                           ;incstack = 0
  4243  002764  5029               	movf	_UART2_TxInterruptHandler,w,c
  4244  002766  102A               	iorwf	_UART2_TxInterruptHandler+1,w,c
  4245  002768  102B               	iorwf	_UART2_TxInterruptHandler+2,w,c
  4246  00276A  B4D8               	btfsc	status,2,c
  4247  00276C  0011               	retfie		f
  4248                           
  4249                           ;uart2.c: 198: {;uart2.c: 199: UART2_TxInterruptHandler();
  4250  00276E  D801               	call	i2u47_48
  4251  002770  0011               	retfie		f
  4252  002772                     i2u47_48:
  4253  002772  0005               	push	
  4254  002774  6EFA               	movwf	pclath,c
  4255  002776  5029               	movf	_UART2_TxInterruptHandler,w,c
  4256  002778  6EFD               	movwf	tosl,c
  4257  00277A  502A               	movf	_UART2_TxInterruptHandler+1,w,c
  4258  00277C  6EFE               	movwf	tosh,c
  4259  00277E  502B               	movf	_UART2_TxInterruptHandler+2,w,c
  4260  002780  6EFF               	movwf	tosu,c
  4261  002782  50FA               	movf	pclath,w,c
  4262  002784  0012               	return		;indir
  4263  002786                     __end_of_UART2_tx_vect_isr:
  4264                           	opt callstack 0
  4265                           
  4266 ;; *************** function _UART2_Transmit_ISR *****************
  4267 ;; Defined at:
  4268 ;;		line 213 in file "mcc_generated_files/uart2.c"
  4269 ;; Parameters:    Size  Location     Type
  4270 ;;		None
  4271 ;; Auto vars:     Size  Location     Type
  4272 ;;		None
  4273 ;; Return value:  Size  Location     Type
  4274 ;;                  1    wreg      void 
  4275 ;; Registers used:
  4276 ;;		wreg, fsr2l, fsr2h, status,2, status,0
  4277 ;; Tracked objects:
  4278 ;;		On entry : 0/0
  4279 ;;		On exit  : 0/0
  4280 ;;		Unchanged: 0/0
  4281 ;; Data sizes:     COMRAM   BANK0   BANK1   BANK2   BANK3   BANK4   BANK5   BANK6   BANK7   BANK8   BANK9  BANK10  BANK1
      +1  BANK12  BANK13  BANK14  BANK15  BANK16  BANK17  BANK18  BANK19  BANK20  BANK21  BANK22  BANK23  BANK24  BANK25  BANK2
      +6  BANK27  BANK28  BANK29  BANK30  BANK31
  4282 ;;      Params:         0       0       0       0       0       0       0       0       0       0       0       0       
      +0       0       0       0       0       0       0       0       0       0       0       0       0       0       0       
      +0       0       0       0       0       0
  4283 ;;      Locals:         0       0       0       0       0       0       0       0       0       0       0       0       
      +0       0       0       0       0       0       0       0       0       0       0       0       0       0       0       
      +0       0       0       0       0       0
  4284 ;;      Temps:          0       0       0       0       0       0       0       0       0       0       0       0       
      +0       0       0       0       0       0       0       0       0       0       0       0       0       0       0       
      +0       0       0       0       0       0
  4285 ;;      Totals:         0       0       0       0       0       0       0       0       0       0       0       0       
      +0       0       0       0       0       0       0       0       0       0       0       0       0       0       0       
      +0       0       0       0       0       0
  4286 ;;Total ram usage:        0 bytes
  4287 ;; Hardware stack levels used:    1
  4288 ;; This function calls:
  4289 ;;		Nothing
  4290 ;; This function is called by:
  4291 ;;		_UART2_Initialize
  4292 ;;		_UART2_tx_vect_isr
  4293 ;; This function uses a non-reentrant model
  4294 ;;
  4295                           
  4296                           	psect	text50
  4297  00255E                     __ptext50:
  4298                           	opt callstack 0
  4299  00255E                     _UART2_Transmit_ISR:
  4300                           	opt callstack 24
  4301                           
  4302                           ;uart2.c: 216: if(sizeof(uart2TxBuffer) > uart2TxBufferRemaining)
  4303                           
  4304                           ;incstack = 0
  4305  00255E  0E08               	movlw	8
  4306  002560  603D               	cpfslt	_uart2TxBufferRemaining,c	;volatile
  4307  002562  D011               	goto	i2l691
  4308                           
  4309                           ;uart2.c: 217: {;uart2.c: 218: U2TXB = uart2TxBuffer[uart2TxTail++];
  4310  002564  0E01               	movlw	low _uart2TxBuffer
  4311  002566  243E               	addwf	_uart2TxTail,w,c	;volatile
  4312  002568  6ED9               	movwf	fsr2l,c
  4313  00256A  6ADA               	clrf	fsr2h,c
  4314  00256C  0E00               	movlw	high _uart2TxBuffer
  4315  00256E  22DA               	addwfc	fsr2h,f,c
  4316  002570  50DF               	movf	indf2,w,c
  4317  002572  013D               	movlb	61	; () banked
  4318  002574  6FD2               	movwf	210,b	;volatile
  4319                           
  4320                           ; BSR set to: 61
  4321  002576  2A3E               	incf	_uart2TxTail,f,c	;volatile
  4322                           
  4323                           ; BSR set to: 61
  4324                           ;uart2.c: 219: if(sizeof(uart2TxBuffer) <= uart2TxTail)
  4325  002578  0E07               	movlw	7
  4326  00257A  643E               	cpfsgt	_uart2TxTail,c	;volatile
  4327  00257C  D002               	goto	i2l2082
  4328                           
  4329                           ; BSR set to: 61
  4330                           ;uart2.c: 220: {;uart2.c: 221: uart2TxTail = 0;
  4331  00257E  0E00               	movlw	0
  4332  002580  6E3E               	movwf	_uart2TxTail,c	;volatile
  4333  002582                     i2l2082:
  4334                           
  4335                           ; BSR set to: 61
  4336                           ;uart2.c: 222: };uart2.c: 223: uart2TxBufferRemaining++;
  4337  002582  2A3D               	incf	_uart2TxBufferRemaining,f,c	;volatile
  4338                           
  4339                           ;uart2.c: 224: }
  4340  002584  0012               	return	
  4341  002586                     i2l691:
  4342                           
  4343                           ;uart2.c: 225: else;uart2.c: 226: {;uart2.c: 227: PIE6bits.U2TXIE = 0;
  4344  002586  0139               	movlb	57	; () banked
  4345  002588  9796               	bcf	150,3,b	;volatile
  4346  00258A  0012               	return		;funcret
  4347  00258C                     __end_of_UART2_Transmit_ISR:
  4348                           	opt callstack 0
  4349                           
  4350 ;; *************** function _UART2_rx_vect_isr *****************
  4351 ;; Defined at:
  4352 ;;		line 203 in file "mcc_generated_files/uart2.c"
  4353 ;; Parameters:    Size  Location     Type
  4354 ;;		None
  4355 ;; Auto vars:     Size  Location     Type
  4356 ;;		None
  4357 ;; Return value:  Size  Location     Type
  4358 ;;                  1    wreg      void 
  4359 ;; Registers used:
  4360 ;;		wreg, fsr2l, fsr2h, status,2, status,0, pclath, tosl, cstack
  4361 ;; Tracked objects:
  4362 ;;		On entry : 0/0
  4363 ;;		On exit  : 0/0
  4364 ;;		Unchanged: 0/0
  4365 ;; Data sizes:     COMRAM   BANK0   BANK1   BANK2   BANK3   BANK4   BANK5   BANK6   BANK7   BANK8   BANK9  BANK10  BANK1
      +1  BANK12  BANK13  BANK14  BANK15  BANK16  BANK17  BANK18  BANK19  BANK20  BANK21  BANK22  BANK23  BANK24  BANK25  BANK2
      +6  BANK27  BANK28  BANK29  BANK30  BANK31
  4366 ;;      Params:         0       0       0       0       0       0       0       0       0       0       0       0       
      +0       0       0       0       0       0       0       0       0       0       0       0       0       0       0       
      +0       0       0       0       0       0
  4367 ;;      Locals:         0       0       0       0       0       0       0       0       0       0       0       0       
      +0       0       0       0       0       0       0       0       0       0       0       0       0       0       0       
      +0       0       0       0       0       0
  4368 ;;      Temps:          0       0       0       0       0       0       0       0       0       0       0       0       
      +0       0       0       0       0       0       0       0       0       0       0       0       0       0       0       
      +0       0       0       0       0       0
  4369 ;;      Totals:         0       0       0       0       0       0       0       0       0       0       0       0       
      +0       0       0       0       0       0       0       0       0       0       0       0       0       0       0       
      +0       0       0       0       0       0
  4370 ;;Total ram usage:        0 bytes
  4371 ;; Hardware stack levels used:    1
  4372 ;; Hardware stack levels required when called:    1
  4373 ;; This function calls:
  4374 ;;		Absolute function
  4375 ;;		_UART2_Receive_ISR
  4376 ;; This function is called by:
  4377 ;;		Interrupt level 2
  4378 ;; This function uses a non-reentrant model
  4379 ;;
  4380                           
  4381                           	psect	text51
  4382  002788                     __ptext51:
  4383                           	opt callstack 0
  4384  002788                     _UART2_rx_vect_isr:
  4385                           	opt callstack 24
  4386                           
  4387                           ;uart2.c: 205: if(UART2_RxInterruptHandler)
  4388                           
  4389                           ;incstack = 0
  4390  002788  502C               	movf	_UART2_RxInterruptHandler,w,c
  4391  00278A  102D               	iorwf	_UART2_RxInterruptHandler+1,w,c
  4392  00278C  102E               	iorwf	_UART2_RxInterruptHandler+2,w,c
  4393  00278E  B4D8               	btfsc	status,2,c
  4394  002790  0011               	retfie		f
  4395                           
  4396                           ;uart2.c: 206: {;uart2.c: 207: UART2_RxInterruptHandler();
  4397  002792  D801               	call	i2u71_48
  4398  002794  0011               	retfie		f
  4399  002796                     i2u71_48:
  4400  002796  0005               	push	
  4401  002798  6EFA               	movwf	pclath,c
  4402  00279A  502C               	movf	_UART2_RxInterruptHandler,w,c
  4403  00279C  6EFD               	movwf	tosl,c
  4404  00279E  502D               	movf	_UART2_RxInterruptHandler+1,w,c
  4405  0027A0  6EFE               	movwf	tosh,c
  4406  0027A2  502E               	movf	_UART2_RxInterruptHandler+2,w,c
  4407  0027A4  6EFF               	movwf	tosu,c
  4408  0027A6  50FA               	movf	pclath,w,c
  4409  0027A8  0012               	return		;indir
  4410  0027AA                     __end_of_UART2_rx_vect_isr:
  4411                           	opt callstack 0
  4412                           
  4413 ;; *************** function _UART2_Receive_ISR *****************
  4414 ;; Defined at:
  4415 ;;		line 233 in file "mcc_generated_files/uart2.c"
  4416 ;; Parameters:    Size  Location     Type
  4417 ;;		None
  4418 ;; Auto vars:     Size  Location     Type
  4419 ;;		None
  4420 ;; Return value:  Size  Location     Type
  4421 ;;                  1    wreg      void 
  4422 ;; Registers used:
  4423 ;;		wreg, fsr2l, fsr2h, status,2, status,0
  4424 ;; Tracked objects:
  4425 ;;		On entry : 0/0
  4426 ;;		On exit  : 0/0
  4427 ;;		Unchanged: 0/0
  4428 ;; Data sizes:     COMRAM   BANK0   BANK1   BANK2   BANK3   BANK4   BANK5   BANK6   BANK7   BANK8   BANK9  BANK10  BANK1
      +1  BANK12  BANK13  BANK14  BANK15  BANK16  BANK17  BANK18  BANK19  BANK20  BANK21  BANK22  BANK23  BANK24  BANK25  BANK2
      +6  BANK27  BANK28  BANK29  BANK30  BANK31
  4429 ;;      Params:         0       0       0       0       0       0       0       0       0       0       0       0       
      +0       0       0       0       0       0       0       0       0       0       0       0       0       0       0       
      +0       0       0       0       0       0
  4430 ;;      Locals:         0       0       0       0       0       0       0       0       0       0       0       0       
      +0       0       0       0       0       0       0       0       0       0       0       0       0       0       0       
      +0       0       0       0       0       0
  4431 ;;      Temps:          0       0       0       0       0       0       0       0       0       0       0       0       
      +0       0       0       0       0       0       0       0       0       0       0       0       0       0       0       
      +0       0       0       0       0       0
  4432 ;;      Totals:         0       0       0       0       0       0       0       0       0       0       0       0       
      +0       0       0       0       0       0       0       0       0       0       0       0       0       0       0       
      +0       0       0       0       0       0
  4433 ;;Total ram usage:        0 bytes
  4434 ;; Hardware stack levels used:    1
  4435 ;; This function calls:
  4436 ;;		Nothing
  4437 ;; This function is called by:
  4438 ;;		_UART2_Initialize
  4439 ;;		_UART2_rx_vect_isr
  4440 ;; This function uses a non-reentrant model
  4441 ;;
  4442                           
  4443                           	psect	text52
  4444  0027AA                     __ptext52:
  4445                           	opt callstack 0
  4446  0027AA                     _UART2_Receive_ISR:
  4447                           	opt callstack 24
  4448                           
  4449                           ;uart2.c: 236: uart2RxBuffer[uart2RxHead++] = U2RXB;
  4450                           
  4451                           ;incstack = 0
  4452  0027AA  0E60               	movlw	low _uart2RxBuffer
  4453  0027AC  243C               	addwf	_uart2RxHead,w,c	;volatile
  4454  0027AE  6ED9               	movwf	fsr2l,c
  4455  0027B0  6ADA               	clrf	fsr2h,c
  4456  0027B2  0E00               	movlw	high _uart2RxBuffer
  4457  0027B4  22DA               	addwfc	fsr2h,f,c
  4458  0027B6  006F F743 FFDF     	movff	15824,indf2	;volatile
  4459  0027BC  2A3C               	incf	_uart2RxHead,f,c	;volatile
  4460                           
  4461                           ;uart2.c: 237: if(sizeof(uart2RxBuffer) <= uart2RxHead)
  4462  0027BE  0E07               	movlw	7
  4463  0027C0  643C               	cpfsgt	_uart2RxHead,c	;volatile
  4464  0027C2  D002               	goto	i2l2696
  4465                           
  4466                           ;uart2.c: 238: {;uart2.c: 239: uart2RxHead = 0;
  4467  0027C4  0E00               	movlw	0
  4468  0027C6  6E3C               	movwf	_uart2RxHead,c	;volatile
  4469  0027C8                     i2l2696:
  4470                           
  4471                           ;uart2.c: 240: };uart2.c: 241: uart2RxCount++;
  4472  0027C8  2A3A               	incf	_uart2RxCount,f,c	;volatile
  4473  0027CA  0012               	return		;funcret
  4474  0027CC                     __end_of_UART2_Receive_ISR:
  4475                           	opt callstack 0
  4476                           
  4477 ;; *************** function _TMR6_ISR *****************
  4478 ;; Defined at:
  4479 ;;		line 168 in file "mcc_generated_files/tmr6.c"
  4480 ;; Parameters:    Size  Location     Type
  4481 ;;		None
  4482 ;; Auto vars:     Size  Location     Type
  4483 ;;		None
  4484 ;; Return value:  Size  Location     Type
  4485 ;;                  1    wreg      void 
  4486 ;; Registers used:
  4487 ;;		wreg, status,2, status,0, pclath, tosl, cstack
  4488 ;; Tracked objects:
  4489 ;;		On entry : 0/0
  4490 ;;		On exit  : 0/0
  4491 ;;		Unchanged: 0/0
  4492 ;; Data sizes:     COMRAM   BANK0   BANK1   BANK2   BANK3   BANK4   BANK5   BANK6   BANK7   BANK8   BANK9  BANK10  BANK1
      +1  BANK12  BANK13  BANK14  BANK15  BANK16  BANK17  BANK18  BANK19  BANK20  BANK21  BANK22  BANK23  BANK24  BANK25  BANK2
      +6  BANK27  BANK28  BANK29  BANK30  BANK31
  4493 ;;      Params:         0       0       0       0       0       0       0       0       0       0       0       0       
      +0       0       0       0       0       0       0       0       0       0       0       0       0       0       0       
      +0       0       0       0       0       0
  4494 ;;      Locals:         0       0       0       0       0       0       0       0       0       0       0       0       
      +0       0       0       0       0       0       0       0       0       0       0       0       0       0       0       
      +0       0       0       0       0       0
  4495 ;;      Temps:          0       0       0       0       0       0       0       0       0       0       0       0       
      +0       0       0       0       0       0       0       0       0       0       0       0       0       0       0       
      +0       0       0       0       0       0
  4496 ;;      Totals:         0       0       0       0       0       0       0       0       0       0       0       0       
      +0       0       0       0       0       0       0       0       0       0       0       0       0       0       0       
      +0       0       0       0       0       0
  4497 ;;Total ram usage:        0 bytes
  4498 ;; Hardware stack levels used:    1
  4499 ;; Hardware stack levels required when called:    2
  4500 ;; This function calls:
  4501 ;;		_TMR6_CallBack
  4502 ;; This function is called by:
  4503 ;;		Interrupt level 2
  4504 ;; This function uses a non-reentrant model
  4505 ;;
  4506                           
  4507                           	psect	text53
  4508  0027CC                     __ptext53:
  4509                           	opt callstack 0
  4510  0027CC                     _TMR6_ISR:
  4511                           	opt callstack 23
  4512                           
  4513                           ;tmr6.c: 170: static volatile unsigned int CountCallBack = 0;;tmr6.c: 173: PIR9bits.TMR6
      +                          IF = 0;
  4514                           
  4515                           ;incstack = 0
  4516  0027CC  0139               	movlb	57	; () banked
  4517  0027CE  91A9               	bcf	169,0,b	;volatile
  4518                           
  4519                           ; BSR set to: 57
  4520                           ;tmr6.c: 176: if (++CountCallBack >= 101)
  4521  0027D0  4A38               	infsnz	TMR6_ISR@CountCallBack,f,c	;volatile
  4522  0027D2  2A39               	incf	TMR6_ISR@CountCallBack+1,f,c	;volatile
  4523  0027D4  5039               	movf	TMR6_ISR@CountCallBack+1,w,c	;volatile
  4524  0027D6  E104               	bnz	i2u50_40
  4525  0027D8  0E65               	movlw	101
  4526  0027DA  5C38               	subwf	TMR6_ISR@CountCallBack,w,c	;volatile
  4527  0027DC  A0D8               	btfss	status,0,c
  4528  0027DE  0011               	retfie		f
  4529  0027E0                     i2u50_40:
  4530                           
  4531                           ; BSR set to: 57
  4532                           ;tmr6.c: 177: {;tmr6.c: 179: TMR6_CallBack();
  4533  0027E0  ECF7  F013         	call	_TMR6_CallBack	;wreg free
  4534                           
  4535                           ;tmr6.c: 182: CountCallBack = 0;
  4536  0027E4  0E00               	movlw	0
  4537  0027E6  6E39               	movwf	TMR6_ISR@CountCallBack+1,c	;volatile
  4538  0027E8  0E00               	movlw	0
  4539  0027EA  6E38               	movwf	TMR6_ISR@CountCallBack,c	;volatile
  4540  0027EC  0011               	retfie		f
  4541  0027EE                     __end_of_TMR6_ISR:
  4542                           	opt callstack 0
  4543                           
  4544 ;; *************** function _TMR6_CallBack *****************
  4545 ;; Defined at:
  4546 ;;		line 186 in file "mcc_generated_files/tmr6.c"
  4547 ;; Parameters:    Size  Location     Type
  4548 ;;		None
  4549 ;; Auto vars:     Size  Location     Type
  4550 ;;		None
  4551 ;; Return value:  Size  Location     Type
  4552 ;;                  1    wreg      void 
  4553 ;; Registers used:
  4554 ;;		wreg, status,2, status,0, pclath, tosl, cstack
  4555 ;; Tracked objects:
  4556 ;;		On entry : 0/0
  4557 ;;		On exit  : 0/0
  4558 ;;		Unchanged: 0/0
  4559 ;; Data sizes:     COMRAM   BANK0   BANK1   BANK2   BANK3   BANK4   BANK5   BANK6   BANK7   BANK8   BANK9  BANK10  BANK1
      +1  BANK12  BANK13  BANK14  BANK15  BANK16  BANK17  BANK18  BANK19  BANK20  BANK21  BANK22  BANK23  BANK24  BANK25  BANK2
      +6  BANK27  BANK28  BANK29  BANK30  BANK31
  4560 ;;      Params:         0       0       0       0       0       0       0       0       0       0       0       0       
      +0       0       0       0       0       0       0       0       0       0       0       0       0       0       0       
      +0       0       0       0       0       0
  4561 ;;      Locals:         0       0       0       0       0       0       0       0       0       0       0       0       
      +0       0       0       0       0       0       0       0       0       0       0       0       0       0       0       
      +0       0       0       0       0       0
  4562 ;;      Temps:          0       0       0       0       0       0       0       0       0       0       0       0       
      +0       0       0       0       0       0       0       0       0       0       0       0       0       0       0       
      +0       0       0       0       0       0
  4563 ;;      Totals:         0       0       0       0       0       0       0       0       0       0       0       0       
      +0       0       0       0       0       0       0       0       0       0       0       0       0       0       0       
      +0       0       0       0       0       0
  4564 ;;Total ram usage:        0 bytes
  4565 ;; Hardware stack levels used:    1
  4566 ;; Hardware stack levels required when called:    1
  4567 ;; This function calls:
  4568 ;;		Absolute function
  4569 ;;		_TMR6_DefaultInterruptHandler
  4570 ;; This function is called by:
  4571 ;;		_TMR6_ISR
  4572 ;; This function uses a non-reentrant model
  4573 ;;
  4574                           
  4575                           	psect	text54
  4576  0027EE                     __ptext54:
  4577                           	opt callstack 0
  4578  0027EE                     _TMR6_CallBack:
  4579                           	opt callstack 23
  4580                           
  4581                           ;tmr6.c: 190: if(TMR6_InterruptHandler)
  4582                           
  4583                           ;incstack = 0
  4584  0027EE  501D               	movf	_TMR6_InterruptHandler,w,c
  4585  0027F0  101E               	iorwf	_TMR6_InterruptHandler+1,w,c
  4586  0027F2  101F               	iorwf	_TMR6_InterruptHandler+2,w,c
  4587  0027F4  B4D8               	btfsc	status,2,c
  4588  0027F6  0012               	return	
  4589                           
  4590                           ;tmr6.c: 191: {;tmr6.c: 192: TMR6_InterruptHandler();
  4591  0027F8  D801               	call	i2u27_48
  4592  0027FA  0012               	return	
  4593  0027FC                     i2u27_48:
  4594  0027FC  0005               	push	
  4595  0027FE  6EFA               	movwf	pclath,c
  4596  002800  501D               	movf	_TMR6_InterruptHandler,w,c
  4597  002802  6EFD               	movwf	tosl,c
  4598  002804  501E               	movf	_TMR6_InterruptHandler+1,w,c
  4599  002806  6EFE               	movwf	tosh,c
  4600  002808  501F               	movf	_TMR6_InterruptHandler+2,w,c
  4601  00280A  6EFF               	movwf	tosu,c
  4602  00280C  50FA               	movf	pclath,w,c
  4603  00280E  0012               	return		;indir
  4604  002810                     __end_of_TMR6_CallBack:
  4605                           	opt callstack 0
  4606                           
  4607 ;; *************** function _TMR6_DefaultInterruptHandler *****************
  4608 ;; Defined at:
  4609 ;;		line 200 in file "mcc_generated_files/tmr6.c"
  4610 ;; Parameters:    Size  Location     Type
  4611 ;;		None
  4612 ;; Auto vars:     Size  Location     Type
  4613 ;;		None
  4614 ;; Return value:  Size  Location     Type
  4615 ;;                  1    wreg      void 
  4616 ;; Registers used:
  4617 ;;		wreg, status,2, status,0
  4618 ;; Tracked objects:
  4619 ;;		On entry : 0/0
  4620 ;;		On exit  : 0/0
  4621 ;;		Unchanged: 0/0
  4622 ;; Data sizes:     COMRAM   BANK0   BANK1   BANK2   BANK3   BANK4   BANK5   BANK6   BANK7   BANK8   BANK9  BANK10  BANK1
      +1  BANK12  BANK13  BANK14  BANK15  BANK16  BANK17  BANK18  BANK19  BANK20  BANK21  BANK22  BANK23  BANK24  BANK25  BANK2
      +6  BANK27  BANK28  BANK29  BANK30  BANK31
  4623 ;;      Params:         0       0       0       0       0       0       0       0       0       0       0       0       
      +0       0       0       0       0       0       0       0       0       0       0       0       0       0       0       
      +0       0       0       0       0       0
  4624 ;;      Locals:         0       0       0       0       0       0       0       0       0       0       0       0       
      +0       0       0       0       0       0       0       0       0       0       0       0       0       0       0       
      +0       0       0       0       0       0
  4625 ;;      Temps:          1       0       0       0       0       0       0       0       0       0       0       0       
      +0       0       0       0       0       0       0       0       0       0       0       0       0       0       0       
      +0       0       0       0       0       0
  4626 ;;      Totals:         1       0       0       0       0       0       0       0       0       0       0       0       
      +0       0       0       0       0       0       0       0       0       0       0       0       0       0       0       
      +0       0       0       0       0       0
  4627 ;;Total ram usage:        1 bytes
  4628 ;; Hardware stack levels used:    1
  4629 ;; This function calls:
  4630 ;;		Nothing
  4631 ;; This function is called by:
  4632 ;;		_TMR6_Initialize
  4633 ;;		_TMR6_CallBack
  4634 ;; This function uses a non-reentrant model
  4635 ;;
  4636                           
  4637                           	psect	text55
  4638  002860                     __ptext55:
  4639                           	opt callstack 0
  4640  002860                     _TMR6_DefaultInterruptHandler:
  4641                           	opt callstack 23
  4642                           
  4643                           ;tmr6.c: 203: LATEbits.LATE0 = (uint8_t)~LATEbits.LATE0;
  4644                           
  4645                           ;incstack = 0
  4646  002860  A0BE               	btfss	16318,0,c	;volatile
  4647  002862  D002               	goto	i2u6_40
  4648  002864  0E01               	movlw	1
  4649  002866  D001               	goto	i2u6_46
  4650  002868                     i2u6_40:
  4651  002868  0E00               	movlw	0
  4652  00286A                     i2u6_46:
  4653  00286A  0AFF               	xorlw	255
  4654  00286C  6E46               	movwf	??_TMR6_DefaultInterruptHandler& (0+255),c
  4655  00286E  50BE               	movf	16318,w,c	;volatile
  4656  002870  1846               	xorwf	??_TMR6_DefaultInterruptHandler,w,c
  4657  002872  0BFE               	andlw	-2
  4658  002874  1846               	xorwf	??_TMR6_DefaultInterruptHandler,w,c
  4659  002876  6EBE               	movwf	16318,c	;volatile
  4660  002878  0012               	return		;funcret
  4661  00287A                     __end_of_TMR6_DefaultInterruptHandler:
  4662                           	opt callstack 0
  4663                           
  4664                           ;
  4665                           ; Interrupt Vector Table @ 0x8
  4666                           ;
  4667                           
  4668                           	psect	ivt0x8
  4669  000008                     __pivt0x8:
  4670                           	opt callstack 0
  4671  000008                     ivt0x8_base:
  4672                           	opt callstack 0
  4673                           
  4674                           ; Vector 0 : SWINT
  4675  000008  0A5F               	dw	_Default_ISR shr (0+2)
  4676                           
  4677                           ; Vector 1 : HLVD
  4678  00000A  0A5F               	dw	_Default_ISR shr (0+2)
  4679                           
  4680                           ; Vector 2 : OSF
  4681  00000C  0A5F               	dw	_Default_ISR shr (0+2)
  4682                           
  4683                           ; Vector 3 : CSW
  4684  00000E  0A5F               	dw	_Default_ISR shr (0+2)
  4685                           
  4686                           ; Vector 4 : NVM
  4687  000010  0A5F               	dw	_Default_ISR shr (0+2)
  4688                           
  4689                           ; Vector 5 : SCAN
  4690  000012  0A5F               	dw	_Default_ISR shr (0+2)
  4691                           
  4692                           ; Vector 6 : CRC
  4693  000014  0A5F               	dw	_Default_ISR shr (0+2)
  4694                           
  4695                           ; Vector 7 : IOC
  4696  000016  0A5F               	dw	_Default_ISR shr (0+2)
  4697                           
  4698                           ; Vector 8 : INT0
  4699  000018  0A54               	dw	_INT0_ISR shr (0+2)
  4700                           
  4701                           ; Vector 9 : ZCD
  4702  00001A  0A5F               	dw	_Default_ISR shr (0+2)
  4703                           
  4704                           ; Vector 10 : AD
  4705  00001C  0978               	dw	_ADCC_ISR shr (0+2)
  4706                           
  4707                           ; Vector 11 : ADT
  4708  00001E  0A5F               	dw	_Default_ISR shr (0+2)
  4709                           
  4710                           ; Vector 12 : CMP1
  4711  000020  0A5F               	dw	_Default_ISR shr (0+2)
  4712                           
  4713                           ; Vector 13 : SMT1
  4714  000022  0A5F               	dw	_Default_ISR shr (0+2)
  4715                           
  4716                           ; Vector 14 : SMT1PRA
  4717  000024  0A5F               	dw	_Default_ISR shr (0+2)
  4718                           
  4719                           ; Vector 15 : SMT1PRW
  4720  000026  0A5F               	dw	_Default_ISR shr (0+2)
  4721                           
  4722                           ; Vector 16 : DMA1SCNT
  4723  000028  0A5F               	dw	_Default_ISR shr (0+2)
  4724                           
  4725                           ; Vector 17 : DMA1DCNT
  4726  00002A  0A5F               	dw	_Default_ISR shr (0+2)
  4727                           
  4728                           ; Vector 18 : DMA1OR
  4729  00002C  0A5F               	dw	_Default_ISR shr (0+2)
  4730                           
  4731                           ; Vector 19 : DMA1A
  4732  00002E  0A5F               	dw	_Default_ISR shr (0+2)
  4733                           
  4734                           ; Vector 20 : SPI1RX
  4735  000030  0A5F               	dw	_Default_ISR shr (0+2)
  4736                           
  4737                           ; Vector 21 : SPI1TX
  4738  000032  0A5F               	dw	_Default_ISR shr (0+2)
  4739                           
  4740                           ; Vector 22 : SPI1
  4741  000034  0A5F               	dw	_Default_ISR shr (0+2)
  4742                           
  4743                           ; Vector 23 : I2C1RX
  4744  000036  0A5F               	dw	_Default_ISR shr (0+2)
  4745                           
  4746                           ; Vector 24 : I2C1TX
  4747  000038  0A5F               	dw	_Default_ISR shr (0+2)
  4748                           
  4749                           ; Vector 25 : I2C1
  4750  00003A  0A5F               	dw	_Default_ISR shr (0+2)
  4751                           
  4752                           ; Vector 26 : I2C1E
  4753  00003C  0A5F               	dw	_Default_ISR shr (0+2)
  4754                           
  4755                           ; Vector 27 : U1RX
  4756  00003E  09C8               	dw	_UART1_rx_vect_isr shr (0+2)
  4757                           
  4758                           ; Vector 28 : U1TX
  4759  000040  09BF               	dw	_UART1_tx_vect_isr shr (0+2)
  4760                           
  4761                           ; Vector 29 : U1E
  4762  000042  0A5F               	dw	_Default_ISR shr (0+2)
  4763                           
  4764                           ; Vector 30 : U1
  4765  000044  0A5F               	dw	_Default_ISR shr (0+2)
  4766                           
  4767                           ; Vector 31 : TMR0
  4768  000046  0A5F               	dw	_Default_ISR shr (0+2)
  4769                           
  4770                           ; Vector 32 : TMR1
  4771  000048  0A5F               	dw	_Default_ISR shr (0+2)
  4772                           
  4773                           ; Vector 33 : TMR1G
  4774  00004A  0A5F               	dw	_Default_ISR shr (0+2)
  4775                           
  4776                           ; Vector 34 : TMR2
  4777  00004C  0A5F               	dw	_Default_ISR shr (0+2)
  4778                           
  4779                           ; Vector 35 : CCP1
  4780  00004E  0A5F               	dw	_Default_ISR shr (0+2)
  4781                           
  4782                           ; Vector 36 : Undefined
  4783  000050  002B               	dw	ivt0x8_undefint shr (0+2)
  4784                           
  4785                           ; Vector 37 : NCO1
  4786  000052  0A5F               	dw	_Default_ISR shr (0+2)
  4787                           
  4788                           ; Vector 38 : CWG1
  4789  000054  0A5F               	dw	_Default_ISR shr (0+2)
  4790                           
  4791                           ; Vector 39 : CLC1
  4792  000056  0A5F               	dw	_Default_ISR shr (0+2)
  4793                           
  4794                           ; Vector 40 : INT1
  4795  000058  0A57               	dw	_INT1_ISR shr (0+2)
  4796                           
  4797                           ; Vector 41 : CMP2
  4798  00005A  0A5F               	dw	_Default_ISR shr (0+2)
  4799                           
  4800                           ; Vector 42 : DMA2SCNT
  4801  00005C  0A5F               	dw	_Default_ISR shr (0+2)
  4802                           
  4803                           ; Vector 43 : DMA2DCNT
  4804  00005E  0A5F               	dw	_Default_ISR shr (0+2)
  4805                           
  4806                           ; Vector 44 : DMA2OR
  4807  000060  0A5F               	dw	_Default_ISR shr (0+2)
  4808                           
  4809                           ; Vector 45 : DMA2A
  4810  000062  0A5F               	dw	_Default_ISR shr (0+2)
  4811                           
  4812                           ; Vector 46 : I2C2RX
  4813  000064  0A5F               	dw	_Default_ISR shr (0+2)
  4814                           
  4815                           ; Vector 47 : I2C2TX
  4816  000066  0A5F               	dw	_Default_ISR shr (0+2)
  4817                           
  4818                           ; Vector 48 : I2C2
  4819  000068  0A5F               	dw	_Default_ISR shr (0+2)
  4820                           
  4821                           ; Vector 49 : I2C2E
  4822  00006A  0A5F               	dw	_Default_ISR shr (0+2)
  4823                           
  4824                           ; Vector 50 : U2RX
  4825  00006C  09E2               	dw	_UART2_rx_vect_isr shr (0+2)
  4826                           
  4827                           ; Vector 51 : U2TX
  4828  00006E  09D9               	dw	_UART2_tx_vect_isr shr (0+2)
  4829                           
  4830                           ; Vector 52 : U2E
  4831  000070  0A5F               	dw	_Default_ISR shr (0+2)
  4832                           
  4833                           ; Vector 53 : U2
  4834  000072  0A5F               	dw	_Default_ISR shr (0+2)
  4835                           
  4836                           ; Vector 54 : TMR3
  4837  000074  0A5F               	dw	_Default_ISR shr (0+2)
  4838                           
  4839                           ; Vector 55 : TMR3G
  4840  000076  0A5F               	dw	_Default_ISR shr (0+2)
  4841                           
  4842                           ; Vector 56 : TMR4
  4843  000078  0A5F               	dw	_Default_ISR shr (0+2)
  4844                           
  4845                           ; Vector 57 : CCP2
  4846  00007A  0A5F               	dw	_Default_ISR shr (0+2)
  4847                           
  4848                           ; Vector 58 : Undefined
  4849  00007C  002B               	dw	ivt0x8_undefint shr (0+2)
  4850                           
  4851                           ; Vector 59 : CWG2
  4852  00007E  0A5F               	dw	_Default_ISR shr (0+2)
  4853                           
  4854                           ; Vector 60 : CLC2
  4855  000080  0A5F               	dw	_Default_ISR shr (0+2)
  4856                           
  4857                           ; Vector 61 : INT2
  4858  000082  0A5A               	dw	_INT2_ISR shr (0+2)
  4859                           
  4860                           ; Vector 62 : Undefined
  4861  000084  002B               	dw	ivt0x8_undefint shr (0+2)
  4862                           
  4863                           ; Vector 63 : Undefined
  4864  000086  002B               	dw	ivt0x8_undefint shr (0+2)
  4865                           
  4866                           ; Vector 64 : Undefined
  4867  000088  002B               	dw	ivt0x8_undefint shr (0+2)
  4868                           
  4869                           ; Vector 65 : Undefined
  4870  00008A  002B               	dw	ivt0x8_undefint shr (0+2)
  4871                           
  4872                           ; Vector 66 : Undefined
  4873  00008C  002B               	dw	ivt0x8_undefint shr (0+2)
  4874                           
  4875                           ; Vector 67 : Undefined
  4876  00008E  002B               	dw	ivt0x8_undefint shr (0+2)
  4877                           
  4878                           ; Vector 68 : Undefined
  4879  000090  002B               	dw	ivt0x8_undefint shr (0+2)
  4880                           
  4881                           ; Vector 69 : Undefined
  4882  000092  002B               	dw	ivt0x8_undefint shr (0+2)
  4883                           
  4884                           ; Vector 70 : TMR5
  4885  000094  0A5F               	dw	_Default_ISR shr (0+2)
  4886                           
  4887                           ; Vector 71 : TMR5G
  4888  000096  0A5F               	dw	_Default_ISR shr (0+2)
  4889                           
  4890                           ; Vector 72 : TMR6
  4891  000098  09F3               	dw	_TMR6_ISR shr (0+2)
  4892                           
  4893                           ; Vector 73 : CCP3
  4894  00009A  0A5F               	dw	_Default_ISR shr (0+2)
  4895                           
  4896                           ; Vector 74 : CWG3
  4897  00009C  0A5F               	dw	_Default_ISR shr (0+2)
  4898                           
  4899                           ; Vector 75 : CLC3
  4900  00009E  0A5F               	dw	_Default_ISR shr (0+2)
  4901                           
  4902                           ; Vector 76 : Undefined
  4903  0000A0  002B               	dw	ivt0x8_undefint shr (0+2)
  4904                           
  4905                           ; Vector 77 : Undefined
  4906  0000A2  002B               	dw	ivt0x8_undefint shr (0+2)
  4907                           
  4908                           ; Vector 78 : Undefined
  4909  0000A4  002B               	dw	ivt0x8_undefint shr (0+2)
  4910                           
  4911                           ; Vector 79 : Undefined
  4912  0000A6  002B               	dw	ivt0x8_undefint shr (0+2)
  4913                           
  4914                           ; Vector 80 : CCP4
  4915  0000A8  0A5F               	dw	_Default_ISR shr (0+2)
  4916                           
  4917                           ; Vector 81 : CLC4
  4918  0000AA  0A5F               	dw	_Default_ISR shr (0+2)
  4919  0000AC                     ivt0x8_undefint:
  4920                           	opt callstack 0
  4921  0000AC  00FF               	reset	
  4922                           
  4923                           	psect	text56
  4924  000000                     __ptext56:
  4925                           	opt callstack 0
  4926                           
  4927                           	psect	rparam
  4928  0000                     tosu	equ	0x3FFF
  4929                           tosh	equ	0x3FFE
  4930                           tosl	equ	0x3FFD
  4931                           stkptr	equ	0x3FFC
  4932                           pclatu	equ	0x3FFB
  4933                           pclath	equ	0x3FFA
  4934                           pcl	equ	0x3FF9
  4935                           tblptru	equ	0x3FF8
  4936                           tblptrh	equ	0x3FF7
  4937                           tblptrl	equ	0x3FF6
  4938                           tablat	equ	0x3FF5
  4939                           prodh	equ	0x3FF4
  4940                           prodl	equ	0x3FF3
  4941                           indf0	equ	0x3FEF
  4942                           postinc0	equ	0x3FEE
  4943                           postdec0	equ	0x3FED
  4944                           preinc0	equ	0x3FEC
  4945                           plusw0	equ	0x3FEB
  4946                           fsr0h	equ	0x3FEA
  4947                           fsr0l	equ	0x3FE9
  4948                           wreg	equ	0x3FE8
  4949                           indf1	equ	0x3FE7
  4950                           postinc1	equ	0x3FE6
  4951                           postdec1	equ	0x3FE5
  4952                           preinc1	equ	0x3FE4
  4953                           plusw1	equ	0x3FE3
  4954                           fsr1h	equ	0x3FE2
  4955                           fsr1l	equ	0x3FE1
  4956                           bsr	equ	0x3FE0
  4957                           indf2	equ	0x3FDF
  4958                           postinc2	equ	0x3FDE
  4959                           postdec2	equ	0x3FDD
  4960                           preinc2	equ	0x3FDC
  4961                           plusw2	equ	0x3FDB
  4962                           fsr2h	equ	0x3FDA
  4963                           fsr2l	equ	0x3FD9
  4964                           status	equ	0x3FD8


Data Sizes:
    Strings     29
    Constant    0
    Data        0
    BSS         77
    Persistent  0
    Stack       0

Auto Spaces:
    Space          Size  Autos    Used
    COMRAM           95     21      90
    BANK0           160      0       8
    BANK1           256      0       0
    BANK2           256      0       0
    BANK3           256      0       0
    BANK4           256      0       0
    BANK5           256      0       0
    BANK6           256      0       0
    BANK7           256      0       0
    BANK8           256      0       0
    BANK9           256      0       0
    BANK10          256      0       0
    BANK11          256      0       0
    BANK12          256      0       0
    BANK13          256      0       0
    BANK14          256      0       0
    BANK15          256      0       0
    BANK16          256      0       0
    BANK17          256      0       0
    BANK18          256      0       0
    BANK19          256      0       0
    BANK20          256      0       0
    BANK21          256      0       0
    BANK22          256      0       0
    BANK23          256      0       0
    BANK24          256      0       0
    BANK25          256      0       0
    BANK26          256      0       0
    BANK27          256      0       0
    BANK28          256      0       0
    BANK29          256      0       0
    BANK30          256      0       0
    BANK31          256      0       0

Pointer List with Targets:

    strlen@s	PTR const unsigned char  size(2) Largest target is 19
		 -> STR_1(CODE[19]), 

    strlen@cp	PTR const unsigned char  size(2) Largest target is 19
		 -> STR_1(CODE[19]), 

    printf@f	PTR const unsigned char  size(2) Largest target is 3
		 -> STR_3(CODE[3]), STR_2(CODE[3]), 

    printf@cp	PTR const unsigned char  size(2) Largest target is 19
		 -> STR_4(CODE[7]), ?_printf(COMRAM[2]), STR_1(CODE[19]), 

    printf@ap	PTR void [1] size(2) Largest target is 2
		 -> ?_printf(COMRAM[2]), 

    eaDogM_WriteString@strPtr	PTR unsigned char  size(2) Largest target is 19
		 -> STR_1(CODE[19]), 

    TMR6_SetInterruptHandler@InterruptHandler	PTR FTN()void  size(3) Largest target is 1
		 -> TMR6_DefaultInterruptHandler(), 

    TMR6_InterruptHandler	PTR FTN()void  size(3) Largest target is 1
		 -> TMR6_DefaultInterruptHandler(), Absolute function(), 

    UART2_SetTxInterruptHandler@InterruptHandler	PTR FTN()void  size(3) Largest target is 1
		 -> UART2_Transmit_ISR(), 

    UART2_SetRxInterruptHandler@InterruptHandler	PTR FTN()void  size(3) Largest target is 1
		 -> UART2_Receive_ISR(), 

    UART2_RxInterruptHandler	PTR FTN()void  size(3) Largest target is 1
		 -> UART2_Receive_ISR(), Absolute function(), 

    UART2_TxInterruptHandler	PTR FTN()void  size(3) Largest target is 1
		 -> UART2_Transmit_ISR(), Absolute function(), 

    UART1_SetTxInterruptHandler@InterruptHandler	PTR FTN()void  size(3) Largest target is 1
		 -> UART1_Transmit_ISR(), 

    UART1_SetRxInterruptHandler@InterruptHandler	PTR FTN()void  size(3) Largest target is 1
		 -> UART1_Receive_ISR(), 

    UART1_RxInterruptHandler	PTR FTN()void  size(3) Largest target is 1
		 -> UART1_Receive_ISR(), Absolute function(), 

    UART1_TxInterruptHandler	PTR FTN()void  size(3) Largest target is 1
		 -> UART1_Transmit_ISR(), Absolute function(), 

    ADCC_SetADIInterruptHandler@InterruptHandler	PTR FTN()void  size(3) Largest target is 1
		 -> ADCC_DefaultInterruptHandler(), 

    ADCC_ADI_InterruptHandler	PTR FTN()void  size(3) Largest target is 1
		 -> ADCC_DefaultInterruptHandler(), Absolute function(), 

    INT2_SetInterruptHandler@InterruptHandler	PTR FTN()void  size(3) Largest target is 1
		 -> INT2_DefaultInterruptHandler(), 

    INT2_InterruptHandler	PTR FTN()void  size(3) Largest target is 1
		 -> INT2_DefaultInterruptHandler(), Absolute function(), 

    INT1_SetInterruptHandler@InterruptHandler	PTR FTN()void  size(3) Largest target is 1
		 -> INT1_DefaultInterruptHandler(), 

    INT1_InterruptHandler	PTR FTN()void  size(3) Largest target is 1
		 -> INT1_DefaultInterruptHandler(), Absolute function(), 

    INT0_SetInterruptHandler@InterruptHandler	PTR FTN()void  size(3) Largest target is 1
		 -> INT0_DefaultInterruptHandler(), 

    INT0_InterruptHandler	PTR FTN()void  size(3) Largest target is 1
		 -> INT0_DefaultInterruptHandler(), Absolute function(), 


Critical Paths under _main in COMRAM

    _main->_eaDogM_WriteString
    _init_display->_send_lcd_cmd
    _init_display->_send_lcd_cmd_long
    _send_lcd_cmd_long->_wdtdelay
    _send_lcd_cmd->_wdtdelay
    _eaDogM_WriteString->_printf
    _printf->_putch
    _putch->_send_lcd_data
    _send_lcd_data->_wdtdelay
    _UART2_Initialize->_UART2_SetRxInterruptHandler
    _UART2_Initialize->_UART2_SetTxInterruptHandler
    _UART1_Initialize->_UART1_SetRxInterruptHandler
    _UART1_Initialize->_UART1_SetTxInterruptHandler
    _TMR6_Initialize->_TMR6_SetInterruptHandler
    _EXT_INT_Initialize->_INT0_SetInterruptHandler
    _EXT_INT_Initialize->_INT1_SetInterruptHandler
    _EXT_INT_Initialize->_INT2_SetInterruptHandler
    _ADCC_Initialize->_ADCC_SetADIInterruptHandler

Critical Paths under _INT0_ISR in COMRAM

    None.

Critical Paths under _INT1_ISR in COMRAM

    None.

Critical Paths under _INT2_ISR in COMRAM

    None.

Critical Paths under _Default_ISR in COMRAM

    None.

Critical Paths under _ADCC_ISR in COMRAM

    None.

Critical Paths under _UART1_tx_vect_isr in COMRAM

    None.

Critical Paths under _UART1_rx_vect_isr in COMRAM

    None.

Critical Paths under _UART2_tx_vect_isr in COMRAM

    None.

Critical Paths under _UART2_rx_vect_isr in COMRAM

    None.

Critical Paths under _TMR6_ISR in COMRAM

    _TMR6_CallBack->_TMR6_DefaultInterruptHandler

Critical Paths under _main in BANK0

    None.

Critical Paths under _INT0_ISR in BANK0

    None.

Critical Paths under _INT1_ISR in BANK0

    None.

Critical Paths under _INT2_ISR in BANK0

    None.

Critical Paths under _Default_ISR in BANK0

    None.

Critical Paths under _ADCC_ISR in BANK0

    None.

Critical Paths under _UART1_tx_vect_isr in BANK0

    None.

Critical Paths under _UART1_rx_vect_isr in BANK0

    None.

Critical Paths under _UART2_tx_vect_isr in BANK0

    None.

Critical Paths under _UART2_rx_vect_isr in BANK0

    None.

Critical Paths under _TMR6_ISR in BANK0

    None.

Critical Paths under _main in BANK1

    None.

Critical Paths under _INT0_ISR in BANK1

    None.

Critical Paths under _INT1_ISR in BANK1

    None.

Critical Paths under _INT2_ISR in BANK1

    None.

Critical Paths under _Default_ISR in BANK1

    None.

Critical Paths under _ADCC_ISR in BANK1

    None.

Critical Paths under _UART1_tx_vect_isr in BANK1

    None.

Critical Paths under _UART1_rx_vect_isr in BANK1

    None.

Critical Paths under _UART2_tx_vect_isr in BANK1

    None.

Critical Paths under _UART2_rx_vect_isr in BANK1

    None.

Critical Paths under _TMR6_ISR in BANK1

    None.

Critical Paths under _main in BANK2

    None.

Critical Paths under _INT0_ISR in BANK2

    None.

Critical Paths under _INT1_ISR in BANK2

    None.

Critical Paths under _INT2_ISR in BANK2

    None.

Critical Paths under _Default_ISR in BANK2

    None.

Critical Paths under _ADCC_ISR in BANK2

    None.

Critical Paths under _UART1_tx_vect_isr in BANK2

    None.

Critical Paths under _UART1_rx_vect_isr in BANK2

    None.

Critical Paths under _UART2_tx_vect_isr in BANK2

    None.

Critical Paths under _UART2_rx_vect_isr in BANK2

    None.

Critical Paths under _TMR6_ISR in BANK2

    None.

Critical Paths under _main in BANK3

    None.

Critical Paths under _INT0_ISR in BANK3

    None.

Critical Paths under _INT1_ISR in BANK3

    None.

Critical Paths under _INT2_ISR in BANK3

    None.

Critical Paths under _Default_ISR in BANK3

    None.

Critical Paths under _ADCC_ISR in BANK3

    None.

Critical Paths under _UART1_tx_vect_isr in BANK3

    None.

Critical Paths under _UART1_rx_vect_isr in BANK3

    None.

Critical Paths under _UART2_tx_vect_isr in BANK3

    None.

Critical Paths under _UART2_rx_vect_isr in BANK3

    None.

Critical Paths under _TMR6_ISR in BANK3

    None.

Critical Paths under _main in BANK4

    None.

Critical Paths under _INT0_ISR in BANK4

    None.

Critical Paths under _INT1_ISR in BANK4

    None.

Critical Paths under _INT2_ISR in BANK4

    None.

Critical Paths under _Default_ISR in BANK4

    None.

Critical Paths under _ADCC_ISR in BANK4

    None.

Critical Paths under _UART1_tx_vect_isr in BANK4

    None.

Critical Paths under _UART1_rx_vect_isr in BANK4

    None.

Critical Paths under _UART2_tx_vect_isr in BANK4

    None.

Critical Paths under _UART2_rx_vect_isr in BANK4

    None.

Critical Paths under _TMR6_ISR in BANK4

    None.

Critical Paths under _main in BANK5

    None.

Critical Paths under _INT0_ISR in BANK5

    None.

Critical Paths under _INT1_ISR in BANK5

    None.

Critical Paths under _INT2_ISR in BANK5

    None.

Critical Paths under _Default_ISR in BANK5

    None.

Critical Paths under _ADCC_ISR in BANK5

    None.

Critical Paths under _UART1_tx_vect_isr in BANK5

    None.

Critical Paths under _UART1_rx_vect_isr in BANK5

    None.

Critical Paths under _UART2_tx_vect_isr in BANK5

    None.

Critical Paths under _UART2_rx_vect_isr in BANK5

    None.

Critical Paths under _TMR6_ISR in BANK5

    None.

Critical Paths under _main in BANK6

    None.

Critical Paths under _INT0_ISR in BANK6

    None.

Critical Paths under _INT1_ISR in BANK6

    None.

Critical Paths under _INT2_ISR in BANK6

    None.

Critical Paths under _Default_ISR in BANK6

    None.

Critical Paths under _ADCC_ISR in BANK6

    None.

Critical Paths under _UART1_tx_vect_isr in BANK6

    None.

Critical Paths under _UART1_rx_vect_isr in BANK6

    None.

Critical Paths under _UART2_tx_vect_isr in BANK6

    None.

Critical Paths under _UART2_rx_vect_isr in BANK6

    None.

Critical Paths under _TMR6_ISR in BANK6

    None.

Critical Paths under _main in BANK7

    None.

Critical Paths under _INT0_ISR in BANK7

    None.

Critical Paths under _INT1_ISR in BANK7

    None.

Critical Paths under _INT2_ISR in BANK7

    None.

Critical Paths under _Default_ISR in BANK7

    None.

Critical Paths under _ADCC_ISR in BANK7

    None.

Critical Paths under _UART1_tx_vect_isr in BANK7

    None.

Critical Paths under _UART1_rx_vect_isr in BANK7

    None.

Critical Paths under _UART2_tx_vect_isr in BANK7

    None.

Critical Paths under _UART2_rx_vect_isr in BANK7

    None.

Critical Paths under _TMR6_ISR in BANK7

    None.

Critical Paths under _main in BANK8

    None.

Critical Paths under _INT0_ISR in BANK8

    None.

Critical Paths under _INT1_ISR in BANK8

    None.

Critical Paths under _INT2_ISR in BANK8

    None.

Critical Paths under _Default_ISR in BANK8

    None.

Critical Paths under _ADCC_ISR in BANK8

    None.

Critical Paths under _UART1_tx_vect_isr in BANK8

    None.

Critical Paths under _UART1_rx_vect_isr in BANK8

    None.

Critical Paths under _UART2_tx_vect_isr in BANK8

    None.

Critical Paths under _UART2_rx_vect_isr in BANK8

    None.

Critical Paths under _TMR6_ISR in BANK8

    None.

Critical Paths under _main in BANK9

    None.

Critical Paths under _INT0_ISR in BANK9

    None.

Critical Paths under _INT1_ISR in BANK9

    None.

Critical Paths under _INT2_ISR in BANK9

    None.

Critical Paths under _Default_ISR in BANK9

    None.

Critical Paths under _ADCC_ISR in BANK9

    None.

Critical Paths under _UART1_tx_vect_isr in BANK9

    None.

Critical Paths under _UART1_rx_vect_isr in BANK9

    None.

Critical Paths under _UART2_tx_vect_isr in BANK9

    None.

Critical Paths under _UART2_rx_vect_isr in BANK9

    None.

Critical Paths under _TMR6_ISR in BANK9

    None.

Critical Paths under _main in BANK10

    None.

Critical Paths under _INT0_ISR in BANK10

    None.

Critical Paths under _INT1_ISR in BANK10

    None.

Critical Paths under _INT2_ISR in BANK10

    None.

Critical Paths under _Default_ISR in BANK10

    None.

Critical Paths under _ADCC_ISR in BANK10

    None.

Critical Paths under _UART1_tx_vect_isr in BANK10

    None.

Critical Paths under _UART1_rx_vect_isr in BANK10

    None.

Critical Paths under _UART2_tx_vect_isr in BANK10

    None.

Critical Paths under _UART2_rx_vect_isr in BANK10

    None.

Critical Paths under _TMR6_ISR in BANK10

    None.

Critical Paths under _main in BANK11

    None.

Critical Paths under _INT0_ISR in BANK11

    None.

Critical Paths under _INT1_ISR in BANK11

    None.

Critical Paths under _INT2_ISR in BANK11

    None.

Critical Paths under _Default_ISR in BANK11

    None.

Critical Paths under _ADCC_ISR in BANK11

    None.

Critical Paths under _UART1_tx_vect_isr in BANK11

    None.

Critical Paths under _UART1_rx_vect_isr in BANK11

    None.

Critical Paths under _UART2_tx_vect_isr in BANK11

    None.

Critical Paths under _UART2_rx_vect_isr in BANK11

    None.

Critical Paths under _TMR6_ISR in BANK11

    None.

Critical Paths under _main in BANK12

    None.

Critical Paths under _INT0_ISR in BANK12

    None.

Critical Paths under _INT1_ISR in BANK12

    None.

Critical Paths under _INT2_ISR in BANK12

    None.

Critical Paths under _Default_ISR in BANK12

    None.

Critical Paths under _ADCC_ISR in BANK12

    None.

Critical Paths under _UART1_tx_vect_isr in BANK12

    None.

Critical Paths under _UART1_rx_vect_isr in BANK12

    None.

Critical Paths under _UART2_tx_vect_isr in BANK12

    None.

Critical Paths under _UART2_rx_vect_isr in BANK12

    None.

Critical Paths under _TMR6_ISR in BANK12

    None.

Critical Paths under _main in BANK13

    None.

Critical Paths under _INT0_ISR in BANK13

    None.

Critical Paths under _INT1_ISR in BANK13

    None.

Critical Paths under _INT2_ISR in BANK13

    None.

Critical Paths under _Default_ISR in BANK13

    None.

Critical Paths under _ADCC_ISR in BANK13

    None.

Critical Paths under _UART1_tx_vect_isr in BANK13

    None.

Critical Paths under _UART1_rx_vect_isr in BANK13

    None.

Critical Paths under _UART2_tx_vect_isr in BANK13

    None.

Critical Paths under _UART2_rx_vect_isr in BANK13

    None.

Critical Paths under _TMR6_ISR in BANK13

    None.

Critical Paths under _main in BANK14

    None.

Critical Paths under _INT0_ISR in BANK14

    None.

Critical Paths under _INT1_ISR in BANK14

    None.

Critical Paths under _INT2_ISR in BANK14

    None.

Critical Paths under _Default_ISR in BANK14

    None.

Critical Paths under _ADCC_ISR in BANK14

    None.

Critical Paths under _UART1_tx_vect_isr in BANK14

    None.

Critical Paths under _UART1_rx_vect_isr in BANK14

    None.

Critical Paths under _UART2_tx_vect_isr in BANK14

    None.

Critical Paths under _UART2_rx_vect_isr in BANK14

    None.

Critical Paths under _TMR6_ISR in BANK14

    None.

Critical Paths under _main in BANK15

    None.

Critical Paths under _INT0_ISR in BANK15

    None.

Critical Paths under _INT1_ISR in BANK15

    None.

Critical Paths under _INT2_ISR in BANK15

    None.

Critical Paths under _Default_ISR in BANK15

    None.

Critical Paths under _ADCC_ISR in BANK15

    None.

Critical Paths under _UART1_tx_vect_isr in BANK15

    None.

Critical Paths under _UART1_rx_vect_isr in BANK15

    None.

Critical Paths under _UART2_tx_vect_isr in BANK15

    None.

Critical Paths under _UART2_rx_vect_isr in BANK15

    None.

Critical Paths under _TMR6_ISR in BANK15

    None.

Critical Paths under _main in BANK16

    None.

Critical Paths under _INT0_ISR in BANK16

    None.

Critical Paths under _INT1_ISR in BANK16

    None.

Critical Paths under _INT2_ISR in BANK16

    None.

Critical Paths under _Default_ISR in BANK16

    None.

Critical Paths under _ADCC_ISR in BANK16

    None.

Critical Paths under _UART1_tx_vect_isr in BANK16

    None.

Critical Paths under _UART1_rx_vect_isr in BANK16

    None.

Critical Paths under _UART2_tx_vect_isr in BANK16

    None.

Critical Paths under _UART2_rx_vect_isr in BANK16

    None.

Critical Paths under _TMR6_ISR in BANK16

    None.

Critical Paths under _main in BANK17

    None.

Critical Paths under _INT0_ISR in BANK17

    None.

Critical Paths under _INT1_ISR in BANK17

    None.

Critical Paths under _INT2_ISR in BANK17

    None.

Critical Paths under _Default_ISR in BANK17

    None.

Critical Paths under _ADCC_ISR in BANK17

    None.

Critical Paths under _UART1_tx_vect_isr in BANK17

    None.

Critical Paths under _UART1_rx_vect_isr in BANK17

    None.

Critical Paths under _UART2_tx_vect_isr in BANK17

    None.

Critical Paths under _UART2_rx_vect_isr in BANK17

    None.

Critical Paths under _TMR6_ISR in BANK17

    None.

Critical Paths under _main in BANK18

    None.

Critical Paths under _INT0_ISR in BANK18

    None.

Critical Paths under _INT1_ISR in BANK18

    None.

Critical Paths under _INT2_ISR in BANK18

    None.

Critical Paths under _Default_ISR in BANK18

    None.

Critical Paths under _ADCC_ISR in BANK18

    None.

Critical Paths under _UART1_tx_vect_isr in BANK18

    None.

Critical Paths under _UART1_rx_vect_isr in BANK18

    None.

Critical Paths under _UART2_tx_vect_isr in BANK18

    None.

Critical Paths under _UART2_rx_vect_isr in BANK18

    None.

Critical Paths under _TMR6_ISR in BANK18

    None.

Critical Paths under _main in BANK19

    None.

Critical Paths under _INT0_ISR in BANK19

    None.

Critical Paths under _INT1_ISR in BANK19

    None.

Critical Paths under _INT2_ISR in BANK19

    None.

Critical Paths under _Default_ISR in BANK19

    None.

Critical Paths under _ADCC_ISR in BANK19

    None.

Critical Paths under _UART1_tx_vect_isr in BANK19

    None.

Critical Paths under _UART1_rx_vect_isr in BANK19

    None.

Critical Paths under _UART2_tx_vect_isr in BANK19

    None.

Critical Paths under _UART2_rx_vect_isr in BANK19

    None.

Critical Paths under _TMR6_ISR in BANK19

    None.

Critical Paths under _main in BANK20

    None.

Critical Paths under _INT0_ISR in BANK20

    None.

Critical Paths under _INT1_ISR in BANK20

    None.

Critical Paths under _INT2_ISR in BANK20

    None.

Critical Paths under _Default_ISR in BANK20

    None.

Critical Paths under _ADCC_ISR in BANK20

    None.

Critical Paths under _UART1_tx_vect_isr in BANK20

    None.

Critical Paths under _UART1_rx_vect_isr in BANK20

    None.

Critical Paths under _UART2_tx_vect_isr in BANK20

    None.

Critical Paths under _UART2_rx_vect_isr in BANK20

    None.

Critical Paths under _TMR6_ISR in BANK20

    None.

Critical Paths under _main in BANK21

    None.

Critical Paths under _INT0_ISR in BANK21

    None.

Critical Paths under _INT1_ISR in BANK21

    None.

Critical Paths under _INT2_ISR in BANK21

    None.

Critical Paths under _Default_ISR in BANK21

    None.

Critical Paths under _ADCC_ISR in BANK21

    None.

Critical Paths under _UART1_tx_vect_isr in BANK21

    None.

Critical Paths under _UART1_rx_vect_isr in BANK21

    None.

Critical Paths under _UART2_tx_vect_isr in BANK21

    None.

Critical Paths under _UART2_rx_vect_isr in BANK21

    None.

Critical Paths under _TMR6_ISR in BANK21

    None.

Critical Paths under _main in BANK22

    None.

Critical Paths under _INT0_ISR in BANK22

    None.

Critical Paths under _INT1_ISR in BANK22

    None.

Critical Paths under _INT2_ISR in BANK22

    None.

Critical Paths under _Default_ISR in BANK22

    None.

Critical Paths under _ADCC_ISR in BANK22

    None.

Critical Paths under _UART1_tx_vect_isr in BANK22

    None.

Critical Paths under _UART1_rx_vect_isr in BANK22

    None.

Critical Paths under _UART2_tx_vect_isr in BANK22

    None.

Critical Paths under _UART2_rx_vect_isr in BANK22

    None.

Critical Paths under _TMR6_ISR in BANK22

    None.

Critical Paths under _main in BANK23

    None.

Critical Paths under _INT0_ISR in BANK23

    None.

Critical Paths under _INT1_ISR in BANK23

    None.

Critical Paths under _INT2_ISR in BANK23

    None.

Critical Paths under _Default_ISR in BANK23

    None.

Critical Paths under _ADCC_ISR in BANK23

    None.

Critical Paths under _UART1_tx_vect_isr in BANK23

    None.

Critical Paths under _UART1_rx_vect_isr in BANK23

    None.

Critical Paths under _UART2_tx_vect_isr in BANK23

    None.

Critical Paths under _UART2_rx_vect_isr in BANK23

    None.

Critical Paths under _TMR6_ISR in BANK23

    None.

Critical Paths under _main in BANK24

    None.

Critical Paths under _INT0_ISR in BANK24

    None.

Critical Paths under _INT1_ISR in BANK24

    None.

Critical Paths under _INT2_ISR in BANK24

    None.

Critical Paths under _Default_ISR in BANK24

    None.

Critical Paths under _ADCC_ISR in BANK24

    None.

Critical Paths under _UART1_tx_vect_isr in BANK24

    None.

Critical Paths under _UART1_rx_vect_isr in BANK24

    None.

Critical Paths under _UART2_tx_vect_isr in BANK24

    None.

Critical Paths under _UART2_rx_vect_isr in BANK24

    None.

Critical Paths under _TMR6_ISR in BANK24

    None.

Critical Paths under _main in BANK25

    None.

Critical Paths under _INT0_ISR in BANK25

    None.

Critical Paths under _INT1_ISR in BANK25

    None.

Critical Paths under _INT2_ISR in BANK25

    None.

Critical Paths under _Default_ISR in BANK25

    None.

Critical Paths under _ADCC_ISR in BANK25

    None.

Critical Paths under _UART1_tx_vect_isr in BANK25

    None.

Critical Paths under _UART1_rx_vect_isr in BANK25

    None.

Critical Paths under _UART2_tx_vect_isr in BANK25

    None.

Critical Paths under _UART2_rx_vect_isr in BANK25

    None.

Critical Paths under _TMR6_ISR in BANK25

    None.

Critical Paths under _main in BANK26

    None.

Critical Paths under _INT0_ISR in BANK26

    None.

Critical Paths under _INT1_ISR in BANK26

    None.

Critical Paths under _INT2_ISR in BANK26

    None.

Critical Paths under _Default_ISR in BANK26

    None.

Critical Paths under _ADCC_ISR in BANK26

    None.

Critical Paths under _UART1_tx_vect_isr in BANK26

    None.

Critical Paths under _UART1_rx_vect_isr in BANK26

    None.

Critical Paths under _UART2_tx_vect_isr in BANK26

    None.

Critical Paths under _UART2_rx_vect_isr in BANK26

    None.

Critical Paths under _TMR6_ISR in BANK26

    None.

Critical Paths under _main in BANK27

    None.

Critical Paths under _INT0_ISR in BANK27

    None.

Critical Paths under _INT1_ISR in BANK27

    None.

Critical Paths under _INT2_ISR in BANK27

    None.

Critical Paths under _Default_ISR in BANK27

    None.

Critical Paths under _ADCC_ISR in BANK27

    None.

Critical Paths under _UART1_tx_vect_isr in BANK27

    None.

Critical Paths under _UART1_rx_vect_isr in BANK27

    None.

Critical Paths under _UART2_tx_vect_isr in BANK27

    None.

Critical Paths under _UART2_rx_vect_isr in BANK27

    None.

Critical Paths under _TMR6_ISR in BANK27

    None.

Critical Paths under _main in BANK28

    None.

Critical Paths under _INT0_ISR in BANK28

    None.

Critical Paths under _INT1_ISR in BANK28

    None.

Critical Paths under _INT2_ISR in BANK28

    None.

Critical Paths under _Default_ISR in BANK28

    None.

Critical Paths under _ADCC_ISR in BANK28

    None.

Critical Paths under _UART1_tx_vect_isr in BANK28

    None.

Critical Paths under _UART1_rx_vect_isr in BANK28

    None.

Critical Paths under _UART2_tx_vect_isr in BANK28

    None.

Critical Paths under _UART2_rx_vect_isr in BANK28

    None.

Critical Paths under _TMR6_ISR in BANK28

    None.

Critical Paths under _main in BANK29

    None.

Critical Paths under _INT0_ISR in BANK29

    None.

Critical Paths under _INT1_ISR in BANK29

    None.

Critical Paths under _INT2_ISR in BANK29

    None.

Critical Paths under _Default_ISR in BANK29

    None.

Critical Paths under _ADCC_ISR in BANK29

    None.

Critical Paths under _UART1_tx_vect_isr in BANK29

    None.

Critical Paths under _UART1_rx_vect_isr in BANK29

    None.

Critical Paths under _UART2_tx_vect_isr in BANK29

    None.

Critical Paths under _UART2_rx_vect_isr in BANK29

    None.

Critical Paths under _TMR6_ISR in BANK29

    None.

Critical Paths under _main in BANK30

    None.

Critical Paths under _INT0_ISR in BANK30

    None.

Critical Paths under _INT1_ISR in BANK30

    None.

Critical Paths under _INT2_ISR in BANK30

    None.

Critical Paths under _Default_ISR in BANK30

    None.

Critical Paths under _ADCC_ISR in BANK30

    None.

Critical Paths under _UART1_tx_vect_isr in BANK30

    None.

Critical Paths under _UART1_rx_vect_isr in BANK30

    None.

Critical Paths under _UART2_tx_vect_isr in BANK30

    None.

Critical Paths under _UART2_rx_vect_isr in BANK30

    None.

Critical Paths under _TMR6_ISR in BANK30

    None.

Critical Paths under _main in BANK31

    None.

Critical Paths under _INT0_ISR in BANK31

    None.

Critical Paths under _INT1_ISR in BANK31

    None.

Critical Paths under _INT2_ISR in BANK31

    None.

Critical Paths under _Default_ISR in BANK31

    None.

Critical Paths under _ADCC_ISR in BANK31

    None.

Critical Paths under _UART1_tx_vect_isr in BANK31

    None.

Critical Paths under _UART1_rx_vect_isr in BANK31

    None.

Critical Paths under _UART2_tx_vect_isr in BANK31

    None.

Critical Paths under _UART2_rx_vect_isr in BANK31

    None.

Critical Paths under _TMR6_ISR in BANK31

    None.

Call Graph Tables:

 ---------------------------------------------------------------------------------
 (Depth) Function   	        Calls       Base Space   Used Autos Params    Refs
 ---------------------------------------------------------------------------------
 (0) _main                                                 0     0      0    3054
                  _SYSTEM_Initialize
                 _eaDogM_WriteString
                       _init_display
 ---------------------------------------------------------------------------------
 (1) _init_display                                         0     0      0    1052
                       _send_lcd_cmd
                  _send_lcd_cmd_long
                          _start_lcd
                           _wait_lcd
                           _wdtdelay
 ---------------------------------------------------------------------------------
 (2) _send_lcd_cmd_long                                    1     1      0     363
                                              5 COMRAM     1     1      0
                  _SPI1_Exchange8bit
                           _wdtdelay
 ---------------------------------------------------------------------------------
 (2) _send_lcd_cmd                                         1     1      0     363
                                              5 COMRAM     1     1      0
                  _SPI1_Exchange8bit
                           _wdtdelay
 ---------------------------------------------------------------------------------
 (1) _eaDogM_WriteString                                   4     2      2    1105
                                             17 COMRAM     4     2      2
                             _printf
                          _start_lcd
                             _strlen
                           _wait_lcd
 ---------------------------------------------------------------------------------
 (2) _wait_lcd                                             0     0      0       0
 ---------------------------------------------------------------------------------
 (2) _strlen                                               4     2      2     242
                                              1 COMRAM     4     2      2
 ---------------------------------------------------------------------------------
 (2) _start_lcd                                            0     0      0       0
 ---------------------------------------------------------------------------------
 (2) _printf                                              19    15      4     721
                                              7 COMRAM    10     6      4
                              _putch
 ---------------------------------------------------------------------------------
 (3) _putch                                                1     1      0     385
                                              6 COMRAM     1     1      0
                      _send_lcd_data
 ---------------------------------------------------------------------------------
 (4) _send_lcd_data                                        1     1      0     363
                                              5 COMRAM     1     1      0
                  _SPI1_Exchange8bit
                           _wdtdelay
 ---------------------------------------------------------------------------------
 (2) _wdtdelay                                             4     0      4     326
                                              1 COMRAM     4     0      4
 ---------------------------------------------------------------------------------
 (3) _SPI1_Exchange8bit                                    1     1      0      15
                                              1 COMRAM     1     1      0
 ---------------------------------------------------------------------------------
 (1) _SYSTEM_Initialize                                    0     0      0     897
                    _ADCC_Initialize
                 _EXT_INT_Initialize
               _INTERRUPT_Initialize
              _OSCILLATOR_Initialize
             _PIN_MANAGER_Initialize
                     _PMD_Initialize
                    _SPI1_Initialize
                    _TMR6_Initialize
                   _UART1_Initialize
                   _UART2_Initialize
 ---------------------------------------------------------------------------------
 (2) _UART2_Initialize                                     0     0      0     196
        _UART2_SetRxInterruptHandler
        _UART2_SetTxInterruptHandler
 ---------------------------------------------------------------------------------
 (3) _UART2_SetTxInterruptHandler                          3     0      3      98
                                              1 COMRAM     3     0      3
 ---------------------------------------------------------------------------------
 (3) _UART2_SetRxInterruptHandler                          3     0      3      98
                                              1 COMRAM     3     0      3
 ---------------------------------------------------------------------------------
 (2) _UART1_Initialize                                     0     0      0     196
        _UART1_SetRxInterruptHandler
        _UART1_SetTxInterruptHandler
 ---------------------------------------------------------------------------------
 (3) _UART1_SetTxInterruptHandler                          3     0      3      98
                                              1 COMRAM     3     0      3
 ---------------------------------------------------------------------------------
 (3) _UART1_SetRxInterruptHandler                          3     0      3      98
                                              1 COMRAM     3     0      3
 ---------------------------------------------------------------------------------
 (2) _TMR6_Initialize                                      0     0      0      98
           _TMR6_SetInterruptHandler
 ---------------------------------------------------------------------------------
 (3) _TMR6_SetInterruptHandler                             3     0      3      98
                                              1 COMRAM     3     0      3
 ---------------------------------------------------------------------------------
 (2) _SPI1_Initialize                                      0     0      0       0
 ---------------------------------------------------------------------------------
 (2) _PMD_Initialize                                       0     0      0       0
 ---------------------------------------------------------------------------------
 (2) _PIN_MANAGER_Initialize                               0     0      0       0
 ---------------------------------------------------------------------------------
 (2) _OSCILLATOR_Initialize                                0     0      0       0
 ---------------------------------------------------------------------------------
 (2) _INTERRUPT_Initialize                                 1     1      0      15
                                              1 COMRAM     1     1      0
 ---------------------------------------------------------------------------------
 (2) _EXT_INT_Initialize                                   0     0      0     294
           _INT0_SetInterruptHandler
           _INT1_SetInterruptHandler
           _INT2_SetInterruptHandler
 ---------------------------------------------------------------------------------
 (3) _INT2_SetInterruptHandler                             3     0      3      98
                                              1 COMRAM     3     0      3
 ---------------------------------------------------------------------------------
 (3) _INT1_SetInterruptHandler                             3     0      3      98
                                              1 COMRAM     3     0      3
 ---------------------------------------------------------------------------------
 (3) _INT0_SetInterruptHandler                             3     0      3      98
                                              1 COMRAM     3     0      3
 ---------------------------------------------------------------------------------
 (2) _ADCC_Initialize                                      0     0      0      98
        _ADCC_SetADIInterruptHandler
 ---------------------------------------------------------------------------------
 (3) _ADCC_SetADIInterruptHandler                          3     0      3      98
                                              1 COMRAM     3     0      3
 ---------------------------------------------------------------------------------
 Estimated maximum stack depth 4
 ---------------------------------------------------------------------------------
 (Depth) Function   	        Calls       Base Space   Used Autos Params    Refs
 ---------------------------------------------------------------------------------
 (6) _INT0_ISR                                             0     0      0       0
                      _INT0_CallBack
 ---------------------------------------------------------------------------------
 (7) _INT0_CallBack                                        0     0      0       0
                   Absolute function *
       _INT0_DefaultInterruptHandler *
 ---------------------------------------------------------------------------------
 (8) _INT0_DefaultInterruptHandler                         0     0      0       0
 ---------------------------------------------------------------------------------
 (8) Absolute function(Fake)                               0     0      0       0
 ---------------------------------------------------------------------------------
 Estimated maximum stack depth 8
 ---------------------------------------------------------------------------------
 (Depth) Function   	        Calls       Base Space   Used Autos Params    Refs
 ---------------------------------------------------------------------------------
 (6) _INT1_ISR                                             0     0      0       0
                      _INT1_CallBack
 ---------------------------------------------------------------------------------
 (7) _INT1_CallBack                                        0     0      0       0
                   Absolute function *
       _INT1_DefaultInterruptHandler *
 ---------------------------------------------------------------------------------
 (8) _INT1_DefaultInterruptHandler                         0     0      0       0
 ---------------------------------------------------------------------------------
 (8) Absolute function(Fake)                               0     0      0       0
 ---------------------------------------------------------------------------------
 Estimated maximum stack depth 8
 ---------------------------------------------------------------------------------
 (Depth) Function   	        Calls       Base Space   Used Autos Params    Refs
 ---------------------------------------------------------------------------------
 (6) _INT2_ISR                                             0     0      0       0
                      _INT2_CallBack
 ---------------------------------------------------------------------------------
 (7) _INT2_CallBack                                        0     0      0       0
                   Absolute function *
       _INT2_DefaultInterruptHandler *
 ---------------------------------------------------------------------------------
 (8) _INT2_DefaultInterruptHandler                         0     0      0       0
 ---------------------------------------------------------------------------------
 (8) Absolute function(Fake)                               0     0      0       0
 ---------------------------------------------------------------------------------
 Estimated maximum stack depth 8
 ---------------------------------------------------------------------------------
 (Depth) Function   	        Calls       Base Space   Used Autos Params    Refs
 ---------------------------------------------------------------------------------
 (6) _Default_ISR                                          0     0      0       0
 ---------------------------------------------------------------------------------
 Estimated maximum stack depth 6
 ---------------------------------------------------------------------------------
 (Depth) Function   	        Calls       Base Space   Used Autos Params    Refs
 ---------------------------------------------------------------------------------
 (6) _ADCC_ISR                                             0     0      0       0
                   Absolute function *
       _ADCC_DefaultInterruptHandler *
 ---------------------------------------------------------------------------------
 (7) _ADCC_DefaultInterruptHandler                         0     0      0       0
 ---------------------------------------------------------------------------------
 (8) Absolute function(Fake)                               0     0      0       0
 ---------------------------------------------------------------------------------
 Estimated maximum stack depth 8
 ---------------------------------------------------------------------------------
 (Depth) Function   	        Calls       Base Space   Used Autos Params    Refs
 ---------------------------------------------------------------------------------
 (6) _UART1_tx_vect_isr                                    0     0      0       0
                   Absolute function *
                 _UART1_Transmit_ISR *
 ---------------------------------------------------------------------------------
 (7) _UART1_Transmit_ISR                                   0     0      0       0
 ---------------------------------------------------------------------------------
 (8) Absolute function(Fake)                               0     0      0       0
 ---------------------------------------------------------------------------------
 Estimated maximum stack depth 8
 ---------------------------------------------------------------------------------
 (Depth) Function   	        Calls       Base Space   Used Autos Params    Refs
 ---------------------------------------------------------------------------------
 (6) _UART1_rx_vect_isr                                    0     0      0       0
                   Absolute function *
                  _UART1_Receive_ISR *
 ---------------------------------------------------------------------------------
 (7) _UART1_Receive_ISR                                    0     0      0       0
 ---------------------------------------------------------------------------------
 (8) Absolute function(Fake)                               0     0      0       0
 ---------------------------------------------------------------------------------
 Estimated maximum stack depth 8
 ---------------------------------------------------------------------------------
 (Depth) Function   	        Calls       Base Space   Used Autos Params    Refs
 ---------------------------------------------------------------------------------
 (6) _UART2_tx_vect_isr                                    0     0      0       0
                   Absolute function *
                 _UART2_Transmit_ISR *
 ---------------------------------------------------------------------------------
 (7) _UART2_Transmit_ISR                                   0     0      0       0
 ---------------------------------------------------------------------------------
 (8) Absolute function(Fake)                               0     0      0       0
 ---------------------------------------------------------------------------------
 Estimated maximum stack depth 8
 ---------------------------------------------------------------------------------
 (Depth) Function   	        Calls       Base Space   Used Autos Params    Refs
 ---------------------------------------------------------------------------------
 (6) _UART2_rx_vect_isr                                    0     0      0       0
                   Absolute function *
                  _UART2_Receive_ISR *
 ---------------------------------------------------------------------------------
 (7) _UART2_Receive_ISR                                    0     0      0       0
 ---------------------------------------------------------------------------------
 (8) Absolute function(Fake)                               0     0      0       0
 ---------------------------------------------------------------------------------
 Estimated maximum stack depth 8
 ---------------------------------------------------------------------------------
 (Depth) Function   	        Calls       Base Space   Used Autos Params    Refs
 ---------------------------------------------------------------------------------
 (6) _TMR6_ISR                                             0     0      0       0
                      _TMR6_CallBack
 ---------------------------------------------------------------------------------
 (7) _TMR6_CallBack                                        0     0      0       0
                   Absolute function *
       _TMR6_DefaultInterruptHandler *
 ---------------------------------------------------------------------------------
 (8) _TMR6_DefaultInterruptHandler                         1     1      0       0
                                              0 COMRAM     1     1      0
 ---------------------------------------------------------------------------------
 (8) Absolute function(Fake)                               0     0      0       0
 ---------------------------------------------------------------------------------
 Estimated maximum stack depth 8
 ---------------------------------------------------------------------------------

 Call Graph Graphs:

 _main (ROOT)
   _SYSTEM_Initialize
     _ADCC_Initialize
       _ADCC_SetADIInterruptHandler
     _EXT_INT_Initialize
       _INT0_SetInterruptHandler
       _INT1_SetInterruptHandler
       _INT2_SetInterruptHandler
     _INTERRUPT_Initialize
     _OSCILLATOR_Initialize
     _PIN_MANAGER_Initialize
     _PMD_Initialize
     _SPI1_Initialize
     _TMR6_Initialize
       _TMR6_SetInterruptHandler
     _UART1_Initialize
       _UART1_SetRxInterruptHandler
       _UART1_SetTxInterruptHandler
     _UART2_Initialize
       _UART2_SetRxInterruptHandler
       _UART2_SetTxInterruptHandler
   _eaDogM_WriteString
     _printf
       _putch
         _send_lcd_data
           _SPI1_Exchange8bit
           _wdtdelay
     _start_lcd
     _strlen
     _wait_lcd
   _init_display
     _send_lcd_cmd
       _SPI1_Exchange8bit
       _wdtdelay
     _send_lcd_cmd_long
       _SPI1_Exchange8bit
       _wdtdelay
     _start_lcd
     _wait_lcd
     _wdtdelay

 _INT0_ISR (ROOT)
   _INT0_CallBack
     Absolute function(Fake) *
     _INT0_DefaultInterruptHandler *

 _INT1_ISR (ROOT)
   _INT1_CallBack
     Absolute function(Fake) *
     _INT1_DefaultInterruptHandler *

 _INT2_ISR (ROOT)
   _INT2_CallBack
     Absolute function(Fake) *
     _INT2_DefaultInterruptHandler *

 _Default_ISR (ROOT)

 _ADCC_ISR (ROOT)
   Absolute function(Fake) *
   _ADCC_DefaultInterruptHandler *

 _UART1_tx_vect_isr (ROOT)
   Absolute function(Fake) *
   _UART1_Transmit_ISR *

 _UART1_rx_vect_isr (ROOT)
   Absolute function(Fake) *
   _UART1_Receive_ISR *

 _UART2_tx_vect_isr (ROOT)
   Absolute function(Fake) *
   _UART2_Transmit_ISR *

 _UART2_rx_vect_isr (ROOT)
   Absolute function(Fake) *
   _UART2_Receive_ISR *

 _TMR6_ISR (ROOT)
   _TMR6_CallBack
     Absolute function(Fake) *
     _TMR6_DefaultInterruptHandler *

 Address spaces:
Name               Size   Autos  Total    Cost      Usage
BIGRAM            1FFF      0       0      69        0.0%
EEDATA             400      0       0       0        0.0%
BITBANK31          100      0       0      67        0.0%
BANK31             100      0       0      68        0.0%
BITBANK30          100      0       0      65        0.0%
BANK30             100      0       0      66        0.0%
BITBANK29          100      0       0      63        0.0%
BANK29             100      0       0      64        0.0%
BITBANK28          100      0       0      61        0.0%
BANK28             100      0       0      62        0.0%
BITBANK27          100      0       0      59        0.0%
BANK27             100      0       0      60        0.0%
BITBANK26          100      0       0      56        0.0%
BANK26             100      0       0      57        0.0%
BITBANK25          100      0       0      54        0.0%
BANK25             100      0       0      55        0.0%
BITBANK24          100      0       0      52        0.0%
BANK24             100      0       0      53        0.0%
BITBANK23          100      0       0      50        0.0%
BANK23             100      0       0      51        0.0%
BITBANK22          100      0       0      48        0.0%
BANK22             100      0       0      49        0.0%
BITBANK21          100      0       0      46        0.0%
BANK21             100      0       0      47        0.0%
BITBANK20          100      0       0      44        0.0%
BANK20             100      0       0      45        0.0%
BITBANK19          100      0       0      42        0.0%
BANK19             100      0       0      43        0.0%
BITBANK18          100      0       0      40        0.0%
BANK18             100      0       0      41        0.0%
BITBANK17          100      0       0      38        0.0%
BANK17             100      0       0      39        0.0%
BITBANK16          100      0       0      36        0.0%
BANK16             100      0       0      37        0.0%
BITBANK15          100      0       0      34        0.0%
BANK15             100      0       0      35        0.0%
BITBANK14          100      0       0      32        0.0%
BANK14             100      0       0      33        0.0%
BITBANK13          100      0       0      30        0.0%
BANK13             100      0       0      31        0.0%
BITBANK12          100      0       0      28        0.0%
BANK12             100      0       0      29        0.0%
BITBANK11          100      0       0      26        0.0%
BANK11             100      0       0      27        0.0%
BITBANK10          100      0       0      24        0.0%
BANK10             100      0       0      25        0.0%
BITBANK9           100      0       0      22        0.0%
BANK9              100      0       0      23        0.0%
BITBANK8           100      0       0      20        0.0%
BANK8              100      0       0      21        0.0%
BITBANK7           100      0       0      18        0.0%
BANK7              100      0       0      19        0.0%
BITBANK6           100      0       0      16        0.0%
BANK6              100      0       0      17        0.0%
BITBANK5           100      0       0      14        0.0%
BANK5              100      0       0      15        0.0%
BITBANK4           100      0       0      12        0.0%
BANK4              100      0       0      13        0.0%
BITBANK3           100      0       0      10        0.0%
BANK3              100      0       0      11        0.0%
BITBANK2           100      0       0       8        0.0%
BANK2              100      0       0       9        0.0%
BITBANK1           100      0       0       6        0.0%
BANK1              100      0       0       7        0.0%
BITBANK0            A0      0       0       4        0.0%
BANK0               A0      0       8       5        5.0%
BITCOMRAM           5F      0       0       0        0.0%
COMRAM              5F     15      5A       1       94.7%
BITSFR_8             0      0       0     200        0.0%
SFR_8                0      0       0     200        0.0%
BITSFR_7             0      0       0     200        0.0%
SFR_7                0      0       0     200        0.0%
BITSFR_6             0      0       0     200        0.0%
SFR_6                0      0       0     200        0.0%
BITSFR_5             0      0       0     200        0.0%
SFR_5                0      0       0     200        0.0%
BITSFR_4             0      0       0     200        0.0%
SFR_4                0      0       0     200        0.0%
BITSFR_3             0      0       0     200        0.0%
SFR_3                0      0       0     200        0.0%
BITSFR_2             0      0       0     200        0.0%
SFR_2                0      0       0     200        0.0%
BITSFR_1             0      0       0     200        0.0%
SFR_1                0      0       0     200        0.0%
BITSFR               0      0       0     200        0.0%
SFR                  0      0       0     200        0.0%
STACK                0      0       0       2        0.0%
NULL                 0      0       0       0        0.0%
ABS                  0      0      62      58        0.0%
DATA                 0      0      62       3        0.0%
CODE                 0      0       0       0        0.0%


Microchip Technology PIC18 Macro Assembler V2.05 build -831301201 
Symbol Table                                                                                   Wed Feb 20 05:51:28 2019

                          _SPI1_Exchange8bit 2846                           ?_SPI1_Exchange8bit 0046  
                                __CFG_CP$OFF 000000                                           u30 242C  
                                         u45 242E                                  __CFG_LVP$ON 000000  
                                        l178 2826                                          l821 2854  
                                        l860 2844                                          l888 24EC  
                                        l889 24DC                                          _GIE 01FE97  
                                        _PR6 003F93                                          u620 2096  
                                        u630 20C8                                          u627 2088  
                                        u637 20BA                                          u670 23B2  
                 ??_INT0_SetInterruptHandler 004A                          ??_SPI1_Exchange8bit 0047  
                    __size_of_PMD_Initialize 0024                                          tosl 003FFD  
                                        wreg 003FE8                                _INT0_CallBack 2696  
                            send_lcd_cmd@cmd 004B                 ?_ADCC_SetADIInterruptHandler 0047  
                         _UART1_Transmit_ISR 2530                                __CFG_BBEN$OFF 000000  
                              _INT1_CallBack 26B8                                 __CFG_ZCD$OFF 000000  
                                       l2640 24A2                                         l2712 23D4  
                                       l2662 206C                                         l2654 203A  
                                       l2670 20D0                                         l2638 249E  
                                       l2648 202A                                         l2672 20FA  
                                       l2666 209E                                         STR_1 2001  
                                       STR_2 201B                                         STR_4 2014  
                                       _LATA 003FBA                                         _LATB 003FBB  
                                       _LATC 003FBC                                         _LATD 003FBD  
                                       _LATE 003FBE                                         _LATF 003FBF  
                                       _T6PR 003F93                                         _PMD0 0039C0  
                                       _PMD1 0039C1                                         _PMD2 0039C2  
                                       _PMD3 0039C3                                         _PMD4 0039C4  
                                       _PMD5 0039C5                                         _PMD6 0039C6  
                                       _PMD7 0039C7                                         _PLLR 01CEE0  
                                       _TMR6 003F92                                         _WPUA 003A41  
                                       _WPUB 003A51                                         _WPUC 003A61  
                                       _WPUD 003A71                                         _WPUE 003A81  
                                       _WPUF 003A91                                _INT2_CallBack 26DA  
                           __end_of_ADCC_ISR 2606                                __CFG_FCMEN$ON 000000  
                        ?_UART1_Transmit_ISR 0046                                         _main 282C  
                                       fsr0h 003FEA                                         indf0 003FEF  
                                       fsr2h 003FDA                                         fsr0l 003FE9  
                                       indf2 003FDF                                         fsr2l 003FD9  
          __size_of_INT2_SetInterruptHandler 0014                    ?_INT2_SetInterruptHandler 0047  
                                       start 00AE                    __end_of_SPI1_Exchange8bit 2860  
              ??_UART1_SetTxInterruptHandler 004A                ??_UART2_SetRxInterruptHandler 004A  
                              __CFG_CSWEN$ON 000000                            _UART1_rx_vect_isr 2720  
                               ___param_bank 000000                           ?_UART1_rx_vect_isr 0046  
                           __end_of_INT0_ISR 295A                             __end_of_INT1_ISR 2966  
                           __end_of_INT2_ISR 2972               __size_of_OSCILLATOR_Initialize 001C  
                       ??_UART1_Transmit_ISR 0046                __end_of_OSCILLATOR_Initialize 282C  
                                      _ADCAP 003EF5                                        _ADACT 003EFE  
                                      ?_main 0046                                        _ADCLK 003EFF  
                                      _ADCNT 003EEB                                        _ADPCH 003EF1  
                                      _ADREF 003EFD                                __CFG_WDTE$OFF 000000  
                                      _ADRPT 003EEC                                        _U1P1H 003DED  
                                      _U1P2H 003DEF                                        _U1P1L 003DEC  
                                      _U1P3H 003DF1                                        _U1P2L 003DEE  
                                      _U1P3L 003DF0                                        _U2P1L 003DD4  
                                      _U2P2L 003DD6                                        _U2P3L 003DD8  
                                      _T6CON 003F94                               __CFG_DEBUG$OFF 000000  
                                      _T6HLT 003F95                                        _U1UIR 003DF8  
                                      _U1RXB 003DE8                                        _U2UIR 003DE0  
                                      _U1TXB 003DEA                                        _U2RXB 003DD0  
                                      _U2TXB 003DD2                                        _T6TMR 003F92  
                                      _T6RST 003F97                                        i2l575 2558  
                        ??_UART1_rx_vect_isr 0046                                        i2l691 2586  
                                      _OSCEN 0039DD                                        _TRISA 003FC2  
                                      _TRISB 003FC3                               ?_INT0_CallBack 0046  
                                      _TRISC 003FC4                                        _TRISD 003FC5  
                                      _TRISE 003FC6                                        _TRISF 003FC7  
                                _Default_ISR 297C                     eaDogM_WriteString@strPtr 0057  
          __size_of_TMR6_SetInterruptHandler 0014                    ?_TMR6_SetInterruptHandler 0047  
                          _UART1_tx_vect_isr 26FC                                __CFG_WRTB$OFF 000000  
                              __CFG_WRTC$OFF 000000                                __CFG_WRTD$OFF 000000  
                             ?_INT1_CallBack 0046                             __end_of_TMR6_ISR 27EE  
             ??_INT1_DefaultInterruptHandler 0046                   __size_of_send_lcd_cmd_long 0024  
                         __CFG_MCLRE$EXTMCLR 000000                           ?_UART1_tx_vect_isr 0046  
                                      _putch 2946                               ?_INT2_CallBack 0046  
                   _INT1_SetInterruptHandler 290A                                        pclath 003FFA  
                                      tablat 003FF5                                        status 003FD8  
        __end_of_UART1_SetRxInterruptHandler 28E2                  _UART1_SetRxInterruptHandler 28CE  
                        ??_UART1_tx_vect_isr 0046                    __end_of_UART1_rx_vect_isr 2742  
                   __size_of_SPI1_Initialize 0018               ??_TMR6_DefaultInterruptHandler 0046  
                            __initialization 258C                            _UART2_rx_vect_isr 2788  
                          send_lcd_data@data 004B                                 __end_of_main 2846  
                             __CFG_SAFEN$OFF 000000                           ?_UART2_rx_vect_isr 0046  
                      __end_of_send_lcd_data 2672                                       ??_main 005B  
                             __CFG_PR1WAY$ON 000000                                __activetblptr 000003  
       __size_of_UART1_SetTxInterruptHandler 0014                          ??_UART2_rx_vect_isr 0046  
                  __end_of_UART1_tx_vect_isr 271E         __size_of_UART2_SetRxInterruptHandler 0014  
                             __CFG_MVECEN$ON 000000                              _TMR6_Initialize 2502  
                           _UART1_Initialize 21C8                            _UART2_tx_vect_isr 2764  
                         _UART2_Transmit_ISR 255E                                       _ADACCH 003EE9  
                                     _ADACCL 003EE8                                       _ADACCU 003EEA  
                                     _ADACQH 003EF4                                       _ADACQL 003EF3  
                                     _ADCON0 003EF8                                       _ADCON1 003EF9  
                                     _ADCON2 003EFA                                       _ADCON3 003EFB  
                                     _ADERRH 003EE3                                       _ADERRL 003EE2  
                                     _ADLTHH 003EDF                                       _ADLTHL 003EDE  
                                     _ADRESH 003EF0                                       _ADRESL 003EEF  
                                     _ADPREH 003EF7                                       _ADPREL 003EF6  
                                     _ADSTAT 003EFC                                       _ADUTHH 003EE1  
                                     _ADUTHL 003EE0                                       _ANSELA 003A40  
                                     ?_putch 0046                                       _ANSELB 003A50  
                                     _ANSELC 003A60                                       _ANSELD 003A70  
                                     _ANSELE 003A80                                       _ANSELF 003A90  
                         ?_UART2_tx_vect_isr 0046                                       _U1CON0 003DF2  
                                     _U1CON1 003DF3                                       _U1CON2 003DF4  
                                     _U1BRGH 003DF6                                       _U1FIFO 003DF7  
                                     _U2CON0 003DDA                                       _U2CON1 003DDB  
                                     _U1BRGL 003DF5                                       _U2CON2 003DDC  
                                     _U2BRGH 003DDE                                       _U2FIFO 003DDF  
                                     _U2BRGL 003DDD                                       _RC3PPS 003A13  
                                     _RB6PPS 003A0E                                       _RC5PPS 003A15  
                                     _ODCONA 003A42                                       _ODCONB 003A52  
                                     _ODCONC 003A62                                       _RC6PPS 003A16  
                                     _ODCOND 003A72                                       _ODCONE 003A82  
                                     _ODCONF 003A92                                       i2l2060 2554  
                                     i2l2070 2760                               __CFG_WDTCCS$SC 000000  
                                     i2l2082 2582                                       i2l2696 27C8  
                              ?_init_display 0046                                       _IVTADH 00389E  
                                     _IVTADL 00389D                                       _IVTADU 00389F  
                                     _OSCFRQ 0039DF                          ?_UART2_Transmit_ISR 0046  
                                     i2u6_40 2868                                       i2u6_46 286A  
                      SPI1_Exchange8bit@data 0047                          ??_UART2_tx_vect_isr 0046  
                  __end_of_UART2_rx_vect_isr 27AA                   __size_of_SPI1_Exchange8bit 001A  
                             __CFG_XINST$OFF 000000                             _UART2_Initialize 224C  
       __size_of_ADCC_SetADIInterruptHandler 0014                               __CFG_STVREN$ON 000000  
                       send_lcd_cmd_long@cmd 004B                                       clear_0 2592  
                                     clear_1 259E                         ??_UART2_Transmit_ISR 0046  
                                     _printf 2020                           _eaDogM_WriteString 2396  
                            ??_INT0_CallBack 0046                                    ?_ADCC_ISR 0046  
                                     _strlen 2490                              _ADCC_Initialize 22C4  
                             _PMD_Initialize 2672         __end_of_INT2_DefaultInterruptHandler 297C  
      __size_of_INT2_DefaultInterruptHandler 0002                 _INT2_DefaultInterruptHandler 297A  
                  __end_of_UART2_tx_vect_isr 2786                              ??_INT1_CallBack 0046  
                           __end_of_wait_lcd 2974                                 __mediumconst 0000  
                                     tblptrh 003FF7                                       tblptrl 003FF6  
                                     tblptru 003FF8                          ?_eaDogM_WriteString 0057  
                           __end_of_wdtdelay 2502                                       putch@c 004C  
                            ??_INT2_CallBack 0046                                wdtdelay@delay 0047  
   TMR6_SetInterruptHandler@InterruptHandler 0047  UART2_SetTxInterruptHandler@InterruptHandler 0047  
UART2_SetRxInterruptHandler@InterruptHandler 0047  UART1_SetTxInterruptHandler@InterruptHandler 0047  
UART1_SetRxInterruptHandler@InterruptHandler 0047  ADCC_SetADIInterruptHandler@InterruptHandler 0047  
   INT2_SetInterruptHandler@InterruptHandler 0047     INT1_SetInterruptHandler@InterruptHandler 0047  
   INT0_SetInterruptHandler@InterruptHandler 0047                __size_of_INTERRUPT_Initialize 004E  
                             ??_init_display 004C                            _SYSTEM_Initialize 25B6  
                                 __accesstop 0060                      __end_of__initialization 25B0  
                                  ?_INT0_ISR 0046                                    ?_INT1_ISR 0046  
                                  ?_INT2_ISR 0046                           ?_SYSTEM_Initialize 0046  
                              ___rparam_used 000001                   __size_of_UART1_rx_vect_isr 0022  
                       ??_eaDogM_WriteString 0059                               __pcstackCOMRAM 0046  
                        ??_SYSTEM_Initialize 004A                                    ?_TMR6_ISR 0046  
                             ivt0x8_undefint 00AC                            ??_SPI1_Initialize 0047  
                              __end_of_putch 2950                      __end_of_TMR6_Initialize 2530  
                     __end_of_PMD_Initialize 2696                                   ??_ADCC_ISR 0046  
                      __end_of_TMR6_CallBack 2810                  __size_of_EXT_INT_Initialize 004C  
                 __size_of_UART1_tx_vect_isr 0022                        TMR6_ISR@CountCallBack 0038  
           __end_of_INT2_SetInterruptHandler 290A                ?_INT2_DefaultInterruptHandler 0046  
                   _UART2_RxInterruptHandler 002C                    __end_of_SYSTEM_Initialize 25E0  
                            __CFG_IVT1WAY$ON 000000                                      ??_putch 004C  
                                 __pbssBANK0 0060                        _INT0_InterruptHandler 0035  
                                 ??_INT0_ISR 0046                                   ??_INT1_ISR 0046  
                                 ??_INT2_ISR 0046                 ?_UART2_SetTxInterruptHandler 0047  
                 __size_of_UART2_rx_vect_isr 0022                                      IVTBASEH 003FD6  
                                    IVTBASEL 003FD5                                      IVTBASEU 003FD7  
                            __CFG_PPS1WAY$ON 000000             __end_of_TMR6_SetInterruptHandler 28F6  
                    __end_of_ADCC_Initialize 2336                                ?_send_lcd_cmd 0046  
                                 ??_TMR6_ISR 0047                                      _ADFLTRH 003EE7  
                                    _ADFLTRL 003EE6                                      _ADPREVH 003EEE  
                                    _ADPREVL 003EED                                      _ADSTPTH 003EE5  
                                    _ADSTPTL 003EE4                                      ?_printf 004D  
                            ?_PMD_Initialize 0046                            _UART1_Receive_ISR 2742  
                                    ?_strlen 0047                                      _U1ERRIE 003DFA  
                                    _U1ERRIR 003DF9                                      _U2ERRIE 003DE2  
                                    _U2ERRIR 003DE1                   ??_INT1_SetInterruptHandler 004A  
                                    _INT0PPS 003AC0                          __CFG_PWRTS$PWRT_OFF 000000  
                                    _INT1PPS 003AC1                                      _INT2PPS 003AC2  
                               ?_Default_ISR 0046                           ?_UART1_Receive_ISR 0046  
                 __size_of_UART2_tx_vect_isr 0022                                      _U1RXPPS 003AE5  
                                    _U2RXPPS 003AE8                                      _OSCCON1 0039D9  
                                    _OSCCON3 0039DB                                      _IVTLOCK 003FD4  
                                    _SPI1CLK 003D1C                                      i2u31_48 25F2  
                                    i2u15_48 26A4                                      i2u40_48 272E  
                                    i2u50_40 27E0                                      i2u17_48 26C6  
                                    _SPI1RXB 003D10                                      i2u27_48 27FC  
                                    i2u19_48 26E8                                      _SPI1TXB 003D11  
                                    _OSCTUNE 0039DE                                      i2u38_48 270A  
                                    i2u71_48 2796                                      i2u47_48 2772  
                                    _SLRCONA 003A43                                      _SLRCONB 003A53  
                                    _SLRCONC 003A63                                      _SLRCOND 003A73  
                                    _SLRCONE 003A83                                      _SLRCONF 003A93  
                         __size_of_start_lcd 0002                          ??_UART1_Receive_ISR 0046  
          __size_of_INT0_SetInterruptHandler 0014                    ?_INT0_SetInterruptHandler 0047  
                  INTERRUPT_Initialize@state 0047                                      __Hparam 0000  
                                    __Lparam 0000                     __end_of_UART1_Initialize 224C  
              ??_UART2_SetTxInterruptHandler 004A                                    ?_wait_lcd 0046  
                             ??_send_lcd_cmd 004B                                    ?_wdtdelay 0047  
                  __end_of_UART1_Receive_ISR 2764                                 __psmallconst 2000  
                       __end_of_init_display 2396                                      __pcinit 258C  
                           ?_TMR6_Initialize 0046                                      __ramtop 2000  
                __size_of_UART1_Transmit_ISR 002E                                      __ptext0 282C  
                                    __ptext1 2336                                      __ptext2 2606  
                                    __ptext3 262A                                      __ptext4 2396  
                                    __ptext5 2972                                      __ptext6 2490  
                                    __ptext7 2974                                      __ptext8 2020  
                                    __ptext9 2946                            _UART2_Receive_ISR 27AA  
                            __size_of_printf 00FE                              __CFG_WRTAPP$OFF 000000  
                            __size_of_strlen 003A                        _OSCILLATOR_Initialize 2810  
                         ?_UART2_Receive_ISR 0046                     ??_PIN_MANAGER_Initialize 0047  
                            __CFG_WRTSAF$OFF 000000                     __end_of_UART2_Initialize 22C4  
                                  _T6CONbits 003F94                                    _T6HLTbits 003F95  
                 __size_of_SYSTEM_Initialize 002A                         end_of_initialization 25B0  
                        ??_UART2_Receive_ISR 0046                     _INT2_SetInterruptHandler 28F6  
             ??_INT2_DefaultInterruptHandler 0046          __end_of_UART1_SetTxInterruptHandler 28CE  
                _UART1_SetTxInterruptHandler 28BA                                    _T6RSTbits 003F97  
        __end_of_UART2_SetRxInterruptHandler 28BA                  _UART2_SetRxInterruptHandler 28A6  
                                 ??_wait_lcd 0047                                    _SPI1TCNTL 003D12  
                                    printf@c 0054                                      printf@f 004D  
                                    postdec2 003FDD                                      postinc0 003FEE  
                                    postinc2 003FDE                                   ??_wdtdelay 004B  
                           ?_ADCC_Initialize 0046                            __end_of_start_lcd 2976  
                  __end_of_UART2_Receive_ISR 27CC                               wdtdelay@dcount 0019  
                      __CFG_WDTCPS$WDTCPS_31 000000                                      strlen@s 0047  
                      _INT1_InterruptHandler 0032                     _TMR6_SetInterruptHandler 28E2  
       __size_of_UART2_SetTxInterruptHandler 0014                            __size_of_ADCC_ISR 0026  
        __end_of_ADCC_SetADIInterruptHandler 2946                  _ADCC_SetADIInterruptHandler 2932  
                           __CFG_FEXTOSC$ECH 000000                ??_ADCC_SetADIInterruptHandler 004A  
                     __size_of_send_lcd_data 0024                              _SPI1_Initialize 287A  
                          __size_of_INT0_ISR 000A                            __size_of_INT1_ISR 000A  
                          __size_of_INT2_ISR 000A                 __end_of_INTERRUPT_Initialize 2444  
             ??_ADCC_DefaultInterruptHandler 0046         __end_of_INT0_DefaultInterruptHandler 2978  
      __size_of_INT0_DefaultInterruptHandler 0002                 _INT0_DefaultInterruptHandler 2976  
                 __size_of_UART1_Receive_ISR 0022                            __size_of_TMR6_ISR 0022  
                __size_of_UART2_Transmit_ISR 002E                       ?_OSCILLATOR_Initialize 0046  
                             __end_of_printf 211E                        __end_of_INT0_CallBack 26B8  
                             __end_of_strlen 24CA                          start_initialization 258C  
            __size_of_PIN_MANAGER_Initialize 00AA                        __end_of_INT1_CallBack 26DA  
                       __size_of_Default_ISR 0002                         __end_of_send_lcd_cmd 264E  
                                 ivt0x8_base 0008                        __end_of_INT2_CallBack 26FC  
                              _uart1RxBuffer 0009                                _uart2RxBuffer 0060  
                              _uart1TxBuffer 0011                                _uart2TxBuffer 0001  
                           __CFG_LPBOREN$OFF 000000                        __size_of_init_display 0060  
                __size_of_eaDogM_WriteString 0060                             ??_PMD_Initialize 0047  
                 __size_of_UART2_Receive_ISR 0022                   __end_of_EXT_INT_Initialize 2490  
              ?_INT0_DefaultInterruptHandler 0046                                     ??_printf 0051  
                              _send_lcd_data 264E                                     ??_strlen 0049  
                                __pbssCOMRAM 0001             __end_of_INT0_SetInterruptHandler 2932  
                    __end_of_SPI1_Initialize 2892                     _UART1_RxInterruptHandler 0026  
                   _UART2_TxInterruptHandler 0029                                 _init_display 2336  
                      _INT2_InterruptHandler 002F                 ?_UART1_SetRxInterruptHandler 0047  
                      _TMR6_InterruptHandler 001D                       __size_of_TMR6_CallBack 0022  
                     _PIN_MANAGER_Initialize 211E                            ?_UART1_Initialize 0046  
                         ??_UART1_Initialize 004A                            __size_of_wait_lcd 0002  
                             ?_send_lcd_data 0046                            __size_of_wdtdelay 0038  
                                   _ADCC_ISR 25E0                       __CFG_BBSIZE$BBSIZE_512 000000  
                                __smallconst 2000                   ??_INT2_SetInterruptHandler 004A  
                          ?_UART2_Initialize 0046                                  _U1ERRIRbits 003DF9  
                         ??_UART2_Initialize 004A                               __size_of_putch 000A  
                       _INTERRUPT_Initialize 23F6                                     _T6CLKCON 003F96  
                                _U2ERRIRbits 003DE1                                     _INT0_ISR 2950  
                                   _INT1_ISR 295C                                     _INT2_ISR 2968  
                                   _LATCbits 003FBC                                     _LATEbits 003FBE  
          __size_of_INT1_SetInterruptHandler 0014                    ?_INT1_SetInterruptHandler 0047  
                                   _IPR1bits 003981                                     _PIE1bits 003991  
                                   _IPR3bits 003983                                     _IPR5bits 003985  
                                   _PIE3bits 003993                                     _IPR6bits 003986  
                                   _PIE5bits 003995                                     _IPR7bits 003987  
                                   _PIE6bits 003996                                     _PIE7bits 003997  
                                   _IPR9bits 003989                          __CFG_BORV$VBOR_2P45 000000  
                                   _PIE9bits 003999                ??_UART1_SetRxInterruptHandler 004A  
                                   _PIR1bits 0039A1                                     _PIR2bits 0039A2  
                                   _SPI1BAUD 003D19                                     _SPI1CON0 003D14  
                                   _SPI1CON1 003D15                                     _SPI1CON2 003D16  
                                   _PIR5bits 0039A5                                     _PIR7bits 0039A7  
                                   _PIR9bits 0039A9                   ??_TMR6_SetInterruptHandler 004A  
                 __end_of_UART1_Transmit_ISR 255E                                     _TMR6_ISR 27CC  
                                 _ADCON0bits 003EF8                                   _ADCON1bits 003EF9  
                                 _ADCON2bits 003EFA                                   _ADCON3bits 003EFB  
                                  _start_lcd 2974                                _TMR6_CallBack 27EE  
                      __size_of_send_lcd_cmd 0024               ??_INT0_DefaultInterruptHandler 0046  
                   __size_of_TMR6_Initialize 002E                             ?_SPI1_Initialize 0046  
                                _INTCON0bits 003FD2                        ?_INTERRUPT_Initialize 0046  
                   _INT0_SetInterruptHandler 291E                       _uart1TxBufferRemaining 0043  
        __end_of_UART2_SetTxInterruptHandler 28A6                  _UART2_SetTxInterruptHandler 2892  
                               _uart1RxCount 0040                                   _ADSTATbits 003EFC  
                               _uart2RxCount 003A                                     __Hrparam 0000  
                    __CFG_RSTOSC$EXTOSC_4PLL 000000                                     __Lrparam 0000  
                         __CFG_BOREN$SBORDIS 000000                              ??_send_lcd_data 004B  
                    ??_OSCILLATOR_Initialize 0047                                 _send_lcd_cmd 262A  
                             ?_TMR6_CallBack 0046                                   ?_start_lcd 0046  
       __size_of_UART1_SetRxInterruptHandler 0014                     __size_of_ADCC_Initialize 0072  
                                   __pivt0x8 0008                                     __ptext10 264E  
                                   __ptext11 24CA                                     __ptext20 2502  
                                   __ptext12 2846                                     __ptext21 28E2  
                                   __ptext13 25B6                                     __ptext30 291E  
                                   __ptext22 287A                                     __ptext14 224C  
                                   __ptext31 22C4                                     __ptext23 2672  
                                   __ptext15 2892                                     __ptext40 26DA  
                                   __ptext32 2932                                     __ptext24 211E  
                                   __ptext16 28A6                                     __ptext41 297A  
                                   __ptext33 2950                                     __ptext25 2810  
                                   __ptext17 21C8                                     __ptext50 255E  
                                   __ptext42 297C                                     __ptext34 2696  
                                   __ptext26 23F6                                     __ptext18 28BA  
                                   __ptext51 2788                                     __ptext43 25E0  
                                   __ptext35 2976                                     __ptext27 2444  
                                   __ptext19 28CE                                     __ptext52 27AA  
                                   __ptext44 297E                                     __ptext36 295C  
                                   __ptext28 28F6                                     __ptext53 27CC  
                                   __ptext45 26FC                                     __ptext37 26B8  
                                   __ptext29 290A                                     __ptext54 27EE  
                                   __ptext46 2530                                     __ptext38 2978  
                                   __ptext55 2860                                     __ptext47 2720  
                                   __ptext39 2968                                     __ptext56 0000  
                                   __ptext48 2742                                     __ptext49 2764  
                              __size_of_main 001A                         __CFG_WDTCWS$WDTCWS_7 000000  
                                _IVTLOCKbits 003FD4                    _ADCC_ADI_InterruptHandler 0020  
                                   _wait_lcd 2972                                     _wdtdelay 24CA  
                 __end_of_UART2_Transmit_ISR 258C         __end_of_INT1_DefaultInterruptHandler 297A  
      __size_of_INT1_DefaultInterruptHandler 0002                 _INT1_DefaultInterruptHandler 2978  
                              ??_Default_ISR 0046                                  _uart1RxHead 0042  
                                _uart1TxHead 0045                                  _uart2RxHead 003C  
                                _uart1RxTail 0041                                  _uart2TxHead 003F  
                                _uart1TxTail 0044                                  _uart2RxTail 003B  
                                _uart2TxTail 003E                       ??_INTERRUPT_Initialize 0047  
                         _EXT_INT_Initialize 2444         __end_of_TMR6_DefaultInterruptHandler 287A  
      __size_of_TMR6_DefaultInterruptHandler 001A                 _TMR6_DefaultInterruptHandler 2860  
       __end_of_ADCC_DefaultInterruptHandler 2980        __size_of_ADCC_DefaultInterruptHandler 0002  
               _ADCC_DefaultInterruptHandler 297E                                     intlevel2 0000  
                          _send_lcd_cmd_long 2606                      ?_PIN_MANAGER_Initialize 0046  
                          ??_TMR6_Initialize 004A                            __CFG_CLKOUTEN$OFF 000000  
                         ?_send_lcd_cmd_long 0046                          ?_EXT_INT_Initialize 0046  
                 __end_of_eaDogM_WriteString 23F6                       __size_of_INT0_CallBack 0022  
                                 _SPI1SCKPPS 003ADE                                   _SPI1SDIPPS 003ADF  
                        ??_send_lcd_cmd_long 004B                                     printf@ap 0052  
                                   printf@cp 0055                       __size_of_INT1_CallBack 0022  
                            ??_TMR6_CallBack 0047                       __size_of_INT2_CallBack 0022  
                     _uart2TxBufferRemaining 003D                                  ??_start_lcd 0047  
                       ??_EXT_INT_Initialize 004A                ?_INT1_DefaultInterruptHandler 0046  
                                   strlen@cp 0049             __end_of_INT1_SetInterruptHandler 291E  
                  __size_of_UART1_Initialize 0084                     _UART1_TxInterruptHandler 0023  
                  __end_of_send_lcd_cmd_long 262A                          __end_of_Default_ISR 297E  
             __end_of_PIN_MANAGER_Initialize 21C8                            ??_ADCC_Initialize 004A  
              ?_TMR6_DefaultInterruptHandler 0046                ?_ADCC_DefaultInterruptHandler 0046  
               ?_UART1_SetTxInterruptHandler 0047                 ?_UART2_SetRxInterruptHandler 0047  
                  __size_of_UART2_Initialize 0078  
