

Microchip MPLAB XC8 Assembler V2.05 build -831301201 
                                                                                               Sat Feb 23 01:54:10 2019

Microchip MPLAB XC8 C Compiler v2.05 (Free license) build 20181220022703 Og9 
     1                           	processor	18F57K42
     2                           	fnconf	rparam,??,?,0
     3                           	opt	pw 120
     4                           	opt	flic
     5                           	psect	text0,global,reloc=4,class=CODE,delta=1
     6                           	psect	smallconst,global,reloc=2,class=SMALLCONST,delta=1,noexec
     7                           	psect	cinit,global,reloc=2,class=CODE,delta=1
     8                           	psect	bssCOMRAM,global,class=COMRAM,space=1,delta=1,noexec
     9                           	psect	bssBANK0,global,class=BANK0,space=1,delta=1,lowdata,noexec
    10                           	psect	cstackCOMRAM,global,class=COMRAM,space=1,delta=1,noexec
    11                           	psect	text1,global,reloc=2,class=CODE,delta=1
    12                           	psect	text2,global,reloc=2,class=CODE,delta=1
    13                           	psect	text3,global,reloc=2,class=CODE,delta=1
    14                           	psect	text4,global,reloc=2,class=CODE,delta=1
    15                           	psect	text5,global,reloc=2,class=CODE,delta=1
    16                           	psect	text6,global,reloc=2,class=CODE,delta=1
    17                           	psect	text7,global,reloc=2,class=CODE,delta=1
    18                           	psect	text8,global,reloc=2,class=CODE,delta=1
    19                           	psect	text9,global,reloc=2,class=CODE,delta=1
    20                           	psect	text10,global,reloc=2,class=CODE,delta=1,group=2
    21                           	psect	text11,global,reloc=2,class=CODE,delta=1
    22                           	psect	text12,global,reloc=2,class=CODE,delta=1
    23                           	psect	text13,global,reloc=2,class=CODE,delta=1,group=2
    24                           	psect	text14,global,reloc=2,class=CODE,delta=1
    25                           	psect	text15,global,reloc=2,class=CODE,delta=1
    26                           	psect	text16,global,reloc=2,class=CODE,delta=1
    27                           	psect	text17,global,reloc=2,class=CODE,delta=1
    28                           	psect	text18,global,reloc=2,class=CODE,delta=1
    29                           	psect	text19,global,reloc=2,class=CODE,delta=1
    30                           	psect	text20,global,reloc=2,class=CODE,delta=1
    31                           	psect	text21,global,reloc=2,class=CODE,delta=1
    32                           	psect	text22,global,reloc=2,class=CODE,delta=1
    33                           	psect	text23,global,reloc=2,class=CODE,delta=1
    34                           	psect	text24,global,reloc=2,class=CODE,delta=1
    35                           	psect	text25,global,reloc=2,class=CODE,delta=1
    36                           	psect	text26,global,reloc=2,class=CODE,delta=1
    37                           	psect	text27,global,reloc=2,class=CODE,delta=1
    38                           	psect	text28,global,reloc=2,class=CODE,delta=1
    39                           	psect	text29,global,reloc=2,class=CODE,delta=1
    40                           	psect	text30,global,reloc=2,class=CODE,delta=1
    41                           	psect	text31,global,reloc=2,class=CODE,delta=1
    42                           	psect	text32,global,reloc=2,class=CODE,delta=1
    43                           	psect	text33,global,reloc=2,class=CODE,delta=1
    44                           	psect	text34,global,reloc=2,class=CODE,delta=1
    45                           	psect	text35,global,reloc=2,class=CODE,delta=1
    46                           	psect	text36,global,reloc=2,class=CODE,delta=1
    47                           	psect	text37,global,reloc=2,class=CODE,delta=1
    48                           	psect	text38,global,reloc=4,class=CODE,delta=1
    49                           	psect	text39,global,reloc=2,class=CODE,delta=1
    50                           	psect	text40,global,reloc=2,class=CODE,delta=1
    51                           	psect	text41,global,reloc=4,class=CODE,delta=1
    52                           	psect	text42,global,reloc=2,class=CODE,delta=1
    53                           	psect	text43,global,reloc=2,class=CODE,delta=1
    54                           	psect	text44,global,reloc=4,class=CODE,delta=1
    55                           	psect	text45,global,reloc=2,class=CODE,delta=1
    56                           	psect	text46,global,reloc=2,class=CODE,delta=1
    57                           	psect	text47,global,reloc=4,class=CODE,delta=1
    58                           	psect	text48,global,reloc=4,class=CODE,delta=1
    59                           	psect	text49,global,reloc=2,class=CODE,delta=1
    60                           	psect	text50,global,reloc=4,class=CODE,delta=1
    61                           	psect	text51,global,reloc=2,class=CODE,delta=1
    62                           	psect	text52,global,reloc=4,class=CODE,delta=1
    63                           	psect	text53,global,reloc=2,class=CODE,delta=1
    64                           	psect	text54,global,reloc=4,class=CODE,delta=1
    65                           	psect	text55,global,reloc=2,class=CODE,delta=1
    66                           	psect	text56,global,reloc=4,class=CODE,delta=1
    67                           	psect	text57,global,reloc=2,class=CODE,delta=1
    68                           	psect	text58,global,reloc=4,class=CODE,delta=1
    69                           	psect	text59,global,reloc=2,class=CODE,delta=1
    70                           	psect	text60,global,reloc=2,class=CODE,delta=1
    71                           	psect	text61,global,reloc=4,class=CODE,delta=1
    72                           	psect	text62,global,reloc=4,class=CODE,delta=1
    73                           	psect	text63,global,reloc=4,class=CODE,delta=1
    74                           	psect	text64,global,reloc=4,class=CODE,delta=1
    75                           	psect	ivt0x8,global,reloc=2,class=CODE,delta=1,noexec,keep,optim=
    76                           	psect	intsave_regs,global,class=BIGRAM,space=1,delta=1,noexec
    77                           	psect	text65,global,reloc=4,class=CODE,delta=1
    78                           	psect	rparam,global,class=COMRAM,space=1,delta=1,noexec
    79                           	dabs	1,0x1000,67,_ring_buf1
    80                           	dabs	1,0x1100,67,_ring_buf2
    81  0000                     
    82                           ; Version 2.05
    83                           ; Generated 20/12/2018 GMT
    84                           ; 
    85                           ; Copyright © 2018, Microchip Technology Inc. and its subsidiaries ("Microchip")
    86                           ; All rights reserved.
    87                           ; 
    88                           ; This software is developed by Microchip Technology Inc. and its subsidiaries ("Microch
      +                          ip").
    89                           ; 
    90                           ; Redistribution and use in source and binary forms, with or without modification, are
    91                           ; permitted provided that the following conditions are met:
    92                           ; 
    93                           ;     1. Redistributions of source code must retain the above copyright notice, this lis
      +                          t of
    94                           ;        conditions and the following disclaimer.
    95                           ; 
    96                           ;     2. Redistributions in binary form must reproduce the above copyright notice, this 
      +                          list
    97                           ;        of conditions and the following disclaimer in the documentation and/or other
    98                           ;        materials provided with the distribution.
    99                           ; 
   100                           ;     3. Microchip's name may not be used to endorse or promote products derived from th
      +                          is
   101                           ;        software without specific prior written permission.
   102                           ; 
   103                           ; THIS SOFTWARE IS PROVIDED BY MICROCHIP "AS IS" AND ANY EXPRESS OR IMPLIED WARRANTIES,
   104                           ; INCLUDING, BUT NOT LIMITED TO, THE IMPLIED WARRANTIES OF MERCHANTABILITY AND FITNESS F
      +                          OR
   105                           ; PURPOSE ARE DISCLAIMED.  IN NO EVENT SHALL MICROCHIP BE LIABLE FOR ANY DIRECT, INDIREC
      +                          T,
   106                           ; INCIDENTAL, SPECIAL, EXEMPLARY, OR CONSEQUENTIAL DAMAGES (INCLUDING BUT NOT LIMITED TO
   107                           ; PROCUREMENT OF SUBSTITUTE GOODS OR SERVICES; LOSS OF USE, DATA OR PROFITS; OR BUSINESS
   108                           ; INTERRUPTION) HOWSOEVER CAUSED AND ON ANY THEORY OF LIABILITY, WHETHER IN CONTRACT, ST
      +                          RICT
   109                           ; LIABILITY, OR TORT (INCLUDING NEGLIGENCE OR OTHERWISE) ARISING IN ANY WAY OUT OF THE U
      +                          SE OF
   110                           ; THIS SOFTWARE, EVEN IF ADVISED OF THE POSSIBILITY OF SUCH DAMAGE.
   111                           ; 
   112                           ; 
   113                           ; Code-generator required, PIC18F57K42 Definitions
   114                           ; 
   115                           ; SFR Addresses
   116  0000                     
   117                           ; 1 bytes @ 0x11
   118 ;;
   119 ;;Main: autosize = 0, tempsize = 0, incstack = 0, save=0
   120 ;;
   121 ;; *************** function _main *****************
   122 ;; Defined at:
   123 ;;		line 52 in file "main.c"
   124 ;; Parameters:    Size  Location     Type
   125 ;;		None
   126 ;; Auto vars:     Size  Location     Type
   127 ;;		None
   128 ;; Return value:  Size  Location     Type
   129 ;;                  1    wreg      void 
   130 ;; Registers used:
   131 ;;		wreg, fsr2l, fsr2h, status,2, status,0, tblptrl, tblptrh, tblptru, cstack
   132 ;; Tracked objects:
   133 ;;		On entry : 0/0
   134 ;;		On exit  : 0/0
   135 ;;		Unchanged: 0/0
   136 ;; Data sizes:     COMRAM   BANK0   BANK1   BANK2   BANK3   BANK4   BANK5   BANK6   BANK7   BANK8   BANK9  BANK10  BANK1
      +1  BANK12  BANK13  BANK14  BANK15  BANK16  BANK17  BANK18  BANK19  BANK20  BANK21  BANK22  BANK23  BANK24  BANK25  BANK2
      +6  BANK27  BANK28  BANK29  BANK30  BANK31
   137 ;;      Params:         0       0       0       0       0       0       0       0       0       0       0       0       
      +0       0       0       0       0       0       0       0       0       0       0       0       0       0       0       
      +0       0       0       0       0       0
   138 ;;      Locals:         0       0       0       0       0       0       0       0       0       0       0       0       
      +0       0       0       0       0       0       0       0       0       0       0       0       0       0       0       
      +0       0       0       0       0       0
   139 ;;      Temps:          0       0       0       0       0       0       0       0       0       0       0       0       
      +0       0       0       0       0       0       0       0       0       0       0       0       0       0       0       
      +0       0       0       0       0       0
   140 ;;      Totals:         0       0       0       0       0       0       0       0       0       0       0       0       
      +0       0       0       0       0       0       0       0       0       0       0       0       0       0       0       
      +0       0       0       0       0       0
   141 ;;Total ram usage:        0 bytes
   142 ;; Hardware stack levels required when called:    7
   143 ;; This function calls:
   144 ;;		_SYSTEM_Initialize
   145 ;;		_eaDogM_WriteString
   146 ;;		_init_display
   147 ;;		_wait_lcd_done
   148 ;; This function is called by:
   149 ;;		Startup code after reset
   150 ;; This function uses a non-reentrant model
   151 ;;
   152                           
   153                           	psect	text0
   154  0027CC                     __ptext0:
   155                           	opt callstack 0
   156  0000                     _GIE	set	130711
   157  0000                     _INTCON0bits	set	16338
   158  0000                     _IVTLOCK	set	16340
   159  0000                     _IVTLOCKbits	set	16340
   160  0000                     _LATE	set	16318
   161  0000                     _LATD	set	16317
   162  0000                     _LATA	set	16314
   163  0000                     _LATF	set	16319
   164  0000                     _LATB	set	16315
   165  0000                     _LATC	set	16316
   166  0000                     _TRISE	set	16326
   167  0000                     _TRISF	set	16327
   168  0000                     _TRISA	set	16322
   169  0000                     _TRISB	set	16323
   170  0000                     _TRISC	set	16324
   171  0000                     _TRISD	set	16325
   172  0000                     _T6CLKCON	set	16278
   173  0000                     _T6HLT	set	16277
   174  0000                     _T6RST	set	16279
   175  0000                     _T6PR	set	16275
   176  0000                     _T6TMR	set	16274
   177  0000                     _T6CON	set	16276
   178  0000                     _LATEbits	set	16318
   179  0000                     _LATCbits	set	16316
   180  0000                     _ADLTHL	set	16094
   181  0000                     _ADLTHH	set	16095
   182  0000                     _ADUTHL	set	16096
   183  0000                     _ADUTHH	set	16097
   184  0000                     _ADSTPTL	set	16100
   185  0000                     _ADSTPTH	set	16101
   186  0000                     _ADACCU	set	16106
   187  0000                     _ADRPT	set	16108
   188  0000                     _ADPCH	set	16113
   189  0000                     _ADACQL	set	16115
   190  0000                     _ADACQH	set	16116
   191  0000                     _ADCAP	set	16117
   192  0000                     _ADPREL	set	16118
   193  0000                     _ADPREH	set	16119
   194  0000                     _ADCON1	set	16121
   195  0000                     _ADCON2	set	16122
   196  0000                     _ADCON3	set	16123
   197  0000                     _ADSTAT	set	16124
   198  0000                     _ADREF	set	16125
   199  0000                     _ADACT	set	16126
   200  0000                     _ADCLK	set	16127
   201  0000                     _ADCON0	set	16120
   202  0000                     _U1P1L	set	15852
   203  0000                     _U1P1H	set	15853
   204  0000                     _U1P2L	set	15854
   205  0000                     _U1P2H	set	15855
   206  0000                     _U1P3L	set	15856
   207  0000                     _U1P3H	set	15857
   208  0000                     _U1CON0	set	15858
   209  0000                     _U1CON1	set	15859
   210  0000                     _U1CON2	set	15860
   211  0000                     _U1BRGL	set	15861
   212  0000                     _U1BRGH	set	15862
   213  0000                     _U1FIFO	set	15863
   214  0000                     _U1UIR	set	15864
   215  0000                     _U1ERRIR	set	15865
   216  0000                     _U1ERRIE	set	15866
   217  0000                     _U1TXB	set	15850
   218  0000                     _U1RXB	set	15848
   219  0000                     _U2P1L	set	15828
   220  0000                     _U2P2L	set	15830
   221  0000                     _U2P3L	set	15832
   222  0000                     _U2CON0	set	15834
   223  0000                     _U2CON1	set	15835
   224  0000                     _U2CON2	set	15836
   225  0000                     _U2BRGL	set	15837
   226  0000                     _U2BRGH	set	15838
   227  0000                     _U2FIFO	set	15839
   228  0000                     _U2UIR	set	15840
   229  0000                     _U2ERRIR	set	15841
   230  0000                     _U2ERRIE	set	15842
   231  0000                     _U2TXB	set	15826
   232  0000                     _U2RXB	set	15824
   233  0000                     _SPI1CON1	set	15637
   234  0000                     _SPI1CON2	set	15638
   235  0000                     _SPI1BAUD	set	15641
   236  0000                     _SPI1CLK	set	15644
   237  0000                     _SPI1CON0	set	15636
   238  0000                     _SPI1TCNTL	set	15634
   239  0000                     _SPI1TXB	set	15633
   240  0000                     _SPI1RXB	set	15632
   241  0000                     _SPI1INTFbits	set	15642
   242  0000                     _DMA1CON1	set	15357
   243  0000                     _DMA1SIRQ	set	15359
   244  0000                     _DMA1AIRQ	set	15358
   245  0000                     _DMA1CON0	set	15356
   246  0000                     _DMA1CON1bits	set	15357
   247  0000                     _DMA1CON0bits	set	15356
   248  0000                     _DMA1DSA	set	15344
   249  0000                     _DMA1SSZ	set	15351
   250  0000                     _DMA1DSZ	set	15342
   251  0000                     _DMA1SSA	set	15353
   252  0000                     _ANSELD	set	14960
   253  0000                     _ANSELC	set	14944
   254  0000                     _ANSELB	set	14928
   255  0000                     _ANSELE	set	14976
   256  0000                     _ANSELF	set	14992
   257  0000                     _ANSELA	set	14912
   258  0000                     _WPUD	set	14961
   259  0000                     _WPUF	set	14993
   260  0000                     _WPUE	set	14977
   261  0000                     _WPUB	set	14929
   262  0000                     _WPUA	set	14913
   263  0000                     _WPUC	set	14945
   264  0000                     _ODCONE	set	14978
   265  0000                     _ODCONF	set	14994
   266  0000                     _ODCONA	set	14914
   267  0000                     _ODCONB	set	14930
   268  0000                     _ODCONC	set	14946
   269  0000                     _ODCOND	set	14962
   270  0000                     _SLRCONA	set	14915
   271  0000                     _SLRCONB	set	14931
   272  0000                     _SLRCONC	set	14947
   273  0000                     _SLRCOND	set	14963
   274  0000                     _SLRCONE	set	14979
   275  0000                     _SLRCONF	set	14995
   276  0000                     _U2RXPPS	set	15080
   277  0000                     _SPI1SCKPPS	set	15070
   278  0000                     _RB6PPS	set	14862
   279  0000                     _RC3PPS	set	14867
   280  0000                     _INT0PPS	set	15040
   281  0000                     _INT2PPS	set	15042
   282  0000                     _INT1PPS	set	15041
   283  0000                     _RC5PPS	set	14869
   284  0000                     _RC6PPS	set	14870
   285  0000                     _U1RXPPS	set	15077
   286  0000                     _SPI1SDIPPS	set	15071
   287  0000                     _PLLR	set	118496
   288  0000                     _PIR1bits	set	14753
   289  0000                     _PIR5bits	set	14757
   290  0000                     _PIR7bits	set	14759
   291  0000                     _PIE1bits	set	14737
   292  0000                     _PIE5bits	set	14741
   293  0000                     _PIE7bits	set	14743
   294  0000                     _IPR2bits	set	14722
   295  0000                     _IPR6bits	set	14726
   296  0000                     _IPR3bits	set	14723
   297  0000                     _IPR1bits	set	14721
   298  0000                     _IPR5bits	set	14725
   299  0000                     _IPR7bits	set	14727
   300  0000                     _IPR9bits	set	14729
   301  0000                     _OSCCON1	set	14809
   302  0000                     _OSCCON3	set	14811
   303  0000                     _OSCEN	set	14813
   304  0000                     _OSCFRQ	set	14815
   305  0000                     _OSCTUNE	set	14814
   306  0000                     _PMD0	set	14784
   307  0000                     _PMD1	set	14785
   308  0000                     _PMD2	set	14786
   309  0000                     _PMD3	set	14787
   310  0000                     _PMD4	set	14788
   311  0000                     _PMD5	set	14789
   312  0000                     _PMD6	set	14790
   313  0000                     _PMD7	set	14791
   314  0000                     _PIE3bits	set	14739
   315  0000                     _PIE6bits	set	14742
   316  0000                     _PIR9bits	set	14761
   317  0000                     _PIE9bits	set	14745
   318  0000                     _PIR2bits	set	14754
   319  0000                     _PIE2bits	set	14738
   320  0000                     _MAINPR	set	14834
   321  0000                     _ISRPR	set	14833
   322  0000                     _DMA1PR	set	14835
   323  0000                     _DMA2PR	set	14836
   324  0000                     _SCANPR	set	14839
   325  0000                     _IVTADU	set	14495
   326  0000                     _IVTADH	set	14494
   327  0000                     _IVTADL	set	14493
   328  0027CC                     _main:
   329                           	opt callstack 24
   330                           
   331                           ;main.c: 55: SYSTEM_Initialize();
   332                           
   333                           ;incstack = 0
   334  0027CC  EC79  F013         	call	_SYSTEM_Initialize	;wreg free
   335                           
   336                           ; BSR set to: 59
   337                           ;main.c: 62: (INTCON0bits.GIEH = 1);
   338  0027D0  8ED2               	bsf	16338,7,c	;volatile
   339                           
   340                           ; BSR set to: 59
   341                           ;main.c: 65: (INTCON0bits.GIEL = 1);
   342  0027D2  8CD2               	bsf	16338,6,c	;volatile
   343                           
   344                           ; BSR set to: 59
   345                           ;main.c: 74: init_display();
   346  0027D4  EC99  F010         	call	_init_display	;wreg free
   347                           
   348                           ; BSR set to: 61
   349                           ;main.c: 76: eaDogM_WriteString((char*) "Testing 12345678Testing 12345678Testing 1234567
      +                          8");
   350  0027D8  0E01               	movlw	low STR_1
   351  0027DA  6E59               	movwf	eaDogM_WriteString@strPtr,c
   352  0027DC  EC58  F011         	call	_eaDogM_WriteString	;wreg free
   353                           
   354                           ; BSR set to: 59
   355                           ;main.c: 77: wait_lcd_done();
   356  0027E0  EC1C  F015         	call	_wait_lcd_done	;wreg free
   357  0027E4                     l2809:
   358                           
   359                           ;main.c: 80: eaDogM_WriteString((char*) "Testing 12345678Testing 12345678Testing 1234567
      +                          8");
   360  0027E4  0E01               	movlw	low STR_1
   361  0027E6  6E59               	movwf	eaDogM_WriteString@strPtr,c
   362  0027E8  EC58  F011         	call	_eaDogM_WriteString	;wreg free
   363                           
   364                           ; BSR set to: 59
   365                           ;main.c: 81: wait_lcd_done();
   366  0027EC  EC1C  F015         	call	_wait_lcd_done	;wreg free
   367                           
   368                           ;main.c: 82: LATEbits.LATE2 = 1;
   369  0027F0  84BE               	bsf	16318,2,c	;volatile
   370  0027F2  D7F8               	goto	l2809
   371  0027F4                     __end_of_main:
   372                           	opt callstack 0
   373                           
   374                           	psect	smallconst
   375  002000                     __psmallconst:
   376                           	opt callstack 0
   377  002000  00                 	db	0
   378  002001                     STR_1:
   379                           
   380                           ; BSR set to: 57
   381  002001  54                 	db	84	;'T'
   382  002002  65                 	db	101	;'e'
   383  002003  73                 	db	115	;'s'
   384  002004  74                 	db	116	;'t'
   385  002005  69                 	db	105	;'i'
   386  002006  6E                 	db	110	;'n'
   387  002007  67                 	db	103	;'g'
   388  002008  20                 	db	32
   389  002009  31                 	db	49	;'1'
   390  00200A  32                 	db	50	;'2'
   391  00200B  33                 	db	51	;'3'
   392  00200C  34                 	db	52	;'4'
   393  00200D  35                 	db	53	;'5'
   394  00200E  36                 	db	54	;'6'
   395  00200F  37                 	db	55	;'7'
   396  002010  38                 	db	56	;'8'
   397  002011  54                 	db	84	;'T'
   398  002012  65                 	db	101	;'e'
   399  002013  73                 	db	115	;'s'
   400  002014  74                 	db	116	;'t'
   401  002015  69                 	db	105	;'i'
   402  002016  6E                 	db	110	;'n'
   403  002017  67                 	db	103	;'g'
   404  002018  20                 	db	32
   405  002019  31                 	db	49	;'1'
   406  00201A  32                 	db	50	;'2'
   407  00201B  33                 	db	51	;'3'
   408  00201C  34                 	db	52	;'4'
   409  00201D  35                 	db	53	;'5'
   410  00201E  36                 	db	54	;'6'
   411  00201F  37                 	db	55	;'7'
   412  002020  38                 	db	56	;'8'
   413  002021  54                 	db	84	;'T'
   414  002022  65                 	db	101	;'e'
   415  002023  73                 	db	115	;'s'
   416  002024  74                 	db	116	;'t'
   417  002025  69                 	db	105	;'i'
   418  002026  6E                 	db	110	;'n'
   419  002027  67                 	db	103	;'g'
   420  002028  20                 	db	32
   421  002029  31                 	db	49	;'1'
   422  00202A  32                 	db	50	;'2'
   423  00202B  33                 	db	51	;'3'
   424  00202C  34                 	db	52	;'4'
   425  00202D  35                 	db	53	;'5'
   426  00202E  36                 	db	54	;'6'
   427  00202F  37                 	db	55	;'7'
   428  002030  38                 	db	56	;'8'
   429  002031  00                 	db	0
   430  002032                     STR_5:
   431                           
   432                           ; BSR set to: 57
   433  002032  28                 	db	40
   434  002033  6E                 	db	110	;'n'
   435  002034  75                 	db	117	;'u'
   436  002035  6C                 	db	108	;'l'
   437  002036  6C                 	db	108	;'l'
   438  002037  29                 	db	41
   439  002038  00                 	db	0
   440  002039                     STR_3:
   441                           
   442                           ; BSR set to: 57
   443  002039  25                 	db	37
   444  00203A  73                 	db	115	;'s'
   445  00203B  00                 	db	0
   446  0000                     
   447                           ; #config settings
   448  00203C  00                 	db	0	; dummy byte at the end
   449  0000                     
   450                           	psect	cinit
   451  00274C                     __pcinit:
   452                           	opt callstack 0
   453  00274C                     start_initialization:
   454                           	opt callstack 0
   455  00274C                     __initialization:
   456                           	opt callstack 0
   457                           
   458                           ; Clear objects allocated to BANK0 (16 bytes)
   459  00274C  EE00  F060         	lfsr	0,__pbssBANK0
   460  002750  0E10               	movlw	16
   461  002752                     clear_0:
   462  002752  6AEE               	clrf	postinc0,c
   463  002754  06E8               	decf	wreg,f,c
   464  002756  E1FD               	bnz	clear_0
   465                           
   466                           ; Clear objects allocated to COMRAM (73 bytes)
   467  002758  EE00  F001         	lfsr	0,__pbssCOMRAM
   468  00275C  0E49               	movlw	73
   469  00275E                     clear_1:
   470  00275E  6AEE               	clrf	postinc0,c
   471  002760  06E8               	decf	wreg,f,c
   472  002762  E1FD               	bnz	clear_1
   473                           
   474                           ;
   475                           ; Setup IVTBASE
   476                           ;
   477  002764  0E08               	movlw	(ivt0x8_base shr 0)& (0+255)
   478  002766  6ED5               	movwf	213,c
   479  002768  0E00               	movlw	(ivt0x8_base shr (0+8))& (0+255)
   480  00276A  6ED6               	movwf	214,c
   481  00276C  0E00               	movlw	(ivt0x8_base shr (0+16))& (0+255)
   482  00276E  6ED7               	movwf	215,c
   483  002770                     end_of_initialization:
   484                           	opt callstack 0
   485  002770                     __end_of__initialization:
   486                           	opt callstack 0
   487  002770  0100               	movlb	0
   488  002772  EFE6  F013         	goto	_main	;jump to C main() function
   489                           
   490                           	psect	bssCOMRAM
   491  000001                     __pbssCOMRAM:
   492                           	opt callstack 0
   493  000001                     _spi_link:
   494                           	opt callstack 0
   495  000001                     	ds	12
   496  00000D                     _uart1RxBuffer:
   497                           	opt callstack 0
   498  00000D                     	ds	8
   499  000015                     _uart1TxBuffer:
   500                           	opt callstack 0
   501  000015                     	ds	8
   502  00001D                     wdtdelay@dcount:
   503                           	opt callstack 0
   504  00001D                     	ds	4
   505  000021                     _TMR6_InterruptHandler:
   506                           	opt callstack 0
   507  000021                     	ds	3
   508  000024                     _ADCC_ADI_InterruptHandler:
   509                           	opt callstack 0
   510  000024                     	ds	3
   511  000027                     _UART1_TxInterruptHandler:
   512                           	opt callstack 0
   513  000027                     	ds	3
   514  00002A                     _UART1_RxInterruptHandler:
   515                           	opt callstack 0
   516  00002A                     	ds	3
   517  00002D                     _UART2_TxInterruptHandler:
   518                           	opt callstack 0
   519  00002D                     	ds	3
   520  000030                     _UART2_RxInterruptHandler:
   521                           	opt callstack 0
   522  000030                     	ds	3
   523  000033                     _INT2_InterruptHandler:
   524                           	opt callstack 0
   525  000033                     	ds	3
   526  000036                     _INT1_InterruptHandler:
   527                           	opt callstack 0
   528  000036                     	ds	3
   529  000039                     _INT0_InterruptHandler:
   530                           	opt callstack 0
   531  000039                     	ds	3
   532  00003C                     TMR6_ISR@CountCallBack:
   533                           	opt callstack 0
   534  00003C                     	ds	2
   535  00003E                     _uart2RxCount:
   536                           	opt callstack 0
   537  00003E                     	ds	1
   538  00003F                     _uart2RxTail:
   539                           	opt callstack 0
   540  00003F                     	ds	1
   541  000040                     _uart2RxHead:
   542                           	opt callstack 0
   543  000040                     	ds	1
   544  000041                     _uart2TxBufferRemaining:
   545                           	opt callstack 0
   546  000041                     	ds	1
   547  000042                     _uart2TxTail:
   548                           	opt callstack 0
   549  000042                     	ds	1
   550  000043                     _uart2TxHead:
   551                           	opt callstack 0
   552  000043                     	ds	1
   553  000044                     _uart1RxCount:
   554                           	opt callstack 0
   555  000044                     	ds	1
   556  000045                     _uart1RxTail:
   557                           	opt callstack 0
   558  000045                     	ds	1
   559  000046                     _uart1RxHead:
   560                           	opt callstack 0
   561  000046                     	ds	1
   562  000047                     _uart1TxBufferRemaining:
   563                           	opt callstack 0
   564  000047                     	ds	1
   565  000048                     _uart1TxTail:
   566                           	opt callstack 0
   567  000048                     	ds	1
   568  000049                     _uart1TxHead:
   569                           	opt callstack 0
   570  000049                     	ds	1
   571                           
   572                           	psect	bssBANK0
   573  000060                     __pbssBANK0:
   574                           	opt callstack 0
   575  000060                     _uart2RxBuffer:
   576                           	opt callstack 0
   577  000060                     	ds	8
   578  000068                     _uart2TxBuffer:
   579                           	opt callstack 0
   580  000068                     	ds	8
   581                           
   582                           	psect	cstackCOMRAM
   583  00004A                     __pcstackCOMRAM:
   584                           	opt callstack 0
   585  00004A                     ??_TMR6_DefaultInterruptHandler:
   586  00004A                     
   587                           ; 1 bytes @ 0x0
   588  00004A                     	ds	1
   589  00004B                     ?_strlen:
   590                           	opt callstack 0
   591  00004B                     INTERRUPT_Initialize@state:
   592                           	opt callstack 0
   593  00004B                     SPI1_Exchange8bit@data:
   594                           	opt callstack 0
   595  00004B                     strlen@s:
   596                           	opt callstack 0
   597  00004B                     ringBufS_put_dma@_this:
   598                           	opt callstack 0
   599  00004B                     memset@p1:
   600                           	opt callstack 0
   601  00004B                     INT0_SetInterruptHandler@InterruptHandler:
   602                           	opt callstack 0
   603  00004B                     INT1_SetInterruptHandler@InterruptHandler:
   604                           	opt callstack 0
   605  00004B                     INT2_SetInterruptHandler@InterruptHandler:
   606                           	opt callstack 0
   607  00004B                     ADCC_SetADIInterruptHandler@InterruptHandler:
   608                           	opt callstack 0
   609  00004B                     UART1_SetRxInterruptHandler@InterruptHandler:
   610                           	opt callstack 0
   611  00004B                     UART1_SetTxInterruptHandler@InterruptHandler:
   612                           	opt callstack 0
   613  00004B                     UART2_SetRxInterruptHandler@InterruptHandler:
   614                           	opt callstack 0
   615  00004B                     UART2_SetTxInterruptHandler@InterruptHandler:
   616                           	opt callstack 0
   617  00004B                     TMR6_SetInterruptHandler@InterruptHandler:
   618                           	opt callstack 0
   619  00004B                     wdtdelay@delay:
   620                           	opt callstack 0
   621                           
   622                           ; 4 bytes @ 0x1
   623  00004B                     	ds	2
   624  00004D                     ringBufS_put_dma@c:
   625                           	opt callstack 0
   626  00004D                     strlen@cp:
   627                           	opt callstack 0
   628  00004D                     memset@c:
   629                           	opt callstack 0
   630                           
   631                           ; 2 bytes @ 0x3
   632  00004D                     	ds	1
   633  00004E                     ??_ringBufS_put_dma:
   634  00004E                     
   635                           ; 1 bytes @ 0x4
   636  00004E                     	ds	1
   637  00004F                     send_lcd_cmd@cmd:
   638                           	opt callstack 0
   639  00004F                     send_lcd_cmd_long@cmd:
   640                           	opt callstack 0
   641  00004F                     putch@c:
   642                           	opt callstack 0
   643  00004F                     memset@n:
   644                           	opt callstack 0
   645                           
   646                           ; 2 bytes @ 0x5
   647  00004F                     	ds	1
   648  000050                     ?_printf:
   649                           	opt callstack 0
   650  000050                     printf@f:
   651                           	opt callstack 0
   652                           
   653                           ; 1 bytes @ 0x6
   654  000050                     	ds	1
   655  000051                     memset@p:
   656                           	opt callstack 0
   657                           
   658                           ; 2 bytes @ 0x7
   659  000051                     	ds	2
   660  000053                     ??_printf:
   661  000053                     ringBufS_init@_this:
   662                           	opt callstack 0
   663  000053                     ringBufS_flush@_this:
   664                           	opt callstack 0
   665                           
   666                           ; 2 bytes @ 0x9
   667  000053                     	ds	2
   668  000055                     ringBufS_flush@clearBuffer:
   669                           	opt callstack 0
   670  000055                     printf@ap:
   671                           	opt callstack 0
   672                           
   673                           ; 1 bytes @ 0xB
   674  000055                     	ds	1
   675  000056                     printf@c:
   676                           	opt callstack 0
   677                           
   678                           ; 1 bytes @ 0xC
   679  000056                     	ds	1
   680  000057                     printf@cp:
   681                           	opt callstack 0
   682                           
   683                           ; 2 bytes @ 0xD
   684  000057                     	ds	2
   685  000059                     eaDogM_WriteString@strPtr:
   686                           	opt callstack 0
   687                           
   688                           ; 1 bytes @ 0xF
   689  000059                     	ds	1
   690  00005A                     ??_eaDogM_WriteString:
   691                           
   692                           ; 1 bytes @ 0x10
   693  00005A                     	ds	1
   694  00005B                     
   695 ;; *************** function _wait_lcd_done *****************
   696 ;; Defined at:
   697 ;;		line 117 in file "eadog.c"
   698 ;; Parameters:    Size  Location     Type
   699 ;;		None
   700 ;; Auto vars:     Size  Location     Type
   701 ;;		None
   702 ;; Return value:  Size  Location     Type
   703 ;;                  1    wreg      void 
   704 ;; Registers used:
   705 ;;		wreg, status,2, status,0, cstack
   706 ;; Tracked objects:
   707 ;;		On entry : 3F/3B
   708 ;;		On exit  : 0/0
   709 ;;		Unchanged: 0/0
   710 ;; Data sizes:     COMRAM   BANK0   BANK1   BANK2   BANK3   BANK4   BANK5   BANK6   BANK7   BANK8   BANK9  BANK10  BANK1
      +1  BANK12  BANK13  BANK14  BANK15  BANK16  BANK17  BANK18  BANK19  BANK20  BANK21  BANK22  BANK23  BANK24  BANK25  BANK2
      +6  BANK27  BANK28  BANK29  BANK30  BANK31
   711 ;;      Params:         0       0       0       0       0       0       0       0       0       0       0       0       
      +0       0       0       0       0       0       0       0       0       0       0       0       0       0       0       
      +0       0       0       0       0       0
   712 ;;      Locals:         0       0       0       0       0       0       0       0       0       0       0       0       
      +0       0       0       0       0       0       0       0       0       0       0       0       0       0       0       
      +0       0       0       0       0       0
   713 ;;      Temps:          0       0       0       0       0       0       0       0       0       0       0       0       
      +0       0       0       0       0       0       0       0       0       0       0       0       0       0       0       
      +0       0       0       0       0       0
   714 ;;      Totals:         0       0       0       0       0       0       0       0       0       0       0       0       
      +0       0       0       0       0       0       0       0       0       0       0       0       0       0       0       
      +0       0       0       0       0       0
   715 ;;Total ram usage:        0 bytes
   716 ;; Hardware stack levels used:    1
   717 ;; Hardware stack levels required when called:    4
   718 ;; This function calls:
   719 ;;		_wdtdelay
   720 ;; This function is called by:
   721 ;;		_main
   722 ;; This function uses a non-reentrant model
   723 ;;
   724                           
   725                           	psect	text1
   726  002A38                     __ptext1:
   727                           	opt callstack 0
   728  002A38                     _wait_lcd_done:
   729                           	opt callstack 26
   730                           
   731                           ; BSR set to: 59
   732                           
   733                           ; BSR set to: 59
   734                           ;eadog.c: 119: while (spi_link.LCD_DATA);
   735                           
   736                           ;incstack = 0
   737  002A38  B601               	btfsc	_spi_link,3,c	;volatile
   738  002A3A  D7FE               	goto	_wait_lcd_done
   739                           
   740                           ; BSR set to: 59
   741                           ;eadog.c: 120: wdtdelay(50);
   742  002A3C  0E32               	movlw	50
   743  002A3E  6E4B               	movwf	wdtdelay@delay,c
   744  002A40  0E00               	movlw	0
   745  002A42  6E4C               	movwf	wdtdelay@delay+1,c
   746  002A44  0E00               	movlw	0
   747  002A46  6E4D               	movwf	wdtdelay@delay+2,c
   748  002A48  0E00               	movlw	0
   749  002A4A  6E4E               	movwf	wdtdelay@delay+3,c
   750  002A4C  EC2A  F013         	call	_wdtdelay	;wreg free
   751  002A50  0012               	return		;funcret
   752  002A52                     __end_of_wait_lcd_done:
   753                           	opt callstack 0
   754                           
   755 ;; *************** function _init_display *****************
   756 ;; Defined at:
   757 ;;		line 33 in file "eadog.c"
   758 ;; Parameters:    Size  Location     Type
   759 ;;		None
   760 ;; Auto vars:     Size  Location     Type
   761 ;;		None
   762 ;; Return value:  Size  Location     Type
   763 ;;                  1    wreg      void 
   764 ;; Registers used:
   765 ;;		wreg, fsr2l, fsr2h, status,2, status,0, cstack
   766 ;; Tracked objects:
   767 ;;		On entry : 3F/3B
   768 ;;		On exit  : 3F/3D
   769 ;;		Unchanged: 0/0
   770 ;; Data sizes:     COMRAM   BANK0   BANK1   BANK2   BANK3   BANK4   BANK5   BANK6   BANK7   BANK8   BANK9  BANK10  BANK1
      +1  BANK12  BANK13  BANK14  BANK15  BANK16  BANK17  BANK18  BANK19  BANK20  BANK21  BANK22  BANK23  BANK24  BANK25  BANK2
      +6  BANK27  BANK28  BANK29  BANK30  BANK31
   771 ;;      Params:         0       0       0       0       0       0       0       0       0       0       0       0       
      +0       0       0       0       0       0       0       0       0       0       0       0       0       0       0       
      +0       0       0       0       0       0
   772 ;;      Locals:         0       0       0       0       0       0       0       0       0       0       0       0       
      +0       0       0       0       0       0       0       0       0       0       0       0       0       0       0       
      +0       0       0       0       0       0
   773 ;;      Temps:          0       0       0       0       0       0       0       0       0       0       0       0       
      +0       0       0       0       0       0       0       0       0       0       0       0       0       0       0       
      +0       0       0       0       0       0
   774 ;;      Totals:         0       0       0       0       0       0       0       0       0       0       0       0       
      +0       0       0       0       0       0       0       0       0       0       0       0       0       0       0       
      +0       0       0       0       0       0
   775 ;;Total ram usage:        0 bytes
   776 ;; Hardware stack levels used:    1
   777 ;; Hardware stack levels required when called:    5
   778 ;; This function calls:
   779 ;;		_ringBufS_init
   780 ;;		_send_lcd_cmd
   781 ;;		_send_lcd_cmd_long
   782 ;;		_wdtdelay
   783 ;; This function is called by:
   784 ;;		_main
   785 ;; This function uses a non-reentrant model
   786 ;;
   787                           
   788                           	psect	text2
   789  002132                     __ptext2:
   790                           	opt callstack 0
   791  002132                     _init_display:
   792                           	opt callstack 25
   793                           
   794                           ; BSR set to: 59
   795                           ;eadog.c: 35: spi_link.tx1a = &ring_buf1;
   796                           
   797                           ;incstack = 0
   798  002132  0E00               	movlw	0
   799  002134  6E07               	movwf	_spi_link+6,c	;volatile
   800  002136  0E10               	movlw	16
   801  002138  6E08               	movwf	_spi_link+7,c	;volatile
   802                           
   803                           ;eadog.c: 36: spi_link.tx1b = &ring_buf2;
   804  00213A  0E00               	movlw	0
   805  00213C  6E05               	movwf	_spi_link+4,c	;volatile
   806  00213E  0E11               	movlw	17
   807  002140  6E06               	movwf	_spi_link+5,c	;volatile
   808                           
   809                           ; BSR set to: 59
   810                           ;eadog.c: 37: ringBufS_init(spi_link.tx1a);
   811  002142  0060  F01C  F053   	movff	_spi_link+6,ringBufS_init@_this	;volatile
   812  002148  0060  F020  F054   	movff	_spi_link+7,ringBufS_init@_this+1	;volatile
   813  00214E  EC31  F014         	call	_ringBufS_init	;wreg free
   814                           
   815                           ;eadog.c: 38: ringBufS_init(spi_link.tx1b);
   816  002152  0060  F014  F053   	movff	_spi_link+4,ringBufS_init@_this	;volatile
   817  002158  0060  F018  F054   	movff	_spi_link+5,ringBufS_init@_this+1	;volatile
   818  00215E  EC31  F014         	call	_ringBufS_init	;wreg free
   819                           
   820                           ;eadog.c: 40: LATEbits.LATE0 = 1;
   821  002162  80BE               	bsf	16318,0,c	;volatile
   822  002164  84BC               	bsf	16316,2,c	;volatile
   823                           
   824                           ;eadog.c: 42: wdtdelay(350000);
   825  002166  0E30               	movlw	48
   826  002168  6E4B               	movwf	wdtdelay@delay,c
   827  00216A  0E57               	movlw	87
   828  00216C  6E4C               	movwf	wdtdelay@delay+1,c
   829  00216E  0E05               	movlw	5
   830  002170  6E4D               	movwf	wdtdelay@delay+2,c
   831  002172  0E00               	movlw	0
   832  002174  6E4E               	movwf	wdtdelay@delay+3,c
   833  002176  EC2A  F013         	call	_wdtdelay	;wreg free
   834                           
   835                           ;eadog.c: 43: send_lcd_cmd(0x39);
   836  00217A  0E39               	movlw	57
   837  00217C  EC1F  F014         	call	_send_lcd_cmd
   838                           
   839                           ;eadog.c: 44: send_lcd_cmd(0x1d);
   840  002180  0E1D               	movlw	29
   841  002182  EC1F  F014         	call	_send_lcd_cmd
   842                           
   843                           ;eadog.c: 45: send_lcd_cmd(0x50);
   844  002186  0E50               	movlw	80
   845  002188  EC1F  F014         	call	_send_lcd_cmd
   846                           
   847                           ;eadog.c: 46: send_lcd_cmd(0x6c);
   848  00218C  0E6C               	movlw	108
   849  00218E  EC1F  F014         	call	_send_lcd_cmd
   850                           
   851                           ;eadog.c: 47: send_lcd_cmd(0x76);
   852  002192  0E76               	movlw	118
   853  002194  EC1F  F014         	call	_send_lcd_cmd
   854                           
   855                           ;eadog.c: 48: send_lcd_cmd_long(0x38);
   856  002198  0E38               	movlw	56
   857  00219A  EC0D  F014         	call	_send_lcd_cmd_long
   858                           
   859                           ;eadog.c: 49: send_lcd_cmd(0x0f);
   860  00219E  0E0F               	movlw	15
   861  0021A0  EC1F  F014         	call	_send_lcd_cmd
   862                           
   863                           ;eadog.c: 50: send_lcd_cmd_long(0x01);
   864  0021A4  0E01               	movlw	1
   865  0021A6  EC0D  F014         	call	_send_lcd_cmd_long
   866                           
   867                           ;eadog.c: 51: send_lcd_cmd(0x02);
   868  0021AA  0E02               	movlw	2
   869  0021AC  EC1F  F014         	call	_send_lcd_cmd
   870                           
   871                           ;eadog.c: 52: send_lcd_cmd(0x06);
   872  0021B0  0E06               	movlw	6
   873  0021B2  EC1F  F014         	call	_send_lcd_cmd
   874                           
   875                           ;eadog.c: 53: wdtdelay(30);
   876  0021B6  0E1E               	movlw	30
   877  0021B8  6E4B               	movwf	wdtdelay@delay,c
   878  0021BA  0E00               	movlw	0
   879  0021BC  6E4C               	movwf	wdtdelay@delay+1,c
   880  0021BE  0E00               	movlw	0
   881  0021C0  6E4D               	movwf	wdtdelay@delay+2,c
   882  0021C2  0E00               	movlw	0
   883  0021C4  6E4E               	movwf	wdtdelay@delay+3,c
   884  0021C6  EC2A  F013         	call	_wdtdelay	;wreg free
   885                           
   886                           ;eadog.c: 54: SPI1CON2 = 0x02;
   887  0021CA  0E02               	movlw	2
   888  0021CC  013D               	movlb	61	; () banked
   889  0021CE  6F16               	movwf	22,b	;volatile
   890                           
   891                           ; BSR set to: 61
   892                           ;eadog.c: 55: SPI1CON1 = 0x40;
   893  0021D0  0E40               	movlw	64
   894  0021D2  6F15               	movwf	21,b	;volatile
   895                           
   896                           ; BSR set to: 61
   897                           ;eadog.c: 56: SPI1CON0 = 0x83;
   898  0021D4  0E83               	movlw	131
   899  0021D6  6F14               	movwf	20,b	;volatile
   900                           
   901                           ; BSR set to: 61
   902                           ;eadog.c: 57: SPI1INTFbits.SPI1TXUIF = 0;
   903  0021D8  931A               	bcf	26,1,b	;volatile
   904                           
   905                           ; BSR set to: 61
   906                           ;eadog.c: 58: DMA1CON1bits.DMODE = 0;
   907  0021DA  0E3F               	movlw	-193
   908  0021DC  013B               	movlb	59	; () banked
   909  0021DE  17FD               	andwf	253,f,b	;volatile
   910                           
   911                           ; BSR set to: 59
   912                           ;eadog.c: 59: DMA1CON1bits.DSTP = 0;
   913  0021E0  9BFD               	bcf	253,5,b	;volatile
   914                           
   915                           ; BSR set to: 59
   916                           ;eadog.c: 60: DMA1CON1bits.SMODE = 1;
   917  0021E2  51FD               	movf	253,w,b	;volatile
   918  0021E4  0BF9               	andlw	-7
   919  0021E6  0902               	iorlw	2
   920  0021E8  6FFD               	movwf	253,b	;volatile
   921                           
   922                           ; BSR set to: 59
   923                           ;eadog.c: 61: DMA1CON1bits.SMR = 0;
   924  0021EA  0EE7               	movlw	-25
   925  0021EC  17FD               	andwf	253,f,b	;volatile
   926                           
   927                           ; BSR set to: 59
   928                           ;eadog.c: 62: DMA1CON1bits.SSTP = 1;
   929  0021EE  81FD               	bsf	253,0,b	;volatile
   930                           
   931                           ; BSR set to: 59
   932                           ;eadog.c: 63: DMA1SSA = (uint24_t) 0x001000;
   933  0021F0  0E00               	movlw	0
   934  0021F2  6FF9               	movwf	249,b	;volatile
   935  0021F4  0E10               	movlw	16
   936  0021F6  6FFA               	movwf	250,b	;volatile
   937  0021F8  0E00               	movlw	0
   938  0021FA  6FFB               	movwf	251,b	;volatile
   939                           
   940                           ; BSR set to: 59
   941                           ;eadog.c: 64: DMA1CON0bits.DGO = 0;
   942  0021FC  9BFC               	bcf	252,5,b	;volatile
   943                           
   944                           ; BSR set to: 59
   945                           ;eadog.c: 65: SPI1INTFbits.SPI1TXUIF = 1;
   946  0021FE  013D               	movlb	61	; () banked
   947  002200  831A               	bsf	26,1,b	;volatile
   948                           
   949                           ; BSR set to: 61
   950                           ;eadog.c: 66: LATEbits.LATE0 = 0;
   951  002202  90BE               	bcf	16318,0,c	;volatile
   952                           
   953                           ; BSR set to: 61
   954  002204  0012               	return		;funcret
   955  002206                     __end_of_init_display:
   956                           	opt callstack 0
   957                           
   958 ;; *************** function _send_lcd_cmd_long *****************
   959 ;; Defined at:
   960 ;;		line 95 in file "eadog.c"
   961 ;; Parameters:    Size  Location     Type
   962 ;;  cmd             1    wreg     unsigned char 
   963 ;; Auto vars:     Size  Location     Type
   964 ;;  cmd             1    5[COMRAM] unsigned char 
   965 ;; Return value:  Size  Location     Type
   966 ;;                  1    wreg      void 
   967 ;; Registers used:
   968 ;;		wreg, status,2, status,0, cstack
   969 ;; Tracked objects:
   970 ;;		On entry : 0/3B
   971 ;;		On exit  : 0/0
   972 ;;		Unchanged: 0/0
   973 ;; Data sizes:     COMRAM   BANK0   BANK1   BANK2   BANK3   BANK4   BANK5   BANK6   BANK7   BANK8   BANK9  BANK10  BANK1
      +1  BANK12  BANK13  BANK14  BANK15  BANK16  BANK17  BANK18  BANK19  BANK20  BANK21  BANK22  BANK23  BANK24  BANK25  BANK2
      +6  BANK27  BANK28  BANK29  BANK30  BANK31
   974 ;;      Params:         0       0       0       0       0       0       0       0       0       0       0       0       
      +0       0       0       0       0       0       0       0       0       0       0       0       0       0       0       
      +0       0       0       0       0       0
   975 ;;      Locals:         1       0       0       0       0       0       0       0       0       0       0       0       
      +0       0       0       0       0       0       0       0       0       0       0       0       0       0       0       
      +0       0       0       0       0       0
   976 ;;      Temps:          0       0       0       0       0       0       0       0       0       0       0       0       
      +0       0       0       0       0       0       0       0       0       0       0       0       0       0       0       
      +0       0       0       0       0       0
   977 ;;      Totals:         1       0       0       0       0       0       0       0       0       0       0       0       
      +0       0       0       0       0       0       0       0       0       0       0       0       0       0       0       
      +0       0       0       0       0       0
   978 ;;Total ram usage:        1 bytes
   979 ;; Hardware stack levels used:    1
   980 ;; Hardware stack levels required when called:    4
   981 ;; This function calls:
   982 ;;		_SPI1_Exchange8bit
   983 ;;		_wdtdelay
   984 ;; This function is called by:
   985 ;;		_init_display
   986 ;; This function uses a non-reentrant model
   987 ;;
   988                           
   989                           	psect	text3
   990  00281A                     __ptext3:
   991                           	opt callstack 0
   992  00281A                     _send_lcd_cmd_long:
   993                           	opt callstack 25
   994                           
   995                           ; BSR set to: 61
   996                           ;incstack = 0
   997                           ;send_lcd_cmd_long@cmd stored from wreg
   998  00281A  6E4F               	movwf	send_lcd_cmd_long@cmd,c
   999                           
  1000                           ;eadog.c: 97: do { LATCbits.LATC1 = 0; } while(0);
  1001  00281C  92BC               	bcf	16316,1,c	;volatile
  1002                           
  1003                           ;eadog.c: 98: do { LATCbits.LATC2 = 0; } while(0);
  1004  00281E  94BC               	bcf	16316,2,c	;volatile
  1005                           
  1006                           ;eadog.c: 99: SPI1_Exchange8bit(cmd);
  1007  002820  504F               	movf	send_lcd_cmd_long@cmd,w,c
  1008  002822  EC29  F015         	call	_SPI1_Exchange8bit
  1009                           
  1010                           ; BSR set to: 61
  1011                           ;eadog.c: 100: wdtdelay(800);
  1012  002826  0E20               	movlw	32
  1013  002828  6E4B               	movwf	wdtdelay@delay,c
  1014  00282A  0E03               	movlw	3
  1015  00282C  6E4C               	movwf	wdtdelay@delay+1,c
  1016  00282E  0E00               	movlw	0
  1017  002830  6E4D               	movwf	wdtdelay@delay+2,c
  1018  002832  0E00               	movlw	0
  1019  002834  6E4E               	movwf	wdtdelay@delay+3,c
  1020  002836  EC2A  F013         	call	_wdtdelay	;wreg free
  1021  00283A  82BC               	bsf	16316,1,c	;volatile
  1022  00283C  0012               	return		;funcret
  1023  00283E                     __end_of_send_lcd_cmd_long:
  1024                           	opt callstack 0
  1025                           
  1026 ;; *************** function _send_lcd_cmd *****************
  1027 ;; Defined at:
  1028 ;;		line 83 in file "eadog.c"
  1029 ;; Parameters:    Size  Location     Type
  1030 ;;  cmd             1    wreg     unsigned char 
  1031 ;; Auto vars:     Size  Location     Type
  1032 ;;  cmd             1    5[COMRAM] unsigned char 
  1033 ;; Return value:  Size  Location     Type
  1034 ;;                  1    wreg      void 
  1035 ;; Registers used:
  1036 ;;		wreg, status,2, status,0, cstack
  1037 ;; Tracked objects:
  1038 ;;		On entry : 0/3B
  1039 ;;		On exit  : 0/0
  1040 ;;		Unchanged: 0/0
  1041 ;; Data sizes:     COMRAM   BANK0   BANK1   BANK2   BANK3   BANK4   BANK5   BANK6   BANK7   BANK8   BANK9  BANK10  BANK1
      +1  BANK12  BANK13  BANK14  BANK15  BANK16  BANK17  BANK18  BANK19  BANK20  BANK21  BANK22  BANK23  BANK24  BANK25  BANK2
      +6  BANK27  BANK28  BANK29  BANK30  BANK31
  1042 ;;      Params:         0       0       0       0       0       0       0       0       0       0       0       0       
      +0       0       0       0       0       0       0       0       0       0       0       0       0       0       0       
      +0       0       0       0       0       0
  1043 ;;      Locals:         1       0       0       0       0       0       0       0       0       0       0       0       
      +0       0       0       0       0       0       0       0       0       0       0       0       0       0       0       
      +0       0       0       0       0       0
  1044 ;;      Temps:          0       0       0       0       0       0       0       0       0       0       0       0       
      +0       0       0       0       0       0       0       0       0       0       0       0       0       0       0       
      +0       0       0       0       0       0
  1045 ;;      Totals:         1       0       0       0       0       0       0       0       0       0       0       0       
      +0       0       0       0       0       0       0       0       0       0       0       0       0       0       0       
      +0       0       0       0       0       0
  1046 ;;Total ram usage:        1 bytes
  1047 ;; Hardware stack levels used:    1
  1048 ;; Hardware stack levels required when called:    4
  1049 ;; This function calls:
  1050 ;;		_SPI1_Exchange8bit
  1051 ;;		_wdtdelay
  1052 ;; This function is called by:
  1053 ;;		_init_display
  1054 ;; This function uses a non-reentrant model
  1055 ;;
  1056                           
  1057                           	psect	text4
  1058  00283E                     __ptext4:
  1059                           	opt callstack 0
  1060  00283E                     _send_lcd_cmd:
  1061                           	opt callstack 25
  1062                           
  1063                           ;incstack = 0
  1064                           ;send_lcd_cmd@cmd stored from wreg
  1065  00283E  6E4F               	movwf	send_lcd_cmd@cmd,c
  1066                           
  1067                           ;eadog.c: 85: do { LATCbits.LATC1 = 0; } while(0);
  1068  002840  92BC               	bcf	16316,1,c	;volatile
  1069                           
  1070                           ;eadog.c: 86: do { LATCbits.LATC2 = 0; } while(0);
  1071  002842  94BC               	bcf	16316,2,c	;volatile
  1072                           
  1073                           ;eadog.c: 87: SPI1_Exchange8bit(cmd);
  1074  002844  504F               	movf	send_lcd_cmd@cmd,w,c
  1075  002846  EC29  F015         	call	_SPI1_Exchange8bit
  1076                           
  1077                           ; BSR set to: 61
  1078                           ;eadog.c: 88: wdtdelay(30);
  1079  00284A  0E1E               	movlw	30
  1080  00284C  6E4B               	movwf	wdtdelay@delay,c
  1081  00284E  0E00               	movlw	0
  1082  002850  6E4C               	movwf	wdtdelay@delay+1,c
  1083  002852  0E00               	movlw	0
  1084  002854  6E4D               	movwf	wdtdelay@delay+2,c
  1085  002856  0E00               	movlw	0
  1086  002858  6E4E               	movwf	wdtdelay@delay+3,c
  1087  00285A  EC2A  F013         	call	_wdtdelay	;wreg free
  1088  00285E  82BC               	bsf	16316,1,c	;volatile
  1089  002860  0012               	return		;funcret
  1090  002862                     __end_of_send_lcd_cmd:
  1091                           	opt callstack 0
  1092                           
  1093 ;; *************** function _wdtdelay *****************
  1094 ;; Defined at:
  1095 ;;		line 19 in file "eadog.c"
  1096 ;; Parameters:    Size  Location     Type
  1097 ;;  delay           4    1[COMRAM] unsigned long 
  1098 ;; Auto vars:     Size  Location     Type
  1099 ;;		None
  1100 ;; Return value:  Size  Location     Type
  1101 ;;                  1    wreg      void 
  1102 ;; Registers used:
  1103 ;;		wreg, status,2, status,0
  1104 ;; Tracked objects:
  1105 ;;		On entry : 0/3B
  1106 ;;		On exit  : 0/0
  1107 ;;		Unchanged: 0/0
  1108 ;; Data sizes:     COMRAM   BANK0   BANK1   BANK2   BANK3   BANK4   BANK5   BANK6   BANK7   BANK8   BANK9  BANK10  BANK1
      +1  BANK12  BANK13  BANK14  BANK15  BANK16  BANK17  BANK18  BANK19  BANK20  BANK21  BANK22  BANK23  BANK24  BANK25  BANK2
      +6  BANK27  BANK28  BANK29  BANK30  BANK31
  1109 ;;      Params:         4       0       0       0       0       0       0       0       0       0       0       0       
      +0       0       0       0       0       0       0       0       0       0       0       0       0       0       0       
      +0       0       0       0       0       0
  1110 ;;      Locals:         0       0       0       0       0       0       0       0       0       0       0       0       
      +0       0       0       0       0       0       0       0       0       0       0       0       0       0       0       
      +0       0       0       0       0       0
  1111 ;;      Temps:          0       0       0       0       0       0       0       0       0       0       0       0       
      +0       0       0       0       0       0       0       0       0       0       0       0       0       0       0       
      +0       0       0       0       0       0
  1112 ;;      Totals:         4       0       0       0       0       0       0       0       0       0       0       0       
      +0       0       0       0       0       0       0       0       0       0       0       0       0       0       0       
      +0       0       0       0       0       0
  1113 ;;Total ram usage:        4 bytes
  1114 ;; Hardware stack levels used:    1
  1115 ;; Hardware stack levels required when called:    3
  1116 ;; This function calls:
  1117 ;;		Nothing
  1118 ;; This function is called by:
  1119 ;;		_init_display
  1120 ;;		_send_lcd_cmd
  1121 ;;		_send_lcd_cmd_long
  1122 ;;		_wait_lcd_done
  1123 ;; This function uses a non-reentrant model
  1124 ;;
  1125                           
  1126                           	psect	text5
  1127  002654                     __ptext5:
  1128                           	opt callstack 0
  1129  002654                     _wdtdelay:
  1130                           	opt callstack 26
  1131                           
  1132                           ;eadog.c: 21: static uint32_t dcount;;eadog.c: 23: for (dcount = 0; dcount <= delay; dco
      +                          unt++) {
  1133                           
  1134                           ;incstack = 0
  1135  002654  0E00               	movlw	0
  1136  002656  6E1D               	movwf	wdtdelay@dcount,c
  1137  002658  0E00               	movlw	0
  1138  00265A  6E1E               	movwf	wdtdelay@dcount+1,c
  1139  00265C  0E00               	movlw	0
  1140  00265E  6E1F               	movwf	wdtdelay@dcount+2,c
  1141  002660  0E00               	movlw	0
  1142  002662  6E20               	movwf	wdtdelay@dcount+3,c
  1143  002664  D008               	goto	l977
  1144  002666                     l978:
  1145                           
  1146                           ;eadog.c: 24: __nop();
  1147  002666  F000               	nop	
  1148  002668  0004               	clrwdt		;# 
  1149  00266A  0E01               	movlw	1
  1150  00266C  261D               	addwf	wdtdelay@dcount,f,c
  1151  00266E  0E00               	movlw	0
  1152  002670  221E               	addwfc	wdtdelay@dcount+1,f,c
  1153  002672  221F               	addwfc	wdtdelay@dcount+2,f,c
  1154  002674  2220               	addwfc	wdtdelay@dcount+3,f,c
  1155  002676                     l977:
  1156  002676  501D               	movf	wdtdelay@dcount,w,c
  1157  002678  5C4B               	subwf	wdtdelay@delay,w,c
  1158  00267A  501E               	movf	wdtdelay@dcount+1,w,c
  1159  00267C  584C               	subwfb	wdtdelay@delay+1,w,c
  1160  00267E  501F               	movf	wdtdelay@dcount+2,w,c
  1161  002680  584D               	subwfb	wdtdelay@delay+2,w,c
  1162  002682  5020               	movf	wdtdelay@dcount+3,w,c
  1163  002684  584E               	subwfb	wdtdelay@delay+3,w,c
  1164  002686  A0D8               	btfss	status,0,c
  1165  002688  0012               	return	
  1166  00268A  D7ED               	goto	l978
  1167  00268C                     __end_of_wdtdelay:
  1168                           	opt callstack 0
  1169                           
  1170 ;; *************** function _SPI1_Exchange8bit *****************
  1171 ;; Defined at:
  1172 ;;		line 79 in file "mcc_generated_files/spi1.c"
  1173 ;; Parameters:    Size  Location     Type
  1174 ;;  data            1    wreg     unsigned char 
  1175 ;; Auto vars:     Size  Location     Type
  1176 ;;  data            1    1[COMRAM] unsigned char 
  1177 ;; Return value:  Size  Location     Type
  1178 ;;                  1    wreg      unsigned char 
  1179 ;; Registers used:
  1180 ;;		wreg, status,2
  1181 ;; Tracked objects:
  1182 ;;		On entry : 0/3B
  1183 ;;		On exit  : 3F/3D
  1184 ;;		Unchanged: 0/0
  1185 ;; Data sizes:     COMRAM   BANK0   BANK1   BANK2   BANK3   BANK4   BANK5   BANK6   BANK7   BANK8   BANK9  BANK10  BANK1
      +1  BANK12  BANK13  BANK14  BANK15  BANK16  BANK17  BANK18  BANK19  BANK20  BANK21  BANK22  BANK23  BANK24  BANK25  BANK2
      +6  BANK27  BANK28  BANK29  BANK30  BANK31
  1186 ;;      Params:         0       0       0       0       0       0       0       0       0       0       0       0       
      +0       0       0       0       0       0       0       0       0       0       0       0       0       0       0       
      +0       0       0       0       0       0
  1187 ;;      Locals:         1       0       0       0       0       0       0       0       0       0       0       0       
      +0       0       0       0       0       0       0       0       0       0       0       0       0       0       0       
      +0       0       0       0       0       0
  1188 ;;      Temps:          0       0       0       0       0       0       0       0       0       0       0       0       
      +0       0       0       0       0       0       0       0       0       0       0       0       0       0       0       
      +0       0       0       0       0       0
  1189 ;;      Totals:         1       0       0       0       0       0       0       0       0       0       0       0       
      +0       0       0       0       0       0       0       0       0       0       0       0       0       0       0       
      +0       0       0       0       0       0
  1190 ;;Total ram usage:        1 bytes
  1191 ;; Hardware stack levels used:    1
  1192 ;; Hardware stack levels required when called:    3
  1193 ;; This function calls:
  1194 ;;		Nothing
  1195 ;; This function is called by:
  1196 ;;		_send_lcd_cmd
  1197 ;;		_send_lcd_cmd_long
  1198 ;; This function uses a non-reentrant model
  1199 ;;
  1200                           
  1201                           	psect	text6
  1202  002A52                     __ptext6:
  1203                           	opt callstack 0
  1204  002A52                     _SPI1_Exchange8bit:
  1205                           	opt callstack 25
  1206                           
  1207                           ;incstack = 0
  1208                           ;SPI1_Exchange8bit@data stored from wreg
  1209  002A52  6E4B               	movwf	SPI1_Exchange8bit@data,c
  1210                           
  1211                           ;spi1.c: 82: SPI1TCNTL = 1;
  1212  002A54  0E01               	movlw	1
  1213  002A56  013D               	movlb	61	; () banked
  1214  002A58  6F12               	movwf	18,b	;volatile
  1215                           
  1216                           ; BSR set to: 61
  1217                           ;spi1.c: 83: SPI1TXB = data;
  1218  002A5A  0060  F12F  FD11   	movff	SPI1_Exchange8bit@data,15633	;volatile
  1219  002A60                     l825:
  1220  002A60  0139               	movlb	57	; () banked
  1221  002A62  A9A2               	btfss	162,4,b	;volatile
  1222  002A64  D7FD               	goto	l825
  1223                           
  1224                           ; BSR set to: 57
  1225                           ;spi1.c: 87: };spi1.c: 89: return (SPI1RXB);
  1226  002A66  013D               	movlb	61	; () banked
  1227  002A68  5110               	movf	16,w,b	;volatile
  1228                           
  1229                           ; BSR set to: 61
  1230  002A6A  0012               	return		;funcret
  1231  002A6C                     __end_of_SPI1_Exchange8bit:
  1232                           	opt callstack 0
  1233                           
  1234 ;; *************** function _ringBufS_init *****************
  1235 ;; Defined at:
  1236 ;;		line 22 in file "ringbufs.c"
  1237 ;; Parameters:    Size  Location     Type
  1238 ;;  _this           2    9[COMRAM] PTR volatile struct ring
  1239 ;;		 -> ring_buf2(67), ring_buf1(67), 
  1240 ;; Auto vars:     Size  Location     Type
  1241 ;;		None
  1242 ;; Return value:  Size  Location     Type
  1243 ;;                  1    wreg      void 
  1244 ;; Registers used:
  1245 ;;		wreg, fsr2l, fsr2h, status,2, status,0, cstack
  1246 ;; Tracked objects:
  1247 ;;		On entry : 0/3B
  1248 ;;		On exit  : 0/0
  1249 ;;		Unchanged: 0/0
  1250 ;; Data sizes:     COMRAM   BANK0   BANK1   BANK2   BANK3   BANK4   BANK5   BANK6   BANK7   BANK8   BANK9  BANK10  BANK1
      +1  BANK12  BANK13  BANK14  BANK15  BANK16  BANK17  BANK18  BANK19  BANK20  BANK21  BANK22  BANK23  BANK24  BANK25  BANK2
      +6  BANK27  BANK28  BANK29  BANK30  BANK31
  1251 ;;      Params:         2       0       0       0       0       0       0       0       0       0       0       0       
      +0       0       0       0       0       0       0       0       0       0       0       0       0       0       0       
      +0       0       0       0       0       0
  1252 ;;      Locals:         0       0       0       0       0       0       0       0       0       0       0       0       
      +0       0       0       0       0       0       0       0       0       0       0       0       0       0       0       
      +0       0       0       0       0       0
  1253 ;;      Temps:          0       0       0       0       0       0       0       0       0       0       0       0       
      +0       0       0       0       0       0       0       0       0       0       0       0       0       0       0       
      +0       0       0       0       0       0
  1254 ;;      Totals:         2       0       0       0       0       0       0       0       0       0       0       0       
      +0       0       0       0       0       0       0       0       0       0       0       0       0       0       0       
      +0       0       0       0       0       0
  1255 ;;Total ram usage:        2 bytes
  1256 ;; Hardware stack levels used:    1
  1257 ;; Hardware stack levels required when called:    4
  1258 ;; This function calls:
  1259 ;;		_memset
  1260 ;; This function is called by:
  1261 ;;		_init_display
  1262 ;; This function uses a non-reentrant model
  1263 ;;
  1264                           
  1265                           	psect	text7
  1266  002862                     __ptext7:
  1267                           	opt callstack 0
  1268  002862                     _ringBufS_init:
  1269                           	opt callstack 25
  1270                           
  1271                           ;ringbufs.c: 32: memset(_this, 0, sizeof(*_this));
  1272                           
  1273                           ; BSR set to: 61
  1274                           ;incstack = 0
  1275  002862  0060  F14C  F04B   	movff	ringBufS_init@_this,memset@p1
  1276  002868  0060  F150  F04C   	movff	ringBufS_init@_this+1,memset@p1+1
  1277  00286E  0E00               	movlw	0
  1278  002870  6E4E               	movwf	memset@c+1,c
  1279  002872  0E00               	movlw	0
  1280  002874  6E4D               	movwf	memset@c,c
  1281  002876  0E00               	movlw	0
  1282  002878  6E50               	movwf	memset@n+1,c
  1283  00287A  0E43               	movlw	67
  1284  00287C  6E4F               	movwf	memset@n,c
  1285  00287E  EC46  F013         	call	_memset	;wreg free
  1286  002882  0012               	return		;funcret
  1287  002884                     __end_of_ringBufS_init:
  1288                           	opt callstack 0
  1289                           
  1290 ;; *************** function _eaDogM_WriteString *****************
  1291 ;; Defined at:
  1292 ;;		line 157 in file "eadog.c"
  1293 ;; Parameters:    Size  Location     Type
  1294 ;;  strPtr          1   15[COMRAM] PTR unsigned char 
  1295 ;;		 -> STR_2(49), STR_1(49), 
  1296 ;; Auto vars:     Size  Location     Type
  1297 ;;		None
  1298 ;; Return value:  Size  Location     Type
  1299 ;;                  1    wreg      void 
  1300 ;; Registers used:
  1301 ;;		wreg, fsr2l, fsr2h, status,2, status,0, tblptrl, tblptrh, tblptru, cstack
  1302 ;; Tracked objects:
  1303 ;;		On entry : 0/3D
  1304 ;;		On exit  : 3F/3B
  1305 ;;		Unchanged: 0/0
  1306 ;; Data sizes:     COMRAM   BANK0   BANK1   BANK2   BANK3   BANK4   BANK5   BANK6   BANK7   BANK8   BANK9  BANK10  BANK1
      +1  BANK12  BANK13  BANK14  BANK15  BANK16  BANK17  BANK18  BANK19  BANK20  BANK21  BANK22  BANK23  BANK24  BANK25  BANK2
      +6  BANK27  BANK28  BANK29  BANK30  BANK31
  1307 ;;      Params:         1       0       0       0       0       0       0       0       0       0       0       0       
      +0       0       0       0       0       0       0       0       0       0       0       0       0       0       0       
      +0       0       0       0       0       0
  1308 ;;      Locals:         0       0       0       0       0       0       0       0       0       0       0       0       
      +0       0       0       0       0       0       0       0       0       0       0       0       0       0       0       
      +0       0       0       0       0       0
  1309 ;;      Temps:          1       0       0       0       0       0       0       0       0       0       0       0       
      +0       0       0       0       0       0       0       0       0       0       0       0       0       0       0       
      +0       0       0       0       0       0
  1310 ;;      Totals:         2       0       0       0       0       0       0       0       0       0       0       0       
      +0       0       0       0       0       0       0       0       0       0       0       0       0       0       0       
      +0       0       0       0       0       0
  1311 ;;Total ram usage:        2 bytes
  1312 ;; Hardware stack levels used:    1
  1313 ;; Hardware stack levels required when called:    6
  1314 ;; This function calls:
  1315 ;;		_printf
  1316 ;;		_ringBufS_flush
  1317 ;;		_start_lcd
  1318 ;;		_strlen
  1319 ;;		_wait_lcd_set
  1320 ;; This function is called by:
  1321 ;;		_main
  1322 ;; This function uses a non-reentrant model
  1323 ;;
  1324                           
  1325                           	psect	text8
  1326  0022B0                     __ptext8:
  1327                           	opt callstack 0
  1328  0022B0                     _eaDogM_WriteString:
  1329                           	opt callstack 24
  1330                           
  1331                           ;eadog.c: 159: wait_lcd_set();
  1332                           
  1333                           ;incstack = 0
  1334  0022B0  ECDB  F015         	call	_wait_lcd_set	;wreg free
  1335                           
  1336                           ;eadog.c: 161: ringBufS_flush(spi_link.tx1a, 0);
  1337  0022B4  0060  F01C  F053   	movff	_spi_link+6,ringBufS_flush@_this	;volatile
  1338  0022BA  0060  F020  F054   	movff	_spi_link+7,ringBufS_flush@_this+1	;volatile
  1339  0022C0  0E00               	movlw	0
  1340  0022C2  6E55               	movwf	ringBufS_flush@clearBuffer,c
  1341  0022C4  EC88  F012         	call	_ringBufS_flush	;wreg free
  1342  0022C8  94BC               	bcf	16316,2,c	;volatile
  1343                           
  1344                           ;eadog.c: 163: if (strlen(strPtr) > 64) strPtr[64] = 0;
  1345  0022CA  0060  F164  F04B   	movff	eaDogM_WriteString@strPtr,strlen@s
  1346  0022D0  EC61  F013         	call	_strlen	;wreg free
  1347  0022D4  504C               	movf	?_strlen+1,w,c
  1348  0022D6  E104               	bnz	u590
  1349  0022D8  0E41               	movlw	65
  1350  0022DA  5C4B               	subwf	?_strlen,w,c
  1351  0022DC  A0D8               	btfss	status,0,c
  1352  0022DE  D00F               	goto	l2771
  1353  0022E0                     u590:
  1354  0022E0  0060  F164  F05A   	movff	eaDogM_WriteString@strPtr,??_eaDogM_WriteString
  1355  0022E6  0E40               	movlw	64
  1356  0022E8  265A               	addwf	??_eaDogM_WriteString,f,c
  1357  0022EA  0060  F16B  FFF6   	movff	??_eaDogM_WriteString,tblptrl
  1358  0022F0                     	if	1	;There is more than 1 active tblptr byte
  1359  0022F0  0E20               	movlw	high __smallconst
  1360  0022F2  6EF7               	movwf	tblptrh,c
  1361  0022F4                     	endif
  1362  0022F4                     	if	0	;tblptru may be non-zero
  1363  0022F4                     	endif
  1364  0022F4                     	if	1	;Program memory is > 0xFFFF, there are 3 active tblptr bytes
  1365  0022F4  0E00               	movlw	low (__smallconst shr (0+16))
  1366  0022F6  6EF8               	movwf	tblptru,c
  1367  0022F8                     	endif
  1368  0022F8  0E00               	movlw	0
  1369  0022FA  6EF5               	movwf	tablat,c
  1370  0022FC  000C               	tblwt		*
  1371  0022FE                     l2771:
  1372                           
  1373                           ;eadog.c: 164: DMA1CON0bits.EN = 0;
  1374  0022FE  013B               	movlb	59	; () banked
  1375  002300  9FFC               	bcf	252,7,b	;volatile
  1376                           
  1377                           ; BSR set to: 59
  1378                           ;eadog.c: 165: DMA1SSZ = strlen(strPtr);
  1379  002302  0060  F164  F04B   	movff	eaDogM_WriteString@strPtr,strlen@s
  1380  002308  EC61  F013         	call	_strlen	;wreg free
  1381  00230C  0060  F12F  FBF7   	movff	?_strlen,15351	;volatile
  1382  002312  0060  F133  FBF8   	movff	?_strlen+1,15352	;volatile
  1383                           
  1384                           ;eadog.c: 166: DMA1CON0bits.EN = 1;
  1385  002318  013B               	movlb	59	; () banked
  1386  00231A  8FFC               	bsf	252,7,b	;volatile
  1387                           
  1388                           ; BSR set to: 59
  1389                           ;eadog.c: 167: printf("%s", strPtr);
  1390  00231C  0E39               	movlw	low STR_3
  1391  00231E  6E50               	movwf	printf@f,c
  1392  002320  0060  F164  F051   	movff	eaDogM_WriteString@strPtr,?_printf+1
  1393  002326  5051               	movf	?_printf+1,w,c
  1394  002328  A4D8               	btfss	status,2,c
  1395  00232A  0E20               	movlw	high __smallconst
  1396  00232C  6E52               	movwf	?_printf+2,c
  1397  00232E  EC1F  F010         	call	_printf	;wreg free
  1398  002332  94BE               	bcf	16318,2,c	;volatile
  1399                           
  1400                           ;eadog.c: 169: start_lcd();
  1401  002334  ECD0  F015         	call	_start_lcd	;wreg free
  1402                           
  1403                           ; BSR set to: 59
  1404  002338  0012               	return		;funcret
  1405  00233A                     __end_of_eaDogM_WriteString:
  1406                           	opt callstack 0
  1407                           
  1408 ;; *************** function _wait_lcd_set *****************
  1409 ;; Defined at:
  1410 ;;		line 112 in file "eadog.c"
  1411 ;; Parameters:    Size  Location     Type
  1412 ;;		None
  1413 ;; Auto vars:     Size  Location     Type
  1414 ;;		None
  1415 ;; Return value:  Size  Location     Type
  1416 ;;                  1    wreg      void 
  1417 ;; Registers used:
  1418 ;;		None
  1419 ;; Tracked objects:
  1420 ;;		On entry : 0/3D
  1421 ;;		On exit  : 0/0
  1422 ;;		Unchanged: 0/0
  1423 ;; Data sizes:     COMRAM   BANK0   BANK1   BANK2   BANK3   BANK4   BANK5   BANK6   BANK7   BANK8   BANK9  BANK10  BANK1
      +1  BANK12  BANK13  BANK14  BANK15  BANK16  BANK17  BANK18  BANK19  BANK20  BANK21  BANK22  BANK23  BANK24  BANK25  BANK2
      +6  BANK27  BANK28  BANK29  BANK30  BANK31
  1424 ;;      Params:         0       0       0       0       0       0       0       0       0       0       0       0       
      +0       0       0       0       0       0       0       0       0       0       0       0       0       0       0       
      +0       0       0       0       0       0
  1425 ;;      Locals:         0       0       0       0       0       0       0       0       0       0       0       0       
      +0       0       0       0       0       0       0       0       0       0       0       0       0       0       0       
      +0       0       0       0       0       0
  1426 ;;      Temps:          0       0       0       0       0       0       0       0       0       0       0       0       
      +0       0       0       0       0       0       0       0       0       0       0       0       0       0       0       
      +0       0       0       0       0       0
  1427 ;;      Totals:         0       0       0       0       0       0       0       0       0       0       0       0       
      +0       0       0       0       0       0       0       0       0       0       0       0       0       0       0       
      +0       0       0       0       0       0
  1428 ;;Total ram usage:        0 bytes
  1429 ;; Hardware stack levels used:    1
  1430 ;; Hardware stack levels required when called:    3
  1431 ;; This function calls:
  1432 ;;		Nothing
  1433 ;; This function is called by:
  1434 ;;		_eaDogM_WriteString
  1435 ;; This function uses a non-reentrant model
  1436 ;;
  1437                           
  1438                           	psect	text9
  1439  002BB6                     __ptext9:
  1440                           	opt callstack 0
  1441  002BB6                     _wait_lcd_set:
  1442                           	opt callstack 26
  1443                           
  1444                           ;eadog.c: 114: spi_link.LCD_DATA = 1;
  1445                           
  1446                           ; BSR set to: 59
  1447                           ;incstack = 0
  1448  002BB6  8601               	bsf	_spi_link,3,c	;volatile
  1449  002BB8  0012               	return		;funcret
  1450  002BBA                     __end_of_wait_lcd_set:
  1451                           	opt callstack 0
  1452                           
  1453 ;; *************** function _strlen *****************
  1454 ;; Defined at:
  1455 ;;		line 4 in file "/opt/microchip/xc8/v2.05/pic/sources/c90/common/strlen.c"
  1456 ;; Parameters:    Size  Location     Type
  1457 ;;  s               1    1[COMRAM] PTR const unsigned char 
  1458 ;;		 -> STR_2(49), STR_1(49), 
  1459 ;; Auto vars:     Size  Location     Type
  1460 ;;  cp              1    3[COMRAM] PTR const unsigned char 
  1461 ;;		 -> STR_2(49), STR_1(49), 
  1462 ;; Return value:  Size  Location     Type
  1463 ;;                  2    1[COMRAM] unsigned int 
  1464 ;; Registers used:
  1465 ;;		wreg, status,2, status,0, tblptrl, tblptrh, tblptru
  1466 ;; Tracked objects:
  1467 ;;		On entry : 0/3D
  1468 ;;		On exit  : 0/0
  1469 ;;		Unchanged: 0/0
  1470 ;; Data sizes:     COMRAM   BANK0   BANK1   BANK2   BANK3   BANK4   BANK5   BANK6   BANK7   BANK8   BANK9  BANK10  BANK1
      +1  BANK12  BANK13  BANK14  BANK15  BANK16  BANK17  BANK18  BANK19  BANK20  BANK21  BANK22  BANK23  BANK24  BANK25  BANK2
      +6  BANK27  BANK28  BANK29  BANK30  BANK31
  1471 ;;      Params:         2       0       0       0       0       0       0       0       0       0       0       0       
      +0       0       0       0       0       0       0       0       0       0       0       0       0       0       0       
      +0       0       0       0       0       0
  1472 ;;      Locals:         1       0       0       0       0       0       0       0       0       0       0       0       
      +0       0       0       0       0       0       0       0       0       0       0       0       0       0       0       
      +0       0       0       0       0       0
  1473 ;;      Temps:          0       0       0       0       0       0       0       0       0       0       0       0       
      +0       0       0       0       0       0       0       0       0       0       0       0       0       0       0       
      +0       0       0       0       0       0
  1474 ;;      Totals:         3       0       0       0       0       0       0       0       0       0       0       0       
      +0       0       0       0       0       0       0       0       0       0       0       0       0       0       0       
      +0       0       0       0       0       0
  1475 ;;Total ram usage:        3 bytes
  1476 ;; Hardware stack levels used:    1
  1477 ;; Hardware stack levels required when called:    3
  1478 ;; This function calls:
  1479 ;;		Nothing
  1480 ;; This function is called by:
  1481 ;;		_eaDogM_WriteString
  1482 ;; This function uses a non-reentrant model
  1483 ;;
  1484                           
  1485                           	psect	text10
  1486  0026C2                     __ptext10:
  1487                           	opt callstack 0
  1488  0026C2                     _strlen:
  1489                           	opt callstack 26
  1490                           
  1491                           ;incstack = 0
  1492  0026C2  0060  F12C  F04D   	movff	strlen@s,strlen@cp
  1493  0026C8  D001               	goto	l2629
  1494  0026CA                     l2627:
  1495  0026CA  2A4D               	incf	strlen@cp,f,c
  1496  0026CC                     l2629:
  1497  0026CC  0060  F137  FFF6   	movff	strlen@cp,tblptrl
  1498  0026D2                     	if	1	;There is more than 1 active tblptr byte
  1499  0026D2  0E20               	movlw	high __smallconst
  1500  0026D4  6EF7               	movwf	tblptrh,c
  1501  0026D6                     	endif
  1502  0026D6                     	if	0	;tblptru may be non-zero
  1503  0026D6                     	endif
  1504  0026D6                     	if	1	;Program memory is > 0xFFFF, there are 3 active tblptr bytes
  1505  0026D6  0E00               	movlw	low (__smallconst shr (0+16))
  1506  0026D8  6EF8               	movwf	tblptru,c
  1507  0026DA                     	endif
  1508  0026DA  0008               	tblrd		*
  1509  0026DC  50F5               	movf	tablat,w,c
  1510  0026DE  0900               	iorlw	0
  1511  0026E0  A4D8               	btfss	status,2,c
  1512  0026E2  D7F3               	goto	l2627
  1513  0026E4  504B               	movf	strlen@s,w,c
  1514  0026E6  5C4D               	subwf	strlen@cp,w,c
  1515  0026E8  6E4B               	movwf	?_strlen,c
  1516  0026EA  6A4C               	clrf	?_strlen+1,c
  1517  0026EC  BE4B               	btfsc	?_strlen,7,c
  1518  0026EE  064C               	decf	?_strlen+1,f,c
  1519  0026F0  0012               	return		;funcret
  1520  0026F2                     __end_of_strlen:
  1521                           	opt callstack 0
  1522                           
  1523 ;; *************** function _start_lcd *****************
  1524 ;; Defined at:
  1525 ;;		line 107 in file "eadog.c"
  1526 ;; Parameters:    Size  Location     Type
  1527 ;;		None
  1528 ;; Auto vars:     Size  Location     Type
  1529 ;;		None
  1530 ;; Return value:  Size  Location     Type
  1531 ;;                  1    wreg      void 
  1532 ;; Registers used:
  1533 ;;		None
  1534 ;; Tracked objects:
  1535 ;;		On entry : 0/3B
  1536 ;;		On exit  : 3F/3B
  1537 ;;		Unchanged: 0/0
  1538 ;; Data sizes:     COMRAM   BANK0   BANK1   BANK2   BANK3   BANK4   BANK5   BANK6   BANK7   BANK8   BANK9  BANK10  BANK1
      +1  BANK12  BANK13  BANK14  BANK15  BANK16  BANK17  BANK18  BANK19  BANK20  BANK21  BANK22  BANK23  BANK24  BANK25  BANK2
      +6  BANK27  BANK28  BANK29  BANK30  BANK31
  1539 ;;      Params:         0       0       0       0       0       0       0       0       0       0       0       0       
      +0       0       0       0       0       0       0       0       0       0       0       0       0       0       0       
      +0       0       0       0       0       0
  1540 ;;      Locals:         0       0       0       0       0       0       0       0       0       0       0       0       
      +0       0       0       0       0       0       0       0       0       0       0       0       0       0       0       
      +0       0       0       0       0       0
  1541 ;;      Temps:          0       0       0       0       0       0       0       0       0       0       0       0       
      +0       0       0       0       0       0       0       0       0       0       0       0       0       0       0       
      +0       0       0       0       0       0
  1542 ;;      Totals:         0       0       0       0       0       0       0       0       0       0       0       0       
      +0       0       0       0       0       0       0       0       0       0       0       0       0       0       0       
      +0       0       0       0       0       0
  1543 ;;Total ram usage:        0 bytes
  1544 ;; Hardware stack levels used:    1
  1545 ;; Hardware stack levels required when called:    3
  1546 ;; This function calls:
  1547 ;;		Nothing
  1548 ;; This function is called by:
  1549 ;;		_eaDogM_WriteString
  1550 ;; This function uses a non-reentrant model
  1551 ;;
  1552                           
  1553                           	psect	text11
  1554  002BA0                     __ptext11:
  1555                           	opt callstack 0
  1556  002BA0                     _start_lcd:
  1557                           	opt callstack 26
  1558                           
  1559                           ;eadog.c: 109: DMA1CON0bits.DMA1SIRQEN = 1;
  1560                           
  1561                           ;incstack = 0
  1562  002BA0  013B               	movlb	59	; () banked
  1563  002BA2  8DFC               	bsf	252,6,b	;volatile
  1564                           
  1565                           ; BSR set to: 59
  1566  002BA4  0012               	return		;funcret
  1567  002BA6                     __end_of_start_lcd:
  1568                           	opt callstack 0
  1569                           
  1570 ;; *************** function _ringBufS_flush *****************
  1571 ;; Defined at:
  1572 ;;		line 76 in file "ringbufs.c"
  1573 ;; Parameters:    Size  Location     Type
  1574 ;;  _this           2    9[COMRAM] PTR struct ringBufS_t
  1575 ;;		 -> ring_buf1(67), 
  1576 ;;  clearBuffer     1   11[COMRAM] const char 
  1577 ;; Auto vars:     Size  Location     Type
  1578 ;;		None
  1579 ;; Return value:  Size  Location     Type
  1580 ;;                  1    wreg      void 
  1581 ;; Registers used:
  1582 ;;		wreg, fsr2l, fsr2h, status,2, status,0, cstack
  1583 ;; Tracked objects:
  1584 ;;		On entry : 0/3D
  1585 ;;		On exit  : 0/0
  1586 ;;		Unchanged: 0/0
  1587 ;; Data sizes:     COMRAM   BANK0   BANK1   BANK2   BANK3   BANK4   BANK5   BANK6   BANK7   BANK8   BANK9  BANK10  BANK1
      +1  BANK12  BANK13  BANK14  BANK15  BANK16  BANK17  BANK18  BANK19  BANK20  BANK21  BANK22  BANK23  BANK24  BANK25  BANK2
      +6  BANK27  BANK28  BANK29  BANK30  BANK31
  1588 ;;      Params:         3       0       0       0       0       0       0       0       0       0       0       0       
      +0       0       0       0       0       0       0       0       0       0       0       0       0       0       0       
      +0       0       0       0       0       0
  1589 ;;      Locals:         0       0       0       0       0       0       0       0       0       0       0       0       
      +0       0       0       0       0       0       0       0       0       0       0       0       0       0       0       
      +0       0       0       0       0       0
  1590 ;;      Temps:          0       0       0       0       0       0       0       0       0       0       0       0       
      +0       0       0       0       0       0       0       0       0       0       0       0       0       0       0       
      +0       0       0       0       0       0
  1591 ;;      Totals:         3       0       0       0       0       0       0       0       0       0       0       0       
      +0       0       0       0       0       0       0       0       0       0       0       0       0       0       0       
      +0       0       0       0       0       0
  1592 ;;Total ram usage:        3 bytes
  1593 ;; Hardware stack levels used:    1
  1594 ;; Hardware stack levels required when called:    4
  1595 ;; This function calls:
  1596 ;;		_memset
  1597 ;; This function is called by:
  1598 ;;		_eaDogM_WriteString
  1599 ;; This function uses a non-reentrant model
  1600 ;;
  1601                           
  1602                           	psect	text12
  1603  002510                     __ptext12:
  1604                           	opt callstack 0
  1605  002510                     _ringBufS_flush:
  1606                           	opt callstack 25
  1607                           
  1608                           ;ringbufs.c: 78: _this->count = 0;
  1609                           
  1610                           ; BSR set to: 59
  1611                           ;incstack = 0
  1612  002510  EE20 F042          	lfsr	2,66
  1613  002514  5053               	movf	ringBufS_flush@_this,w,c
  1614  002516  26D9               	addwf	fsr2l,f,c
  1615  002518  5054               	movf	ringBufS_flush@_this+1,w,c
  1616  00251A  22DA               	addwfc	fsr2h,f,c
  1617  00251C  0E00               	movlw	0
  1618  00251E  6EDF               	movwf	indf2,c
  1619                           
  1620                           ;ringbufs.c: 79: _this->head = 0;
  1621  002520  EE20 F040          	lfsr	2,64
  1622  002524  5053               	movf	ringBufS_flush@_this,w,c
  1623  002526  26D9               	addwf	fsr2l,f,c
  1624  002528  5054               	movf	ringBufS_flush@_this+1,w,c
  1625  00252A  22DA               	addwfc	fsr2h,f,c
  1626  00252C  0E00               	movlw	0
  1627  00252E  6EDF               	movwf	indf2,c
  1628                           
  1629                           ;ringbufs.c: 80: _this->tail = 0;
  1630  002530  EE20 F041          	lfsr	2,65
  1631  002534  5053               	movf	ringBufS_flush@_this,w,c
  1632  002536  26D9               	addwf	fsr2l,f,c
  1633  002538  5054               	movf	ringBufS_flush@_this+1,w,c
  1634  00253A  22DA               	addwfc	fsr2h,f,c
  1635  00253C  0E00               	movlw	0
  1636  00253E  6EDF               	movwf	indf2,c
  1637                           
  1638                           ;ringbufs.c: 81: if (clearBuffer) {
  1639  002540  5055               	movf	ringBufS_flush@clearBuffer,w,c
  1640  002542  B4D8               	btfsc	status,2,c
  1641  002544  0012               	return	
  1642                           
  1643                           ;ringbufs.c: 82: memset(_this->buf, 0, sizeof(_this->buf));
  1644  002546  0060  F14C  F04B   	movff	ringBufS_flush@_this,memset@p1
  1645  00254C  0060  F150  F04C   	movff	ringBufS_flush@_this+1,memset@p1+1
  1646  002552  0E00               	movlw	0
  1647  002554  6E4E               	movwf	memset@c+1,c
  1648  002556  0E00               	movlw	0
  1649  002558  6E4D               	movwf	memset@c,c
  1650  00255A  0E00               	movlw	0
  1651  00255C  6E50               	movwf	memset@n+1,c
  1652  00255E  0E40               	movlw	64
  1653  002560  6E4F               	movwf	memset@n,c
  1654  002562  EC46  F013         	call	_memset	;wreg free
  1655  002566  0012               	return		;funcret
  1656  002568                     __end_of_ringBufS_flush:
  1657                           	opt callstack 0
  1658                           
  1659 ;; *************** function _memset *****************
  1660 ;; Defined at:
  1661 ;;		line 8 in file "/opt/microchip/xc8/v2.05/pic/sources/c90/common/memset.c"
  1662 ;; Parameters:    Size  Location     Type
  1663 ;;  p1              2    1[COMRAM] PTR void 
  1664 ;;		 -> ring_buf2(67), ring_buf1(67), 
  1665 ;;  c               2    3[COMRAM] int 
  1666 ;;  n               2    5[COMRAM] unsigned int 
  1667 ;; Auto vars:     Size  Location     Type
  1668 ;;  p               2    7[COMRAM] PTR unsigned char 
  1669 ;;		 -> ring_buf2(67), ring_buf1(67), 
  1670 ;; Return value:  Size  Location     Type
  1671 ;;                  2    1[COMRAM] PTR void 
  1672 ;; Registers used:
  1673 ;;		wreg, fsr2l, fsr2h, status,2, status,0
  1674 ;; Tracked objects:
  1675 ;;		On entry : 0/3B
  1676 ;;		On exit  : 0/0
  1677 ;;		Unchanged: 0/0
  1678 ;; Data sizes:     COMRAM   BANK0   BANK1   BANK2   BANK3   BANK4   BANK5   BANK6   BANK7   BANK8   BANK9  BANK10  BANK1
      +1  BANK12  BANK13  BANK14  BANK15  BANK16  BANK17  BANK18  BANK19  BANK20  BANK21  BANK22  BANK23  BANK24  BANK25  BANK2
      +6  BANK27  BANK28  BANK29  BANK30  BANK31
  1679 ;;      Params:         6       0       0       0       0       0       0       0       0       0       0       0       
      +0       0       0       0       0       0       0       0       0       0       0       0       0       0       0       
      +0       0       0       0       0       0
  1680 ;;      Locals:         2       0       0       0       0       0       0       0       0       0       0       0       
      +0       0       0       0       0       0       0       0       0       0       0       0       0       0       0       
      +0       0       0       0       0       0
  1681 ;;      Temps:          0       0       0       0       0       0       0       0       0       0       0       0       
      +0       0       0       0       0       0       0       0       0       0       0       0       0       0       0       
      +0       0       0       0       0       0
  1682 ;;      Totals:         8       0       0       0       0       0       0       0       0       0       0       0       
      +0       0       0       0       0       0       0       0       0       0       0       0       0       0       0       
      +0       0       0       0       0       0
  1683 ;;Total ram usage:        8 bytes
  1684 ;; Hardware stack levels used:    1
  1685 ;; Hardware stack levels required when called:    3
  1686 ;; This function calls:
  1687 ;;		Nothing
  1688 ;; This function is called by:
  1689 ;;		_ringBufS_init
  1690 ;;		_ringBufS_flush
  1691 ;; This function uses a non-reentrant model
  1692 ;;
  1693                           
  1694                           	psect	text13
  1695  00268C                     __ptext13:
  1696                           	opt callstack 0
  1697  00268C                     _memset:
  1698                           	opt callstack 25
  1699                           
  1700                           ;incstack = 0
  1701  00268C  0060  F12C  F051   	movff	memset@p1,memset@p
  1702  002692  0060  F130  F052   	movff	memset@p1+1,memset@p+1
  1703  002698  D00B               	goto	l2469
  1704  00269A                     l2465:
  1705  00269A  0060  F147  FFD9   	movff	memset@p,fsr2l
  1706  0026A0  0060  F14B  FFDA   	movff	memset@p+1,fsr2h
  1707  0026A6  0060  F137  FFDF   	movff	memset@c,indf2
  1708  0026AC  4A51               	infsnz	memset@p,f,c
  1709  0026AE  2A52               	incf	memset@p+1,f,c
  1710  0026B0                     l2469:
  1711  0026B0  064F               	decf	memset@n,f,c
  1712  0026B2  A0D8               	btfss	status,0,c
  1713  0026B4  0650               	decf	memset@n+1,f,c
  1714  0026B6  284F               	incf	memset@n,w,c
  1715  0026B8  E1F0               	bnz	l2465
  1716  0026BA  2850               	incf	memset@n+1,w,c
  1717  0026BC  B4D8               	btfsc	status,2,c
  1718  0026BE  0012               	return	
  1719  0026C0  D7EC               	goto	l2465
  1720  0026C2                     __end_of_memset:
  1721                           	opt callstack 0
  1722                           
  1723 ;; *************** function _printf *****************
  1724 ;; Defined at:
  1725 ;;		line 472 in file "/opt/microchip/xc8/v2.05/pic/sources/c90/common/doprnt.c"
  1726 ;; Parameters:    Size  Location     Type
  1727 ;;  f               1    6[COMRAM] PTR const unsigned char 
  1728 ;;		 -> STR_4(3), STR_3(3), 
  1729 ;; Auto vars:     Size  Location     Type
  1730 ;;  tmpval          4    0        struct .
  1731 ;;  cp              2   13[COMRAM] PTR const unsigned char 
  1732 ;;		 -> STR_5(7), ?_printf(2), STR_2(49), STR_1(49), 
  1733 ;;  len             2    0        unsigned int 
  1734 ;;  val             2    0        unsigned int 
  1735 ;;  c               1   12[COMRAM] unsigned char 
  1736 ;;  ap              1   11[COMRAM] PTR void [1]
  1737 ;;		 -> ?_printf(2), 
  1738 ;;  flag            1    0        unsigned char 
  1739 ;;  prec            1    0        char 
  1740 ;; Return value:  Size  Location     Type
  1741 ;;                  2    6[COMRAM] int 
  1742 ;; Registers used:
  1743 ;;		wreg, fsr2l, fsr2h, status,2, status,0, tblptrl, tblptrh, tblptru, cstack
  1744 ;; Tracked objects:
  1745 ;;		On entry : 3F/3B
  1746 ;;		On exit  : 0/0
  1747 ;;		Unchanged: 0/0
  1748 ;; Data sizes:     COMRAM   BANK0   BANK1   BANK2   BANK3   BANK4   BANK5   BANK6   BANK7   BANK8   BANK9  BANK10  BANK1
      +1  BANK12  BANK13  BANK14  BANK15  BANK16  BANK17  BANK18  BANK19  BANK20  BANK21  BANK22  BANK23  BANK24  BANK25  BANK2
      +6  BANK27  BANK28  BANK29  BANK30  BANK31
  1749 ;;      Params:         3       0       0       0       0       0       0       0       0       0       0       0       
      +0       0       0       0       0       0       0       0       0       0       0       0       0       0       0       
      +0       0       0       0       0       0
  1750 ;;      Locals:         5       0       0       0       0       0       0       0       0       0       0       0       
      +0       0       0       0       0       0       0       0       0       0       0       0       0       0       0       
      +0       0       0       0       0       0
  1751 ;;      Temps:          1       0       0       0       0       0       0       0       0       0       0       0       
      +0       0       0       0       0       0       0       0       0       0       0       0       0       0       0       
      +0       0       0       0       0       0
  1752 ;;      Totals:         9       0       0       0       0       0       0       0       0       0       0       0       
      +0       0       0       0       0       0       0       0       0       0       0       0       0       0       0       
      +0       0       0       0       0       0
  1753 ;;Total ram usage:        9 bytes
  1754 ;; Hardware stack levels used:    1
  1755 ;; Hardware stack levels required when called:    5
  1756 ;; This function calls:
  1757 ;;		_putch
  1758 ;; This function is called by:
  1759 ;;		_eaDogM_WriteString
  1760 ;; This function uses a non-reentrant model
  1761 ;;
  1762                           
  1763                           	psect	text14
  1764  00203E                     __ptext14:
  1765                           	opt callstack 0
  1766  00203E                     _printf:
  1767                           	opt callstack 24
  1768                           
  1769                           ; BSR set to: 59
  1770                           ;doprnt.c: 474: va_list ap;;doprnt.c: 507: char c;;doprnt.c: 516: signed char prec;;dopr
      +                          nt.c: 520: unsigned char flag;;doprnt.c: 535: union {;doprnt.c: 536: unsigned long vd;;d
      +                          oprnt.c: 537: double integ;;doprnt.c: 538: } tmpval;;doprnt.c: 540: unsigned int val;;do
      +                          prnt.c: 541: unsigned len;;doprnt.c: 542: const char * cp;;doprnt.c: 545: *ap = __va_sta
      +                          rt();
  1771                           
  1772                           ;incstack = 0
  1773  00203E  0E51               	movlw	low (?_printf+1)
  1774  002040  6E55               	movwf	printf@ap,c
  1775                           
  1776                           ;doprnt.c: 548: while((c = *f++)) {
  1777  002042  D065               	goto	l2661
  1778  002044                     l2637:
  1779                           
  1780                           ;doprnt.c: 550: if(c != '%')
  1781  002044  0E25               	movlw	37
  1782  002046  1856               	xorwf	printf@c,w,c
  1783  002048  B4D8               	btfsc	status,2,c
  1784  00204A  D04C               	goto	l2659
  1785                           
  1786                           ;doprnt.c: 552: {;doprnt.c: 553: (putch(c) );
  1787  00204C  5056               	movf	printf@c,w,c
  1788  00204E  EC36  F015         	call	_putch
  1789                           
  1790                           ;doprnt.c: 554: continue;
  1791  002052  D05D               	goto	l2661
  1792  002054                     l2643:
  1793                           
  1794                           ;doprnt.c: 753: cp = (*(const char * *)__va_arg((*(const char * **)ap), (const char *)0)
      +                          );
  1795  002054  5055               	movf	printf@ap,w,c
  1796  002056  6ED9               	movwf	fsr2l,c
  1797  002058  6ADA               	clrf	fsr2h,c
  1798  00205A  006F FF78  F057    	movff	postinc2,printf@cp
  1799  002060  006F FF74  F058    	movff	postdec2,printf@cp+1
  1800  002066  0E02               	movlw	2
  1801  002068  2655               	addwf	printf@ap,f,c
  1802                           
  1803                           ;doprnt.c: 759: if(!cp)
  1804  00206A  5057               	movf	printf@cp,w,c
  1805  00206C  1058               	iorwf	printf@cp+1,w,c
  1806  00206E  A4D8               	btfss	status,2,c
  1807  002070  D020               	goto	l2655
  1808                           
  1809                           ;doprnt.c: 760: cp = "(null)";
  1810  002072  0E32               	movlw	low STR_5
  1811  002074  6E57               	movwf	printf@cp,c
  1812  002076  5057               	movf	printf@cp,w,c
  1813  002078  A4D8               	btfss	status,2,c
  1814  00207A  0E20               	movlw	high __smallconst
  1815  00207C  6E58               	movwf	printf@cp+1,c
  1816  00207E  D019               	goto	l2655
  1817  002080                     l2651:
  1818                           
  1819                           ;doprnt.c: 797: (putch(*cp++) );
  1820  002080  0060  F15F  FFF6   	movff	printf@cp,tblptrl
  1821  002086  0060  F163  FFF7   	movff	printf@cp+1,tblptrh
  1822  00208C  0E00               	movlw	low (__smallconst shr (0+16))
  1823  00208E  6EF8               	movwf	tblptru,c
  1824  002090  0E1F               	movlw	(high __ramtop+-1)
  1825  002092  64F7               	cpfsgt	tblptrh,c
  1826  002094  D003               	bra	u527
  1827  002096  0008               	tblrd		*
  1828  002098  50F5               	movf	tablat,w,c
  1829  00209A  D007               	bra	u520
  1830  00209C                     u527:
  1831  00209C  006F FFDB FFD9     	movff	tblptrl,fsr2l
  1832  0020A2  006F FFDF FFDA     	movff	tblptrh,fsr2h
  1833  0020A8  50DF               	movf	indf2,w,c
  1834  0020AA                     u520:
  1835  0020AA  EC36  F015         	call	_putch
  1836  0020AE  4A57               	infsnz	printf@cp,f,c
  1837  0020B0  2A58               	incf	printf@cp+1,f,c
  1838  0020B2                     l2655:
  1839  0020B2  0060  F15F  FFF6   	movff	printf@cp,tblptrl
  1840  0020B8  0060  F163  FFF7   	movff	printf@cp+1,tblptrh
  1841  0020BE  0E00               	movlw	low (__smallconst shr (0+16))
  1842  0020C0  6EF8               	movwf	tblptru,c
  1843  0020C2  0E1F               	movlw	(high __ramtop+-1)
  1844  0020C4  64F7               	cpfsgt	tblptrh,c
  1845  0020C6  D003               	bra	u537
  1846  0020C8  0008               	tblrd		*
  1847  0020CA  50F5               	movf	tablat,w,c
  1848  0020CC  D007               	bra	u530
  1849  0020CE                     u537:
  1850  0020CE  006F FFDB FFD9     	movff	tblptrl,fsr2l
  1851  0020D4  006F FFDF FFDA     	movff	tblptrh,fsr2h
  1852  0020DA  50DF               	movf	indf2,w,c
  1853  0020DC                     u530:
  1854  0020DC  0900               	iorlw	0
  1855  0020DE  B4D8               	btfsc	status,2,c
  1856  0020E0  D016               	goto	l2661
  1857  0020E2  D7CE               	goto	l2651
  1858  0020E4                     l2659:
  1859  0020E4  2A50               	incf	printf@f,f,c
  1860  0020E6  0450               	decf	printf@f,w,c
  1861  0020E8  6E53               	movwf	??_printf& (0+255),c
  1862  0020EA  0060  F14F  FFF6   	movff	??_printf,tblptrl
  1863  0020F0                     	if	1	;There is more than 1 active tblptr byte
  1864  0020F0  0E20               	movlw	high __smallconst
  1865  0020F2  6EF7               	movwf	tblptrh,c
  1866  0020F4                     	endif
  1867  0020F4                     	if	0	;tblptru may be non-zero
  1868  0020F4                     	endif
  1869  0020F4                     	if	1	;Program memory is > 0xFFFF, there are 3 active tblptr bytes
  1870  0020F4  0E00               	movlw	low (__smallconst shr (0+16))
  1871  0020F6  6EF8               	movwf	tblptru,c
  1872  0020F8                     	endif
  1873  0020F8  0008               	tblrd		*
  1874  0020FA  006F FFD4  F056    	movff	tablat,printf@c
  1875  002100  5056               	movf	printf@c,w,c
  1876                           
  1877                           ; Switch size 1, requested type "simple"
  1878                           ; Number of cases is 2, Range of values is 0 to 115
  1879                           ; switch strategies available:
  1880                           ; Name         Instructions Cycles
  1881                           ; simple_byte            7     4 (average)
  1882                           ;	Chosen strategy is simple_byte
  1883  002102  0A00               	xorlw	0	; case 0
  1884  002104  B4D8               	btfsc	status,2,c
  1885  002106  0012               	return	
  1886  002108  0A73               	xorlw	115	; case 115
  1887  00210A  B4D8               	btfsc	status,2,c
  1888  00210C  D7A3               	goto	l2643
  1889  00210E                     l2661:
  1890  00210E  2A50               	incf	printf@f,f,c
  1891  002110  0450               	decf	printf@f,w,c
  1892  002112  6E53               	movwf	??_printf& (0+255),c
  1893  002114  0060  F14F  FFF6   	movff	??_printf,tblptrl
  1894  00211A                     	if	1	;There is more than 1 active tblptr byte
  1895  00211A  0E20               	movlw	high __smallconst
  1896  00211C  6EF7               	movwf	tblptrh,c
  1897  00211E                     	endif
  1898  00211E                     	if	0	;tblptru may be non-zero
  1899  00211E                     	endif
  1900  00211E                     	if	1	;Program memory is > 0xFFFF, there are 3 active tblptr bytes
  1901  00211E  0E00               	movlw	low (__smallconst shr (0+16))
  1902  002120  6EF8               	movwf	tblptru,c
  1903  002122                     	endif
  1904  002122  0008               	tblrd		*
  1905  002124  006F FFD4  F056    	movff	tablat,printf@c
  1906  00212A  5056               	movf	printf@c,w,c
  1907  00212C  B4D8               	btfsc	status,2,c
  1908  00212E  0012               	return	
  1909  002130  D789               	goto	l2637
  1910  002132                     __end_of_printf:
  1911                           	opt callstack 0
  1912                           
  1913 ;; *************** function _putch *****************
  1914 ;; Defined at:
  1915 ;;		line 131 in file "eadog.c"
  1916 ;; Parameters:    Size  Location     Type
  1917 ;;  c               1    wreg     unsigned char 
  1918 ;; Auto vars:     Size  Location     Type
  1919 ;;  c               1    5[COMRAM] unsigned char 
  1920 ;; Return value:  Size  Location     Type
  1921 ;;                  1    wreg      void 
  1922 ;; Registers used:
  1923 ;;		wreg, fsr2l, fsr2h, status,2, status,0, cstack
  1924 ;; Tracked objects:
  1925 ;;		On entry : 0/3B
  1926 ;;		On exit  : 0/0
  1927 ;;		Unchanged: 0/0
  1928 ;; Data sizes:     COMRAM   BANK0   BANK1   BANK2   BANK3   BANK4   BANK5   BANK6   BANK7   BANK8   BANK9  BANK10  BANK1
      +1  BANK12  BANK13  BANK14  BANK15  BANK16  BANK17  BANK18  BANK19  BANK20  BANK21  BANK22  BANK23  BANK24  BANK25  BANK2
      +6  BANK27  BANK28  BANK29  BANK30  BANK31
  1929 ;;      Params:         0       0       0       0       0       0       0       0       0       0       0       0       
      +0       0       0       0       0       0       0       0       0       0       0       0       0       0       0       
      +0       0       0       0       0       0
  1930 ;;      Locals:         1       0       0       0       0       0       0       0       0       0       0       0       
      +0       0       0       0       0       0       0       0       0       0       0       0       0       0       0       
      +0       0       0       0       0       0
  1931 ;;      Temps:          0       0       0       0       0       0       0       0       0       0       0       0       
      +0       0       0       0       0       0       0       0       0       0       0       0       0       0       0       
      +0       0       0       0       0       0
  1932 ;;      Totals:         1       0       0       0       0       0       0       0       0       0       0       0       
      +0       0       0       0       0       0       0       0       0       0       0       0       0       0       0       
      +0       0       0       0       0       0
  1933 ;;Total ram usage:        1 bytes
  1934 ;; Hardware stack levels used:    1
  1935 ;; Hardware stack levels required when called:    4
  1936 ;; This function calls:
  1937 ;;		_ringBufS_put_dma
  1938 ;; This function is called by:
  1939 ;;		_printf
  1940 ;; This function uses a non-reentrant model
  1941 ;;
  1942                           
  1943                           	psect	text15
  1944  002A6C                     __ptext15:
  1945                           	opt callstack 0
  1946  002A6C                     _putch:
  1947                           	opt callstack 24
  1948                           
  1949                           ;incstack = 0
  1950                           ;putch@c stored from wreg
  1951  002A6C  6E4F               	movwf	putch@c,c
  1952                           
  1953                           ;eadog.c: 133: ringBufS_put_dma(spi_link.tx1a, c);
  1954  002A6E  0060  F01C  F04B   	movff	_spi_link+6,ringBufS_put_dma@_this	;volatile
  1955  002A74  0060  F020  F04C   	movff	_spi_link+7,ringBufS_put_dma@_this+1	;volatile
  1956  002A7A  0060  F13C  F04D   	movff	putch@c,ringBufS_put_dma@c
  1957  002A80  ECDF  F012         	call	_ringBufS_put_dma	;wreg free
  1958  002A84  0012               	return		;funcret
  1959  002A86                     __end_of_putch:
  1960                           	opt callstack 0
  1961                           
  1962 ;; *************** function _ringBufS_put_dma *****************
  1963 ;; Defined at:
  1964 ;;		line 67 in file "ringbufs.c"
  1965 ;; Parameters:    Size  Location     Type
  1966 ;;  _this           2    1[COMRAM] PTR struct ringBufS_t
  1967 ;;		 -> ring_buf1(67), 
  1968 ;;  c               1    3[COMRAM] const unsigned char 
  1969 ;; Auto vars:     Size  Location     Type
  1970 ;;		None
  1971 ;; Return value:  Size  Location     Type
  1972 ;;                  1    wreg      void 
  1973 ;; Registers used:
  1974 ;;		wreg, fsr2l, fsr2h, status,2, status,0
  1975 ;; Tracked objects:
  1976 ;;		On entry : 0/3B
  1977 ;;		On exit  : 0/0
  1978 ;;		Unchanged: 0/0
  1979 ;; Data sizes:     COMRAM   BANK0   BANK1   BANK2   BANK3   BANK4   BANK5   BANK6   BANK7   BANK8   BANK9  BANK10  BANK1
      +1  BANK12  BANK13  BANK14  BANK15  BANK16  BANK17  BANK18  BANK19  BANK20  BANK21  BANK22  BANK23  BANK24  BANK25  BANK2
      +6  BANK27  BANK28  BANK29  BANK30  BANK31
  1980 ;;      Params:         3       0       0       0       0       0       0       0       0       0       0       0       
      +0       0       0       0       0       0       0       0       0       0       0       0       0       0       0       
      +0       0       0       0       0       0
  1981 ;;      Locals:         0       0       0       0       0       0       0       0       0       0       0       0       
      +0       0       0       0       0       0       0       0       0       0       0       0       0       0       0       
      +0       0       0       0       0       0
  1982 ;;      Temps:          1       0       0       0       0       0       0       0       0       0       0       0       
      +0       0       0       0       0       0       0       0       0       0       0       0       0       0       0       
      +0       0       0       0       0       0
  1983 ;;      Totals:         4       0       0       0       0       0       0       0       0       0       0       0       
      +0       0       0       0       0       0       0       0       0       0       0       0       0       0       0       
      +0       0       0       0       0       0
  1984 ;;Total ram usage:        4 bytes
  1985 ;; Hardware stack levels used:    1
  1986 ;; Hardware stack levels required when called:    3
  1987 ;; This function calls:
  1988 ;;		Nothing
  1989 ;; This function is called by:
  1990 ;;		_putch
  1991 ;; This function uses a non-reentrant model
  1992 ;;
  1993                           
  1994                           	psect	text16
  1995  0025BE                     __ptext16:
  1996                           	opt callstack 0
  1997  0025BE                     _ringBufS_put_dma:
  1998                           	opt callstack 24
  1999                           
  2000                           ;ringbufs.c: 69: if (_this->count < 64) {
  2001                           
  2002                           ;incstack = 0
  2003  0025BE  EE20 F042          	lfsr	2,66
  2004  0025C2  504B               	movf	ringBufS_put_dma@_this,w,c
  2005  0025C4  26D9               	addwf	fsr2l,f,c
  2006  0025C6  504C               	movf	ringBufS_put_dma@_this+1,w,c
  2007  0025C8  22DA               	addwfc	fsr2h,f,c
  2008  0025CA  0E40               	movlw	64
  2009  0025CC  60DF               	cpfslt	indf2,c
  2010  0025CE  0012               	return	
  2011                           
  2012                           ;ringbufs.c: 70: _this->buf[_this->head] = c;
  2013  0025D0  EE20 F040          	lfsr	2,64
  2014  0025D4  504B               	movf	ringBufS_put_dma@_this,w,c
  2015  0025D6  26D9               	addwf	fsr2l,f,c
  2016  0025D8  504C               	movf	ringBufS_put_dma@_this+1,w,c
  2017  0025DA  22DA               	addwfc	fsr2h,f,c
  2018  0025DC  50DF               	movf	indf2,w,c
  2019  0025DE  6E4E               	movwf	??_ringBufS_put_dma& (0+255),c
  2020  0025E0  504E               	movf	??_ringBufS_put_dma,w,c
  2021  0025E2  244B               	addwf	ringBufS_put_dma@_this,w,c
  2022  0025E4  6ED9               	movwf	fsr2l,c
  2023  0025E6  0E00               	movlw	0
  2024  0025E8  204C               	addwfc	ringBufS_put_dma@_this+1,w,c
  2025  0025EA  6EDA               	movwf	fsr2h,c
  2026  0025EC  0060  F137  FFDF   	movff	ringBufS_put_dma@c,indf2
  2027                           
  2028                           ;ringbufs.c: 71: ++_this->head;
  2029  0025F2  EE20 F040          	lfsr	2,64
  2030  0025F6  504B               	movf	ringBufS_put_dma@_this,w,c
  2031  0025F8  26D9               	addwf	fsr2l,f,c
  2032  0025FA  504C               	movf	ringBufS_put_dma@_this+1,w,c
  2033  0025FC  22DA               	addwfc	fsr2h,f,c
  2034  0025FE  2ADF               	incf	indf2,f,c
  2035                           
  2036                           ;ringbufs.c: 72: ++_this->count;
  2037  002600  EE20 F042          	lfsr	2,66
  2038  002604  504B               	movf	ringBufS_put_dma@_this,w,c
  2039  002606  26D9               	addwf	fsr2l,f,c
  2040  002608  504C               	movf	ringBufS_put_dma@_this+1,w,c
  2041  00260A  22DA               	addwfc	fsr2h,f,c
  2042  00260C  2ADF               	incf	indf2,f,c
  2043  00260E  0012               	return		;funcret
  2044  002610                     __end_of_ringBufS_put_dma:
  2045                           	opt callstack 0
  2046                           
  2047 ;; *************** function _SYSTEM_Initialize *****************
  2048 ;; Defined at:
  2049 ;;		line 50 in file "mcc_generated_files/mcc.c"
  2050 ;; Parameters:    Size  Location     Type
  2051 ;;		None
  2052 ;; Auto vars:     Size  Location     Type
  2053 ;;		None
  2054 ;; Return value:  Size  Location     Type
  2055 ;;                  1    wreg      void 
  2056 ;; Registers used:
  2057 ;;		wreg, status,2, status,0, cstack
  2058 ;; Tracked objects:
  2059 ;;		On entry : 0/0
  2060 ;;		On exit  : 3F/3B
  2061 ;;		Unchanged: 0/0
  2062 ;; Data sizes:     COMRAM   BANK0   BANK1   BANK2   BANK3   BANK4   BANK5   BANK6   BANK7   BANK8   BANK9  BANK10  BANK1
      +1  BANK12  BANK13  BANK14  BANK15  BANK16  BANK17  BANK18  BANK19  BANK20  BANK21  BANK22  BANK23  BANK24  BANK25  BANK2
      +6  BANK27  BANK28  BANK29  BANK30  BANK31
  2063 ;;      Params:         0       0       0       0       0       0       0       0       0       0       0       0       
      +0       0       0       0       0       0       0       0       0       0       0       0       0       0       0       
      +0       0       0       0       0       0
  2064 ;;      Locals:         0       0       0       0       0       0       0       0       0       0       0       0       
      +0       0       0       0       0       0       0       0       0       0       0       0       0       0       0       
      +0       0       0       0       0       0
  2065 ;;      Temps:          0       0       0       0       0       0       0       0       0       0       0       0       
      +0       0       0       0       0       0       0       0       0       0       0       0       0       0       0       
      +0       0       0       0       0       0
  2066 ;;      Totals:         0       0       0       0       0       0       0       0       0       0       0       0       
      +0       0       0       0       0       0       0       0       0       0       0       0       0       0       0       
      +0       0       0       0       0       0
  2067 ;;Total ram usage:        0 bytes
  2068 ;; Hardware stack levels used:    1
  2069 ;; Hardware stack levels required when called:    5
  2070 ;; This function calls:
  2071 ;;		_ADCC_Initialize
  2072 ;;		_DMA1_Initialize
  2073 ;;		_EXT_INT_Initialize
  2074 ;;		_INTERRUPT_Initialize
  2075 ;;		_OSCILLATOR_Initialize
  2076 ;;		_PIN_MANAGER_Initialize
  2077 ;;		_PMD_Initialize
  2078 ;;		_SPI1_Initialize
  2079 ;;		_TMR6_Initialize
  2080 ;;		_UART1_Initialize
  2081 ;;		_UART2_Initialize
  2082 ;; This function is called by:
  2083 ;;		_main
  2084 ;; This function uses a non-reentrant model
  2085 ;;
  2086                           
  2087                           	psect	text17
  2088  0026F2                     __ptext17:
  2089                           	opt callstack 0
  2090  0026F2                     _SYSTEM_Initialize:
  2091                           	opt callstack 25
  2092                           
  2093                           ;mcc.c: 52: INTERRUPT_Initialize();
  2094                           
  2095                           ;incstack = 0
  2096  0026F2  ECB4  F012         	call	_INTERRUPT_Initialize	;wreg free
  2097                           
  2098                           ;mcc.c: 53: PMD_Initialize();
  2099  0026F6  EC42  F014         	call	_PMD_Initialize	;wreg free
  2100                           
  2101                           ;mcc.c: 54: PIN_MANAGER_Initialize();
  2102  0026FA  EC03  F011         	call	_PIN_MANAGER_Initialize	;wreg free
  2103                           
  2104                           ;mcc.c: 55: OSCILLATOR_Initialize();
  2105  0026FE  EC0E  F015         	call	_OSCILLATOR_Initialize	;wreg free
  2106                           
  2107                           ; BSR set to: 57
  2108                           ;mcc.c: 56: TMR6_Initialize();
  2109  002702  EC90  F013         	call	_TMR6_Initialize	;wreg free
  2110                           
  2111                           ; BSR set to: 57
  2112                           ;mcc.c: 57: ADCC_Initialize();
  2113  002706  EC17  F012         	call	_ADCC_Initialize	;wreg free
  2114                           
  2115                           ; BSR set to: 57
  2116                           ;mcc.c: 58: EXT_INT_Initialize();
  2117  00270A  EC08  F013         	call	_EXT_INT_Initialize	;wreg free
  2118                           
  2119                           ; BSR set to: 57
  2120                           ;mcc.c: 59: UART2_Initialize();
  2121  00270E  ECDD  F011         	call	_UART2_Initialize	;wreg free
  2122                           
  2123                           ; BSR set to: 57
  2124                           ;mcc.c: 60: UART1_Initialize();
  2125  002712  EC9D  F011         	call	_UART1_Initialize	;wreg free
  2126                           
  2127                           ; BSR set to: 57
  2128                           ;mcc.c: 61: SPI1_Initialize();
  2129  002716  EC50  F015         	call	_SPI1_Initialize	;wreg free
  2130                           
  2131                           ; BSR set to: 61
  2132                           ;mcc.c: 62: DMA1_Initialize();
  2133  00271A  EC50  F012         	call	_DMA1_Initialize	;wreg free
  2134                           
  2135                           ; BSR set to: 59
  2136  00271E  0012               	return		;funcret
  2137  002720                     __end_of_SYSTEM_Initialize:
  2138                           	opt callstack 0
  2139                           
  2140 ;; *************** function _UART2_Initialize *****************
  2141 ;; Defined at:
  2142 ;;		line 78 in file "mcc_generated_files/uart2.c"
  2143 ;; Parameters:    Size  Location     Type
  2144 ;;		None
  2145 ;; Auto vars:     Size  Location     Type
  2146 ;;		None
  2147 ;; Return value:  Size  Location     Type
  2148 ;;                  1    wreg      void 
  2149 ;; Registers used:
  2150 ;;		wreg, status,2, status,0, cstack
  2151 ;; Tracked objects:
  2152 ;;		On entry : 3F/39
  2153 ;;		On exit  : 3F/39
  2154 ;;		Unchanged: 0/0
  2155 ;; Data sizes:     COMRAM   BANK0   BANK1   BANK2   BANK3   BANK4   BANK5   BANK6   BANK7   BANK8   BANK9  BANK10  BANK1
      +1  BANK12  BANK13  BANK14  BANK15  BANK16  BANK17  BANK18  BANK19  BANK20  BANK21  BANK22  BANK23  BANK24  BANK25  BANK2
      +6  BANK27  BANK28  BANK29  BANK30  BANK31
  2156 ;;      Params:         0       0       0       0       0       0       0       0       0       0       0       0       
      +0       0       0       0       0       0       0       0       0       0       0       0       0       0       0       
      +0       0       0       0       0       0
  2157 ;;      Locals:         0       0       0       0       0       0       0       0       0       0       0       0       
      +0       0       0       0       0       0       0       0       0       0       0       0       0       0       0       
      +0       0       0       0       0       0
  2158 ;;      Temps:          0       0       0       0       0       0       0       0       0       0       0       0       
      +0       0       0       0       0       0       0       0       0       0       0       0       0       0       0       
      +0       0       0       0       0       0
  2159 ;;      Totals:         0       0       0       0       0       0       0       0       0       0       0       0       
      +0       0       0       0       0       0       0       0       0       0       0       0       0       0       0       
      +0       0       0       0       0       0
  2160 ;;Total ram usage:        0 bytes
  2161 ;; Hardware stack levels used:    1
  2162 ;; Hardware stack levels required when called:    4
  2163 ;; This function calls:
  2164 ;;		_UART2_SetRxInterruptHandler
  2165 ;;		_UART2_SetTxInterruptHandler
  2166 ;; This function is called by:
  2167 ;;		_SYSTEM_Initialize
  2168 ;; This function uses a non-reentrant model
  2169 ;;
  2170                           
  2171                           	psect	text18
  2172  0023BA                     __ptext18:
  2173                           	opt callstack 0
  2174  0023BA                     _UART2_Initialize:
  2175                           	opt callstack 25
  2176                           
  2177                           ; BSR set to: 57
  2178                           ;uart2.c: 81: PIE6bits.U2RXIE = 0;
  2179                           
  2180                           ; BSR set to: 59
  2181                           ;incstack = 0
  2182  0023BA  9596               	bcf	150,2,b	;volatile
  2183                           
  2184                           ; BSR set to: 57
  2185                           ;uart2.c: 82: UART2_SetRxInterruptHandler(UART2_Receive_ISR);
  2186  0023BC  0EFE               	movlw	low _UART2_Receive_ISR
  2187  0023BE  6E4B               	movwf	UART2_SetRxInterruptHandler@InterruptHandler,c
  2188  0023C0  0E29               	movlw	high _UART2_Receive_ISR
  2189  0023C2  6E4C               	movwf	UART2_SetRxInterruptHandler@InterruptHandler+1,c
  2190  0023C4  0E00               	movlw	low (_UART2_Receive_ISR shr (0+16))
  2191  0023C6  6E4D               	movwf	UART2_SetRxInterruptHandler@InterruptHandler+2,c
  2192  0023C8  EC66  F015         	call	_UART2_SetRxInterruptHandler	;wreg free
  2193                           
  2194                           ; BSR set to: 57
  2195                           ;uart2.c: 83: PIE6bits.U2TXIE = 0;
  2196  0023CC  9796               	bcf	150,3,b	;volatile
  2197                           
  2198                           ;uart2.c: 84: UART2_SetTxInterruptHandler(UART2_Transmit_ISR);
  2199  0023CE  0EA0               	movlw	low _UART2_Transmit_ISR
  2200  0023D0  6E4B               	movwf	UART2_SetTxInterruptHandler@InterruptHandler,c
  2201  0023D2  0E27               	movlw	high _UART2_Transmit_ISR
  2202  0023D4  6E4C               	movwf	UART2_SetTxInterruptHandler@InterruptHandler+1,c
  2203  0023D6  0E00               	movlw	low (_UART2_Transmit_ISR shr (0+16))
  2204  0023D8  6E4D               	movwf	UART2_SetTxInterruptHandler@InterruptHandler+2,c
  2205  0023DA  EC5C  F015         	call	_UART2_SetTxInterruptHandler	;wreg free
  2206                           
  2207                           ; BSR set to: 57
  2208                           ;uart2.c: 89: U2P1L = 0x00;
  2209  0023DE  0E00               	movlw	0
  2210  0023E0  013D               	movlb	61	; () banked
  2211  0023E2  6FD4               	movwf	212,b	;volatile
  2212                           
  2213                           ; BSR set to: 61
  2214                           ;uart2.c: 92: U2P2L = 0x00;
  2215  0023E4  0E00               	movlw	0
  2216  0023E6  6FD6               	movwf	214,b	;volatile
  2217                           
  2218                           ; BSR set to: 61
  2219                           ;uart2.c: 95: U2P3L = 0x00;
  2220  0023E8  0E00               	movlw	0
  2221  0023EA  6FD8               	movwf	216,b	;volatile
  2222                           
  2223                           ; BSR set to: 61
  2224                           ;uart2.c: 98: U2CON0 = 0xB0;
  2225  0023EC  0EB0               	movlw	176
  2226  0023EE  6FDA               	movwf	218,b	;volatile
  2227                           
  2228                           ; BSR set to: 61
  2229                           ;uart2.c: 101: U2CON1 = 0x80;
  2230  0023F0  0E80               	movlw	128
  2231  0023F2  6FDB               	movwf	219,b	;volatile
  2232                           
  2233                           ; BSR set to: 61
  2234                           ;uart2.c: 104: U2CON2 = 0x00;
  2235  0023F4  0E00               	movlw	0
  2236  0023F6  6FDC               	movwf	220,b	;volatile
  2237                           
  2238                           ; BSR set to: 61
  2239                           ;uart2.c: 107: U2BRGL = 0x40;
  2240  0023F8  0E40               	movlw	64
  2241  0023FA  6FDD               	movwf	221,b	;volatile
  2242                           
  2243                           ; BSR set to: 61
  2244                           ;uart2.c: 110: U2BRGH = 0x03;
  2245  0023FC  0E03               	movlw	3
  2246  0023FE  6FDE               	movwf	222,b	;volatile
  2247                           
  2248                           ; BSR set to: 61
  2249                           ;uart2.c: 113: U2FIFO = 0x00;
  2250  002400  0E00               	movlw	0
  2251  002402  6FDF               	movwf	223,b	;volatile
  2252                           
  2253                           ; BSR set to: 61
  2254                           ;uart2.c: 116: U2UIR = 0x00;
  2255  002404  0E00               	movlw	0
  2256  002406  6FE0               	movwf	224,b	;volatile
  2257                           
  2258                           ; BSR set to: 61
  2259                           ;uart2.c: 119: U2ERRIR = 0x00;
  2260  002408  0E00               	movlw	0
  2261  00240A  6FE1               	movwf	225,b	;volatile
  2262                           
  2263                           ; BSR set to: 61
  2264                           ;uart2.c: 122: U2ERRIE = 0x00;
  2265  00240C  0E00               	movlw	0
  2266  00240E  6FE2               	movwf	226,b	;volatile
  2267                           
  2268                           ; BSR set to: 61
  2269                           ;uart2.c: 126: uart2TxHead = 0;
  2270  002410  0E00               	movlw	0
  2271  002412  6E43               	movwf	_uart2TxHead,c	;volatile
  2272                           
  2273                           ; BSR set to: 61
  2274                           ;uart2.c: 127: uart2TxTail = 0;
  2275  002414  0E00               	movlw	0
  2276  002416  6E42               	movwf	_uart2TxTail,c	;volatile
  2277                           
  2278                           ; BSR set to: 61
  2279                           ;uart2.c: 128: uart2TxBufferRemaining = sizeof(uart2TxBuffer);
  2280  002418  0E08               	movlw	8
  2281  00241A  6E41               	movwf	_uart2TxBufferRemaining,c	;volatile
  2282                           
  2283                           ; BSR set to: 61
  2284                           ;uart2.c: 129: uart2RxHead = 0;
  2285  00241C  0E00               	movlw	0
  2286  00241E  6E40               	movwf	_uart2RxHead,c	;volatile
  2287                           
  2288                           ; BSR set to: 61
  2289                           ;uart2.c: 130: uart2RxTail = 0;
  2290  002420  0E00               	movlw	0
  2291  002422  6E3F               	movwf	_uart2RxTail,c	;volatile
  2292                           
  2293                           ; BSR set to: 61
  2294                           ;uart2.c: 131: uart2RxCount = 0;
  2295  002424  0E00               	movlw	0
  2296  002426  6E3E               	movwf	_uart2RxCount,c	;volatile
  2297                           
  2298                           ; BSR set to: 61
  2299                           ;uart2.c: 134: PIE6bits.U2RXIE = 1;
  2300  002428  0139               	movlb	57	; () banked
  2301  00242A  8596               	bsf	150,2,b	;volatile
  2302                           
  2303                           ; BSR set to: 57
  2304  00242C  0012               	return		;funcret
  2305  00242E                     __end_of_UART2_Initialize:
  2306                           	opt callstack 0
  2307                           
  2308 ;; *************** function _UART2_SetTxInterruptHandler *****************
  2309 ;; Defined at:
  2310 ;;		line 252 in file "mcc_generated_files/uart2.c"
  2311 ;; Parameters:    Size  Location     Type
  2312 ;;  InterruptHan    3    1[COMRAM] PTR FTN()void 
  2313 ;;		 -> UART2_Transmit_ISR(1), 
  2314 ;; Auto vars:     Size  Location     Type
  2315 ;;		None
  2316 ;; Return value:  Size  Location     Type
  2317 ;;                  1    wreg      void 
  2318 ;; Registers used:
  2319 ;;		wreg, status,2, status,0
  2320 ;; Tracked objects:
  2321 ;;		On entry : 3F/39
  2322 ;;		On exit  : 3F/39
  2323 ;;		Unchanged: 3E/0
  2324 ;; Data sizes:     COMRAM   BANK0   BANK1   BANK2   BANK3   BANK4   BANK5   BANK6   BANK7   BANK8   BANK9  BANK10  BANK1
      +1  BANK12  BANK13  BANK14  BANK15  BANK16  BANK17  BANK18  BANK19  BANK20  BANK21  BANK22  BANK23  BANK24  BANK25  BANK2
      +6  BANK27  BANK28  BANK29  BANK30  BANK31
  2325 ;;      Params:         3       0       0       0       0       0       0       0       0       0       0       0       
      +0       0       0       0       0       0       0       0       0       0       0       0       0       0       0       
      +0       0       0       0       0       0
  2326 ;;      Locals:         0       0       0       0       0       0       0       0       0       0       0       0       
      +0       0       0       0       0       0       0       0       0       0       0       0       0       0       0       
      +0       0       0       0       0       0
  2327 ;;      Temps:          0       0       0       0       0       0       0       0       0       0       0       0       
      +0       0       0       0       0       0       0       0       0       0       0       0       0       0       0       
      +0       0       0       0       0       0
  2328 ;;      Totals:         3       0       0       0       0       0       0       0       0       0       0       0       
      +0       0       0       0       0       0       0       0       0       0       0       0       0       0       0       
      +0       0       0       0       0       0
  2329 ;;Total ram usage:        3 bytes
  2330 ;; Hardware stack levels used:    1
  2331 ;; Hardware stack levels required when called:    3
  2332 ;; This function calls:
  2333 ;;		Nothing
  2334 ;; This function is called by:
  2335 ;;		_UART2_Initialize
  2336 ;; This function uses a non-reentrant model
  2337 ;;
  2338                           
  2339                           	psect	text19
  2340  002AB8                     __ptext19:
  2341                           	opt callstack 0
  2342  002AB8                     _UART2_SetTxInterruptHandler:
  2343                           	opt callstack 25
  2344                           
  2345                           ; BSR set to: 57
  2346                           ;uart2.c: 253: UART2_TxInterruptHandler = InterruptHandler;
  2347                           
  2348                           ; BSR set to: 57
  2349                           ;incstack = 0
  2350  002AB8  0060  F12C  F02D   	movff	UART2_SetTxInterruptHandler@InterruptHandler,_UART2_TxInterruptHandler
  2351  002ABE  0060  F130  F02E   	movff	UART2_SetTxInterruptHandler@InterruptHandler+1,_UART2_TxInterruptHandler+1
  2352  002AC4  0060  F134  F02F   	movff	UART2_SetTxInterruptHandler@InterruptHandler+2,_UART2_TxInterruptHandler+2
  2353                           
  2354                           ; BSR set to: 57
  2355  002ACA  0012               	return		;funcret
  2356  002ACC                     __end_of_UART2_SetTxInterruptHandler:
  2357                           	opt callstack 0
  2358                           
  2359 ;; *************** function _UART2_SetRxInterruptHandler *****************
  2360 ;; Defined at:
  2361 ;;		line 248 in file "mcc_generated_files/uart2.c"
  2362 ;; Parameters:    Size  Location     Type
  2363 ;;  InterruptHan    3    1[COMRAM] PTR FTN()void 
  2364 ;;		 -> UART2_Receive_ISR(1), 
  2365 ;; Auto vars:     Size  Location     Type
  2366 ;;		None
  2367 ;; Return value:  Size  Location     Type
  2368 ;;                  1    wreg      void 
  2369 ;; Registers used:
  2370 ;;		wreg, status,2, status,0
  2371 ;; Tracked objects:
  2372 ;;		On entry : 3F/39
  2373 ;;		On exit  : 3F/39
  2374 ;;		Unchanged: 3E/0
  2375 ;; Data sizes:     COMRAM   BANK0   BANK1   BANK2   BANK3   BANK4   BANK5   BANK6   BANK7   BANK8   BANK9  BANK10  BANK1
      +1  BANK12  BANK13  BANK14  BANK15  BANK16  BANK17  BANK18  BANK19  BANK20  BANK21  BANK22  BANK23  BANK24  BANK25  BANK2
      +6  BANK27  BANK28  BANK29  BANK30  BANK31
  2376 ;;      Params:         3       0       0       0       0       0       0       0       0       0       0       0       
      +0       0       0       0       0       0       0       0       0       0       0       0       0       0       0       
      +0       0       0       0       0       0
  2377 ;;      Locals:         0       0       0       0       0       0       0       0       0       0       0       0       
      +0       0       0       0       0       0       0       0       0       0       0       0       0       0       0       
      +0       0       0       0       0       0
  2378 ;;      Temps:          0       0       0       0       0       0       0       0       0       0       0       0       
      +0       0       0       0       0       0       0       0       0       0       0       0       0       0       0       
      +0       0       0       0       0       0
  2379 ;;      Totals:         3       0       0       0       0       0       0       0       0       0       0       0       
      +0       0       0       0       0       0       0       0       0       0       0       0       0       0       0       
      +0       0       0       0       0       0
  2380 ;;Total ram usage:        3 bytes
  2381 ;; Hardware stack levels used:    1
  2382 ;; Hardware stack levels required when called:    3
  2383 ;; This function calls:
  2384 ;;		Nothing
  2385 ;; This function is called by:
  2386 ;;		_UART2_Initialize
  2387 ;; This function uses a non-reentrant model
  2388 ;;
  2389                           
  2390                           	psect	text20
  2391  002ACC                     __ptext20:
  2392                           	opt callstack 0
  2393  002ACC                     _UART2_SetRxInterruptHandler:
  2394                           	opt callstack 25
  2395                           
  2396                           ; BSR set to: 57
  2397                           ;uart2.c: 249: UART2_RxInterruptHandler = InterruptHandler;
  2398                           
  2399                           ; BSR set to: 57
  2400                           ;incstack = 0
  2401  002ACC  0060  F12C  F030   	movff	UART2_SetRxInterruptHandler@InterruptHandler,_UART2_RxInterruptHandler
  2402  002AD2  0060  F130  F031   	movff	UART2_SetRxInterruptHandler@InterruptHandler+1,_UART2_RxInterruptHandler+1
  2403  002AD8  0060  F134  F032   	movff	UART2_SetRxInterruptHandler@InterruptHandler+2,_UART2_RxInterruptHandler+2
  2404                           
  2405                           ; BSR set to: 57
  2406  002ADE  0012               	return		;funcret
  2407  002AE0                     __end_of_UART2_SetRxInterruptHandler:
  2408                           	opt callstack 0
  2409                           
  2410 ;; *************** function _UART1_Initialize *****************
  2411 ;; Defined at:
  2412 ;;		line 78 in file "mcc_generated_files/uart1.c"
  2413 ;; Parameters:    Size  Location     Type
  2414 ;;		None
  2415 ;; Auto vars:     Size  Location     Type
  2416 ;;		None
  2417 ;; Return value:  Size  Location     Type
  2418 ;;                  1    wreg      void 
  2419 ;; Registers used:
  2420 ;;		wreg, status,2, status,0, cstack
  2421 ;; Tracked objects:
  2422 ;;		On entry : 3F/39
  2423 ;;		On exit  : 3F/39
  2424 ;;		Unchanged: 0/0
  2425 ;; Data sizes:     COMRAM   BANK0   BANK1   BANK2   BANK3   BANK4   BANK5   BANK6   BANK7   BANK8   BANK9  BANK10  BANK1
      +1  BANK12  BANK13  BANK14  BANK15  BANK16  BANK17  BANK18  BANK19  BANK20  BANK21  BANK22  BANK23  BANK24  BANK25  BANK2
      +6  BANK27  BANK28  BANK29  BANK30  BANK31
  2426 ;;      Params:         0       0       0       0       0       0       0       0       0       0       0       0       
      +0       0       0       0       0       0       0       0       0       0       0       0       0       0       0       
      +0       0       0       0       0       0
  2427 ;;      Locals:         0       0       0       0       0       0       0       0       0       0       0       0       
      +0       0       0       0       0       0       0       0       0       0       0       0       0       0       0       
      +0       0       0       0       0       0
  2428 ;;      Temps:          0       0       0       0       0       0       0       0       0       0       0       0       
      +0       0       0       0       0       0       0       0       0       0       0       0       0       0       0       
      +0       0       0       0       0       0
  2429 ;;      Totals:         0       0       0       0       0       0       0       0       0       0       0       0       
      +0       0       0       0       0       0       0       0       0       0       0       0       0       0       0       
      +0       0       0       0       0       0
  2430 ;;Total ram usage:        0 bytes
  2431 ;; Hardware stack levels used:    1
  2432 ;; Hardware stack levels required when called:    4
  2433 ;; This function calls:
  2434 ;;		_UART1_SetRxInterruptHandler
  2435 ;;		_UART1_SetTxInterruptHandler
  2436 ;; This function is called by:
  2437 ;;		_SYSTEM_Initialize
  2438 ;; This function uses a non-reentrant model
  2439 ;;
  2440                           
  2441                           	psect	text21
  2442  00233A                     __ptext21:
  2443                           	opt callstack 0
  2444  00233A                     _UART1_Initialize:
  2445                           	opt callstack 25
  2446                           
  2447                           ; BSR set to: 57
  2448                           ;uart1.c: 81: PIE3bits.U1RXIE = 0;
  2449                           
  2450                           ; BSR set to: 57
  2451                           ;incstack = 0
  2452  00233A  9793               	bcf	147,3,b	;volatile
  2453                           
  2454                           ; BSR set to: 57
  2455                           ;uart1.c: 82: UART1_SetRxInterruptHandler(UART1_Receive_ISR);
  2456  00233C  0EE0               	movlw	low _UART1_Receive_ISR
  2457  00233E  6E4B               	movwf	UART1_SetRxInterruptHandler@InterruptHandler,c
  2458  002340  0E29               	movlw	high _UART1_Receive_ISR
  2459  002342  6E4C               	movwf	UART1_SetRxInterruptHandler@InterruptHandler+1,c
  2460  002344  0E00               	movlw	low (_UART1_Receive_ISR shr (0+16))
  2461  002346  6E4D               	movwf	UART1_SetRxInterruptHandler@InterruptHandler+2,c
  2462  002348  EC7A  F015         	call	_UART1_SetRxInterruptHandler	;wreg free
  2463                           
  2464                           ; BSR set to: 57
  2465                           ;uart1.c: 83: PIE3bits.U1TXIE = 0;
  2466  00234C  9993               	bcf	147,4,b	;volatile
  2467                           
  2468                           ;uart1.c: 84: UART1_SetTxInterruptHandler(UART1_Transmit_ISR);
  2469  00234E  0E76               	movlw	low _UART1_Transmit_ISR
  2470  002350  6E4B               	movwf	UART1_SetTxInterruptHandler@InterruptHandler,c
  2471  002352  0E27               	movlw	high _UART1_Transmit_ISR
  2472  002354  6E4C               	movwf	UART1_SetTxInterruptHandler@InterruptHandler+1,c
  2473  002356  0E00               	movlw	low (_UART1_Transmit_ISR shr (0+16))
  2474  002358  6E4D               	movwf	UART1_SetTxInterruptHandler@InterruptHandler+2,c
  2475  00235A  EC70  F015         	call	_UART1_SetTxInterruptHandler	;wreg free
  2476                           
  2477                           ; BSR set to: 57
  2478                           ;uart1.c: 89: U1P1L = 0x00;
  2479  00235E  0E00               	movlw	0
  2480  002360  013D               	movlb	61	; () banked
  2481  002362  6FEC               	movwf	236,b	;volatile
  2482                           
  2483                           ; BSR set to: 61
  2484                           ;uart1.c: 92: U1P1H = 0x00;
  2485  002364  0E00               	movlw	0
  2486  002366  6FED               	movwf	237,b	;volatile
  2487                           
  2488                           ; BSR set to: 61
  2489                           ;uart1.c: 95: U1P2L = 0x00;
  2490  002368  0E00               	movlw	0
  2491  00236A  6FEE               	movwf	238,b	;volatile
  2492                           
  2493                           ; BSR set to: 61
  2494                           ;uart1.c: 98: U1P2H = 0x00;
  2495  00236C  0E00               	movlw	0
  2496  00236E  6FEF               	movwf	239,b	;volatile
  2497                           
  2498                           ; BSR set to: 61
  2499                           ;uart1.c: 101: U1P3L = 0x00;
  2500  002370  0E00               	movlw	0
  2501  002372  6FF0               	movwf	240,b	;volatile
  2502                           
  2503                           ; BSR set to: 61
  2504                           ;uart1.c: 104: U1P3H = 0x00;
  2505  002374  0E00               	movlw	0
  2506  002376  6FF1               	movwf	241,b	;volatile
  2507                           
  2508                           ; BSR set to: 61
  2509                           ;uart1.c: 107: U1CON0 = 0xB0;
  2510  002378  0EB0               	movlw	176
  2511  00237A  6FF2               	movwf	242,b	;volatile
  2512                           
  2513                           ; BSR set to: 61
  2514                           ;uart1.c: 110: U1CON1 = 0x80;
  2515  00237C  0E80               	movlw	128
  2516  00237E  6FF3               	movwf	243,b	;volatile
  2517                           
  2518                           ; BSR set to: 61
  2519                           ;uart1.c: 113: U1CON2 = 0x00;
  2520  002380  0E00               	movlw	0
  2521  002382  6FF4               	movwf	244,b	;volatile
  2522                           
  2523                           ; BSR set to: 61
  2524                           ;uart1.c: 116: U1BRGL = 0x40;
  2525  002384  0E40               	movlw	64
  2526  002386  6FF5               	movwf	245,b	;volatile
  2527                           
  2528                           ; BSR set to: 61
  2529                           ;uart1.c: 119: U1BRGH = 0x03;
  2530  002388  0E03               	movlw	3
  2531  00238A  6FF6               	movwf	246,b	;volatile
  2532                           
  2533                           ; BSR set to: 61
  2534                           ;uart1.c: 122: U1FIFO = 0x00;
  2535  00238C  0E00               	movlw	0
  2536  00238E  6FF7               	movwf	247,b	;volatile
  2537                           
  2538                           ; BSR set to: 61
  2539                           ;uart1.c: 125: U1UIR = 0x00;
  2540  002390  0E00               	movlw	0
  2541  002392  6FF8               	movwf	248,b	;volatile
  2542                           
  2543                           ; BSR set to: 61
  2544                           ;uart1.c: 128: U1ERRIR = 0x00;
  2545  002394  0E00               	movlw	0
  2546  002396  6FF9               	movwf	249,b	;volatile
  2547                           
  2548                           ; BSR set to: 61
  2549                           ;uart1.c: 131: U1ERRIE = 0x00;
  2550  002398  0E00               	movlw	0
  2551  00239A  6FFA               	movwf	250,b	;volatile
  2552                           
  2553                           ; BSR set to: 61
  2554                           ;uart1.c: 135: uart1TxHead = 0;
  2555  00239C  0E00               	movlw	0
  2556  00239E  6E49               	movwf	_uart1TxHead,c	;volatile
  2557                           
  2558                           ; BSR set to: 61
  2559                           ;uart1.c: 136: uart1TxTail = 0;
  2560  0023A0  0E00               	movlw	0
  2561  0023A2  6E48               	movwf	_uart1TxTail,c	;volatile
  2562                           
  2563                           ; BSR set to: 61
  2564                           ;uart1.c: 137: uart1TxBufferRemaining = sizeof(uart1TxBuffer);
  2565  0023A4  0E08               	movlw	8
  2566  0023A6  6E47               	movwf	_uart1TxBufferRemaining,c	;volatile
  2567                           
  2568                           ; BSR set to: 61
  2569                           ;uart1.c: 138: uart1RxHead = 0;
  2570  0023A8  0E00               	movlw	0
  2571  0023AA  6E46               	movwf	_uart1RxHead,c	;volatile
  2572                           
  2573                           ; BSR set to: 61
  2574                           ;uart1.c: 139: uart1RxTail = 0;
  2575  0023AC  0E00               	movlw	0
  2576  0023AE  6E45               	movwf	_uart1RxTail,c	;volatile
  2577                           
  2578                           ; BSR set to: 61
  2579                           ;uart1.c: 140: uart1RxCount = 0;
  2580  0023B0  0E00               	movlw	0
  2581  0023B2  6E44               	movwf	_uart1RxCount,c	;volatile
  2582                           
  2583                           ; BSR set to: 61
  2584                           ;uart1.c: 143: PIE3bits.U1RXIE = 1;
  2585  0023B4  0139               	movlb	57	; () banked
  2586  0023B6  8793               	bsf	147,3,b	;volatile
  2587                           
  2588                           ; BSR set to: 57
  2589  0023B8  0012               	return		;funcret
  2590  0023BA                     __end_of_UART1_Initialize:
  2591                           	opt callstack 0
  2592                           
  2593 ;; *************** function _UART1_SetTxInterruptHandler *****************
  2594 ;; Defined at:
  2595 ;;		line 261 in file "mcc_generated_files/uart1.c"
  2596 ;; Parameters:    Size  Location     Type
  2597 ;;  InterruptHan    3    1[COMRAM] PTR FTN()void 
  2598 ;;		 -> UART1_Transmit_ISR(1), 
  2599 ;; Auto vars:     Size  Location     Type
  2600 ;;		None
  2601 ;; Return value:  Size  Location     Type
  2602 ;;                  1    wreg      void 
  2603 ;; Registers used:
  2604 ;;		wreg, status,2, status,0
  2605 ;; Tracked objects:
  2606 ;;		On entry : 3F/39
  2607 ;;		On exit  : 3F/39
  2608 ;;		Unchanged: 3E/0
  2609 ;; Data sizes:     COMRAM   BANK0   BANK1   BANK2   BANK3   BANK4   BANK5   BANK6   BANK7   BANK8   BANK9  BANK10  BANK1
      +1  BANK12  BANK13  BANK14  BANK15  BANK16  BANK17  BANK18  BANK19  BANK20  BANK21  BANK22  BANK23  BANK24  BANK25  BANK2
      +6  BANK27  BANK28  BANK29  BANK30  BANK31
  2610 ;;      Params:         3       0       0       0       0       0       0       0       0       0       0       0       
      +0       0       0       0       0       0       0       0       0       0       0       0       0       0       0       
      +0       0       0       0       0       0
  2611 ;;      Locals:         0       0       0       0       0       0       0       0       0       0       0       0       
      +0       0       0       0       0       0       0       0       0       0       0       0       0       0       0       
      +0       0       0       0       0       0
  2612 ;;      Temps:          0       0       0       0       0       0       0       0       0       0       0       0       
      +0       0       0       0       0       0       0       0       0       0       0       0       0       0       0       
      +0       0       0       0       0       0
  2613 ;;      Totals:         3       0       0       0       0       0       0       0       0       0       0       0       
      +0       0       0       0       0       0       0       0       0       0       0       0       0       0       0       
      +0       0       0       0       0       0
  2614 ;;Total ram usage:        3 bytes
  2615 ;; Hardware stack levels used:    1
  2616 ;; Hardware stack levels required when called:    3
  2617 ;; This function calls:
  2618 ;;		Nothing
  2619 ;; This function is called by:
  2620 ;;		_UART1_Initialize
  2621 ;; This function uses a non-reentrant model
  2622 ;;
  2623                           
  2624                           	psect	text22
  2625  002AE0                     __ptext22:
  2626                           	opt callstack 0
  2627  002AE0                     _UART1_SetTxInterruptHandler:
  2628                           	opt callstack 25
  2629                           
  2630                           ; BSR set to: 57
  2631                           ;uart1.c: 262: UART1_TxInterruptHandler = InterruptHandler;
  2632                           
  2633                           ; BSR set to: 57
  2634                           ;incstack = 0
  2635  002AE0  0060  F12C  F027   	movff	UART1_SetTxInterruptHandler@InterruptHandler,_UART1_TxInterruptHandler
  2636  002AE6  0060  F130  F028   	movff	UART1_SetTxInterruptHandler@InterruptHandler+1,_UART1_TxInterruptHandler+1
  2637  002AEC  0060  F134  F029   	movff	UART1_SetTxInterruptHandler@InterruptHandler+2,_UART1_TxInterruptHandler+2
  2638                           
  2639                           ; BSR set to: 57
  2640  002AF2  0012               	return		;funcret
  2641  002AF4                     __end_of_UART1_SetTxInterruptHandler:
  2642                           	opt callstack 0
  2643                           
  2644 ;; *************** function _UART1_SetRxInterruptHandler *****************
  2645 ;; Defined at:
  2646 ;;		line 257 in file "mcc_generated_files/uart1.c"
  2647 ;; Parameters:    Size  Location     Type
  2648 ;;  InterruptHan    3    1[COMRAM] PTR FTN()void 
  2649 ;;		 -> UART1_Receive_ISR(1), 
  2650 ;; Auto vars:     Size  Location     Type
  2651 ;;		None
  2652 ;; Return value:  Size  Location     Type
  2653 ;;                  1    wreg      void 
  2654 ;; Registers used:
  2655 ;;		wreg, status,2, status,0
  2656 ;; Tracked objects:
  2657 ;;		On entry : 3F/39
  2658 ;;		On exit  : 3F/39
  2659 ;;		Unchanged: 3E/0
  2660 ;; Data sizes:     COMRAM   BANK0   BANK1   BANK2   BANK3   BANK4   BANK5   BANK6   BANK7   BANK8   BANK9  BANK10  BANK1
      +1  BANK12  BANK13  BANK14  BANK15  BANK16  BANK17  BANK18  BANK19  BANK20  BANK21  BANK22  BANK23  BANK24  BANK25  BANK2
      +6  BANK27  BANK28  BANK29  BANK30  BANK31
  2661 ;;      Params:         3       0       0       0       0       0       0       0       0       0       0       0       
      +0       0       0       0       0       0       0       0       0       0       0       0       0       0       0       
      +0       0       0       0       0       0
  2662 ;;      Locals:         0       0       0       0       0       0       0       0       0       0       0       0       
      +0       0       0       0       0       0       0       0       0       0       0       0       0       0       0       
      +0       0       0       0       0       0
  2663 ;;      Temps:          0       0       0       0       0       0       0       0       0       0       0       0       
      +0       0       0       0       0       0       0       0       0       0       0       0       0       0       0       
      +0       0       0       0       0       0
  2664 ;;      Totals:         3       0       0       0       0       0       0       0       0       0       0       0       
      +0       0       0       0       0       0       0       0       0       0       0       0       0       0       0       
      +0       0       0       0       0       0
  2665 ;;Total ram usage:        3 bytes
  2666 ;; Hardware stack levels used:    1
  2667 ;; Hardware stack levels required when called:    3
  2668 ;; This function calls:
  2669 ;;		Nothing
  2670 ;; This function is called by:
  2671 ;;		_UART1_Initialize
  2672 ;; This function uses a non-reentrant model
  2673 ;;
  2674                           
  2675                           	psect	text23
  2676  002AF4                     __ptext23:
  2677                           	opt callstack 0
  2678  002AF4                     _UART1_SetRxInterruptHandler:
  2679                           	opt callstack 25
  2680                           
  2681                           ; BSR set to: 57
  2682                           ;uart1.c: 258: UART1_RxInterruptHandler = InterruptHandler;
  2683                           
  2684                           ; BSR set to: 57
  2685                           ;incstack = 0
  2686  002AF4  0060  F12C  F02A   	movff	UART1_SetRxInterruptHandler@InterruptHandler,_UART1_RxInterruptHandler
  2687  002AFA  0060  F130  F02B   	movff	UART1_SetRxInterruptHandler@InterruptHandler+1,_UART1_RxInterruptHandler+1
  2688  002B00  0060  F134  F02C   	movff	UART1_SetRxInterruptHandler@InterruptHandler+2,_UART1_RxInterruptHandler+2
  2689                           
  2690                           ; BSR set to: 57
  2691  002B06  0012               	return		;funcret
  2692  002B08                     __end_of_UART1_SetRxInterruptHandler:
  2693                           	opt callstack 0
  2694                           
  2695 ;; *************** function _TMR6_Initialize *****************
  2696 ;; Defined at:
  2697 ;;		line 67 in file "mcc_generated_files/tmr6.c"
  2698 ;; Parameters:    Size  Location     Type
  2699 ;;		None
  2700 ;; Auto vars:     Size  Location     Type
  2701 ;;		None
  2702 ;; Return value:  Size  Location     Type
  2703 ;;                  1    wreg      void 
  2704 ;; Registers used:
  2705 ;;		wreg, status,2, status,0, cstack
  2706 ;; Tracked objects:
  2707 ;;		On entry : 3F/39
  2708 ;;		On exit  : 3F/39
  2709 ;;		Unchanged: 0/0
  2710 ;; Data sizes:     COMRAM   BANK0   BANK1   BANK2   BANK3   BANK4   BANK5   BANK6   BANK7   BANK8   BANK9  BANK10  BANK1
      +1  BANK12  BANK13  BANK14  BANK15  BANK16  BANK17  BANK18  BANK19  BANK20  BANK21  BANK22  BANK23  BANK24  BANK25  BANK2
      +6  BANK27  BANK28  BANK29  BANK30  BANK31
  2711 ;;      Params:         0       0       0       0       0       0       0       0       0       0       0       0       
      +0       0       0       0       0       0       0       0       0       0       0       0       0       0       0       
      +0       0       0       0       0       0
  2712 ;;      Locals:         0       0       0       0       0       0       0       0       0       0       0       0       
      +0       0       0       0       0       0       0       0       0       0       0       0       0       0       0       
      +0       0       0       0       0       0
  2713 ;;      Temps:          0       0       0       0       0       0       0       0       0       0       0       0       
      +0       0       0       0       0       0       0       0       0       0       0       0       0       0       0       
      +0       0       0       0       0       0
  2714 ;;      Totals:         0       0       0       0       0       0       0       0       0       0       0       0       
      +0       0       0       0       0       0       0       0       0       0       0       0       0       0       0       
      +0       0       0       0       0       0
  2715 ;;Total ram usage:        0 bytes
  2716 ;; Hardware stack levels used:    1
  2717 ;; Hardware stack levels required when called:    4
  2718 ;; This function calls:
  2719 ;;		_TMR6_SetInterruptHandler
  2720 ;; This function is called by:
  2721 ;;		_SYSTEM_Initialize
  2722 ;; This function uses a non-reentrant model
  2723 ;;
  2724                           
  2725                           	psect	text24
  2726  002720                     __ptext24:
  2727                           	opt callstack 0
  2728  002720                     _TMR6_Initialize:
  2729                           	opt callstack 25
  2730                           
  2731                           ; BSR set to: 57
  2732                           ;tmr6.c: 72: T6CLKCON = 0x01;
  2733                           
  2734                           ; BSR set to: 57
  2735                           ;incstack = 0
  2736  002720  0E01               	movlw	1
  2737  002722  6E96               	movwf	16278,c	;volatile
  2738                           
  2739                           ;tmr6.c: 75: T6HLT = 0x00;
  2740  002724  0E00               	movlw	0
  2741  002726  6E95               	movwf	16277,c	;volatile
  2742                           
  2743                           ;tmr6.c: 78: T6RST = 0x00;
  2744  002728  0E00               	movlw	0
  2745  00272A  6E97               	movwf	16279,c	;volatile
  2746                           
  2747                           ;tmr6.c: 81: T6PR = 0x4D;
  2748  00272C  0E4D               	movlw	77
  2749  00272E  6E93               	movwf	16275,c	;volatile
  2750                           
  2751                           ;tmr6.c: 84: T6TMR = 0x00;
  2752  002730  0E00               	movlw	0
  2753  002732  6E92               	movwf	16274,c	;volatile
  2754                           
  2755                           ; BSR set to: 57
  2756                           ;tmr6.c: 87: PIR9bits.TMR6IF = 0;
  2757  002734  91A9               	bcf	169,0,b	;volatile
  2758                           
  2759                           ; BSR set to: 57
  2760                           ;tmr6.c: 90: PIE9bits.TMR6IE = 1;
  2761  002736  8199               	bsf	153,0,b	;volatile
  2762                           
  2763                           ; BSR set to: 57
  2764                           ;tmr6.c: 93: TMR6_SetInterruptHandler(TMR6_DefaultInterruptHandler);
  2765  002738  0E86               	movlw	low _TMR6_DefaultInterruptHandler
  2766  00273A  6E4B               	movwf	TMR6_SetInterruptHandler@InterruptHandler,c
  2767  00273C  0E2A               	movlw	high _TMR6_DefaultInterruptHandler
  2768  00273E  6E4C               	movwf	TMR6_SetInterruptHandler@InterruptHandler+1,c
  2769  002740  0E00               	movlw	low (_TMR6_DefaultInterruptHandler shr (0+16))
  2770  002742  6E4D               	movwf	TMR6_SetInterruptHandler@InterruptHandler+2,c
  2771  002744  EC84  F015         	call	_TMR6_SetInterruptHandler	;wreg free
  2772                           
  2773                           ; BSR set to: 57
  2774                           ;tmr6.c: 96: T6CON = 0xFF;
  2775  002748  6894               	setf	16276,c	;volatile
  2776                           
  2777                           ; BSR set to: 57
  2778  00274A  0012               	return		;funcret
  2779  00274C                     __end_of_TMR6_Initialize:
  2780                           	opt callstack 0
  2781                           
  2782 ;; *************** function _TMR6_SetInterruptHandler *****************
  2783 ;; Defined at:
  2784 ;;		line 196 in file "mcc_generated_files/tmr6.c"
  2785 ;; Parameters:    Size  Location     Type
  2786 ;;  InterruptHan    3    1[COMRAM] PTR FTN()void 
  2787 ;;		 -> TMR6_DefaultInterruptHandler(1), 
  2788 ;; Auto vars:     Size  Location     Type
  2789 ;;		None
  2790 ;; Return value:  Size  Location     Type
  2791 ;;                  1    wreg      void 
  2792 ;; Registers used:
  2793 ;;		wreg, status,2, status,0
  2794 ;; Tracked objects:
  2795 ;;		On entry : 3F/39
  2796 ;;		On exit  : 3F/39
  2797 ;;		Unchanged: 3E/0
  2798 ;; Data sizes:     COMRAM   BANK0   BANK1   BANK2   BANK3   BANK4   BANK5   BANK6   BANK7   BANK8   BANK9  BANK10  BANK1
      +1  BANK12  BANK13  BANK14  BANK15  BANK16  BANK17  BANK18  BANK19  BANK20  BANK21  BANK22  BANK23  BANK24  BANK25  BANK2
      +6  BANK27  BANK28  BANK29  BANK30  BANK31
  2799 ;;      Params:         3       0       0       0       0       0       0       0       0       0       0       0       
      +0       0       0       0       0       0       0       0       0       0       0       0       0       0       0       
      +0       0       0       0       0       0
  2800 ;;      Locals:         0       0       0       0       0       0       0       0       0       0       0       0       
      +0       0       0       0       0       0       0       0       0       0       0       0       0       0       0       
      +0       0       0       0       0       0
  2801 ;;      Temps:          0       0       0       0       0       0       0       0       0       0       0       0       
      +0       0       0       0       0       0       0       0       0       0       0       0       0       0       0       
      +0       0       0       0       0       0
  2802 ;;      Totals:         3       0       0       0       0       0       0       0       0       0       0       0       
      +0       0       0       0       0       0       0       0       0       0       0       0       0       0       0       
      +0       0       0       0       0       0
  2803 ;;Total ram usage:        3 bytes
  2804 ;; Hardware stack levels used:    1
  2805 ;; Hardware stack levels required when called:    3
  2806 ;; This function calls:
  2807 ;;		Nothing
  2808 ;; This function is called by:
  2809 ;;		_TMR6_Initialize
  2810 ;; This function uses a non-reentrant model
  2811 ;;
  2812                           
  2813                           	psect	text25
  2814  002B08                     __ptext25:
  2815                           	opt callstack 0
  2816  002B08                     _TMR6_SetInterruptHandler:
  2817                           	opt callstack 25
  2818                           
  2819                           ; BSR set to: 57
  2820                           ;tmr6.c: 197: TMR6_InterruptHandler = InterruptHandler;
  2821                           
  2822                           ; BSR set to: 57
  2823                           ;incstack = 0
  2824  002B08  0060  F12C  F021   	movff	TMR6_SetInterruptHandler@InterruptHandler,_TMR6_InterruptHandler
  2825  002B0E  0060  F130  F022   	movff	TMR6_SetInterruptHandler@InterruptHandler+1,_TMR6_InterruptHandler+1
  2826  002B14  0060  F134  F023   	movff	TMR6_SetInterruptHandler@InterruptHandler+2,_TMR6_InterruptHandler+2
  2827                           
  2828                           ; BSR set to: 57
  2829  002B1A  0012               	return		;funcret
  2830  002B1C                     __end_of_TMR6_SetInterruptHandler:
  2831                           	opt callstack 0
  2832                           
  2833 ;; *************** function _SPI1_Initialize *****************
  2834 ;; Defined at:
  2835 ;;		line 64 in file "mcc_generated_files/spi1.c"
  2836 ;; Parameters:    Size  Location     Type
  2837 ;;		None
  2838 ;; Auto vars:     Size  Location     Type
  2839 ;;		None
  2840 ;; Return value:  Size  Location     Type
  2841 ;;                  1    wreg      void 
  2842 ;; Registers used:
  2843 ;;		wreg, status,2
  2844 ;; Tracked objects:
  2845 ;;		On entry : 3F/39
  2846 ;;		On exit  : 3F/3D
  2847 ;;		Unchanged: 0/0
  2848 ;; Data sizes:     COMRAM   BANK0   BANK1   BANK2   BANK3   BANK4   BANK5   BANK6   BANK7   BANK8   BANK9  BANK10  BANK1
      +1  BANK12  BANK13  BANK14  BANK15  BANK16  BANK17  BANK18  BANK19  BANK20  BANK21  BANK22  BANK23  BANK24  BANK25  BANK2
      +6  BANK27  BANK28  BANK29  BANK30  BANK31
  2849 ;;      Params:         0       0       0       0       0       0       0       0       0       0       0       0       
      +0       0       0       0       0       0       0       0       0       0       0       0       0       0       0       
      +0       0       0       0       0       0
  2850 ;;      Locals:         0       0       0       0       0       0       0       0       0       0       0       0       
      +0       0       0       0       0       0       0       0       0       0       0       0       0       0       0       
      +0       0       0       0       0       0
  2851 ;;      Temps:          0       0       0       0       0       0       0       0       0       0       0       0       
      +0       0       0       0       0       0       0       0       0       0       0       0       0       0       0       
      +0       0       0       0       0       0
  2852 ;;      Totals:         0       0       0       0       0       0       0       0       0       0       0       0       
      +0       0       0       0       0       0       0       0       0       0       0       0       0       0       0       
      +0       0       0       0       0       0
  2853 ;;Total ram usage:        0 bytes
  2854 ;; Hardware stack levels used:    1
  2855 ;; Hardware stack levels required when called:    3
  2856 ;; This function calls:
  2857 ;;		Nothing
  2858 ;; This function is called by:
  2859 ;;		_SYSTEM_Initialize
  2860 ;; This function uses a non-reentrant model
  2861 ;;
  2862                           
  2863                           	psect	text26
  2864  002AA0                     __ptext26:
  2865                           	opt callstack 0
  2866  002AA0                     _SPI1_Initialize:
  2867                           	opt callstack 26
  2868                           
  2869                           ; BSR set to: 57
  2870                           ;spi1.c: 68: SPI1CON1 = 0x40;
  2871                           
  2872                           ; BSR set to: 57
  2873                           ;incstack = 0
  2874  002AA0  0E40               	movlw	64
  2875  002AA2  013D               	movlb	61	; () banked
  2876  002AA4  6F15               	movwf	21,b	;volatile
  2877                           
  2878                           ;spi1.c: 70: SPI1CON2 = 0x03;
  2879  002AA6  0E03               	movlw	3
  2880  002AA8  6F16               	movwf	22,b	;volatile
  2881                           
  2882                           ;spi1.c: 72: SPI1BAUD = 0x4F;
  2883  002AAA  0E4F               	movlw	79
  2884  002AAC  6F19               	movwf	25,b	;volatile
  2885                           
  2886                           ;spi1.c: 74: SPI1CLK = 0x00;
  2887  002AAE  0E00               	movlw	0
  2888  002AB0  6F1C               	movwf	28,b	;volatile
  2889                           
  2890                           ;spi1.c: 76: SPI1CON0 = 0x83;
  2891  002AB2  0E83               	movlw	131
  2892  002AB4  6F14               	movwf	20,b	;volatile
  2893                           
  2894                           ; BSR set to: 61
  2895  002AB6  0012               	return		;funcret
  2896  002AB8                     __end_of_SPI1_Initialize:
  2897                           	opt callstack 0
  2898                           
  2899 ;; *************** function _PMD_Initialize *****************
  2900 ;; Defined at:
  2901 ;;		line 83 in file "mcc_generated_files/mcc.c"
  2902 ;; Parameters:    Size  Location     Type
  2903 ;;		None
  2904 ;; Auto vars:     Size  Location     Type
  2905 ;;		None
  2906 ;; Return value:  Size  Location     Type
  2907 ;;                  1    wreg      void 
  2908 ;; Registers used:
  2909 ;;		wreg, status,2
  2910 ;; Tracked objects:
  2911 ;;		On entry : 3F/39
  2912 ;;		On exit  : 3F/39
  2913 ;;		Unchanged: 0/0
  2914 ;; Data sizes:     COMRAM   BANK0   BANK1   BANK2   BANK3   BANK4   BANK5   BANK6   BANK7   BANK8   BANK9  BANK10  BANK1
      +1  BANK12  BANK13  BANK14  BANK15  BANK16  BANK17  BANK18  BANK19  BANK20  BANK21  BANK22  BANK23  BANK24  BANK25  BANK2
      +6  BANK27  BANK28  BANK29  BANK30  BANK31
  2915 ;;      Params:         0       0       0       0       0       0       0       0       0       0       0       0       
      +0       0       0       0       0       0       0       0       0       0       0       0       0       0       0       
      +0       0       0       0       0       0
  2916 ;;      Locals:         0       0       0       0       0       0       0       0       0       0       0       0       
      +0       0       0       0       0       0       0       0       0       0       0       0       0       0       0       
      +0       0       0       0       0       0
  2917 ;;      Temps:          0       0       0       0       0       0       0       0       0       0       0       0       
      +0       0       0       0       0       0       0       0       0       0       0       0       0       0       0       
      +0       0       0       0       0       0
  2918 ;;      Totals:         0       0       0       0       0       0       0       0       0       0       0       0       
      +0       0       0       0       0       0       0       0       0       0       0       0       0       0       0       
      +0       0       0       0       0       0
  2919 ;;Total ram usage:        0 bytes
  2920 ;; Hardware stack levels used:    1
  2921 ;; Hardware stack levels required when called:    3
  2922 ;; This function calls:
  2923 ;;		Nothing
  2924 ;; This function is called by:
  2925 ;;		_SYSTEM_Initialize
  2926 ;; This function uses a non-reentrant model
  2927 ;;
  2928                           
  2929                           	psect	text27
  2930  002884                     __ptext27:
  2931                           	opt callstack 0
  2932  002884                     _PMD_Initialize:
  2933                           	opt callstack 26
  2934                           
  2935                           ; BSR set to: 57
  2936                           ;mcc.c: 86: PMD0 = 0x00;
  2937                           
  2938                           ; BSR set to: 61
  2939                           ;incstack = 0
  2940  002884  0E00               	movlw	0
  2941  002886  6FC0               	movwf	192,b	;volatile
  2942                           
  2943                           ;mcc.c: 88: PMD1 = 0x00;
  2944  002888  0E00               	movlw	0
  2945  00288A  6FC1               	movwf	193,b	;volatile
  2946                           
  2947                           ;mcc.c: 90: PMD2 = 0x00;
  2948  00288C  0E00               	movlw	0
  2949  00288E  6FC2               	movwf	194,b	;volatile
  2950                           
  2951                           ;mcc.c: 92: PMD3 = 0x00;
  2952  002890  0E00               	movlw	0
  2953  002892  6FC3               	movwf	195,b	;volatile
  2954                           
  2955                           ;mcc.c: 94: PMD4 = 0x00;
  2956  002894  0E00               	movlw	0
  2957  002896  6FC4               	movwf	196,b	;volatile
  2958                           
  2959                           ;mcc.c: 96: PMD5 = 0x00;
  2960  002898  0E00               	movlw	0
  2961  00289A  6FC5               	movwf	197,b	;volatile
  2962                           
  2963                           ;mcc.c: 98: PMD6 = 0x00;
  2964  00289C  0E00               	movlw	0
  2965  00289E  6FC6               	movwf	198,b	;volatile
  2966                           
  2967                           ;mcc.c: 100: PMD7 = 0x00;
  2968  0028A0  0E00               	movlw	0
  2969  0028A2  6FC7               	movwf	199,b	;volatile
  2970                           
  2971                           ; BSR set to: 57
  2972  0028A4  0012               	return		;funcret
  2973  0028A6                     __end_of_PMD_Initialize:
  2974                           	opt callstack 0
  2975                           
  2976 ;; *************** function _PIN_MANAGER_Initialize *****************
  2977 ;; Defined at:
  2978 ;;		line 57 in file "mcc_generated_files/pin_manager.c"
  2979 ;; Parameters:    Size  Location     Type
  2980 ;;		None
  2981 ;; Auto vars:     Size  Location     Type
  2982 ;;		None
  2983 ;; Return value:  Size  Location     Type
  2984 ;;                  1    wreg      void 
  2985 ;; Registers used:
  2986 ;;		wreg, status,2
  2987 ;; Tracked objects:
  2988 ;;		On entry : 3F/39
  2989 ;;		On exit  : 3F/3A
  2990 ;;		Unchanged: 0/0
  2991 ;; Data sizes:     COMRAM   BANK0   BANK1   BANK2   BANK3   BANK4   BANK5   BANK6   BANK7   BANK8   BANK9  BANK10  BANK1
      +1  BANK12  BANK13  BANK14  BANK15  BANK16  BANK17  BANK18  BANK19  BANK20  BANK21  BANK22  BANK23  BANK24  BANK25  BANK2
      +6  BANK27  BANK28  BANK29  BANK30  BANK31
  2992 ;;      Params:         0       0       0       0       0       0       0       0       0       0       0       0       
      +0       0       0       0       0       0       0       0       0       0       0       0       0       0       0       
      +0       0       0       0       0       0
  2993 ;;      Locals:         0       0       0       0       0       0       0       0       0       0       0       0       
      +0       0       0       0       0       0       0       0       0       0       0       0       0       0       0       
      +0       0       0       0       0       0
  2994 ;;      Temps:          0       0       0       0       0       0       0       0       0       0       0       0       
      +0       0       0       0       0       0       0       0       0       0       0       0       0       0       0       
      +0       0       0       0       0       0
  2995 ;;      Totals:         0       0       0       0       0       0       0       0       0       0       0       0       
      +0       0       0       0       0       0       0       0       0       0       0       0       0       0       0       
      +0       0       0       0       0       0
  2996 ;;Total ram usage:        0 bytes
  2997 ;; Hardware stack levels used:    1
  2998 ;; Hardware stack levels required when called:    3
  2999 ;; This function calls:
  3000 ;;		Nothing
  3001 ;; This function is called by:
  3002 ;;		_SYSTEM_Initialize
  3003 ;; This function uses a non-reentrant model
  3004 ;;
  3005                           
  3006                           	psect	text28
  3007  002206                     __ptext28:
  3008                           	opt callstack 0
  3009  002206                     _PIN_MANAGER_Initialize:
  3010                           	opt callstack 26
  3011                           
  3012                           ; BSR set to: 57
  3013                           ;pin_manager.c: 62: LATE = 0x07;
  3014                           
  3015                           ; BSR set to: 57
  3016                           ;incstack = 0
  3017  002206  0E07               	movlw	7
  3018  002208  6EBE               	movwf	16318,c	;volatile
  3019                           
  3020                           ;pin_manager.c: 63: LATD = 0x00;
  3021  00220A  0E00               	movlw	0
  3022  00220C  6EBD               	movwf	16317,c	;volatile
  3023                           
  3024                           ;pin_manager.c: 64: LATA = 0x00;
  3025  00220E  0E00               	movlw	0
  3026  002210  6EBA               	movwf	16314,c	;volatile
  3027                           
  3028                           ;pin_manager.c: 65: LATF = 0x00;
  3029  002212  0E00               	movlw	0
  3030  002214  6EBF               	movwf	16319,c	;volatile
  3031                           
  3032                           ;pin_manager.c: 66: LATB = 0x00;
  3033  002216  0E00               	movlw	0
  3034  002218  6EBB               	movwf	16315,c	;volatile
  3035                           
  3036                           ;pin_manager.c: 67: LATC = 0x06;
  3037  00221A  0E06               	movlw	6
  3038  00221C  6EBC               	movwf	16316,c	;volatile
  3039                           
  3040                           ;pin_manager.c: 72: TRISE = 0x00;
  3041  00221E  0E00               	movlw	0
  3042  002220  6EC6               	movwf	16326,c	;volatile
  3043                           
  3044                           ; BSR set to: 57
  3045                           ;pin_manager.c: 73: TRISF = 0xFF;
  3046  002222  68C7               	setf	16327,c	;volatile
  3047                           
  3048                           ; BSR set to: 57
  3049                           ;pin_manager.c: 74: TRISA = 0xFF;
  3050  002224  68C2               	setf	16322,c	;volatile
  3051                           
  3052                           ;pin_manager.c: 75: TRISB = 0xBF;
  3053  002226  0EBF               	movlw	191
  3054  002228  6EC3               	movwf	16323,c	;volatile
  3055                           
  3056                           ;pin_manager.c: 76: TRISC = 0x91;
  3057  00222A  0E91               	movlw	145
  3058  00222C  6EC4               	movwf	16324,c	;volatile
  3059                           
  3060                           ; BSR set to: 57
  3061                           ;pin_manager.c: 77: TRISD = 0xFF;
  3062  00222E  68C5               	setf	16325,c	;volatile
  3063                           
  3064                           ; BSR set to: 57
  3065                           ;pin_manager.c: 82: ANSELD = 0xFF;
  3066  002230  013A               	movlb	58	; () banked
  3067  002232  6970               	setf	112,b	;volatile
  3068                           
  3069                           ;pin_manager.c: 83: ANSELC = 0x01;
  3070  002234  0E01               	movlw	1
  3071  002236  6F60               	movwf	96,b	;volatile
  3072                           
  3073                           ;pin_manager.c: 84: ANSELB = 0x38;
  3074  002238  0E38               	movlw	56
  3075  00223A  6F50               	movwf	80,b	;volatile
  3076                           
  3077                           ;pin_manager.c: 85: ANSELE = 0x00;
  3078  00223C  0E00               	movlw	0
  3079  00223E  6F80               	movwf	128,b	;volatile
  3080                           
  3081                           ; BSR set to: 58
  3082                           ;pin_manager.c: 86: ANSELF = 0xFF;
  3083  002240  6990               	setf	144,b	;volatile
  3084                           
  3085                           ; BSR set to: 58
  3086                           ;pin_manager.c: 87: ANSELA = 0xFF;
  3087  002242  6940               	setf	64,b	;volatile
  3088                           
  3089                           ;pin_manager.c: 92: WPUD = 0x00;
  3090  002244  0E00               	movlw	0
  3091  002246  6F71               	movwf	113,b	;volatile
  3092                           
  3093                           ;pin_manager.c: 93: WPUF = 0x00;
  3094  002248  0E00               	movlw	0
  3095  00224A  6F91               	movwf	145,b	;volatile
  3096                           
  3097                           ;pin_manager.c: 94: WPUE = 0x00;
  3098  00224C  0E00               	movlw	0
  3099  00224E  6F81               	movwf	129,b	;volatile
  3100                           
  3101                           ;pin_manager.c: 95: WPUB = 0x00;
  3102  002250  0E00               	movlw	0
  3103  002252  6F51               	movwf	81,b	;volatile
  3104                           
  3105                           ;pin_manager.c: 96: WPUA = 0x00;
  3106  002254  0E00               	movlw	0
  3107  002256  6F41               	movwf	65,b	;volatile
  3108                           
  3109                           ;pin_manager.c: 97: WPUC = 0x00;
  3110  002258  0E00               	movlw	0
  3111  00225A  6F61               	movwf	97,b	;volatile
  3112                           
  3113                           ;pin_manager.c: 102: ODCONE = 0x00;
  3114  00225C  0E00               	movlw	0
  3115  00225E  6F82               	movwf	130,b	;volatile
  3116                           
  3117                           ;pin_manager.c: 103: ODCONF = 0x00;
  3118  002260  0E00               	movlw	0
  3119  002262  6F92               	movwf	146,b	;volatile
  3120                           
  3121                           ;pin_manager.c: 104: ODCONA = 0x00;
  3122  002264  0E00               	movlw	0
  3123  002266  6F42               	movwf	66,b	;volatile
  3124                           
  3125                           ;pin_manager.c: 105: ODCONB = 0x00;
  3126  002268  0E00               	movlw	0
  3127  00226A  6F52               	movwf	82,b	;volatile
  3128                           
  3129                           ;pin_manager.c: 106: ODCONC = 0x00;
  3130  00226C  0E00               	movlw	0
  3131  00226E  6F62               	movwf	98,b	;volatile
  3132                           
  3133                           ;pin_manager.c: 107: ODCOND = 0x00;
  3134  002270  0E00               	movlw	0
  3135  002272  6F72               	movwf	114,b	;volatile
  3136                           
  3137                           ; BSR set to: 58
  3138                           ;pin_manager.c: 112: SLRCONA = 0xFF;
  3139  002274  6943               	setf	67,b	;volatile
  3140                           
  3141                           ; BSR set to: 58
  3142                           ;pin_manager.c: 113: SLRCONB = 0xFF;
  3143  002276  6953               	setf	83,b	;volatile
  3144                           
  3145                           ; BSR set to: 58
  3146                           ;pin_manager.c: 114: SLRCONC = 0xFF;
  3147  002278  6963               	setf	99,b	;volatile
  3148                           
  3149                           ; BSR set to: 58
  3150                           ;pin_manager.c: 115: SLRCOND = 0xFF;
  3151  00227A  6973               	setf	115,b	;volatile
  3152                           
  3153                           ;pin_manager.c: 116: SLRCONE = 0x07;
  3154  00227C  0E07               	movlw	7
  3155  00227E  6F83               	movwf	131,b	;volatile
  3156                           
  3157                           ; BSR set to: 58
  3158                           ;pin_manager.c: 117: SLRCONF = 0xFF;
  3159  002280  6993               	setf	147,b	;volatile
  3160                           
  3161                           ;pin_manager.c: 126: U2RXPPS = 0x0F;
  3162  002282  0E0F               	movlw	15
  3163  002284  6FE8               	movwf	232,b	;volatile
  3164                           
  3165                           ;pin_manager.c: 127: SPI1SCKPPS = 0x13;
  3166  002286  0E13               	movlw	19
  3167  002288  6FDE               	movwf	222,b	;volatile
  3168                           
  3169                           ;pin_manager.c: 128: RB6PPS = 0x16;
  3170  00228A  0E16               	movlw	22
  3171  00228C  6F0E               	movwf	14,b	;volatile
  3172                           
  3173                           ;pin_manager.c: 129: RC3PPS = 0x1E;
  3174  00228E  0E1E               	movlw	30
  3175  002290  6F13               	movwf	19,b	;volatile
  3176                           
  3177                           ;pin_manager.c: 130: INT0PPS = 0x08;
  3178  002292  0E08               	movlw	8
  3179  002294  6FC0               	movwf	192,b	;volatile
  3180                           
  3181                           ;pin_manager.c: 131: INT2PPS = 0x0A;
  3182  002296  0E0A               	movlw	10
  3183  002298  6FC2               	movwf	194,b	;volatile
  3184                           
  3185                           ;pin_manager.c: 132: INT1PPS = 0x09;
  3186  00229A  0E09               	movlw	9
  3187  00229C  6FC1               	movwf	193,b	;volatile
  3188                           
  3189                           ;pin_manager.c: 133: RC5PPS = 0x1F;
  3190  00229E  0E1F               	movlw	31
  3191  0022A0  6F15               	movwf	21,b	;volatile
  3192                           
  3193                           ;pin_manager.c: 134: RC6PPS = 0x13;
  3194  0022A2  0E13               	movlw	19
  3195  0022A4  6F16               	movwf	22,b	;volatile
  3196                           
  3197                           ;pin_manager.c: 135: U1RXPPS = 0x17;
  3198  0022A6  0E17               	movlw	23
  3199  0022A8  6FE5               	movwf	229,b	;volatile
  3200                           
  3201                           ;pin_manager.c: 136: SPI1SDIPPS = 0x14;
  3202  0022AA  0E14               	movlw	20
  3203  0022AC  6FDF               	movwf	223,b	;volatile
  3204                           
  3205                           ; BSR set to: 58
  3206  0022AE  0012               	return		;funcret
  3207  0022B0                     __end_of_PIN_MANAGER_Initialize:
  3208                           	opt callstack 0
  3209                           
  3210 ;; *************** function _OSCILLATOR_Initialize *****************
  3211 ;; Defined at:
  3212 ;;		line 65 in file "mcc_generated_files/mcc.c"
  3213 ;; Parameters:    Size  Location     Type
  3214 ;;		None
  3215 ;; Auto vars:     Size  Location     Type
  3216 ;;		None
  3217 ;; Return value:  Size  Location     Type
  3218 ;;                  1    wreg      void 
  3219 ;; Registers used:
  3220 ;;		wreg, status,2
  3221 ;; Tracked objects:
  3222 ;;		On entry : 3F/3A
  3223 ;;		On exit  : 3F/39
  3224 ;;		Unchanged: 0/0
  3225 ;; Data sizes:     COMRAM   BANK0   BANK1   BANK2   BANK3   BANK4   BANK5   BANK6   BANK7   BANK8   BANK9  BANK10  BANK1
      +1  BANK12  BANK13  BANK14  BANK15  BANK16  BANK17  BANK18  BANK19  BANK20  BANK21  BANK22  BANK23  BANK24  BANK25  BANK2
      +6  BANK27  BANK28  BANK29  BANK30  BANK31
  3226 ;;      Params:         0       0       0       0       0       0       0       0       0       0       0       0       
      +0       0       0       0       0       0       0       0       0       0       0       0       0       0       0       
      +0       0       0       0       0       0
  3227 ;;      Locals:         0       0       0       0       0       0       0       0       0       0       0       0       
      +0       0       0       0       0       0       0       0       0       0       0       0       0       0       0       
      +0       0       0       0       0       0
  3228 ;;      Temps:          0       0       0       0       0       0       0       0       0       0       0       0       
      +0       0       0       0       0       0       0       0       0       0       0       0       0       0       0       
      +0       0       0       0       0       0
  3229 ;;      Totals:         0       0       0       0       0       0       0       0       0       0       0       0       
      +0       0       0       0       0       0       0       0       0       0       0       0       0       0       0       
      +0       0       0       0       0       0
  3230 ;;Total ram usage:        0 bytes
  3231 ;; Hardware stack levels used:    1
  3232 ;; Hardware stack levels required when called:    3
  3233 ;; This function calls:
  3234 ;;		Nothing
  3235 ;; This function is called by:
  3236 ;;		_SYSTEM_Initialize
  3237 ;; This function uses a non-reentrant model
  3238 ;;
  3239                           
  3240                           	psect	text29
  3241  002A1C                     __ptext29:
  3242                           	opt callstack 0
  3243  002A1C                     _OSCILLATOR_Initialize:
  3244                           	opt callstack 26
  3245                           
  3246                           ; BSR set to: 58
  3247                           ;mcc.c: 68: OSCCON1 = 0x20;
  3248                           
  3249                           ; BSR set to: 58
  3250                           ;incstack = 0
  3251  002A1C  0E20               	movlw	32
  3252  002A1E  0139               	movlb	57	; () banked
  3253  002A20  6FD9               	movwf	217,b	;volatile
  3254                           
  3255                           ;mcc.c: 70: OSCCON3 = 0x00;
  3256  002A22  0E00               	movlw	0
  3257  002A24  6FDB               	movwf	219,b	;volatile
  3258                           
  3259                           ;mcc.c: 72: OSCEN = 0x00;
  3260  002A26  0E00               	movlw	0
  3261  002A28  6FDD               	movwf	221,b	;volatile
  3262                           
  3263                           ;mcc.c: 74: OSCFRQ = 0x02;
  3264  002A2A  0E02               	movlw	2
  3265  002A2C  6FDF               	movwf	223,b	;volatile
  3266                           
  3267                           ;mcc.c: 76: OSCTUNE = 0x00;
  3268  002A2E  0E00               	movlw	0
  3269  002A30  6FDE               	movwf	222,b	;volatile
  3270  002A32                     l182:
  3271                           
  3272                           ; BSR set to: 57
  3273  002A32  B1DC               	btfsc	220,0,b	;volatile
  3274  002A34  0012               	return	
  3275  002A36  D7FD               	goto	l182
  3276  002A38                     __end_of_OSCILLATOR_Initialize:
  3277                           	opt callstack 0
  3278                           
  3279 ;; *************** function _INTERRUPT_Initialize *****************
  3280 ;; Defined at:
  3281 ;;		line 52 in file "mcc_generated_files/interrupt_manager.c"
  3282 ;; Parameters:    Size  Location     Type
  3283 ;;		None
  3284 ;; Auto vars:     Size  Location     Type
  3285 ;;  state           1    1[COMRAM] unsigned char 
  3286 ;; Return value:  Size  Location     Type
  3287 ;;                  1    wreg      void 
  3288 ;; Registers used:
  3289 ;;		wreg, status,2
  3290 ;; Tracked objects:
  3291 ;;		On entry : 0/0
  3292 ;;		On exit  : 3F/39
  3293 ;;		Unchanged: 0/0
  3294 ;; Data sizes:     COMRAM   BANK0   BANK1   BANK2   BANK3   BANK4   BANK5   BANK6   BANK7   BANK8   BANK9  BANK10  BANK1
      +1  BANK12  BANK13  BANK14  BANK15  BANK16  BANK17  BANK18  BANK19  BANK20  BANK21  BANK22  BANK23  BANK24  BANK25  BANK2
      +6  BANK27  BANK28  BANK29  BANK30  BANK31
  3295 ;;      Params:         0       0       0       0       0       0       0       0       0       0       0       0       
      +0       0       0       0       0       0       0       0       0       0       0       0       0       0       0       
      +0       0       0       0       0       0
  3296 ;;      Locals:         1       0       0       0       0       0       0       0       0       0       0       0       
      +0       0       0       0       0       0       0       0       0       0       0       0       0       0       0       
      +0       0       0       0       0       0
  3297 ;;      Temps:          0       0       0       0       0       0       0       0       0       0       0       0       
      +0       0       0       0       0       0       0       0       0       0       0       0       0       0       0       
      +0       0       0       0       0       0
  3298 ;;      Totals:         1       0       0       0       0       0       0       0       0       0       0       0       
      +0       0       0       0       0       0       0       0       0       0       0       0       0       0       0       
      +0       0       0       0       0       0
  3299 ;;Total ram usage:        1 bytes
  3300 ;; Hardware stack levels used:    1
  3301 ;; Hardware stack levels required when called:    3
  3302 ;; This function calls:
  3303 ;;		Nothing
  3304 ;; This function is called by:
  3305 ;;		_SYSTEM_Initialize
  3306 ;; This function uses a non-reentrant model
  3307 ;;
  3308                           
  3309                           	psect	text30
  3310  002568                     __ptext30:
  3311                           	opt callstack 0
  3312  002568                     _INTERRUPT_Initialize:
  3313                           	opt callstack 26
  3314                           
  3315                           ;interrupt_manager.c: 54: INTCON0bits.IPEN = 1;
  3316                           
  3317                           ; BSR set to: 57
  3318                           ;incstack = 0
  3319  002568  8AD2               	bsf	16338,5,c	;volatile
  3320                           
  3321                           ;interrupt_manager.c: 56: bool state = (unsigned char)GIE;
  3322  00256A  0E00               	movlw	0
  3323  00256C  BED2               	btfsc	16338,7,c	;volatile
  3324  00256E  0E01               	movlw	1
  3325  002570  6E4B               	movwf	INTERRUPT_Initialize@state,c
  3326                           
  3327                           ;interrupt_manager.c: 57: GIE = 0;
  3328  002572  9ED2               	bcf	16338,7,c	;volatile
  3329                           
  3330                           ;interrupt_manager.c: 58: IVTLOCK = 0x55;
  3331  002574  0E55               	movlw	85
  3332  002576  6ED4               	movwf	16340,c	;volatile
  3333                           
  3334                           ;interrupt_manager.c: 59: IVTLOCK = 0xAA;
  3335  002578  0EAA               	movlw	170
  3336  00257A  6ED4               	movwf	16340,c	;volatile
  3337                           
  3338                           ;interrupt_manager.c: 60: IVTLOCKbits.IVTLOCKED = 0x00;
  3339  00257C  90D4               	bcf	16340,0,c	;volatile
  3340                           
  3341                           ;interrupt_manager.c: 62: IVTADU = 0;
  3342  00257E  0E00               	movlw	0
  3343  002580  0138               	movlb	56	; () banked
  3344  002582  6F9F               	movwf	159,b	;volatile
  3345                           
  3346                           ;interrupt_manager.c: 63: IVTADH = 0;
  3347  002584  0E00               	movlw	0
  3348  002586  6F9E               	movwf	158,b	;volatile
  3349                           
  3350                           ;interrupt_manager.c: 64: IVTADL = 8;
  3351  002588  0E08               	movlw	8
  3352  00258A  6F9D               	movwf	157,b	;volatile
  3353                           
  3354                           ;interrupt_manager.c: 66: IVTLOCK = 0x55;
  3355  00258C  0E55               	movlw	85
  3356  00258E  6ED4               	movwf	16340,c	;volatile
  3357                           
  3358                           ;interrupt_manager.c: 67: IVTLOCK = 0xAA;
  3359  002590  0EAA               	movlw	170
  3360  002592  6ED4               	movwf	16340,c	;volatile
  3361                           
  3362                           ; BSR set to: 56
  3363                           ;interrupt_manager.c: 68: IVTLOCKbits.IVTLOCKED = 0x01;
  3364  002594  80D4               	bsf	16340,0,c	;volatile
  3365                           
  3366                           ; BSR set to: 56
  3367                           ;interrupt_manager.c: 70: GIE = state;
  3368  002596  A04B               	btfss	INTERRUPT_Initialize@state,0,c
  3369  002598  D002               	goto	u50
  3370  00259A  8ED2               	bsf	16338,7,c	;volatile
  3371  00259C  D001               	goto	u65
  3372  00259E                     u50:
  3373  00259E  9ED2               	bcf	16338,7,c	;volatile
  3374  0025A0                     u65:
  3375                           
  3376                           ;interrupt_manager.c: 72: IPR2bits.DMA1AIP = 1;
  3377  0025A0  0139               	movlb	57	; () banked
  3378  0025A2  8782               	bsf	130,3,b	;volatile
  3379                           
  3380                           ; BSR set to: 57
  3381                           ;interrupt_manager.c: 73: IPR2bits.DMA1DCNTIP = 1;
  3382  0025A4  8382               	bsf	130,1,b	;volatile
  3383                           
  3384                           ; BSR set to: 57
  3385                           ;interrupt_manager.c: 74: IPR2bits.DMA1SCNTIP = 1;
  3386  0025A6  8182               	bsf	130,0,b	;volatile
  3387                           
  3388                           ; BSR set to: 57
  3389                           ;interrupt_manager.c: 75: IPR2bits.DMA1ORIP = 1;
  3390  0025A8  8582               	bsf	130,2,b	;volatile
  3391                           
  3392                           ; BSR set to: 57
  3393                           ;interrupt_manager.c: 76: IPR6bits.U2TXIP = 1;
  3394  0025AA  8786               	bsf	134,3,b	;volatile
  3395                           
  3396                           ; BSR set to: 57
  3397                           ;interrupt_manager.c: 77: IPR6bits.U2RXIP = 1;
  3398  0025AC  8586               	bsf	134,2,b	;volatile
  3399                           
  3400                           ; BSR set to: 57
  3401                           ;interrupt_manager.c: 78: IPR3bits.U1TXIP = 1;
  3402  0025AE  8983               	bsf	131,4,b	;volatile
  3403                           
  3404                           ; BSR set to: 57
  3405                           ;interrupt_manager.c: 79: IPR3bits.U1RXIP = 1;
  3406  0025B0  8783               	bsf	131,3,b	;volatile
  3407                           
  3408                           ; BSR set to: 57
  3409                           ;interrupt_manager.c: 80: IPR1bits.INT0IP = 1;
  3410  0025B2  8181               	bsf	129,0,b	;volatile
  3411                           
  3412                           ; BSR set to: 57
  3413                           ;interrupt_manager.c: 81: IPR5bits.INT1IP = 1;
  3414  0025B4  8185               	bsf	133,0,b	;volatile
  3415                           
  3416                           ; BSR set to: 57
  3417                           ;interrupt_manager.c: 82: IPR7bits.INT2IP = 1;
  3418  0025B6  8B87               	bsf	135,5,b	;volatile
  3419                           
  3420                           ; BSR set to: 57
  3421                           ;interrupt_manager.c: 83: IPR9bits.TMR6IP = 1;
  3422  0025B8  8189               	bsf	137,0,b	;volatile
  3423                           
  3424                           ; BSR set to: 57
  3425                           ;interrupt_manager.c: 84: IPR1bits.ADIP = 1;
  3426  0025BA  8581               	bsf	129,2,b	;volatile
  3427                           
  3428                           ; BSR set to: 57
  3429  0025BC  0012               	return		;funcret
  3430  0025BE                     __end_of_INTERRUPT_Initialize:
  3431                           	opt callstack 0
  3432                           
  3433 ;; *************** function _EXT_INT_Initialize *****************
  3434 ;; Defined at:
  3435 ;;		line 114 in file "mcc_generated_files/ext_int.c"
  3436 ;; Parameters:    Size  Location     Type
  3437 ;;		None
  3438 ;; Auto vars:     Size  Location     Type
  3439 ;;		None
  3440 ;; Return value:  Size  Location     Type
  3441 ;;                  1    wreg      void 
  3442 ;; Registers used:
  3443 ;;		wreg, status,2, status,0, cstack
  3444 ;; Tracked objects:
  3445 ;;		On entry : 3F/39
  3446 ;;		On exit  : 3F/39
  3447 ;;		Unchanged: 0/0
  3448 ;; Data sizes:     COMRAM   BANK0   BANK1   BANK2   BANK3   BANK4   BANK5   BANK6   BANK7   BANK8   BANK9  BANK10  BANK1
      +1  BANK12  BANK13  BANK14  BANK15  BANK16  BANK17  BANK18  BANK19  BANK20  BANK21  BANK22  BANK23  BANK24  BANK25  BANK2
      +6  BANK27  BANK28  BANK29  BANK30  BANK31
  3449 ;;      Params:         0       0       0       0       0       0       0       0       0       0       0       0       
      +0       0       0       0       0       0       0       0       0       0       0       0       0       0       0       
      +0       0       0       0       0       0
  3450 ;;      Locals:         0       0       0       0       0       0       0       0       0       0       0       0       
      +0       0       0       0       0       0       0       0       0       0       0       0       0       0       0       
      +0       0       0       0       0       0
  3451 ;;      Temps:          0       0       0       0       0       0       0       0       0       0       0       0       
      +0       0       0       0       0       0       0       0       0       0       0       0       0       0       0       
      +0       0       0       0       0       0
  3452 ;;      Totals:         0       0       0       0       0       0       0       0       0       0       0       0       
      +0       0       0       0       0       0       0       0       0       0       0       0       0       0       0       
      +0       0       0       0       0       0
  3453 ;;Total ram usage:        0 bytes
  3454 ;; Hardware stack levels used:    1
  3455 ;; Hardware stack levels required when called:    4
  3456 ;; This function calls:
  3457 ;;		_INT0_SetInterruptHandler
  3458 ;;		_INT1_SetInterruptHandler
  3459 ;;		_INT2_SetInterruptHandler
  3460 ;; This function is called by:
  3461 ;;		_SYSTEM_Initialize
  3462 ;; This function uses a non-reentrant model
  3463 ;;
  3464                           
  3465                           	psect	text31
  3466  002610                     __ptext31:
  3467                           	opt callstack 0
  3468  002610                     _EXT_INT_Initialize:
  3469                           	opt callstack 25
  3470                           
  3471                           ; BSR set to: 57
  3472                           ;ext_int.c: 119: (PIR1bits.INT0IF = 0);
  3473                           
  3474                           ; BSR set to: 57
  3475                           ;incstack = 0
  3476  002610  91A1               	bcf	161,0,b	;volatile
  3477                           
  3478                           ;ext_int.c: 120: (INTCON0bits.INT0EDG = 0);
  3479  002612  90D2               	bcf	16338,0,c	;volatile
  3480                           
  3481                           ; BSR set to: 57
  3482                           ;ext_int.c: 122: INT0_SetInterruptHandler(INT0_DefaultInterruptHandler);
  3483  002614  0EBA               	movlw	low _INT0_DefaultInterruptHandler
  3484  002616  6E4B               	movwf	INT0_SetInterruptHandler@InterruptHandler,c
  3485  002618  0E2B               	movlw	high _INT0_DefaultInterruptHandler
  3486  00261A  6E4C               	movwf	INT0_SetInterruptHandler@InterruptHandler+1,c
  3487  00261C  0E00               	movlw	low (_INT0_DefaultInterruptHandler shr (0+16))
  3488  00261E  6E4D               	movwf	INT0_SetInterruptHandler@InterruptHandler+2,c
  3489  002620  ECA2  F015         	call	_INT0_SetInterruptHandler	;wreg free
  3490                           
  3491                           ; BSR set to: 57
  3492                           ;ext_int.c: 123: (PIE1bits.INT0IE = 1);
  3493  002624  8191               	bsf	145,0,b	;volatile
  3494                           
  3495                           ; BSR set to: 57
  3496                           ;ext_int.c: 128: (PIR5bits.INT1IF = 0);
  3497  002626  91A5               	bcf	165,0,b	;volatile
  3498                           
  3499                           ; BSR set to: 57
  3500                           ;ext_int.c: 129: (INTCON0bits.INT1EDG = 0);
  3501  002628  92D2               	bcf	16338,1,c	;volatile
  3502                           
  3503                           ;ext_int.c: 131: INT1_SetInterruptHandler(INT1_DefaultInterruptHandler);
  3504  00262A  0EBC               	movlw	low _INT1_DefaultInterruptHandler
  3505  00262C  6E4B               	movwf	INT1_SetInterruptHandler@InterruptHandler,c
  3506  00262E  0E2B               	movlw	high _INT1_DefaultInterruptHandler
  3507  002630  6E4C               	movwf	INT1_SetInterruptHandler@InterruptHandler+1,c
  3508  002632  0E00               	movlw	low (_INT1_DefaultInterruptHandler shr (0+16))
  3509  002634  6E4D               	movwf	INT1_SetInterruptHandler@InterruptHandler+2,c
  3510  002636  EC98  F015         	call	_INT1_SetInterruptHandler	;wreg free
  3511                           
  3512                           ; BSR set to: 57
  3513                           ;ext_int.c: 132: (PIE5bits.INT1IE = 1);
  3514  00263A  8195               	bsf	149,0,b	;volatile
  3515                           
  3516                           ; BSR set to: 57
  3517                           ;ext_int.c: 137: (PIR7bits.INT2IF = 0);
  3518  00263C  9BA7               	bcf	167,5,b	;volatile
  3519                           
  3520                           ; BSR set to: 57
  3521                           ;ext_int.c: 138: (INTCON0bits.INT2EDG = 0);
  3522  00263E  94D2               	bcf	16338,2,c	;volatile
  3523                           
  3524                           ;ext_int.c: 140: INT2_SetInterruptHandler(INT2_DefaultInterruptHandler);
  3525  002640  0EBE               	movlw	low _INT2_DefaultInterruptHandler
  3526  002642  6E4B               	movwf	INT2_SetInterruptHandler@InterruptHandler,c
  3527  002644  0E2B               	movlw	high _INT2_DefaultInterruptHandler
  3528  002646  6E4C               	movwf	INT2_SetInterruptHandler@InterruptHandler+1,c
  3529  002648  0E00               	movlw	low (_INT2_DefaultInterruptHandler shr (0+16))
  3530  00264A  6E4D               	movwf	INT2_SetInterruptHandler@InterruptHandler+2,c
  3531  00264C  EC8E  F015         	call	_INT2_SetInterruptHandler	;wreg free
  3532                           
  3533                           ; BSR set to: 57
  3534                           ;ext_int.c: 141: (PIE7bits.INT2IE = 1);
  3535  002650  8B97               	bsf	151,5,b	;volatile
  3536                           
  3537                           ; BSR set to: 57
  3538  002652  0012               	return		;funcret
  3539  002654                     __end_of_EXT_INT_Initialize:
  3540                           	opt callstack 0
  3541                           
  3542 ;; *************** function _INT2_SetInterruptHandler *****************
  3543 ;; Defined at:
  3544 ;;		line 105 in file "mcc_generated_files/ext_int.c"
  3545 ;; Parameters:    Size  Location     Type
  3546 ;;  InterruptHan    3    1[COMRAM] PTR FTN()void 
  3547 ;;		 -> INT2_DefaultInterruptHandler(1), 
  3548 ;; Auto vars:     Size  Location     Type
  3549 ;;		None
  3550 ;; Return value:  Size  Location     Type
  3551 ;;                  1    wreg      void 
  3552 ;; Registers used:
  3553 ;;		wreg, status,2, status,0
  3554 ;; Tracked objects:
  3555 ;;		On entry : 3F/39
  3556 ;;		On exit  : 3F/39
  3557 ;;		Unchanged: 3E/0
  3558 ;; Data sizes:     COMRAM   BANK0   BANK1   BANK2   BANK3   BANK4   BANK5   BANK6   BANK7   BANK8   BANK9  BANK10  BANK1
      +1  BANK12  BANK13  BANK14  BANK15  BANK16  BANK17  BANK18  BANK19  BANK20  BANK21  BANK22  BANK23  BANK24  BANK25  BANK2
      +6  BANK27  BANK28  BANK29  BANK30  BANK31
  3559 ;;      Params:         3       0       0       0       0       0       0       0       0       0       0       0       
      +0       0       0       0       0       0       0       0       0       0       0       0       0       0       0       
      +0       0       0       0       0       0
  3560 ;;      Locals:         0       0       0       0       0       0       0       0       0       0       0       0       
      +0       0       0       0       0       0       0       0       0       0       0       0       0       0       0       
      +0       0       0       0       0       0
  3561 ;;      Temps:          0       0       0       0       0       0       0       0       0       0       0       0       
      +0       0       0       0       0       0       0       0       0       0       0       0       0       0       0       
      +0       0       0       0       0       0
  3562 ;;      Totals:         3       0       0       0       0       0       0       0       0       0       0       0       
      +0       0       0       0       0       0       0       0       0       0       0       0       0       0       0       
      +0       0       0       0       0       0
  3563 ;;Total ram usage:        3 bytes
  3564 ;; Hardware stack levels used:    1
  3565 ;; Hardware stack levels required when called:    3
  3566 ;; This function calls:
  3567 ;;		Nothing
  3568 ;; This function is called by:
  3569 ;;		_EXT_INT_Initialize
  3570 ;; This function uses a non-reentrant model
  3571 ;;
  3572                           
  3573                           	psect	text32
  3574  002B1C                     __ptext32:
  3575                           	opt callstack 0
  3576  002B1C                     _INT2_SetInterruptHandler:
  3577                           	opt callstack 25
  3578                           
  3579                           ; BSR set to: 57
  3580                           ;ext_int.c: 106: INT2_InterruptHandler = InterruptHandler;
  3581                           
  3582                           ; BSR set to: 57
  3583                           ;incstack = 0
  3584  002B1C  0060  F12C  F033   	movff	INT2_SetInterruptHandler@InterruptHandler,_INT2_InterruptHandler
  3585  002B22  0060  F130  F034   	movff	INT2_SetInterruptHandler@InterruptHandler+1,_INT2_InterruptHandler+1
  3586  002B28  0060  F134  F035   	movff	INT2_SetInterruptHandler@InterruptHandler+2,_INT2_InterruptHandler+2
  3587                           
  3588                           ; BSR set to: 57
  3589  002B2E  0012               	return		;funcret
  3590  002B30                     __end_of_INT2_SetInterruptHandler:
  3591                           	opt callstack 0
  3592                           
  3593 ;; *************** function _INT1_SetInterruptHandler *****************
  3594 ;; Defined at:
  3595 ;;		line 79 in file "mcc_generated_files/ext_int.c"
  3596 ;; Parameters:    Size  Location     Type
  3597 ;;  InterruptHan    3    1[COMRAM] PTR FTN()void 
  3598 ;;		 -> INT1_DefaultInterruptHandler(1), 
  3599 ;; Auto vars:     Size  Location     Type
  3600 ;;		None
  3601 ;; Return value:  Size  Location     Type
  3602 ;;                  1    wreg      void 
  3603 ;; Registers used:
  3604 ;;		wreg, status,2, status,0
  3605 ;; Tracked objects:
  3606 ;;		On entry : 3F/39
  3607 ;;		On exit  : 3F/39
  3608 ;;		Unchanged: 3E/0
  3609 ;; Data sizes:     COMRAM   BANK0   BANK1   BANK2   BANK3   BANK4   BANK5   BANK6   BANK7   BANK8   BANK9  BANK10  BANK1
      +1  BANK12  BANK13  BANK14  BANK15  BANK16  BANK17  BANK18  BANK19  BANK20  BANK21  BANK22  BANK23  BANK24  BANK25  BANK2
      +6  BANK27  BANK28  BANK29  BANK30  BANK31
  3610 ;;      Params:         3       0       0       0       0       0       0       0       0       0       0       0       
      +0       0       0       0       0       0       0       0       0       0       0       0       0       0       0       
      +0       0       0       0       0       0
  3611 ;;      Locals:         0       0       0       0       0       0       0       0       0       0       0       0       
      +0       0       0       0       0       0       0       0       0       0       0       0       0       0       0       
      +0       0       0       0       0       0
  3612 ;;      Temps:          0       0       0       0       0       0       0       0       0       0       0       0       
      +0       0       0       0       0       0       0       0       0       0       0       0       0       0       0       
      +0       0       0       0       0       0
  3613 ;;      Totals:         3       0       0       0       0       0       0       0       0       0       0       0       
      +0       0       0       0       0       0       0       0       0       0       0       0       0       0       0       
      +0       0       0       0       0       0
  3614 ;;Total ram usage:        3 bytes
  3615 ;; Hardware stack levels used:    1
  3616 ;; Hardware stack levels required when called:    3
  3617 ;; This function calls:
  3618 ;;		Nothing
  3619 ;; This function is called by:
  3620 ;;		_EXT_INT_Initialize
  3621 ;; This function uses a non-reentrant model
  3622 ;;
  3623                           
  3624                           	psect	text33
  3625  002B30                     __ptext33:
  3626                           	opt callstack 0
  3627  002B30                     _INT1_SetInterruptHandler:
  3628                           	opt callstack 25
  3629                           
  3630                           ; BSR set to: 57
  3631                           ;ext_int.c: 80: INT1_InterruptHandler = InterruptHandler;
  3632                           
  3633                           ; BSR set to: 57
  3634                           ;incstack = 0
  3635  002B30  0060  F12C  F036   	movff	INT1_SetInterruptHandler@InterruptHandler,_INT1_InterruptHandler
  3636  002B36  0060  F130  F037   	movff	INT1_SetInterruptHandler@InterruptHandler+1,_INT1_InterruptHandler+1
  3637  002B3C  0060  F134  F038   	movff	INT1_SetInterruptHandler@InterruptHandler+2,_INT1_InterruptHandler+2
  3638                           
  3639                           ; BSR set to: 57
  3640  002B42  0012               	return		;funcret
  3641  002B44                     __end_of_INT1_SetInterruptHandler:
  3642                           	opt callstack 0
  3643                           
  3644 ;; *************** function _INT0_SetInterruptHandler *****************
  3645 ;; Defined at:
  3646 ;;		line 53 in file "mcc_generated_files/ext_int.c"
  3647 ;; Parameters:    Size  Location     Type
  3648 ;;  InterruptHan    3    1[COMRAM] PTR FTN()void 
  3649 ;;		 -> INT0_DefaultInterruptHandler(1), 
  3650 ;; Auto vars:     Size  Location     Type
  3651 ;;		None
  3652 ;; Return value:  Size  Location     Type
  3653 ;;                  1    wreg      void 
  3654 ;; Registers used:
  3655 ;;		wreg, status,2, status,0
  3656 ;; Tracked objects:
  3657 ;;		On entry : 3F/39
  3658 ;;		On exit  : 3F/39
  3659 ;;		Unchanged: 3E/0
  3660 ;; Data sizes:     COMRAM   BANK0   BANK1   BANK2   BANK3   BANK4   BANK5   BANK6   BANK7   BANK8   BANK9  BANK10  BANK1
      +1  BANK12  BANK13  BANK14  BANK15  BANK16  BANK17  BANK18  BANK19  BANK20  BANK21  BANK22  BANK23  BANK24  BANK25  BANK2
      +6  BANK27  BANK28  BANK29  BANK30  BANK31
  3661 ;;      Params:         3       0       0       0       0       0       0       0       0       0       0       0       
      +0       0       0       0       0       0       0       0       0       0       0       0       0       0       0       
      +0       0       0       0       0       0
  3662 ;;      Locals:         0       0       0       0       0       0       0       0       0       0       0       0       
      +0       0       0       0       0       0       0       0       0       0       0       0       0       0       0       
      +0       0       0       0       0       0
  3663 ;;      Temps:          0       0       0       0       0       0       0       0       0       0       0       0       
      +0       0       0       0       0       0       0       0       0       0       0       0       0       0       0       
      +0       0       0       0       0       0
  3664 ;;      Totals:         3       0       0       0       0       0       0       0       0       0       0       0       
      +0       0       0       0       0       0       0       0       0       0       0       0       0       0       0       
      +0       0       0       0       0       0
  3665 ;;Total ram usage:        3 bytes
  3666 ;; Hardware stack levels used:    1
  3667 ;; Hardware stack levels required when called:    3
  3668 ;; This function calls:
  3669 ;;		Nothing
  3670 ;; This function is called by:
  3671 ;;		_EXT_INT_Initialize
  3672 ;; This function uses a non-reentrant model
  3673 ;;
  3674                           
  3675                           	psect	text34
  3676  002B44                     __ptext34:
  3677                           	opt callstack 0
  3678  002B44                     _INT0_SetInterruptHandler:
  3679                           	opt callstack 25
  3680                           
  3681                           ; BSR set to: 57
  3682                           ;ext_int.c: 54: INT0_InterruptHandler = InterruptHandler;
  3683                           
  3684                           ; BSR set to: 57
  3685                           ;incstack = 0
  3686  002B44  0060  F12C  F039   	movff	INT0_SetInterruptHandler@InterruptHandler,_INT0_InterruptHandler
  3687  002B4A  0060  F130  F03A   	movff	INT0_SetInterruptHandler@InterruptHandler+1,_INT0_InterruptHandler+1
  3688  002B50  0060  F134  F03B   	movff	INT0_SetInterruptHandler@InterruptHandler+2,_INT0_InterruptHandler+2
  3689                           
  3690                           ; BSR set to: 57
  3691  002B56  0012               	return		;funcret
  3692  002B58                     __end_of_INT0_SetInterruptHandler:
  3693                           	opt callstack 0
  3694                           
  3695 ;; *************** function _DMA1_Initialize *****************
  3696 ;; Defined at:
  3697 ;;		line 86 in file "mcc_generated_files/dma1.c"
  3698 ;; Parameters:    Size  Location     Type
  3699 ;;		None
  3700 ;; Auto vars:     Size  Location     Type
  3701 ;;		None
  3702 ;; Return value:  Size  Location     Type
  3703 ;;                  1    wreg      void 
  3704 ;; Registers used:
  3705 ;;		wreg, status,2
  3706 ;; Tracked objects:
  3707 ;;		On entry : 3F/3D
  3708 ;;		On exit  : 3F/3B
  3709 ;;		Unchanged: 0/0
  3710 ;; Data sizes:     COMRAM   BANK0   BANK1   BANK2   BANK3   BANK4   BANK5   BANK6   BANK7   BANK8   BANK9  BANK10  BANK1
      +1  BANK12  BANK13  BANK14  BANK15  BANK16  BANK17  BANK18  BANK19  BANK20  BANK21  BANK22  BANK23  BANK24  BANK25  BANK2
      +6  BANK27  BANK28  BANK29  BANK30  BANK31
  3711 ;;      Params:         0       0       0       0       0       0       0       0       0       0       0       0       
      +0       0       0       0       0       0       0       0       0       0       0       0       0       0       0       
      +0       0       0       0       0       0
  3712 ;;      Locals:         0       0       0       0       0       0       0       0       0       0       0       0       
      +0       0       0       0       0       0       0       0       0       0       0       0       0       0       0       
      +0       0       0       0       0       0
  3713 ;;      Temps:          0       0       0       0       0       0       0       0       0       0       0       0       
      +0       0       0       0       0       0       0       0       0       0       0       0       0       0       0       
      +0       0       0       0       0       0
  3714 ;;      Totals:         0       0       0       0       0       0       0       0       0       0       0       0       
      +0       0       0       0       0       0       0       0       0       0       0       0       0       0       0       
      +0       0       0       0       0       0
  3715 ;;Total ram usage:        0 bytes
  3716 ;; Hardware stack levels used:    1
  3717 ;; Hardware stack levels required when called:    3
  3718 ;; This function calls:
  3719 ;;		Nothing
  3720 ;; This function is called by:
  3721 ;;		_SYSTEM_Initialize
  3722 ;; This function uses a non-reentrant model
  3723 ;;
  3724                           
  3725                           	psect	text35
  3726  0024A0                     __ptext35:
  3727                           	opt callstack 0
  3728  0024A0                     _DMA1_Initialize:
  3729                           	opt callstack 26
  3730                           
  3731                           ; BSR set to: 61
  3732                           ;dma1.c: 88: DMA1SSA = 0x001000;
  3733                           
  3734                           ; BSR set to: 57
  3735                           ;incstack = 0
  3736  0024A0  0E00               	movlw	0
  3737  0024A2  013B               	movlb	59	; () banked
  3738  0024A4  6FF9               	movwf	249,b	;volatile
  3739  0024A6  0E10               	movlw	16
  3740  0024A8  6FFA               	movwf	250,b	;volatile
  3741  0024AA  0E00               	movlw	0
  3742  0024AC  6FFB               	movwf	251,b	;volatile
  3743                           
  3744                           ;dma1.c: 89: DMA1DSA = 0x3D11;
  3745  0024AE  0E3D               	movlw	61
  3746  0024B0  6FF1               	movwf	241,b	;volatile
  3747  0024B2  0E11               	movlw	17
  3748  0024B4  6FF0               	movwf	240,b	;volatile
  3749                           
  3750                           ;dma1.c: 90: DMA1CON1 = 0x03;
  3751  0024B6  0E03               	movlw	3
  3752  0024B8  6FFD               	movwf	253,b	;volatile
  3753                           
  3754                           ;dma1.c: 91: DMA1SSZ = 0x0001;
  3755  0024BA  0E00               	movlw	0
  3756  0024BC  6FF8               	movwf	248,b	;volatile
  3757  0024BE  0E01               	movlw	1
  3758  0024C0  6FF7               	movwf	247,b	;volatile
  3759                           
  3760                           ;dma1.c: 92: DMA1DSZ = 0x0001;
  3761  0024C2  0E00               	movlw	0
  3762  0024C4  6FEF               	movwf	239,b	;volatile
  3763  0024C6  0E01               	movlw	1
  3764  0024C8  6FEE               	movwf	238,b	;volatile
  3765                           
  3766                           ;dma1.c: 93: DMA1SIRQ = 0x15;
  3767  0024CA  0E15               	movlw	21
  3768  0024CC  6FFF               	movwf	255,b	;volatile
  3769                           
  3770                           ;dma1.c: 94: DMA1AIRQ = 0x0;
  3771  0024CE  0E00               	movlw	0
  3772  0024D0  6FFE               	movwf	254,b	;volatile
  3773                           
  3774                           ; BSR set to: 59
  3775                           ;dma1.c: 96: PIR2bits.DMA1DCNTIF = 0;
  3776  0024D2  0139               	movlb	57	; () banked
  3777  0024D4  93A2               	bcf	162,1,b	;volatile
  3778                           
  3779                           ; BSR set to: 57
  3780                           ;dma1.c: 97: PIR2bits.DMA1SCNTIF = 0;
  3781  0024D6  91A2               	bcf	162,0,b	;volatile
  3782                           
  3783                           ; BSR set to: 57
  3784                           ;dma1.c: 98: PIR2bits.DMA1AIF = 0;
  3785  0024D8  97A2               	bcf	162,3,b	;volatile
  3786                           
  3787                           ; BSR set to: 57
  3788                           ;dma1.c: 99: PIR2bits.DMA1ORIF = 0;
  3789  0024DA  95A2               	bcf	162,2,b	;volatile
  3790                           
  3791                           ; BSR set to: 57
  3792                           ;dma1.c: 101: PIE2bits.DMA1DCNTIE = 1;
  3793  0024DC  8392               	bsf	146,1,b	;volatile
  3794                           
  3795                           ; BSR set to: 57
  3796                           ;dma1.c: 102: PIE2bits.DMA1SCNTIE = 1;
  3797  0024DE  8192               	bsf	146,0,b	;volatile
  3798                           
  3799                           ; BSR set to: 57
  3800                           ;dma1.c: 103: PIE2bits.DMA1AIE = 1;
  3801  0024E0  8792               	bsf	146,3,b	;volatile
  3802                           
  3803                           ; BSR set to: 57
  3804                           ;dma1.c: 104: PIE2bits.DMA1ORIE = 1;
  3805  0024E2  8592               	bsf	146,2,b	;volatile
  3806                           
  3807                           ;dma1.c: 107: MAINPR = 3;
  3808  0024E4  0E03               	movlw	3
  3809  0024E6  6FF2               	movwf	242,b	;volatile
  3810                           
  3811                           ;dma1.c: 108: ISRPR = 2;
  3812  0024E8  0E02               	movlw	2
  3813  0024EA  6FF1               	movwf	241,b	;volatile
  3814                           
  3815                           ;dma1.c: 109: DMA1PR = 0;
  3816  0024EC  0E00               	movlw	0
  3817  0024EE  6FF3               	movwf	243,b	;volatile
  3818                           
  3819                           ;dma1.c: 110: DMA2PR = 1;
  3820  0024F0  0E01               	movlw	1
  3821  0024F2  6FF4               	movwf	244,b	;volatile
  3822                           
  3823                           ;dma1.c: 111: SCANPR = 4;
  3824  0024F4  0E04               	movlw	4
  3825  0024F6  6FF7               	movwf	247,b	;volatile
  3826  0024F8  9ED2               	bcf	16338,7,c	;# 
  3827  0024FA  0139               	banksel	14831	;# 
  3828  0024FC  0E55               	movlw	85	;# 
  3829  0024FE  6FEF               	movwf	14831,b	;# 
  3830  002500  0EAA               	movlw	170	;# 
  3831  002502  6FEF               	movwf	14831,b	;# 
  3832  002504  81EF               	bsf	14831,0,b	;# 
  3833  002506  8ED2               	bsf	16338,7,c	;# 
  3834                           
  3835                           ;dma1.c: 126: DMA1CON0 = 0x00;
  3836  002508  0E00               	movlw	0
  3837  00250A  013B               	movlb	59	; () banked
  3838  00250C  6FFC               	movwf	252,b	;volatile
  3839                           
  3840                           ; BSR set to: 59
  3841  00250E  0012               	return		;funcret
  3842  002510                     __end_of_DMA1_Initialize:
  3843                           	opt callstack 0
  3844                           
  3845 ;; *************** function _ADCC_Initialize *****************
  3846 ;; Defined at:
  3847 ;;		line 64 in file "mcc_generated_files/adcc.c"
  3848 ;; Parameters:    Size  Location     Type
  3849 ;;		None
  3850 ;; Auto vars:     Size  Location     Type
  3851 ;;		None
  3852 ;; Return value:  Size  Location     Type
  3853 ;;                  1    wreg      void 
  3854 ;; Registers used:
  3855 ;;		wreg, status,2, status,0, cstack
  3856 ;; Tracked objects:
  3857 ;;		On entry : 3F/39
  3858 ;;		On exit  : 3F/39
  3859 ;;		Unchanged: 0/0
  3860 ;; Data sizes:     COMRAM   BANK0   BANK1   BANK2   BANK3   BANK4   BANK5   BANK6   BANK7   BANK8   BANK9  BANK10  BANK1
      +1  BANK12  BANK13  BANK14  BANK15  BANK16  BANK17  BANK18  BANK19  BANK20  BANK21  BANK22  BANK23  BANK24  BANK25  BANK2
      +6  BANK27  BANK28  BANK29  BANK30  BANK31
  3861 ;;      Params:         0       0       0       0       0       0       0       0       0       0       0       0       
      +0       0       0       0       0       0       0       0       0       0       0       0       0       0       0       
      +0       0       0       0       0       0
  3862 ;;      Locals:         0       0       0       0       0       0       0       0       0       0       0       0       
      +0       0       0       0       0       0       0       0       0       0       0       0       0       0       0       
      +0       0       0       0       0       0
  3863 ;;      Temps:          0       0       0       0       0       0       0       0       0       0       0       0       
      +0       0       0       0       0       0       0       0       0       0       0       0       0       0       0       
      +0       0       0       0       0       0
  3864 ;;      Totals:         0       0       0       0       0       0       0       0       0       0       0       0       
      +0       0       0       0       0       0       0       0       0       0       0       0       0       0       0       
      +0       0       0       0       0       0
  3865 ;;Total ram usage:        0 bytes
  3866 ;; Hardware stack levels used:    1
  3867 ;; Hardware stack levels required when called:    4
  3868 ;; This function calls:
  3869 ;;		_ADCC_SetADIInterruptHandler
  3870 ;; This function is called by:
  3871 ;;		_SYSTEM_Initialize
  3872 ;; This function uses a non-reentrant model
  3873 ;;
  3874                           
  3875                           	psect	text36
  3876  00242E                     __ptext36:
  3877                           	opt callstack 0
  3878  00242E                     _ADCC_Initialize:
  3879                           	opt callstack 25
  3880                           
  3881                           ; BSR set to: 57
  3882                           ;adcc.c: 68: ADLTHL = 0x00;
  3883                           
  3884                           ; BSR set to: 59
  3885                           ;incstack = 0
  3886  00242E  0E00               	movlw	0
  3887  002430  013E               	movlb	62	; () banked
  3888  002432  6FDE               	movwf	222,b	;volatile
  3889                           
  3890                           ;adcc.c: 70: ADLTHH = 0x00;
  3891  002434  0E00               	movlw	0
  3892  002436  6FDF               	movwf	223,b	;volatile
  3893                           
  3894                           ;adcc.c: 72: ADUTHL = 0x00;
  3895  002438  0E00               	movlw	0
  3896  00243A  6FE0               	movwf	224,b	;volatile
  3897                           
  3898                           ;adcc.c: 74: ADUTHH = 0x00;
  3899  00243C  0E00               	movlw	0
  3900  00243E  6FE1               	movwf	225,b	;volatile
  3901                           
  3902                           ;adcc.c: 76: ADSTPTL = 0x00;
  3903  002440  0E00               	movlw	0
  3904  002442  6FE4               	movwf	228,b	;volatile
  3905                           
  3906                           ;adcc.c: 78: ADSTPTH = 0x00;
  3907  002444  0E00               	movlw	0
  3908  002446  6FE5               	movwf	229,b	;volatile
  3909                           
  3910                           ;adcc.c: 80: ADACCU = 0x00;
  3911  002448  0E00               	movlw	0
  3912  00244A  6FEA               	movwf	234,b	;volatile
  3913                           
  3914                           ;adcc.c: 82: ADRPT = 0x00;
  3915  00244C  0E00               	movlw	0
  3916  00244E  6FEC               	movwf	236,b	;volatile
  3917                           
  3918                           ;adcc.c: 84: ADPCH = 0x00;
  3919  002450  0E00               	movlw	0
  3920  002452  6FF1               	movwf	241,b	;volatile
  3921                           
  3922                           ;adcc.c: 86: ADACQL = 0x32;
  3923  002454  0E32               	movlw	50
  3924  002456  6FF3               	movwf	243,b	;volatile
  3925                           
  3926                           ;adcc.c: 88: ADACQH = 0x00;
  3927  002458  0E00               	movlw	0
  3928  00245A  6FF4               	movwf	244,b	;volatile
  3929                           
  3930                           ;adcc.c: 90: ADCAP = 0x00;
  3931  00245C  0E00               	movlw	0
  3932  00245E  6FF5               	movwf	245,b	;volatile
  3933                           
  3934                           ;adcc.c: 92: ADPREL = 0x00;
  3935  002460  0E00               	movlw	0
  3936  002462  6FF6               	movwf	246,b	;volatile
  3937                           
  3938                           ;adcc.c: 94: ADPREH = 0x00;
  3939  002464  0E00               	movlw	0
  3940  002466  6FF7               	movwf	247,b	;volatile
  3941                           
  3942                           ;adcc.c: 96: ADCON1 = 0x00;
  3943  002468  0E00               	movlw	0
  3944  00246A  6FF9               	movwf	249,b	;volatile
  3945                           
  3946                           ;adcc.c: 98: ADCON2 = 0x00;
  3947  00246C  0E00               	movlw	0
  3948  00246E  6FFA               	movwf	250,b	;volatile
  3949                           
  3950                           ;adcc.c: 100: ADCON3 = 0x00;
  3951  002470  0E00               	movlw	0
  3952  002472  6FFB               	movwf	251,b	;volatile
  3953                           
  3954                           ;adcc.c: 102: ADSTAT = 0x00;
  3955  002474  0E00               	movlw	0
  3956  002476  6FFC               	movwf	252,b	;volatile
  3957                           
  3958                           ;adcc.c: 104: ADREF = 0x02;
  3959  002478  0E02               	movlw	2
  3960  00247A  6FFD               	movwf	253,b	;volatile
  3961                           
  3962                           ;adcc.c: 106: ADACT = 0x00;
  3963  00247C  0E00               	movlw	0
  3964  00247E  6FFE               	movwf	254,b	;volatile
  3965                           
  3966                           ;adcc.c: 108: ADCLK = 0x00;
  3967  002480  0E00               	movlw	0
  3968  002482  6FFF               	movwf	255,b	;volatile
  3969                           
  3970                           ;adcc.c: 110: ADCON0 = 0x84;
  3971  002484  0E84               	movlw	132
  3972  002486  6FF8               	movwf	248,b	;volatile
  3973                           
  3974                           ; BSR set to: 62
  3975                           ;adcc.c: 113: PIR1bits.ADIF = 0;
  3976  002488  0139               	movlb	57	; () banked
  3977  00248A  95A1               	bcf	161,2,b	;volatile
  3978                           
  3979                           ; BSR set to: 57
  3980                           ;adcc.c: 115: PIE1bits.ADIE = 1;
  3981  00248C  8591               	bsf	145,2,b	;volatile
  3982                           
  3983                           ; BSR set to: 57
  3984                           ;adcc.c: 117: ADCC_SetADIInterruptHandler(ADCC_DefaultInterruptHandler);
  3985  00248E  0EC2               	movlw	low _ADCC_DefaultInterruptHandler
  3986  002490  6E4B               	movwf	ADCC_SetADIInterruptHandler@InterruptHandler,c
  3987  002492  0E2B               	movlw	high _ADCC_DefaultInterruptHandler
  3988  002494  6E4C               	movwf	ADCC_SetADIInterruptHandler@InterruptHandler+1,c
  3989  002496  0E00               	movlw	low (_ADCC_DefaultInterruptHandler shr (0+16))
  3990  002498  6E4D               	movwf	ADCC_SetADIInterruptHandler@InterruptHandler+2,c
  3991  00249A  ECAC  F015         	call	_ADCC_SetADIInterruptHandler	;wreg free
  3992                           
  3993                           ; BSR set to: 57
  3994  00249E  0012               	return		;funcret
  3995  0024A0                     __end_of_ADCC_Initialize:
  3996                           	opt callstack 0
  3997                           
  3998 ;; *************** function _ADCC_SetADIInterruptHandler *****************
  3999 ;; Defined at:
  4000 ;;		line 316 in file "mcc_generated_files/adcc.c"
  4001 ;; Parameters:    Size  Location     Type
  4002 ;;  InterruptHan    3    1[COMRAM] PTR FTN()void 
  4003 ;;		 -> ADCC_DefaultInterruptHandler(1), 
  4004 ;; Auto vars:     Size  Location     Type
  4005 ;;		None
  4006 ;; Return value:  Size  Location     Type
  4007 ;;                  1    wreg      void 
  4008 ;; Registers used:
  4009 ;;		wreg, status,2, status,0
  4010 ;; Tracked objects:
  4011 ;;		On entry : 3F/39
  4012 ;;		On exit  : 3F/39
  4013 ;;		Unchanged: 3E/0
  4014 ;; Data sizes:     COMRAM   BANK0   BANK1   BANK2   BANK3   BANK4   BANK5   BANK6   BANK7   BANK8   BANK9  BANK10  BANK1
      +1  BANK12  BANK13  BANK14  BANK15  BANK16  BANK17  BANK18  BANK19  BANK20  BANK21  BANK22  BANK23  BANK24  BANK25  BANK2
      +6  BANK27  BANK28  BANK29  BANK30  BANK31
  4015 ;;      Params:         3       0       0       0       0       0       0       0       0       0       0       0       
      +0       0       0       0       0       0       0       0       0       0       0       0       0       0       0       
      +0       0       0       0       0       0
  4016 ;;      Locals:         0       0       0       0       0       0       0       0       0       0       0       0       
      +0       0       0       0       0       0       0       0       0       0       0       0       0       0       0       
      +0       0       0       0       0       0
  4017 ;;      Temps:          0       0       0       0       0       0       0       0       0       0       0       0       
      +0       0       0       0       0       0       0       0       0       0       0       0       0       0       0       
      +0       0       0       0       0       0
  4018 ;;      Totals:         3       0       0       0       0       0       0       0       0       0       0       0       
      +0       0       0       0       0       0       0       0       0       0       0       0       0       0       0       
      +0       0       0       0       0       0
  4019 ;;Total ram usage:        3 bytes
  4020 ;; Hardware stack levels used:    1
  4021 ;; Hardware stack levels required when called:    3
  4022 ;; This function calls:
  4023 ;;		Nothing
  4024 ;; This function is called by:
  4025 ;;		_ADCC_Initialize
  4026 ;; This function uses a non-reentrant model
  4027 ;;
  4028                           
  4029                           	psect	text37
  4030  002B58                     __ptext37:
  4031                           	opt callstack 0
  4032  002B58                     _ADCC_SetADIInterruptHandler:
  4033                           	opt callstack 25
  4034                           
  4035                           ; BSR set to: 57
  4036                           ;adcc.c: 317: ADCC_ADI_InterruptHandler = InterruptHandler;
  4037                           
  4038                           ; BSR set to: 57
  4039                           ;incstack = 0
  4040  002B58  0060  F12C  F024   	movff	ADCC_SetADIInterruptHandler@InterruptHandler,_ADCC_ADI_InterruptHandler
  4041  002B5E  0060  F130  F025   	movff	ADCC_SetADIInterruptHandler@InterruptHandler+1,_ADCC_ADI_InterruptHandler+1
  4042  002B64  0060  F134  F026   	movff	ADCC_SetADIInterruptHandler@InterruptHandler+2,_ADCC_ADI_InterruptHandler+2
  4043                           
  4044                           ; BSR set to: 57
  4045  002B6A  0012               	return		;funcret
  4046  002B6C                     __end_of_ADCC_SetADIInterruptHandler:
  4047                           	opt callstack 0
  4048                           
  4049 ;; *************** function _INT0_ISR *****************
  4050 ;; Defined at:
  4051 ;;		line 35 in file "mcc_generated_files/ext_int.c"
  4052 ;; Parameters:    Size  Location     Type
  4053 ;;		None
  4054 ;; Auto vars:     Size  Location     Type
  4055 ;;		None
  4056 ;; Return value:  Size  Location     Type
  4057 ;;                  1    wreg      void 
  4058 ;; Registers used:
  4059 ;;		wreg, status,2, status,0, pclath, tosl, cstack
  4060 ;; Tracked objects:
  4061 ;;		On entry : 0/0
  4062 ;;		On exit  : 0/0
  4063 ;;		Unchanged: 0/0
  4064 ;; Data sizes:     COMRAM   BANK0   BANK1   BANK2   BANK3   BANK4   BANK5   BANK6   BANK7   BANK8   BANK9  BANK10  BANK1
      +1  BANK12  BANK13  BANK14  BANK15  BANK16  BANK17  BANK18  BANK19  BANK20  BANK21  BANK22  BANK23  BANK24  BANK25  BANK2
      +6  BANK27  BANK28  BANK29  BANK30  BANK31
  4065 ;;      Params:         0       0       0       0       0       0       0       0       0       0       0       0       
      +0       0       0       0       0       0       0       0       0       0       0       0       0       0       0       
      +0       0       0       0       0       0
  4066 ;;      Locals:         0       0       0       0       0       0       0       0       0       0       0       0       
      +0       0       0       0       0       0       0       0       0       0       0       0       0       0       0       
      +0       0       0       0       0       0
  4067 ;;      Temps:          0       0       0       0       0       0       0       0       0       0       0       0       
      +0       0       0       0       0       0       0       0       0       0       0       0       0       0       0       
      +0       0       0       0       0       0
  4068 ;;      Totals:         0       0       0       0       0       0       0       0       0       0       0       0       
      +0       0       0       0       0       0       0       0       0       0       0       0       0       0       0       
      +0       0       0       0       0       0
  4069 ;;Total ram usage:        0 bytes
  4070 ;; Hardware stack levels used:    1
  4071 ;; Hardware stack levels required when called:    2
  4072 ;; This function calls:
  4073 ;;		_INT0_CallBack
  4074 ;; This function is called by:
  4075 ;;		Interrupt level 2
  4076 ;; This function uses a non-reentrant model
  4077 ;;
  4078                           
  4079                           	psect	text38
  4080  002B6C                     __ptext38:
  4081                           	opt callstack 0
  4082  002B6C                     _INT0_ISR:
  4083                           	opt callstack 24
  4084                           
  4085                           ;ext_int.c: 37: (PIR1bits.INT0IF = 0);
  4086                           
  4087                           ; BSR set to: 57
  4088                           ;incstack = 0
  4089  002B6C  0139               	movlb	57	; () banked
  4090  002B6E  91A1               	bcf	161,0,b	;volatile
  4091                           
  4092                           ; BSR set to: 57
  4093                           ;ext_int.c: 40: INT0_CallBack();
  4094  002B70  EC53  F014         	call	_INT0_CallBack	;wreg free
  4095  002B74  0011               	retfie		f
  4096  002B76                     __end_of_INT0_ISR:
  4097                           	opt callstack 0
  4098                           
  4099 ;; *************** function _INT0_CallBack *****************
  4100 ;; Defined at:
  4101 ;;		line 44 in file "mcc_generated_files/ext_int.c"
  4102 ;; Parameters:    Size  Location     Type
  4103 ;;		None
  4104 ;; Auto vars:     Size  Location     Type
  4105 ;;		None
  4106 ;; Return value:  Size  Location     Type
  4107 ;;                  1    wreg      void 
  4108 ;; Registers used:
  4109 ;;		wreg, status,2, status,0, pclath, tosl, cstack
  4110 ;; Tracked objects:
  4111 ;;		On entry : 3F/39
  4112 ;;		On exit  : 0/0
  4113 ;;		Unchanged: 0/0
  4114 ;; Data sizes:     COMRAM   BANK0   BANK1   BANK2   BANK3   BANK4   BANK5   BANK6   BANK7   BANK8   BANK9  BANK10  BANK1
      +1  BANK12  BANK13  BANK14  BANK15  BANK16  BANK17  BANK18  BANK19  BANK20  BANK21  BANK22  BANK23  BANK24  BANK25  BANK2
      +6  BANK27  BANK28  BANK29  BANK30  BANK31
  4115 ;;      Params:         0       0       0       0       0       0       0       0       0       0       0       0       
      +0       0       0       0       0       0       0       0       0       0       0       0       0       0       0       
      +0       0       0       0       0       0
  4116 ;;      Locals:         0       0       0       0       0       0       0       0       0       0       0       0       
      +0       0       0       0       0       0       0       0       0       0       0       0       0       0       0       
      +0       0       0       0       0       0
  4117 ;;      Temps:          0       0       0       0       0       0       0       0       0       0       0       0       
      +0       0       0       0       0       0       0       0       0       0       0       0       0       0       0       
      +0       0       0       0       0       0
  4118 ;;      Totals:         0       0       0       0       0       0       0       0       0       0       0       0       
      +0       0       0       0       0       0       0       0       0       0       0       0       0       0       0       
      +0       0       0       0       0       0
  4119 ;;Total ram usage:        0 bytes
  4120 ;; Hardware stack levels used:    1
  4121 ;; Hardware stack levels required when called:    1
  4122 ;; This function calls:
  4123 ;;		Absolute function
  4124 ;;		_INT0_DefaultInterruptHandler
  4125 ;; This function is called by:
  4126 ;;		_INT0_ISR
  4127 ;; This function uses a non-reentrant model
  4128 ;;
  4129                           
  4130                           	psect	text39
  4131  0028A6                     __ptext39:
  4132                           	opt callstack 0
  4133  0028A6                     _INT0_CallBack:
  4134                           	opt callstack 24
  4135                           
  4136                           ; BSR set to: 57
  4137                           ;ext_int.c: 47: if(INT0_InterruptHandler)
  4138                           
  4139                           ;incstack = 0
  4140  0028A6  5039               	movf	_INT0_InterruptHandler,w,c
  4141  0028A8  103A               	iorwf	_INT0_InterruptHandler+1,w,c
  4142  0028AA  103B               	iorwf	_INT0_InterruptHandler+2,w,c
  4143  0028AC  B4D8               	btfsc	status,2,c
  4144  0028AE  0012               	return	
  4145                           
  4146                           ; BSR set to: 57
  4147                           ;ext_int.c: 48: {;ext_int.c: 49: INT0_InterruptHandler();
  4148  0028B0  D801               	call	i2u18_48
  4149  0028B2  0012               	return	
  4150  0028B4                     i2u18_48:
  4151  0028B4  0005               	push	
  4152  0028B6  6EFA               	movwf	pclath,c
  4153  0028B8  5039               	movf	_INT0_InterruptHandler,w,c
  4154  0028BA  6EFD               	movwf	tosl,c
  4155  0028BC  503A               	movf	_INT0_InterruptHandler+1,w,c
  4156  0028BE  6EFE               	movwf	tosh,c
  4157  0028C0  503B               	movf	_INT0_InterruptHandler+2,w,c
  4158  0028C2  6EFF               	movwf	tosu,c
  4159  0028C4  50FA               	movf	pclath,w,c
  4160  0028C6  0012               	return		;indir
  4161  0028C8                     __end_of_INT0_CallBack:
  4162                           	opt callstack 0
  4163                           
  4164 ;; *************** function _INT0_DefaultInterruptHandler *****************
  4165 ;; Defined at:
  4166 ;;		line 57 in file "mcc_generated_files/ext_int.c"
  4167 ;; Parameters:    Size  Location     Type
  4168 ;;		None
  4169 ;; Auto vars:     Size  Location     Type
  4170 ;;		None
  4171 ;; Return value:  Size  Location     Type
  4172 ;;                  1    wreg      void 
  4173 ;; Registers used:
  4174 ;;		None
  4175 ;; Tracked objects:
  4176 ;;		On entry : 3F/39
  4177 ;;		On exit  : 3F/39
  4178 ;;		Unchanged: 3E/0
  4179 ;; Data sizes:     COMRAM   BANK0   BANK1   BANK2   BANK3   BANK4   BANK5   BANK6   BANK7   BANK8   BANK9  BANK10  BANK1
      +1  BANK12  BANK13  BANK14  BANK15  BANK16  BANK17  BANK18  BANK19  BANK20  BANK21  BANK22  BANK23  BANK24  BANK25  BANK2
      +6  BANK27  BANK28  BANK29  BANK30  BANK31
  4180 ;;      Params:         0       0       0       0       0       0       0       0       0       0       0       0       
      +0       0       0       0       0       0       0       0       0       0       0       0       0       0       0       
      +0       0       0       0       0       0
  4181 ;;      Locals:         0       0       0       0       0       0       0       0       0       0       0       0       
      +0       0       0       0       0       0       0       0       0       0       0       0       0       0       0       
      +0       0       0       0       0       0
  4182 ;;      Temps:          0       0       0       0       0       0       0       0       0       0       0       0       
      +0       0       0       0       0       0       0       0       0       0       0       0       0       0       0       
      +0       0       0       0       0       0
  4183 ;;      Totals:         0       0       0       0       0       0       0       0       0       0       0       0       
      +0       0       0       0       0       0       0       0       0       0       0       0       0       0       0       
      +0       0       0       0       0       0
  4184 ;;Total ram usage:        0 bytes
  4185 ;; Hardware stack levels used:    1
  4186 ;; This function calls:
  4187 ;;		Nothing
  4188 ;; This function is called by:
  4189 ;;		_EXT_INT_Initialize
  4190 ;;		_INT0_CallBack
  4191 ;; This function uses a non-reentrant model
  4192 ;;
  4193                           
  4194                           	psect	text40
  4195  002BBA                     __ptext40:
  4196                           	opt callstack 0
  4197  002BBA                     _INT0_DefaultInterruptHandler:
  4198                           	opt callstack 24
  4199                           
  4200                           ; BSR set to: 57
  4201                           
  4202                           ;incstack = 0
  4203  002BBA  0012               	return		;funcret
  4204  002BBC                     __end_of_INT0_DefaultInterruptHandler:
  4205                           	opt callstack 0
  4206                           
  4207 ;; *************** function _INT1_ISR *****************
  4208 ;; Defined at:
  4209 ;;		line 61 in file "mcc_generated_files/ext_int.c"
  4210 ;; Parameters:    Size  Location     Type
  4211 ;;		None
  4212 ;; Auto vars:     Size  Location     Type
  4213 ;;		None
  4214 ;; Return value:  Size  Location     Type
  4215 ;;                  1    wreg      void 
  4216 ;; Registers used:
  4217 ;;		wreg, status,2, status,0, pclath, tosl, cstack
  4218 ;; Tracked objects:
  4219 ;;		On entry : 0/0
  4220 ;;		On exit  : 0/0
  4221 ;;		Unchanged: 0/0
  4222 ;; Data sizes:     COMRAM   BANK0   BANK1   BANK2   BANK3   BANK4   BANK5   BANK6   BANK7   BANK8   BANK9  BANK10  BANK1
      +1  BANK12  BANK13  BANK14  BANK15  BANK16  BANK17  BANK18  BANK19  BANK20  BANK21  BANK22  BANK23  BANK24  BANK25  BANK2
      +6  BANK27  BANK28  BANK29  BANK30  BANK31
  4223 ;;      Params:         0       0       0       0       0       0       0       0       0       0       0       0       
      +0       0       0       0       0       0       0       0       0       0       0       0       0       0       0       
      +0       0       0       0       0       0
  4224 ;;      Locals:         0       0       0       0       0       0       0       0       0       0       0       0       
      +0       0       0       0       0       0       0       0       0       0       0       0       0       0       0       
      +0       0       0       0       0       0
  4225 ;;      Temps:          0       0       0       0       0       0       0       0       0       0       0       0       
      +0       0       0       0       0       0       0       0       0       0       0       0       0       0       0       
      +0       0       0       0       0       0
  4226 ;;      Totals:         0       0       0       0       0       0       0       0       0       0       0       0       
      +0       0       0       0       0       0       0       0       0       0       0       0       0       0       0       
      +0       0       0       0       0       0
  4227 ;;Total ram usage:        0 bytes
  4228 ;; Hardware stack levels used:    1
  4229 ;; Hardware stack levels required when called:    2
  4230 ;; This function calls:
  4231 ;;		_INT1_CallBack
  4232 ;; This function is called by:
  4233 ;;		Interrupt level 2
  4234 ;; This function uses a non-reentrant model
  4235 ;;
  4236                           
  4237                           	psect	text41
  4238  002B78                     __ptext41:
  4239                           	opt callstack 0
  4240  002B78                     _INT1_ISR:
  4241                           	opt callstack 24
  4242                           
  4243                           ;ext_int.c: 63: (PIR5bits.INT1IF = 0);
  4244                           
  4245                           ; BSR set to: 57
  4246                           ;incstack = 0
  4247  002B78  0139               	movlb	57	; () banked
  4248  002B7A  91A5               	bcf	165,0,b	;volatile
  4249                           
  4250                           ; BSR set to: 57
  4251                           ;ext_int.c: 66: INT1_CallBack();
  4252  002B7C  EC64  F014         	call	_INT1_CallBack	;wreg free
  4253  002B80  0011               	retfie		f
  4254  002B82                     __end_of_INT1_ISR:
  4255                           	opt callstack 0
  4256                           
  4257 ;; *************** function _INT1_CallBack *****************
  4258 ;; Defined at:
  4259 ;;		line 70 in file "mcc_generated_files/ext_int.c"
  4260 ;; Parameters:    Size  Location     Type
  4261 ;;		None
  4262 ;; Auto vars:     Size  Location     Type
  4263 ;;		None
  4264 ;; Return value:  Size  Location     Type
  4265 ;;                  1    wreg      void 
  4266 ;; Registers used:
  4267 ;;		wreg, status,2, status,0, pclath, tosl, cstack
  4268 ;; Tracked objects:
  4269 ;;		On entry : 3F/39
  4270 ;;		On exit  : 0/0
  4271 ;;		Unchanged: 0/0
  4272 ;; Data sizes:     COMRAM   BANK0   BANK1   BANK2   BANK3   BANK4   BANK5   BANK6   BANK7   BANK8   BANK9  BANK10  BANK1
      +1  BANK12  BANK13  BANK14  BANK15  BANK16  BANK17  BANK18  BANK19  BANK20  BANK21  BANK22  BANK23  BANK24  BANK25  BANK2
      +6  BANK27  BANK28  BANK29  BANK30  BANK31
  4273 ;;      Params:         0       0       0       0       0       0       0       0       0       0       0       0       
      +0       0       0       0       0       0       0       0       0       0       0       0       0       0       0       
      +0       0       0       0       0       0
  4274 ;;      Locals:         0       0       0       0       0       0       0       0       0       0       0       0       
      +0       0       0       0       0       0       0       0       0       0       0       0       0       0       0       
      +0       0       0       0       0       0
  4275 ;;      Temps:          0       0       0       0       0       0       0       0       0       0       0       0       
      +0       0       0       0       0       0       0       0       0       0       0       0       0       0       0       
      +0       0       0       0       0       0
  4276 ;;      Totals:         0       0       0       0       0       0       0       0       0       0       0       0       
      +0       0       0       0       0       0       0       0       0       0       0       0       0       0       0       
      +0       0       0       0       0       0
  4277 ;;Total ram usage:        0 bytes
  4278 ;; Hardware stack levels used:    1
  4279 ;; Hardware stack levels required when called:    1
  4280 ;; This function calls:
  4281 ;;		Absolute function
  4282 ;;		_INT1_DefaultInterruptHandler
  4283 ;; This function is called by:
  4284 ;;		_INT1_ISR
  4285 ;; This function uses a non-reentrant model
  4286 ;;
  4287                           
  4288                           	psect	text42
  4289  0028C8                     __ptext42:
  4290                           	opt callstack 0
  4291  0028C8                     _INT1_CallBack:
  4292                           	opt callstack 24
  4293                           
  4294                           ; BSR set to: 57
  4295                           ;ext_int.c: 73: if(INT1_InterruptHandler)
  4296                           
  4297                           ;incstack = 0
  4298  0028C8  5036               	movf	_INT1_InterruptHandler,w,c
  4299  0028CA  1037               	iorwf	_INT1_InterruptHandler+1,w,c
  4300  0028CC  1038               	iorwf	_INT1_InterruptHandler+2,w,c
  4301  0028CE  B4D8               	btfsc	status,2,c
  4302  0028D0  0012               	return	
  4303                           
  4304                           ; BSR set to: 57
  4305                           ;ext_int.c: 74: {;ext_int.c: 75: INT1_InterruptHandler();
  4306  0028D2  D801               	call	i2u20_48
  4307  0028D4  0012               	return	
  4308  0028D6                     i2u20_48:
  4309  0028D6  0005               	push	
  4310  0028D8  6EFA               	movwf	pclath,c
  4311  0028DA  5036               	movf	_INT1_InterruptHandler,w,c
  4312  0028DC  6EFD               	movwf	tosl,c
  4313  0028DE  5037               	movf	_INT1_InterruptHandler+1,w,c
  4314  0028E0  6EFE               	movwf	tosh,c
  4315  0028E2  5038               	movf	_INT1_InterruptHandler+2,w,c
  4316  0028E4  6EFF               	movwf	tosu,c
  4317  0028E6  50FA               	movf	pclath,w,c
  4318  0028E8  0012               	return		;indir
  4319  0028EA                     __end_of_INT1_CallBack:
  4320                           	opt callstack 0
  4321                           
  4322 ;; *************** function _INT1_DefaultInterruptHandler *****************
  4323 ;; Defined at:
  4324 ;;		line 83 in file "mcc_generated_files/ext_int.c"
  4325 ;; Parameters:    Size  Location     Type
  4326 ;;		None
  4327 ;; Auto vars:     Size  Location     Type
  4328 ;;		None
  4329 ;; Return value:  Size  Location     Type
  4330 ;;                  1    wreg      void 
  4331 ;; Registers used:
  4332 ;;		None
  4333 ;; Tracked objects:
  4334 ;;		On entry : 3F/39
  4335 ;;		On exit  : 3F/39
  4336 ;;		Unchanged: 3E/0
  4337 ;; Data sizes:     COMRAM   BANK0   BANK1   BANK2   BANK3   BANK4   BANK5   BANK6   BANK7   BANK8   BANK9  BANK10  BANK1
      +1  BANK12  BANK13  BANK14  BANK15  BANK16  BANK17  BANK18  BANK19  BANK20  BANK21  BANK22  BANK23  BANK24  BANK25  BANK2
      +6  BANK27  BANK28  BANK29  BANK30  BANK31
  4338 ;;      Params:         0       0       0       0       0       0       0       0       0       0       0       0       
      +0       0       0       0       0       0       0       0       0       0       0       0       0       0       0       
      +0       0       0       0       0       0
  4339 ;;      Locals:         0       0       0       0       0       0       0       0       0       0       0       0       
      +0       0       0       0       0       0       0       0       0       0       0       0       0       0       0       
      +0       0       0       0       0       0
  4340 ;;      Temps:          0       0       0       0       0       0       0       0       0       0       0       0       
      +0       0       0       0       0       0       0       0       0       0       0       0       0       0       0       
      +0       0       0       0       0       0
  4341 ;;      Totals:         0       0       0       0       0       0       0       0       0       0       0       0       
      +0       0       0       0       0       0       0       0       0       0       0       0       0       0       0       
      +0       0       0       0       0       0
  4342 ;;Total ram usage:        0 bytes
  4343 ;; Hardware stack levels used:    1
  4344 ;; This function calls:
  4345 ;;		Nothing
  4346 ;; This function is called by:
  4347 ;;		_EXT_INT_Initialize
  4348 ;;		_INT1_CallBack
  4349 ;; This function uses a non-reentrant model
  4350 ;;
  4351                           
  4352                           	psect	text43
  4353  002BBC                     __ptext43:
  4354                           	opt callstack 0
  4355  002BBC                     _INT1_DefaultInterruptHandler:
  4356                           	opt callstack 24
  4357                           
  4358                           ; BSR set to: 57
  4359                           
  4360                           ;incstack = 0
  4361  002BBC  0012               	return		;funcret
  4362  002BBE                     __end_of_INT1_DefaultInterruptHandler:
  4363                           	opt callstack 0
  4364                           
  4365 ;; *************** function _INT2_ISR *****************
  4366 ;; Defined at:
  4367 ;;		line 87 in file "mcc_generated_files/ext_int.c"
  4368 ;; Parameters:    Size  Location     Type
  4369 ;;		None
  4370 ;; Auto vars:     Size  Location     Type
  4371 ;;		None
  4372 ;; Return value:  Size  Location     Type
  4373 ;;                  1    wreg      void 
  4374 ;; Registers used:
  4375 ;;		wreg, status,2, status,0, pclath, tosl, cstack
  4376 ;; Tracked objects:
  4377 ;;		On entry : 0/0
  4378 ;;		On exit  : 0/0
  4379 ;;		Unchanged: 0/0
  4380 ;; Data sizes:     COMRAM   BANK0   BANK1   BANK2   BANK3   BANK4   BANK5   BANK6   BANK7   BANK8   BANK9  BANK10  BANK1
      +1  BANK12  BANK13  BANK14  BANK15  BANK16  BANK17  BANK18  BANK19  BANK20  BANK21  BANK22  BANK23  BANK24  BANK25  BANK2
      +6  BANK27  BANK28  BANK29  BANK30  BANK31
  4381 ;;      Params:         0       0       0       0       0       0       0       0       0       0       0       0       
      +0       0       0       0       0       0       0       0       0       0       0       0       0       0       0       
      +0       0       0       0       0       0
  4382 ;;      Locals:         0       0       0       0       0       0       0       0       0       0       0       0       
      +0       0       0       0       0       0       0       0       0       0       0       0       0       0       0       
      +0       0       0       0       0       0
  4383 ;;      Temps:          0       0       0       0       0       0       0       0       0       0       0       0       
      +0       0       0       0       0       0       0       0       0       0       0       0       0       0       0       
      +0       0       0       0       0       0
  4384 ;;      Totals:         0       0       0       0       0       0       0       0       0       0       0       0       
      +0       0       0       0       0       0       0       0       0       0       0       0       0       0       0       
      +0       0       0       0       0       0
  4385 ;;Total ram usage:        0 bytes
  4386 ;; Hardware stack levels used:    1
  4387 ;; Hardware stack levels required when called:    2
  4388 ;; This function calls:
  4389 ;;		_INT2_CallBack
  4390 ;; This function is called by:
  4391 ;;		Interrupt level 2
  4392 ;; This function uses a non-reentrant model
  4393 ;;
  4394                           
  4395                           	psect	text44
  4396  002B84                     __ptext44:
  4397                           	opt callstack 0
  4398  002B84                     _INT2_ISR:
  4399                           	opt callstack 24
  4400                           
  4401                           ;ext_int.c: 89: (PIR7bits.INT2IF = 0);
  4402                           
  4403                           ; BSR set to: 57
  4404                           ;incstack = 0
  4405  002B84  0139               	movlb	57	; () banked
  4406  002B86  9BA7               	bcf	167,5,b	;volatile
  4407                           
  4408                           ; BSR set to: 57
  4409                           ;ext_int.c: 92: INT2_CallBack();
  4410  002B88  EC75  F014         	call	_INT2_CallBack	;wreg free
  4411  002B8C  0011               	retfie		f
  4412  002B8E                     __end_of_INT2_ISR:
  4413                           	opt callstack 0
  4414                           
  4415 ;; *************** function _INT2_CallBack *****************
  4416 ;; Defined at:
  4417 ;;		line 96 in file "mcc_generated_files/ext_int.c"
  4418 ;; Parameters:    Size  Location     Type
  4419 ;;		None
  4420 ;; Auto vars:     Size  Location     Type
  4421 ;;		None
  4422 ;; Return value:  Size  Location     Type
  4423 ;;                  1    wreg      void 
  4424 ;; Registers used:
  4425 ;;		wreg, status,2, status,0, pclath, tosl, cstack
  4426 ;; Tracked objects:
  4427 ;;		On entry : 3F/39
  4428 ;;		On exit  : 0/0
  4429 ;;		Unchanged: 0/0
  4430 ;; Data sizes:     COMRAM   BANK0   BANK1   BANK2   BANK3   BANK4   BANK5   BANK6   BANK7   BANK8   BANK9  BANK10  BANK1
      +1  BANK12  BANK13  BANK14  BANK15  BANK16  BANK17  BANK18  BANK19  BANK20  BANK21  BANK22  BANK23  BANK24  BANK25  BANK2
      +6  BANK27  BANK28  BANK29  BANK30  BANK31
  4431 ;;      Params:         0       0       0       0       0       0       0       0       0       0       0       0       
      +0       0       0       0       0       0       0       0       0       0       0       0       0       0       0       
      +0       0       0       0       0       0
  4432 ;;      Locals:         0       0       0       0       0       0       0       0       0       0       0       0       
      +0       0       0       0       0       0       0       0       0       0       0       0       0       0       0       
      +0       0       0       0       0       0
  4433 ;;      Temps:          0       0       0       0       0       0       0       0       0       0       0       0       
      +0       0       0       0       0       0       0       0       0       0       0       0       0       0       0       
      +0       0       0       0       0       0
  4434 ;;      Totals:         0       0       0       0       0       0       0       0       0       0       0       0       
      +0       0       0       0       0       0       0       0       0       0       0       0       0       0       0       
      +0       0       0       0       0       0
  4435 ;;Total ram usage:        0 bytes
  4436 ;; Hardware stack levels used:    1
  4437 ;; Hardware stack levels required when called:    1
  4438 ;; This function calls:
  4439 ;;		Absolute function
  4440 ;;		_INT2_DefaultInterruptHandler
  4441 ;; This function is called by:
  4442 ;;		_INT2_ISR
  4443 ;; This function uses a non-reentrant model
  4444 ;;
  4445                           
  4446                           	psect	text45
  4447  0028EA                     __ptext45:
  4448                           	opt callstack 0
  4449  0028EA                     _INT2_CallBack:
  4450                           	opt callstack 24
  4451                           
  4452                           ; BSR set to: 57
  4453                           ;ext_int.c: 99: if(INT2_InterruptHandler)
  4454                           
  4455                           ;incstack = 0
  4456  0028EA  5033               	movf	_INT2_InterruptHandler,w,c
  4457  0028EC  1034               	iorwf	_INT2_InterruptHandler+1,w,c
  4458  0028EE  1035               	iorwf	_INT2_InterruptHandler+2,w,c
  4459  0028F0  B4D8               	btfsc	status,2,c
  4460  0028F2  0012               	return	
  4461                           
  4462                           ; BSR set to: 57
  4463                           ;ext_int.c: 100: {;ext_int.c: 101: INT2_InterruptHandler();
  4464  0028F4  D801               	call	i2u22_48
  4465  0028F6  0012               	return	
  4466  0028F8                     i2u22_48:
  4467  0028F8  0005               	push	
  4468  0028FA  6EFA               	movwf	pclath,c
  4469  0028FC  5033               	movf	_INT2_InterruptHandler,w,c
  4470  0028FE  6EFD               	movwf	tosl,c
  4471  002900  5034               	movf	_INT2_InterruptHandler+1,w,c
  4472  002902  6EFE               	movwf	tosh,c
  4473  002904  5035               	movf	_INT2_InterruptHandler+2,w,c
  4474  002906  6EFF               	movwf	tosu,c
  4475  002908  50FA               	movf	pclath,w,c
  4476  00290A  0012               	return		;indir
  4477  00290C                     __end_of_INT2_CallBack:
  4478                           	opt callstack 0
  4479                           
  4480 ;; *************** function _INT2_DefaultInterruptHandler *****************
  4481 ;; Defined at:
  4482 ;;		line 109 in file "mcc_generated_files/ext_int.c"
  4483 ;; Parameters:    Size  Location     Type
  4484 ;;		None
  4485 ;; Auto vars:     Size  Location     Type
  4486 ;;		None
  4487 ;; Return value:  Size  Location     Type
  4488 ;;                  1    wreg      void 
  4489 ;; Registers used:
  4490 ;;		None
  4491 ;; Tracked objects:
  4492 ;;		On entry : 3F/39
  4493 ;;		On exit  : 3F/39
  4494 ;;		Unchanged: 3E/0
  4495 ;; Data sizes:     COMRAM   BANK0   BANK1   BANK2   BANK3   BANK4   BANK5   BANK6   BANK7   BANK8   BANK9  BANK10  BANK1
      +1  BANK12  BANK13  BANK14  BANK15  BANK16  BANK17  BANK18  BANK19  BANK20  BANK21  BANK22  BANK23  BANK24  BANK25  BANK2
      +6  BANK27  BANK28  BANK29  BANK30  BANK31
  4496 ;;      Params:         0       0       0       0       0       0       0       0       0       0       0       0       
      +0       0       0       0       0       0       0       0       0       0       0       0       0       0       0       
      +0       0       0       0       0       0
  4497 ;;      Locals:         0       0       0       0       0       0       0       0       0       0       0       0       
      +0       0       0       0       0       0       0       0       0       0       0       0       0       0       0       
      +0       0       0       0       0       0
  4498 ;;      Temps:          0       0       0       0       0       0       0       0       0       0       0       0       
      +0       0       0       0       0       0       0       0       0       0       0       0       0       0       0       
      +0       0       0       0       0       0
  4499 ;;      Totals:         0       0       0       0       0       0       0       0       0       0       0       0       
      +0       0       0       0       0       0       0       0       0       0       0       0       0       0       0       
      +0       0       0       0       0       0
  4500 ;;Total ram usage:        0 bytes
  4501 ;; Hardware stack levels used:    1
  4502 ;; This function calls:
  4503 ;;		Nothing
  4504 ;; This function is called by:
  4505 ;;		_EXT_INT_Initialize
  4506 ;;		_INT2_CallBack
  4507 ;; This function uses a non-reentrant model
  4508 ;;
  4509                           
  4510                           	psect	text46
  4511  002BBE                     __ptext46:
  4512                           	opt callstack 0
  4513  002BBE                     _INT2_DefaultInterruptHandler:
  4514                           	opt callstack 24
  4515                           
  4516                           ; BSR set to: 57
  4517                           
  4518                           ;incstack = 0
  4519  002BBE  0012               	return		;funcret
  4520  002BC0                     __end_of_INT2_DefaultInterruptHandler:
  4521                           	opt callstack 0
  4522                           
  4523 ;; *************** function _Default_ISR *****************
  4524 ;; Defined at:
  4525 ;;		line 87 in file "mcc_generated_files/interrupt_manager.c"
  4526 ;; Parameters:    Size  Location     Type
  4527 ;;		None
  4528 ;; Auto vars:     Size  Location     Type
  4529 ;;		None
  4530 ;; Return value:  Size  Location     Type
  4531 ;;                  1    wreg      void 
  4532 ;; Registers used:
  4533 ;;		None
  4534 ;; Tracked objects:
  4535 ;;		On entry : 0/0
  4536 ;;		On exit  : 0/0
  4537 ;;		Unchanged: 0/0
  4538 ;; Data sizes:     COMRAM   BANK0   BANK1   BANK2   BANK3   BANK4   BANK5   BANK6   BANK7   BANK8   BANK9  BANK10  BANK1
      +1  BANK12  BANK13  BANK14  BANK15  BANK16  BANK17  BANK18  BANK19  BANK20  BANK21  BANK22  BANK23  BANK24  BANK25  BANK2
      +6  BANK27  BANK28  BANK29  BANK30  BANK31
  4539 ;;      Params:         0       0       0       0       0       0       0       0       0       0       0       0       
      +0       0       0       0       0       0       0       0       0       0       0       0       0       0       0       
      +0       0       0       0       0       0
  4540 ;;      Locals:         0       0       0       0       0       0       0       0       0       0       0       0       
      +0       0       0       0       0       0       0       0       0       0       0       0       0       0       0       
      +0       0       0       0       0       0
  4541 ;;      Temps:          0       0       0       0       0       0       0       0       0       0       0       0       
      +0       0       0       0       0       0       0       0       0       0       0       0       0       0       0       
      +0       0       0       0       0       0
  4542 ;;      Totals:         0       0       0       0       0       0       0       0       0       0       0       0       
      +0       0       0       0       0       0       0       0       0       0       0       0       0       0       0       
      +0       0       0       0       0       0
  4543 ;;Total ram usage:        0 bytes
  4544 ;; Hardware stack levels used:    1
  4545 ;; This function calls:
  4546 ;;		Nothing
  4547 ;; This function is called by:
  4548 ;;		Interrupt level 2
  4549 ;; This function uses a non-reentrant model
  4550 ;;
  4551                           
  4552                           	psect	text47
  4553  002BC0                     __ptext47:
  4554                           	opt callstack 0
  4555  002BC0                     _Default_ISR:
  4556                           	opt callstack 26
  4557                           
  4558                           ; BSR set to: 57
  4559                           ;incstack = 0
  4560  002BC0  0011               	retfie		f
  4561  002BC2                     __end_of_Default_ISR:
  4562                           	opt callstack 0
  4563                           
  4564 ;; *************** function _ADCC_ISR *****************
  4565 ;; Defined at:
  4566 ;;		line 307 in file "mcc_generated_files/adcc.c"
  4567 ;; Parameters:    Size  Location     Type
  4568 ;;		None
  4569 ;; Auto vars:     Size  Location     Type
  4570 ;;		None
  4571 ;; Return value:  Size  Location     Type
  4572 ;;                  1    wreg      void 
  4573 ;; Registers used:
  4574 ;;		wreg, status,2, status,0, pclath, tosl, cstack
  4575 ;; Tracked objects:
  4576 ;;		On entry : 0/0
  4577 ;;		On exit  : 0/0
  4578 ;;		Unchanged: 0/0
  4579 ;; Data sizes:     COMRAM   BANK0   BANK1   BANK2   BANK3   BANK4   BANK5   BANK6   BANK7   BANK8   BANK9  BANK10  BANK1
      +1  BANK12  BANK13  BANK14  BANK15  BANK16  BANK17  BANK18  BANK19  BANK20  BANK21  BANK22  BANK23  BANK24  BANK25  BANK2
      +6  BANK27  BANK28  BANK29  BANK30  BANK31
  4580 ;;      Params:         0       0       0       0       0       0       0       0       0       0       0       0       
      +0       0       0       0       0       0       0       0       0       0       0       0       0       0       0       
      +0       0       0       0       0       0
  4581 ;;      Locals:         0       0       0       0       0       0       0       0       0       0       0       0       
      +0       0       0       0       0       0       0       0       0       0       0       0       0       0       0       
      +0       0       0       0       0       0
  4582 ;;      Temps:          0       0       0       0       0       0       0       0       0       0       0       0       
      +0       0       0       0       0       0       0       0       0       0       0       0       0       0       0       
      +0       0       0       0       0       0
  4583 ;;      Totals:         0       0       0       0       0       0       0       0       0       0       0       0       
      +0       0       0       0       0       0       0       0       0       0       0       0       0       0       0       
      +0       0       0       0       0       0
  4584 ;;Total ram usage:        0 bytes
  4585 ;; Hardware stack levels used:    1
  4586 ;; Hardware stack levels required when called:    1
  4587 ;; This function calls:
  4588 ;;		Absolute function
  4589 ;;		_ADCC_DefaultInterruptHandler
  4590 ;; This function is called by:
  4591 ;;		Interrupt level 2
  4592 ;; This function uses a non-reentrant model
  4593 ;;
  4594                           
  4595                           	psect	text48
  4596  0027F4                     __ptext48:
  4597                           	opt callstack 0
  4598  0027F4                     _ADCC_ISR:
  4599                           	opt callstack 25
  4600                           
  4601                           ;adcc.c: 310: PIR1bits.ADIF = 0;
  4602                           
  4603                           ;incstack = 0
  4604  0027F4  0139               	movlb	57	; () banked
  4605  0027F6  95A1               	bcf	161,2,b	;volatile
  4606                           
  4607                           ; BSR set to: 57
  4608                           ;adcc.c: 312: if (ADCC_ADI_InterruptHandler)
  4609  0027F8  5024               	movf	_ADCC_ADI_InterruptHandler,w,c
  4610  0027FA  1025               	iorwf	_ADCC_ADI_InterruptHandler+1,w,c
  4611  0027FC  1026               	iorwf	_ADCC_ADI_InterruptHandler+2,w,c
  4612  0027FE  B4D8               	btfsc	status,2,c
  4613  002800  0011               	retfie		f
  4614                           
  4615                           ; BSR set to: 57
  4616                           ;adcc.c: 313: ADCC_ADI_InterruptHandler();
  4617  002802  D801               	call	i2u34_48
  4618  002804  0011               	retfie		f
  4619  002806                     i2u34_48:
  4620  002806  0005               	push	
  4621  002808  6EFA               	movwf	pclath,c
  4622  00280A  5024               	movf	_ADCC_ADI_InterruptHandler,w,c
  4623  00280C  6EFD               	movwf	tosl,c
  4624  00280E  5025               	movf	_ADCC_ADI_InterruptHandler+1,w,c
  4625  002810  6EFE               	movwf	tosh,c
  4626  002812  5026               	movf	_ADCC_ADI_InterruptHandler+2,w,c
  4627  002814  6EFF               	movwf	tosu,c
  4628  002816  50FA               	movf	pclath,w,c
  4629  002818  0012               	return		;indir
  4630  00281A                     __end_of_ADCC_ISR:
  4631                           	opt callstack 0
  4632                           
  4633 ;; *************** function _ADCC_DefaultInterruptHandler *****************
  4634 ;; Defined at:
  4635 ;;		line 320 in file "mcc_generated_files/adcc.c"
  4636 ;; Parameters:    Size  Location     Type
  4637 ;;		None
  4638 ;; Auto vars:     Size  Location     Type
  4639 ;;		None
  4640 ;; Return value:  Size  Location     Type
  4641 ;;                  1    wreg      void 
  4642 ;; Registers used:
  4643 ;;		None
  4644 ;; Tracked objects:
  4645 ;;		On entry : 3F/39
  4646 ;;		On exit  : 3F/39
  4647 ;;		Unchanged: 3E/0
  4648 ;; Data sizes:     COMRAM   BANK0   BANK1   BANK2   BANK3   BANK4   BANK5   BANK6   BANK7   BANK8   BANK9  BANK10  BANK1
      +1  BANK12  BANK13  BANK14  BANK15  BANK16  BANK17  BANK18  BANK19  BANK20  BANK21  BANK22  BANK23  BANK24  BANK25  BANK2
      +6  BANK27  BANK28  BANK29  BANK30  BANK31
  4649 ;;      Params:         0       0       0       0       0       0       0       0       0       0       0       0       
      +0       0       0       0       0       0       0       0       0       0       0       0       0       0       0       
      +0       0       0       0       0       0
  4650 ;;      Locals:         0       0       0       0       0       0       0       0       0       0       0       0       
      +0       0       0       0       0       0       0       0       0       0       0       0       0       0       0       
      +0       0       0       0       0       0
  4651 ;;      Temps:          0       0       0       0       0       0       0       0       0       0       0       0       
      +0       0       0       0       0       0       0       0       0       0       0       0       0       0       0       
      +0       0       0       0       0       0
  4652 ;;      Totals:         0       0       0       0       0       0       0       0       0       0       0       0       
      +0       0       0       0       0       0       0       0       0       0       0       0       0       0       0       
      +0       0       0       0       0       0
  4653 ;;Total ram usage:        0 bytes
  4654 ;; Hardware stack levels used:    1
  4655 ;; This function calls:
  4656 ;;		Nothing
  4657 ;; This function is called by:
  4658 ;;		_ADCC_Initialize
  4659 ;;		_ADCC_ISR
  4660 ;; This function uses a non-reentrant model
  4661 ;;
  4662                           
  4663                           	psect	text49
  4664  002BC2                     __ptext49:
  4665                           	opt callstack 0
  4666  002BC2                     _ADCC_DefaultInterruptHandler:
  4667                           	opt callstack 25
  4668                           
  4669                           ; BSR set to: 57
  4670                           
  4671                           ;incstack = 0
  4672  002BC2  0012               	return		;funcret
  4673  002BC4                     __end_of_ADCC_DefaultInterruptHandler:
  4674                           	opt callstack 0
  4675                           
  4676 ;; *************** function _UART1_tx_vect_isr *****************
  4677 ;; Defined at:
  4678 ;;		line 204 in file "mcc_generated_files/uart1.c"
  4679 ;; Parameters:    Size  Location     Type
  4680 ;;		None
  4681 ;; Auto vars:     Size  Location     Type
  4682 ;;		None
  4683 ;; Return value:  Size  Location     Type
  4684 ;;                  1    wreg      void 
  4685 ;; Registers used:
  4686 ;;		wreg, fsr2l, fsr2h, status,2, status,0, pclath, tosl, cstack
  4687 ;; Tracked objects:
  4688 ;;		On entry : 0/0
  4689 ;;		On exit  : 0/0
  4690 ;;		Unchanged: 0/0
  4691 ;; Data sizes:     COMRAM   BANK0   BANK1   BANK2   BANK3   BANK4   BANK5   BANK6   BANK7   BANK8   BANK9  BANK10  BANK1
      +1  BANK12  BANK13  BANK14  BANK15  BANK16  BANK17  BANK18  BANK19  BANK20  BANK21  BANK22  BANK23  BANK24  BANK25  BANK2
      +6  BANK27  BANK28  BANK29  BANK30  BANK31
  4692 ;;      Params:         0       0       0       0       0       0       0       0       0       0       0       0       
      +0       0       0       0       0       0       0       0       0       0       0       0       0       0       0       
      +0       0       0       0       0       0
  4693 ;;      Locals:         0       0       0       0       0       0       0       0       0       0       0       0       
      +0       0       0       0       0       0       0       0       0       0       0       0       0       0       0       
      +0       0       0       0       0       0
  4694 ;;      Temps:          0       0       0       0       0       0       0       0       0       0       0       0       
      +0       0       0       0       0       0       0       0       0       0       0       0       0       0       0       
      +0       0       0       0       0       0
  4695 ;;      Totals:         0       0       0       0       0       0       0       0       0       0       0       0       
      +0       0       0       0       0       0       0       0       0       0       0       0       0       0       0       
      +0       0       0       0       0       0
  4696 ;;Total ram usage:        0 bytes
  4697 ;; Hardware stack levels used:    1
  4698 ;; Hardware stack levels required when called:    1
  4699 ;; This function calls:
  4700 ;;		Absolute function
  4701 ;;		_UART1_Transmit_ISR
  4702 ;; This function is called by:
  4703 ;;		Interrupt level 2
  4704 ;; This function uses a non-reentrant model
  4705 ;;
  4706                           
  4707                           	psect	text50
  4708  00290C                     __ptext50:
  4709                           	opt callstack 0
  4710  00290C                     _UART1_tx_vect_isr:
  4711                           	opt callstack 25
  4712                           
  4713                           ;uart1.c: 206: if(UART1_TxInterruptHandler)
  4714                           
  4715                           ; BSR set to: 57
  4716                           ;incstack = 0
  4717  00290C  5027               	movf	_UART1_TxInterruptHandler,w,c
  4718  00290E  1028               	iorwf	_UART1_TxInterruptHandler+1,w,c
  4719  002910  1029               	iorwf	_UART1_TxInterruptHandler+2,w,c
  4720  002912  B4D8               	btfsc	status,2,c
  4721  002914  0011               	retfie		f
  4722                           
  4723                           ;uart1.c: 207: {;uart1.c: 208: UART1_TxInterruptHandler();
  4724  002916  D801               	call	i2u36_48
  4725  002918  0011               	retfie		f
  4726  00291A                     i2u36_48:
  4727  00291A  0005               	push	
  4728  00291C  6EFA               	movwf	pclath,c
  4729  00291E  5027               	movf	_UART1_TxInterruptHandler,w,c
  4730  002920  6EFD               	movwf	tosl,c
  4731  002922  5028               	movf	_UART1_TxInterruptHandler+1,w,c
  4732  002924  6EFE               	movwf	tosh,c
  4733  002926  5029               	movf	_UART1_TxInterruptHandler+2,w,c
  4734  002928  6EFF               	movwf	tosu,c
  4735  00292A  50FA               	movf	pclath,w,c
  4736  00292C  0012               	return		;indir
  4737  00292E                     __end_of_UART1_tx_vect_isr:
  4738                           	opt callstack 0
  4739                           
  4740 ;; *************** function _UART1_Transmit_ISR *****************
  4741 ;; Defined at:
  4742 ;;		line 222 in file "mcc_generated_files/uart1.c"
  4743 ;; Parameters:    Size  Location     Type
  4744 ;;		None
  4745 ;; Auto vars:     Size  Location     Type
  4746 ;;		None
  4747 ;; Return value:  Size  Location     Type
  4748 ;;                  1    wreg      void 
  4749 ;; Registers used:
  4750 ;;		wreg, fsr2l, fsr2h, status,2, status,0
  4751 ;; Tracked objects:
  4752 ;;		On entry : 0/0
  4753 ;;		On exit  : 3B/39
  4754 ;;		Unchanged: 0/0
  4755 ;; Data sizes:     COMRAM   BANK0   BANK1   BANK2   BANK3   BANK4   BANK5   BANK6   BANK7   BANK8   BANK9  BANK10  BANK1
      +1  BANK12  BANK13  BANK14  BANK15  BANK16  BANK17  BANK18  BANK19  BANK20  BANK21  BANK22  BANK23  BANK24  BANK25  BANK2
      +6  BANK27  BANK28  BANK29  BANK30  BANK31
  4756 ;;      Params:         0       0       0       0       0       0       0       0       0       0       0       0       
      +0       0       0       0       0       0       0       0       0       0       0       0       0       0       0       
      +0       0       0       0       0       0
  4757 ;;      Locals:         0       0       0       0       0       0       0       0       0       0       0       0       
      +0       0       0       0       0       0       0       0       0       0       0       0       0       0       0       
      +0       0       0       0       0       0
  4758 ;;      Temps:          0       0       0       0       0       0       0       0       0       0       0       0       
      +0       0       0       0       0       0       0       0       0       0       0       0       0       0       0       
      +0       0       0       0       0       0
  4759 ;;      Totals:         0       0       0       0       0       0       0       0       0       0       0       0       
      +0       0       0       0       0       0       0       0       0       0       0       0       0       0       0       
      +0       0       0       0       0       0
  4760 ;;Total ram usage:        0 bytes
  4761 ;; Hardware stack levels used:    1
  4762 ;; This function calls:
  4763 ;;		Nothing
  4764 ;; This function is called by:
  4765 ;;		_UART1_Initialize
  4766 ;;		_UART1_tx_vect_isr
  4767 ;; This function uses a non-reentrant model
  4768 ;;
  4769                           
  4770                           	psect	text51
  4771  002776                     __ptext51:
  4772                           	opt callstack 0
  4773  002776                     _UART1_Transmit_ISR:
  4774                           	opt callstack 25
  4775                           
  4776                           ;uart1.c: 225: if(sizeof(uart1TxBuffer) > uart1TxBufferRemaining)
  4777                           
  4778                           ;incstack = 0
  4779  002776  0E08               	movlw	8
  4780  002778  6047               	cpfslt	_uart1TxBufferRemaining,c
  4781  00277A  D00F               	goto	i2l579
  4782                           
  4783                           ;uart1.c: 226: {;uart1.c: 227: U1TXB = uart1TxBuffer[uart1TxTail++];
  4784  00277C  5048               	movf	_uart1TxTail,w,c
  4785  00277E  0F15               	addlw	low _uart1TxBuffer
  4786  002780  6ED9               	movwf	fsr2l,c
  4787  002782  6ADA               	clrf	fsr2h,c
  4788  002784  50DF               	movf	indf2,w,c
  4789  002786  013D               	movlb	61	; () banked
  4790  002788  6FEA               	movwf	234,b	;volatile
  4791                           
  4792                           ; BSR set to: 61
  4793  00278A  2A48               	incf	_uart1TxTail,f,c	;volatile
  4794                           
  4795                           ; BSR set to: 61
  4796                           ;uart1.c: 228: if(sizeof(uart1TxBuffer) <= uart1TxTail)
  4797  00278C  0E07               	movlw	7
  4798  00278E  6448               	cpfsgt	_uart1TxTail,c
  4799  002790  D002               	goto	i2l2237
  4800                           
  4801                           ; BSR set to: 61
  4802                           ;uart1.c: 229: {;uart1.c: 230: uart1TxTail = 0;
  4803  002792  0E00               	movlw	0
  4804  002794  6E48               	movwf	_uart1TxTail,c	;volatile
  4805  002796                     i2l2237:
  4806                           
  4807                           ; BSR set to: 61
  4808                           ;uart1.c: 231: };uart1.c: 232: uart1TxBufferRemaining++;
  4809  002796  2A47               	incf	_uart1TxBufferRemaining,f,c	;volatile
  4810                           
  4811                           ;uart1.c: 233: }
  4812  002798  0012               	return	
  4813  00279A                     i2l579:
  4814                           
  4815                           ;uart1.c: 234: else;uart1.c: 235: {;uart1.c: 236: PIE3bits.U1TXIE = 0;
  4816  00279A  0139               	movlb	57	; () banked
  4817  00279C  9993               	bcf	147,4,b	;volatile
  4818  00279E  0012               	return		;funcret
  4819  0027A0                     __end_of_UART1_Transmit_ISR:
  4820                           	opt callstack 0
  4821                           
  4822 ;; *************** function _UART1_rx_vect_isr *****************
  4823 ;; Defined at:
  4824 ;;		line 212 in file "mcc_generated_files/uart1.c"
  4825 ;; Parameters:    Size  Location     Type
  4826 ;;		None
  4827 ;; Auto vars:     Size  Location     Type
  4828 ;;		None
  4829 ;; Return value:  Size  Location     Type
  4830 ;;                  1    wreg      void 
  4831 ;; Registers used:
  4832 ;;		wreg, fsr2l, fsr2h, status,2, status,0, pclath, tosl, cstack
  4833 ;; Tracked objects:
  4834 ;;		On entry : 0/0
  4835 ;;		On exit  : 0/0
  4836 ;;		Unchanged: 0/0
  4837 ;; Data sizes:     COMRAM   BANK0   BANK1   BANK2   BANK3   BANK4   BANK5   BANK6   BANK7   BANK8   BANK9  BANK10  BANK1
      +1  BANK12  BANK13  BANK14  BANK15  BANK16  BANK17  BANK18  BANK19  BANK20  BANK21  BANK22  BANK23  BANK24  BANK25  BANK2
      +6  BANK27  BANK28  BANK29  BANK30  BANK31
  4838 ;;      Params:         0       0       0       0       0       0       0       0       0       0       0       0       
      +0       0       0       0       0       0       0       0       0       0       0       0       0       0       0       
      +0       0       0       0       0       0
  4839 ;;      Locals:         0       0       0       0       0       0       0       0       0       0       0       0       
      +0       0       0       0       0       0       0       0       0       0       0       0       0       0       0       
      +0       0       0       0       0       0
  4840 ;;      Temps:          0       0       0       0       0       0       0       0       0       0       0       0       
      +0       0       0       0       0       0       0       0       0       0       0       0       0       0       0       
      +0       0       0       0       0       0
  4841 ;;      Totals:         0       0       0       0       0       0       0       0       0       0       0       0       
      +0       0       0       0       0       0       0       0       0       0       0       0       0       0       0       
      +0       0       0       0       0       0
  4842 ;;Total ram usage:        0 bytes
  4843 ;; Hardware stack levels used:    1
  4844 ;; Hardware stack levels required when called:    1
  4845 ;; This function calls:
  4846 ;;		Absolute function
  4847 ;;		_UART1_Receive_ISR
  4848 ;; This function is called by:
  4849 ;;		Interrupt level 2
  4850 ;; This function uses a non-reentrant model
  4851 ;;
  4852                           
  4853                           	psect	text52
  4854  002930                     __ptext52:
  4855                           	opt callstack 0
  4856  002930                     _UART1_rx_vect_isr:
  4857                           	opt callstack 25
  4858                           
  4859                           ;uart1.c: 214: if(UART1_RxInterruptHandler)
  4860                           
  4861                           ;incstack = 0
  4862  002930  502A               	movf	_UART1_RxInterruptHandler,w,c
  4863  002932  102B               	iorwf	_UART1_RxInterruptHandler+1,w,c
  4864  002934  102C               	iorwf	_UART1_RxInterruptHandler+2,w,c
  4865  002936  B4D8               	btfsc	status,2,c
  4866  002938  0011               	retfie		f
  4867                           
  4868                           ;uart1.c: 215: {;uart1.c: 216: UART1_RxInterruptHandler();
  4869  00293A  D801               	call	i2u38_48
  4870  00293C  0011               	retfie		f
  4871  00293E                     i2u38_48:
  4872  00293E  0005               	push	
  4873  002940  6EFA               	movwf	pclath,c
  4874  002942  502A               	movf	_UART1_RxInterruptHandler,w,c
  4875  002944  6EFD               	movwf	tosl,c
  4876  002946  502B               	movf	_UART1_RxInterruptHandler+1,w,c
  4877  002948  6EFE               	movwf	tosh,c
  4878  00294A  502C               	movf	_UART1_RxInterruptHandler+2,w,c
  4879  00294C  6EFF               	movwf	tosu,c
  4880  00294E  50FA               	movf	pclath,w,c
  4881  002950  0012               	return		;indir
  4882  002952                     __end_of_UART1_rx_vect_isr:
  4883                           	opt callstack 0
  4884                           
  4885 ;; *************** function _UART1_Receive_ISR *****************
  4886 ;; Defined at:
  4887 ;;		line 242 in file "mcc_generated_files/uart1.c"
  4888 ;; Parameters:    Size  Location     Type
  4889 ;;		None
  4890 ;; Auto vars:     Size  Location     Type
  4891 ;;		None
  4892 ;; Return value:  Size  Location     Type
  4893 ;;                  1    wreg      void 
  4894 ;; Registers used:
  4895 ;;		wreg, fsr2l, fsr2h, status,2, status,0
  4896 ;; Tracked objects:
  4897 ;;		On entry : 0/0
  4898 ;;		On exit  : 0/0
  4899 ;;		Unchanged: 0/0
  4900 ;; Data sizes:     COMRAM   BANK0   BANK1   BANK2   BANK3   BANK4   BANK5   BANK6   BANK7   BANK8   BANK9  BANK10  BANK1
      +1  BANK12  BANK13  BANK14  BANK15  BANK16  BANK17  BANK18  BANK19  BANK20  BANK21  BANK22  BANK23  BANK24  BANK25  BANK2
      +6  BANK27  BANK28  BANK29  BANK30  BANK31
  4901 ;;      Params:         0       0       0       0       0       0       0       0       0       0       0       0       
      +0       0       0       0       0       0       0       0       0       0       0       0       0       0       0       
      +0       0       0       0       0       0
  4902 ;;      Locals:         0       0       0       0       0       0       0       0       0       0       0       0       
      +0       0       0       0       0       0       0       0       0       0       0       0       0       0       0       
      +0       0       0       0       0       0
  4903 ;;      Temps:          0       0       0       0       0       0       0       0       0       0       0       0       
      +0       0       0       0       0       0       0       0       0       0       0       0       0       0       0       
      +0       0       0       0       0       0
  4904 ;;      Totals:         0       0       0       0       0       0       0       0       0       0       0       0       
      +0       0       0       0       0       0       0       0       0       0       0       0       0       0       0       
      +0       0       0       0       0       0
  4905 ;;Total ram usage:        0 bytes
  4906 ;; Hardware stack levels used:    1
  4907 ;; This function calls:
  4908 ;;		Nothing
  4909 ;; This function is called by:
  4910 ;;		_UART1_Initialize
  4911 ;;		_UART1_rx_vect_isr
  4912 ;; This function uses a non-reentrant model
  4913 ;;
  4914                           
  4915                           	psect	text53
  4916  0029E0                     __ptext53:
  4917                           	opt callstack 0
  4918  0029E0                     _UART1_Receive_ISR:
  4919                           	opt callstack 25
  4920                           
  4921                           ;uart1.c: 245: uart1RxBuffer[uart1RxHead++] = U1RXB;
  4922                           
  4923                           ;incstack = 0
  4924  0029E0  5046               	movf	_uart1RxHead,w,c
  4925  0029E2  0F0D               	addlw	low _uart1RxBuffer
  4926  0029E4  6ED9               	movwf	fsr2l,c
  4927  0029E6  6ADA               	clrf	fsr2h,c
  4928  0029E8  006F F7A3 FFDF     	movff	15848,indf2	;volatile
  4929  0029EE  2A46               	incf	_uart1RxHead,f,c	;volatile
  4930                           
  4931                           ;uart1.c: 246: if(sizeof(uart1RxBuffer) <= uart1RxHead)
  4932  0029F0  0E07               	movlw	7
  4933  0029F2  6446               	cpfsgt	_uart1RxHead,c
  4934  0029F4  D002               	goto	i2l2247
  4935                           
  4936                           ;uart1.c: 247: {;uart1.c: 248: uart1RxHead = 0;
  4937  0029F6  0E00               	movlw	0
  4938  0029F8  6E46               	movwf	_uart1RxHead,c	;volatile
  4939  0029FA                     i2l2247:
  4940                           
  4941                           ;uart1.c: 249: };uart1.c: 250: uart1RxCount++;
  4942  0029FA  2A44               	incf	_uart1RxCount,f,c	;volatile
  4943  0029FC  0012               	return		;funcret
  4944  0029FE                     __end_of_UART1_Receive_ISR:
  4945                           	opt callstack 0
  4946                           
  4947 ;; *************** function _UART2_tx_vect_isr *****************
  4948 ;; Defined at:
  4949 ;;		line 195 in file "mcc_generated_files/uart2.c"
  4950 ;; Parameters:    Size  Location     Type
  4951 ;;		None
  4952 ;; Auto vars:     Size  Location     Type
  4953 ;;		None
  4954 ;; Return value:  Size  Location     Type
  4955 ;;                  1    wreg      void 
  4956 ;; Registers used:
  4957 ;;		wreg, fsr2l, fsr2h, status,2, status,0, pclath, tosl, cstack
  4958 ;; Tracked objects:
  4959 ;;		On entry : 0/0
  4960 ;;		On exit  : 0/0
  4961 ;;		Unchanged: 0/0
  4962 ;; Data sizes:     COMRAM   BANK0   BANK1   BANK2   BANK3   BANK4   BANK5   BANK6   BANK7   BANK8   BANK9  BANK10  BANK1
      +1  BANK12  BANK13  BANK14  BANK15  BANK16  BANK17  BANK18  BANK19  BANK20  BANK21  BANK22  BANK23  BANK24  BANK25  BANK2
      +6  BANK27  BANK28  BANK29  BANK30  BANK31
  4963 ;;      Params:         0       0       0       0       0       0       0       0       0       0       0       0       
      +0       0       0       0       0       0       0       0       0       0       0       0       0       0       0       
      +0       0       0       0       0       0
  4964 ;;      Locals:         0       0       0       0       0       0       0       0       0       0       0       0       
      +0       0       0       0       0       0       0       0       0       0       0       0       0       0       0       
      +0       0       0       0       0       0
  4965 ;;      Temps:          0       0       0       0       0       0       0       0       0       0       0       0       
      +0       0       0       0       0       0       0       0       0       0       0       0       0       0       0       
      +0       0       0       0       0       0
  4966 ;;      Totals:         0       0       0       0       0       0       0       0       0       0       0       0       
      +0       0       0       0       0       0       0       0       0       0       0       0       0       0       0       
      +0       0       0       0       0       0
  4967 ;;Total ram usage:        0 bytes
  4968 ;; Hardware stack levels used:    1
  4969 ;; Hardware stack levels required when called:    1
  4970 ;; This function calls:
  4971 ;;		Absolute function
  4972 ;;		_UART2_Transmit_ISR
  4973 ;; This function is called by:
  4974 ;;		Interrupt level 2
  4975 ;; This function uses a non-reentrant model
  4976 ;;
  4977                           
  4978                           	psect	text54
  4979  002954                     __ptext54:
  4980                           	opt callstack 0
  4981  002954                     _UART2_tx_vect_isr:
  4982                           	opt callstack 25
  4983                           
  4984                           ;uart2.c: 197: if(UART2_TxInterruptHandler)
  4985                           
  4986                           ;incstack = 0
  4987  002954  502D               	movf	_UART2_TxInterruptHandler,w,c
  4988  002956  102E               	iorwf	_UART2_TxInterruptHandler+1,w,c
  4989  002958  102F               	iorwf	_UART2_TxInterruptHandler+2,w,c
  4990  00295A  B4D8               	btfsc	status,2,c
  4991  00295C  0011               	retfie		f
  4992                           
  4993                           ;uart2.c: 198: {;uart2.c: 199: UART2_TxInterruptHandler();
  4994  00295E  D801               	call	i2u62_48
  4995  002960  0011               	retfie		f
  4996  002962                     i2u62_48:
  4997  002962  0005               	push	
  4998  002964  6EFA               	movwf	pclath,c
  4999  002966  502D               	movf	_UART2_TxInterruptHandler,w,c
  5000  002968  6EFD               	movwf	tosl,c
  5001  00296A  502E               	movf	_UART2_TxInterruptHandler+1,w,c
  5002  00296C  6EFE               	movwf	tosh,c
  5003  00296E  502F               	movf	_UART2_TxInterruptHandler+2,w,c
  5004  002970  6EFF               	movwf	tosu,c
  5005  002972  50FA               	movf	pclath,w,c
  5006  002974  0012               	return		;indir
  5007  002976                     __end_of_UART2_tx_vect_isr:
  5008                           	opt callstack 0
  5009                           
  5010 ;; *************** function _UART2_Transmit_ISR *****************
  5011 ;; Defined at:
  5012 ;;		line 213 in file "mcc_generated_files/uart2.c"
  5013 ;; Parameters:    Size  Location     Type
  5014 ;;		None
  5015 ;; Auto vars:     Size  Location     Type
  5016 ;;		None
  5017 ;; Return value:  Size  Location     Type
  5018 ;;                  1    wreg      void 
  5019 ;; Registers used:
  5020 ;;		wreg, fsr2l, fsr2h, status,2, status,0
  5021 ;; Tracked objects:
  5022 ;;		On entry : 0/0
  5023 ;;		On exit  : 3B/39
  5024 ;;		Unchanged: 0/0
  5025 ;; Data sizes:     COMRAM   BANK0   BANK1   BANK2   BANK3   BANK4   BANK5   BANK6   BANK7   BANK8   BANK9  BANK10  BANK1
      +1  BANK12  BANK13  BANK14  BANK15  BANK16  BANK17  BANK18  BANK19  BANK20  BANK21  BANK22  BANK23  BANK24  BANK25  BANK2
      +6  BANK27  BANK28  BANK29  BANK30  BANK31
  5026 ;;      Params:         0       0       0       0       0       0       0       0       0       0       0       0       
      +0       0       0       0       0       0       0       0       0       0       0       0       0       0       0       
      +0       0       0       0       0       0
  5027 ;;      Locals:         0       0       0       0       0       0       0       0       0       0       0       0       
      +0       0       0       0       0       0       0       0       0       0       0       0       0       0       0       
      +0       0       0       0       0       0
  5028 ;;      Temps:          0       0       0       0       0       0       0       0       0       0       0       0       
      +0       0       0       0       0       0       0       0       0       0       0       0       0       0       0       
      +0       0       0       0       0       0
  5029 ;;      Totals:         0       0       0       0       0       0       0       0       0       0       0       0       
      +0       0       0       0       0       0       0       0       0       0       0       0       0       0       0       
      +0       0       0       0       0       0
  5030 ;;Total ram usage:        0 bytes
  5031 ;; Hardware stack levels used:    1
  5032 ;; This function calls:
  5033 ;;		Nothing
  5034 ;; This function is called by:
  5035 ;;		_UART2_Initialize
  5036 ;;		_UART2_tx_vect_isr
  5037 ;; This function uses a non-reentrant model
  5038 ;;
  5039                           
  5040                           	psect	text55
  5041  0027A0                     __ptext55:
  5042                           	opt callstack 0
  5043  0027A0                     _UART2_Transmit_ISR:
  5044                           	opt callstack 25
  5045                           
  5046                           ;uart2.c: 216: if(sizeof(uart2TxBuffer) > uart2TxBufferRemaining)
  5047                           
  5048                           ;incstack = 0
  5049  0027A0  0E08               	movlw	8
  5050  0027A2  6041               	cpfslt	_uart2TxBufferRemaining,c
  5051  0027A4  D00F               	goto	i2l695
  5052                           
  5053                           ;uart2.c: 217: {;uart2.c: 218: U2TXB = uart2TxBuffer[uart2TxTail++];
  5054  0027A6  5042               	movf	_uart2TxTail,w,c
  5055  0027A8  0F68               	addlw	low _uart2TxBuffer
  5056  0027AA  6ED9               	movwf	fsr2l,c
  5057  0027AC  6ADA               	clrf	fsr2h,c
  5058  0027AE  50DF               	movf	indf2,w,c
  5059  0027B0  013D               	movlb	61	; () banked
  5060  0027B2  6FD2               	movwf	210,b	;volatile
  5061                           
  5062                           ; BSR set to: 61
  5063  0027B4  2A42               	incf	_uart2TxTail,f,c	;volatile
  5064                           
  5065                           ; BSR set to: 61
  5066                           ;uart2.c: 219: if(sizeof(uart2TxBuffer) <= uart2TxTail)
  5067  0027B6  0E07               	movlw	7
  5068  0027B8  6442               	cpfsgt	_uart2TxTail,c
  5069  0027BA  D002               	goto	i2l2689
  5070                           
  5071                           ; BSR set to: 61
  5072                           ;uart2.c: 220: {;uart2.c: 221: uart2TxTail = 0;
  5073  0027BC  0E00               	movlw	0
  5074  0027BE  6E42               	movwf	_uart2TxTail,c	;volatile
  5075  0027C0                     i2l2689:
  5076                           
  5077                           ; BSR set to: 61
  5078                           ;uart2.c: 222: };uart2.c: 223: uart2TxBufferRemaining++;
  5079  0027C0  2A41               	incf	_uart2TxBufferRemaining,f,c	;volatile
  5080                           
  5081                           ;uart2.c: 224: }
  5082  0027C2  0012               	return	
  5083  0027C4                     i2l695:
  5084                           
  5085                           ;uart2.c: 225: else;uart2.c: 226: {;uart2.c: 227: PIE6bits.U2TXIE = 0;
  5086  0027C4  0139               	movlb	57	; () banked
  5087  0027C6  9796               	bcf	150,3,b	;volatile
  5088  0027C8  0012               	return		;funcret
  5089  0027CA                     __end_of_UART2_Transmit_ISR:
  5090                           	opt callstack 0
  5091                           
  5092 ;; *************** function _UART2_rx_vect_isr *****************
  5093 ;; Defined at:
  5094 ;;		line 203 in file "mcc_generated_files/uart2.c"
  5095 ;; Parameters:    Size  Location     Type
  5096 ;;		None
  5097 ;; Auto vars:     Size  Location     Type
  5098 ;;		None
  5099 ;; Return value:  Size  Location     Type
  5100 ;;                  1    wreg      void 
  5101 ;; Registers used:
  5102 ;;		wreg, fsr2l, fsr2h, status,2, status,0, pclath, tosl, cstack
  5103 ;; Tracked objects:
  5104 ;;		On entry : 0/0
  5105 ;;		On exit  : 0/0
  5106 ;;		Unchanged: 0/0
  5107 ;; Data sizes:     COMRAM   BANK0   BANK1   BANK2   BANK3   BANK4   BANK5   BANK6   BANK7   BANK8   BANK9  BANK10  BANK1
      +1  BANK12  BANK13  BANK14  BANK15  BANK16  BANK17  BANK18  BANK19  BANK20  BANK21  BANK22  BANK23  BANK24  BANK25  BANK2
      +6  BANK27  BANK28  BANK29  BANK30  BANK31
  5108 ;;      Params:         0       0       0       0       0       0       0       0       0       0       0       0       
      +0       0       0       0       0       0       0       0       0       0       0       0       0       0       0       
      +0       0       0       0       0       0
  5109 ;;      Locals:         0       0       0       0       0       0       0       0       0       0       0       0       
      +0       0       0       0       0       0       0       0       0       0       0       0       0       0       0       
      +0       0       0       0       0       0
  5110 ;;      Temps:          0       0       0       0       0       0       0       0       0       0       0       0       
      +0       0       0       0       0       0       0       0       0       0       0       0       0       0       0       
      +0       0       0       0       0       0
  5111 ;;      Totals:         0       0       0       0       0       0       0       0       0       0       0       0       
      +0       0       0       0       0       0       0       0       0       0       0       0       0       0       0       
      +0       0       0       0       0       0
  5112 ;;Total ram usage:        0 bytes
  5113 ;; Hardware stack levels used:    1
  5114 ;; Hardware stack levels required when called:    1
  5115 ;; This function calls:
  5116 ;;		Absolute function
  5117 ;;		_UART2_Receive_ISR
  5118 ;; This function is called by:
  5119 ;;		Interrupt level 2
  5120 ;; This function uses a non-reentrant model
  5121 ;;
  5122                           
  5123                           	psect	text56
  5124  002978                     __ptext56:
  5125                           	opt callstack 0
  5126  002978                     _UART2_rx_vect_isr:
  5127                           	opt callstack 25
  5128                           
  5129                           ;uart2.c: 205: if(UART2_RxInterruptHandler)
  5130                           
  5131                           ;incstack = 0
  5132  002978  5030               	movf	_UART2_RxInterruptHandler,w,c
  5133  00297A  1031               	iorwf	_UART2_RxInterruptHandler+1,w,c
  5134  00297C  1032               	iorwf	_UART2_RxInterruptHandler+2,w,c
  5135  00297E  B4D8               	btfsc	status,2,c
  5136  002980  0011               	retfie		f
  5137                           
  5138                           ;uart2.c: 206: {;uart2.c: 207: UART2_RxInterruptHandler();
  5139  002982  D801               	call	i2u64_48
  5140  002984  0011               	retfie		f
  5141  002986                     i2u64_48:
  5142  002986  0005               	push	
  5143  002988  6EFA               	movwf	pclath,c
  5144  00298A  5030               	movf	_UART2_RxInterruptHandler,w,c
  5145  00298C  6EFD               	movwf	tosl,c
  5146  00298E  5031               	movf	_UART2_RxInterruptHandler+1,w,c
  5147  002990  6EFE               	movwf	tosh,c
  5148  002992  5032               	movf	_UART2_RxInterruptHandler+2,w,c
  5149  002994  6EFF               	movwf	tosu,c
  5150  002996  50FA               	movf	pclath,w,c
  5151  002998  0012               	return		;indir
  5152  00299A                     __end_of_UART2_rx_vect_isr:
  5153                           	opt callstack 0
  5154                           
  5155 ;; *************** function _UART2_Receive_ISR *****************
  5156 ;; Defined at:
  5157 ;;		line 233 in file "mcc_generated_files/uart2.c"
  5158 ;; Parameters:    Size  Location     Type
  5159 ;;		None
  5160 ;; Auto vars:     Size  Location     Type
  5161 ;;		None
  5162 ;; Return value:  Size  Location     Type
  5163 ;;                  1    wreg      void 
  5164 ;; Registers used:
  5165 ;;		wreg, fsr2l, fsr2h, status,2, status,0
  5166 ;; Tracked objects:
  5167 ;;		On entry : 0/0
  5168 ;;		On exit  : 0/0
  5169 ;;		Unchanged: 0/0
  5170 ;; Data sizes:     COMRAM   BANK0   BANK1   BANK2   BANK3   BANK4   BANK5   BANK6   BANK7   BANK8   BANK9  BANK10  BANK1
      +1  BANK12  BANK13  BANK14  BANK15  BANK16  BANK17  BANK18  BANK19  BANK20  BANK21  BANK22  BANK23  BANK24  BANK25  BANK2
      +6  BANK27  BANK28  BANK29  BANK30  BANK31
  5171 ;;      Params:         0       0       0       0       0       0       0       0       0       0       0       0       
      +0       0       0       0       0       0       0       0       0       0       0       0       0       0       0       
      +0       0       0       0       0       0
  5172 ;;      Locals:         0       0       0       0       0       0       0       0       0       0       0       0       
      +0       0       0       0       0       0       0       0       0       0       0       0       0       0       0       
      +0       0       0       0       0       0
  5173 ;;      Temps:          0       0       0       0       0       0       0       0       0       0       0       0       
      +0       0       0       0       0       0       0       0       0       0       0       0       0       0       0       
      +0       0       0       0       0       0
  5174 ;;      Totals:         0       0       0       0       0       0       0       0       0       0       0       0       
      +0       0       0       0       0       0       0       0       0       0       0       0       0       0       0       
      +0       0       0       0       0       0
  5175 ;;Total ram usage:        0 bytes
  5176 ;; Hardware stack levels used:    1
  5177 ;; This function calls:
  5178 ;;		Nothing
  5179 ;; This function is called by:
  5180 ;;		_UART2_Initialize
  5181 ;;		_UART2_rx_vect_isr
  5182 ;; This function uses a non-reentrant model
  5183 ;;
  5184                           
  5185                           	psect	text57
  5186  0029FE                     __ptext57:
  5187                           	opt callstack 0
  5188  0029FE                     _UART2_Receive_ISR:
  5189                           	opt callstack 25
  5190                           
  5191                           ;uart2.c: 236: uart2RxBuffer[uart2RxHead++] = U2RXB;
  5192                           
  5193                           ;incstack = 0
  5194  0029FE  5040               	movf	_uart2RxHead,w,c
  5195  002A00  0F60               	addlw	low _uart2RxBuffer
  5196  002A02  6ED9               	movwf	fsr2l,c
  5197  002A04  6ADA               	clrf	fsr2h,c
  5198  002A06  006F F743 FFDF     	movff	15824,indf2	;volatile
  5199  002A0C  2A40               	incf	_uart2RxHead,f,c	;volatile
  5200                           
  5201                           ;uart2.c: 237: if(sizeof(uart2RxBuffer) <= uart2RxHead)
  5202  002A0E  0E07               	movlw	7
  5203  002A10  6440               	cpfsgt	_uart2RxHead,c
  5204  002A12  D002               	goto	i2l2699
  5205                           
  5206                           ;uart2.c: 238: {;uart2.c: 239: uart2RxHead = 0;
  5207  002A14  0E00               	movlw	0
  5208  002A16  6E40               	movwf	_uart2RxHead,c	;volatile
  5209  002A18                     i2l2699:
  5210                           
  5211                           ;uart2.c: 240: };uart2.c: 241: uart2RxCount++;
  5212  002A18  2A3E               	incf	_uart2RxCount,f,c	;volatile
  5213  002A1A  0012               	return		;funcret
  5214  002A1C                     __end_of_UART2_Receive_ISR:
  5215                           	opt callstack 0
  5216                           
  5217 ;; *************** function _TMR6_ISR *****************
  5218 ;; Defined at:
  5219 ;;		line 168 in file "mcc_generated_files/tmr6.c"
  5220 ;; Parameters:    Size  Location     Type
  5221 ;;		None
  5222 ;; Auto vars:     Size  Location     Type
  5223 ;;		None
  5224 ;; Return value:  Size  Location     Type
  5225 ;;                  1    wreg      void 
  5226 ;; Registers used:
  5227 ;;		wreg, status,2, status,0, pclath, tosl, cstack
  5228 ;; Tracked objects:
  5229 ;;		On entry : 0/0
  5230 ;;		On exit  : 0/0
  5231 ;;		Unchanged: 0/0
  5232 ;; Data sizes:     COMRAM   BANK0   BANK1   BANK2   BANK3   BANK4   BANK5   BANK6   BANK7   BANK8   BANK9  BANK10  BANK1
      +1  BANK12  BANK13  BANK14  BANK15  BANK16  BANK17  BANK18  BANK19  BANK20  BANK21  BANK22  BANK23  BANK24  BANK25  BANK2
      +6  BANK27  BANK28  BANK29  BANK30  BANK31
  5233 ;;      Params:         0       0       0       0       0       0       0       0       0       0       0       0       
      +0       0       0       0       0       0       0       0       0       0       0       0       0       0       0       
      +0       0       0       0       0       0
  5234 ;;      Locals:         0       0       0       0       0       0       0       0       0       0       0       0       
      +0       0       0       0       0       0       0       0       0       0       0       0       0       0       0       
      +0       0       0       0       0       0
  5235 ;;      Temps:          0       0       0       0       0       0       0       0       0       0       0       0       
      +0       0       0       0       0       0       0       0       0       0       0       0       0       0       0       
      +0       0       0       0       0       0
  5236 ;;      Totals:         0       0       0       0       0       0       0       0       0       0       0       0       
      +0       0       0       0       0       0       0       0       0       0       0       0       0       0       0       
      +0       0       0       0       0       0
  5237 ;;Total ram usage:        0 bytes
  5238 ;; Hardware stack levels used:    1
  5239 ;; Hardware stack levels required when called:    2
  5240 ;; This function calls:
  5241 ;;		_TMR6_CallBack
  5242 ;; This function is called by:
  5243 ;;		Interrupt level 2
  5244 ;; This function uses a non-reentrant model
  5245 ;;
  5246                           
  5247                           	psect	text58
  5248  00299C                     __ptext58:
  5249                           	opt callstack 0
  5250  00299C                     _TMR6_ISR:
  5251                           	opt callstack 24
  5252                           
  5253                           ;tmr6.c: 170: static volatile unsigned int CountCallBack = 0;;tmr6.c: 173: PIR9bits.TMR6
      +                          IF = 0;
  5254                           
  5255                           ;incstack = 0
  5256  00299C  0139               	movlb	57	; () banked
  5257  00299E  91A9               	bcf	169,0,b	;volatile
  5258                           
  5259                           ; BSR set to: 57
  5260                           ;tmr6.c: 176: if (++CountCallBack >= 101)
  5261  0029A0  4A3C               	infsnz	TMR6_ISR@CountCallBack,f,c	;volatile
  5262  0029A2  2A3D               	incf	TMR6_ISR@CountCallBack+1,f,c	;volatile
  5263  0029A4  503D               	movf	TMR6_ISR@CountCallBack+1,w,c	;volatile
  5264  0029A6  E104               	bnz	i2u43_40
  5265  0029A8  0E65               	movlw	101
  5266  0029AA  5C3C               	subwf	TMR6_ISR@CountCallBack,w,c	;volatile
  5267  0029AC  A0D8               	btfss	status,0,c
  5268  0029AE  0011               	retfie		f
  5269  0029B0                     i2u43_40:
  5270                           
  5271                           ; BSR set to: 57
  5272                           ;tmr6.c: 177: {;tmr6.c: 179: TMR6_CallBack();
  5273  0029B0  ECDF  F014         	call	_TMR6_CallBack	;wreg free
  5274                           
  5275                           ;tmr6.c: 182: CountCallBack = 0;
  5276  0029B4  0E00               	movlw	0
  5277  0029B6  6E3D               	movwf	TMR6_ISR@CountCallBack+1,c	;volatile
  5278  0029B8  0E00               	movlw	0
  5279  0029BA  6E3C               	movwf	TMR6_ISR@CountCallBack,c	;volatile
  5280  0029BC  0011               	retfie		f
  5281  0029BE                     __end_of_TMR6_ISR:
  5282                           	opt callstack 0
  5283                           
  5284 ;; *************** function _TMR6_CallBack *****************
  5285 ;; Defined at:
  5286 ;;		line 186 in file "mcc_generated_files/tmr6.c"
  5287 ;; Parameters:    Size  Location     Type
  5288 ;;		None
  5289 ;; Auto vars:     Size  Location     Type
  5290 ;;		None
  5291 ;; Return value:  Size  Location     Type
  5292 ;;                  1    wreg      void 
  5293 ;; Registers used:
  5294 ;;		wreg, status,2, status,0, pclath, tosl, cstack
  5295 ;; Tracked objects:
  5296 ;;		On entry : 3F/39
  5297 ;;		On exit  : 0/0
  5298 ;;		Unchanged: 0/0
  5299 ;; Data sizes:     COMRAM   BANK0   BANK1   BANK2   BANK3   BANK4   BANK5   BANK6   BANK7   BANK8   BANK9  BANK10  BANK1
      +1  BANK12  BANK13  BANK14  BANK15  BANK16  BANK17  BANK18  BANK19  BANK20  BANK21  BANK22  BANK23  BANK24  BANK25  BANK2
      +6  BANK27  BANK28  BANK29  BANK30  BANK31
  5300 ;;      Params:         0       0       0       0       0       0       0       0       0       0       0       0       
      +0       0       0       0       0       0       0       0       0       0       0       0       0       0       0       
      +0       0       0       0       0       0
  5301 ;;      Locals:         0       0       0       0       0       0       0       0       0       0       0       0       
      +0       0       0       0       0       0       0       0       0       0       0       0       0       0       0       
      +0       0       0       0       0       0
  5302 ;;      Temps:          0       0       0       0       0       0       0       0       0       0       0       0       
      +0       0       0       0       0       0       0       0       0       0       0       0       0       0       0       
      +0       0       0       0       0       0
  5303 ;;      Totals:         0       0       0       0       0       0       0       0       0       0       0       0       
      +0       0       0       0       0       0       0       0       0       0       0       0       0       0       0       
      +0       0       0       0       0       0
  5304 ;;Total ram usage:        0 bytes
  5305 ;; Hardware stack levels used:    1
  5306 ;; Hardware stack levels required when called:    1
  5307 ;; This function calls:
  5308 ;;		Absolute function
  5309 ;;		_TMR6_DefaultInterruptHandler
  5310 ;; This function is called by:
  5311 ;;		_TMR6_ISR
  5312 ;; This function uses a non-reentrant model
  5313 ;;
  5314                           
  5315                           	psect	text59
  5316  0029BE                     __ptext59:
  5317                           	opt callstack 0
  5318  0029BE                     _TMR6_CallBack:
  5319                           	opt callstack 24
  5320                           
  5321                           ; BSR set to: 57
  5322                           ;tmr6.c: 190: if(TMR6_InterruptHandler)
  5323                           
  5324                           ;incstack = 0
  5325  0029BE  5021               	movf	_TMR6_InterruptHandler,w,c
  5326  0029C0  1022               	iorwf	_TMR6_InterruptHandler+1,w,c
  5327  0029C2  1023               	iorwf	_TMR6_InterruptHandler+2,w,c
  5328  0029C4  B4D8               	btfsc	status,2,c
  5329  0029C6  0012               	return	
  5330                           
  5331                           ; BSR set to: 57
  5332                           ;tmr6.c: 191: {;tmr6.c: 192: TMR6_InterruptHandler();
  5333  0029C8  D801               	call	i2u30_48
  5334  0029CA  0012               	return	
  5335  0029CC                     i2u30_48:
  5336  0029CC  0005               	push	
  5337  0029CE  6EFA               	movwf	pclath,c
  5338  0029D0  5021               	movf	_TMR6_InterruptHandler,w,c
  5339  0029D2  6EFD               	movwf	tosl,c
  5340  0029D4  5022               	movf	_TMR6_InterruptHandler+1,w,c
  5341  0029D6  6EFE               	movwf	tosh,c
  5342  0029D8  5023               	movf	_TMR6_InterruptHandler+2,w,c
  5343  0029DA  6EFF               	movwf	tosu,c
  5344  0029DC  50FA               	movf	pclath,w,c
  5345  0029DE  0012               	return		;indir
  5346  0029E0                     __end_of_TMR6_CallBack:
  5347                           	opt callstack 0
  5348                           
  5349 ;; *************** function _TMR6_DefaultInterruptHandler *****************
  5350 ;; Defined at:
  5351 ;;		line 200 in file "mcc_generated_files/tmr6.c"
  5352 ;; Parameters:    Size  Location     Type
  5353 ;;		None
  5354 ;; Auto vars:     Size  Location     Type
  5355 ;;		None
  5356 ;; Return value:  Size  Location     Type
  5357 ;;                  1    wreg      void 
  5358 ;; Registers used:
  5359 ;;		wreg, status,2, status,0
  5360 ;; Tracked objects:
  5361 ;;		On entry : 3F/39
  5362 ;;		On exit  : 3F/39
  5363 ;;		Unchanged: 3E/0
  5364 ;; Data sizes:     COMRAM   BANK0   BANK1   BANK2   BANK3   BANK4   BANK5   BANK6   BANK7   BANK8   BANK9  BANK10  BANK1
      +1  BANK12  BANK13  BANK14  BANK15  BANK16  BANK17  BANK18  BANK19  BANK20  BANK21  BANK22  BANK23  BANK24  BANK25  BANK2
      +6  BANK27  BANK28  BANK29  BANK30  BANK31
  5365 ;;      Params:         0       0       0       0       0       0       0       0       0       0       0       0       
      +0       0       0       0       0       0       0       0       0       0       0       0       0       0       0       
      +0       0       0       0       0       0
  5366 ;;      Locals:         0       0       0       0       0       0       0       0       0       0       0       0       
      +0       0       0       0       0       0       0       0       0       0       0       0       0       0       0       
      +0       0       0       0       0       0
  5367 ;;      Temps:          1       0       0       0       0       0       0       0       0       0       0       0       
      +0       0       0       0       0       0       0       0       0       0       0       0       0       0       0       
      +0       0       0       0       0       0
  5368 ;;      Totals:         1       0       0       0       0       0       0       0       0       0       0       0       
      +0       0       0       0       0       0       0       0       0       0       0       0       0       0       0       
      +0       0       0       0       0       0
  5369 ;;Total ram usage:        1 bytes
  5370 ;; Hardware stack levels used:    1
  5371 ;; This function calls:
  5372 ;;		Nothing
  5373 ;; This function is called by:
  5374 ;;		_TMR6_Initialize
  5375 ;;		_TMR6_CallBack
  5376 ;; This function uses a non-reentrant model
  5377 ;;
  5378                           
  5379                           	psect	text60
  5380  002A86                     __ptext60:
  5381                           	opt callstack 0
  5382  002A86                     _TMR6_DefaultInterruptHandler:
  5383                           	opt callstack 24
  5384                           
  5385                           ; BSR set to: 57
  5386                           ;tmr6.c: 203: LATEbits.LATE0 = (uint8_t)~LATEbits.LATE0;
  5387                           
  5388                           ;incstack = 0
  5389  002A86  A0BE               	btfss	16318,0,c	;volatile
  5390  002A88  D002               	goto	i2u8_40
  5391  002A8A  0E01               	movlw	1
  5392  002A8C  D001               	goto	i2u8_46
  5393  002A8E                     i2u8_40:
  5394  002A8E  0E00               	movlw	0
  5395  002A90                     i2u8_46:
  5396  002A90  0AFF               	xorlw	255
  5397  002A92  6E4A               	movwf	??_TMR6_DefaultInterruptHandler& (0+255),c
  5398  002A94  50BE               	movf	16318,w,c	;volatile
  5399  002A96  184A               	xorwf	??_TMR6_DefaultInterruptHandler,w,c
  5400  002A98  0BFE               	andlw	-2
  5401  002A9A  184A               	xorwf	??_TMR6_DefaultInterruptHandler,w,c
  5402  002A9C  6EBE               	movwf	16318,c	;volatile
  5403                           
  5404                           ; BSR set to: 57
  5405  002A9E  0012               	return		;funcret
  5406  002AA0                     __end_of_TMR6_DefaultInterruptHandler:
  5407                           	opt callstack 0
  5408                           
  5409 ;; *************** function _DMA1_DMASCNT_ISR *****************
  5410 ;; Defined at:
  5411 ;;		line 129 in file "mcc_generated_files/dma1.c"
  5412 ;; Parameters:    Size  Location     Type
  5413 ;;		None
  5414 ;; Auto vars:     Size  Location     Type
  5415 ;;		None
  5416 ;; Return value:  Size  Location     Type
  5417 ;;                  1    wreg      void 
  5418 ;; Registers used:
  5419 ;;		None
  5420 ;; Tracked objects:
  5421 ;;		On entry : 0/0
  5422 ;;		On exit  : 3F/39
  5423 ;;		Unchanged: 0/0
  5424 ;; Data sizes:     COMRAM   BANK0   BANK1   BANK2   BANK3   BANK4   BANK5   BANK6   BANK7   BANK8   BANK9  BANK10  BANK1
      +1  BANK12  BANK13  BANK14  BANK15  BANK16  BANK17  BANK18  BANK19  BANK20  BANK21  BANK22  BANK23  BANK24  BANK25  BANK2
      +6  BANK27  BANK28  BANK29  BANK30  BANK31
  5425 ;;      Params:         0       0       0       0       0       0       0       0       0       0       0       0       
      +0       0       0       0       0       0       0       0       0       0       0       0       0       0       0       
      +0       0       0       0       0       0
  5426 ;;      Locals:         0       0       0       0       0       0       0       0       0       0       0       0       
      +0       0       0       0       0       0       0       0       0       0       0       0       0       0       0       
      +0       0       0       0       0       0
  5427 ;;      Temps:          0       0       0       0       0       0       0       0       0       0       0       0       
      +0       0       0       0       0       0       0       0       0       0       0       0       0       0       0       
      +0       0       0       0       0       0
  5428 ;;      Totals:         0       0       0       0       0       0       0       0       0       0       0       0       
      +0       0       0       0       0       0       0       0       0       0       0       0       0       0       0       
      +0       0       0       0       0       0
  5429 ;;Total ram usage:        0 bytes
  5430 ;; Hardware stack levels used:    1
  5431 ;; This function calls:
  5432 ;;		Nothing
  5433 ;; This function is called by:
  5434 ;;		Interrupt level 2
  5435 ;; This function uses a non-reentrant model
  5436 ;;
  5437                           
  5438                           	psect	text61
  5439  002B90                     __ptext61:
  5440                           	opt callstack 0
  5441  002B90                     _DMA1_DMASCNT_ISR:
  5442                           	opt callstack 26
  5443                           
  5444                           ;dma1.c: 131: PIR2bits.DMA1SCNTIF = 0;
  5445                           
  5446                           ; BSR set to: 57
  5447                           ;incstack = 0
  5448  002B90  0139               	movlb	57	; () banked
  5449  002B92  91A2               	bcf	162,0,b	;volatile
  5450                           
  5451                           ;dma1.c: 133: spi_link.LCD_DATA=0;
  5452  002B94  9601               	bcf	_spi_link,3,c	;volatile
  5453                           
  5454                           ; BSR set to: 57
  5455  002B96  0011               	retfie		f
  5456  002B98                     __end_of_DMA1_DMASCNT_ISR:
  5457                           	opt callstack 0
  5458                           
  5459 ;; *************** function _DMA1_DMADCNT_ISR *****************
  5460 ;; Defined at:
  5461 ;;		line 136 in file "mcc_generated_files/dma1.c"
  5462 ;; Parameters:    Size  Location     Type
  5463 ;;		None
  5464 ;; Auto vars:     Size  Location     Type
  5465 ;;		None
  5466 ;; Return value:  Size  Location     Type
  5467 ;;                  1    wreg      void 
  5468 ;; Registers used:
  5469 ;;		None
  5470 ;; Tracked objects:
  5471 ;;		On entry : 0/0
  5472 ;;		On exit  : 3F/39
  5473 ;;		Unchanged: 0/0
  5474 ;; Data sizes:     COMRAM   BANK0   BANK1   BANK2   BANK3   BANK4   BANK5   BANK6   BANK7   BANK8   BANK9  BANK10  BANK1
      +1  BANK12  BANK13  BANK14  BANK15  BANK16  BANK17  BANK18  BANK19  BANK20  BANK21  BANK22  BANK23  BANK24  BANK25  BANK2
      +6  BANK27  BANK28  BANK29  BANK30  BANK31
  5475 ;;      Params:         0       0       0       0       0       0       0       0       0       0       0       0       
      +0       0       0       0       0       0       0       0       0       0       0       0       0       0       0       
      +0       0       0       0       0       0
  5476 ;;      Locals:         0       0       0       0       0       0       0       0       0       0       0       0       
      +0       0       0       0       0       0       0       0       0       0       0       0       0       0       0       
      +0       0       0       0       0       0
  5477 ;;      Temps:          0       0       0       0       0       0       0       0       0       0       0       0       
      +0       0       0       0       0       0       0       0       0       0       0       0       0       0       0       
      +0       0       0       0       0       0
  5478 ;;      Totals:         0       0       0       0       0       0       0       0       0       0       0       0       
      +0       0       0       0       0       0       0       0       0       0       0       0       0       0       0       
      +0       0       0       0       0       0
  5479 ;;Total ram usage:        0 bytes
  5480 ;; Hardware stack levels used:    1
  5481 ;; This function calls:
  5482 ;;		Nothing
  5483 ;; This function is called by:
  5484 ;;		Interrupt level 2
  5485 ;; This function uses a non-reentrant model
  5486 ;;
  5487                           
  5488                           	psect	text62
  5489  002BA8                     __ptext62:
  5490                           	opt callstack 0
  5491  002BA8                     _DMA1_DMADCNT_ISR:
  5492                           	opt callstack 26
  5493                           
  5494                           ;dma1.c: 138: PIR2bits.DMA1DCNTIF = 0;
  5495                           
  5496                           ; BSR set to: 57
  5497                           ;incstack = 0
  5498  002BA8  0139               	movlb	57	; () banked
  5499  002BAA  93A2               	bcf	162,1,b	;volatile
  5500                           
  5501                           ; BSR set to: 57
  5502  002BAC  0011               	retfie		f
  5503  002BAE                     __end_of_DMA1_DMADCNT_ISR:
  5504                           	opt callstack 0
  5505                           
  5506 ;; *************** function _DMA1_DMAA_ISR *****************
  5507 ;; Defined at:
  5508 ;;		line 146 in file "mcc_generated_files/dma1.c"
  5509 ;; Parameters:    Size  Location     Type
  5510 ;;		None
  5511 ;; Auto vars:     Size  Location     Type
  5512 ;;		None
  5513 ;; Return value:  Size  Location     Type
  5514 ;;                  1    wreg      void 
  5515 ;; Registers used:
  5516 ;;		None
  5517 ;; Tracked objects:
  5518 ;;		On entry : 0/0
  5519 ;;		On exit  : 3F/39
  5520 ;;		Unchanged: 0/0
  5521 ;; Data sizes:     COMRAM   BANK0   BANK1   BANK2   BANK3   BANK4   BANK5   BANK6   BANK7   BANK8   BANK9  BANK10  BANK1
      +1  BANK12  BANK13  BANK14  BANK15  BANK16  BANK17  BANK18  BANK19  BANK20  BANK21  BANK22  BANK23  BANK24  BANK25  BANK2
      +6  BANK27  BANK28  BANK29  BANK30  BANK31
  5522 ;;      Params:         0       0       0       0       0       0       0       0       0       0       0       0       
      +0       0       0       0       0       0       0       0       0       0       0       0       0       0       0       
      +0       0       0       0       0       0
  5523 ;;      Locals:         0       0       0       0       0       0       0       0       0       0       0       0       
      +0       0       0       0       0       0       0       0       0       0       0       0       0       0       0       
      +0       0       0       0       0       0
  5524 ;;      Temps:          0       0       0       0       0       0       0       0       0       0       0       0       
      +0       0       0       0       0       0       0       0       0       0       0       0       0       0       0       
      +0       0       0       0       0       0
  5525 ;;      Totals:         0       0       0       0       0       0       0       0       0       0       0       0       
      +0       0       0       0       0       0       0       0       0       0       0       0       0       0       0       
      +0       0       0       0       0       0
  5526 ;;Total ram usage:        0 bytes
  5527 ;; Hardware stack levels used:    1
  5528 ;; This function calls:
  5529 ;;		Nothing
  5530 ;; This function is called by:
  5531 ;;		Interrupt level 2
  5532 ;; This function uses a non-reentrant model
  5533 ;;
  5534                           
  5535                           	psect	text63
  5536  002BB0                     __ptext63:
  5537                           	opt callstack 0
  5538  002BB0                     _DMA1_DMAA_ISR:
  5539                           	opt callstack 26
  5540                           
  5541                           ;dma1.c: 149: PIR2bits.DMA1AIF = 0;
  5542                           
  5543                           ; BSR set to: 57
  5544                           ;incstack = 0
  5545  002BB0  0139               	movlb	57	; () banked
  5546  002BB2  97A2               	bcf	162,3,b	;volatile
  5547                           
  5548                           ; BSR set to: 57
  5549  002BB4  0011               	retfie		f
  5550  002BB6                     __end_of_DMA1_DMAA_ISR:
  5551                           	opt callstack 0
  5552                           
  5553 ;; *************** function _DMA1_DMAOR_ISR *****************
  5554 ;; Defined at:
  5555 ;;		line 157 in file "mcc_generated_files/dma1.c"
  5556 ;; Parameters:    Size  Location     Type
  5557 ;;		None
  5558 ;; Auto vars:     Size  Location     Type
  5559 ;;		None
  5560 ;; Return value:  Size  Location     Type
  5561 ;;                  1    wreg      void 
  5562 ;; Registers used:
  5563 ;;		None
  5564 ;; Tracked objects:
  5565 ;;		On entry : 0/0
  5566 ;;		On exit  : 3F/39
  5567 ;;		Unchanged: 0/0
  5568 ;; Data sizes:     COMRAM   BANK0   BANK1   BANK2   BANK3   BANK4   BANK5   BANK6   BANK7   BANK8   BANK9  BANK10  BANK1
      +1  BANK12  BANK13  BANK14  BANK15  BANK16  BANK17  BANK18  BANK19  BANK20  BANK21  BANK22  BANK23  BANK24  BANK25  BANK2
      +6  BANK27  BANK28  BANK29  BANK30  BANK31
  5569 ;;      Params:         0       0       0       0       0       0       0       0       0       0       0       0       
      +0       0       0       0       0       0       0       0       0       0       0       0       0       0       0       
      +0       0       0       0       0       0
  5570 ;;      Locals:         0       0       0       0       0       0       0       0       0       0       0       0       
      +0       0       0       0       0       0       0       0       0       0       0       0       0       0       0       
      +0       0       0       0       0       0
  5571 ;;      Temps:          0       0       0       0       0       0       0       0       0       0       0       0       
      +0       0       0       0       0       0       0       0       0       0       0       0       0       0       0       
      +0       0       0       0       0       0
  5572 ;;      Totals:         0       0       0       0       0       0       0       0       0       0       0       0       
      +0       0       0       0       0       0       0       0       0       0       0       0       0       0       0       
      +0       0       0       0       0       0
  5573 ;;Total ram usage:        0 bytes
  5574 ;; Hardware stack levels used:    1
  5575 ;; This function calls:
  5576 ;;		Nothing
  5577 ;; This function is called by:
  5578 ;;		Interrupt level 2
  5579 ;; This function uses a non-reentrant model
  5580 ;;
  5581                           
  5582                           	psect	text64
  5583  002B98                     __ptext64:
  5584                           	opt callstack 0
  5585  002B98                     _DMA1_DMAOR_ISR:
  5586                           	opt callstack 26
  5587                           
  5588                           ;dma1.c: 160: PIR2bits.DMA1ORIF = 0;
  5589                           
  5590                           ; BSR set to: 57
  5591                           ;incstack = 0
  5592  002B98  0139               	movlb	57	; () banked
  5593  002B9A  95A2               	bcf	162,2,b	;volatile
  5594                           
  5595                           ;dma1.c: 162: LATEbits.LATE1 = 0;
  5596  002B9C  92BE               	bcf	16318,1,c	;volatile
  5597                           
  5598                           ; BSR set to: 57
  5599  002B9E  0011               	retfie		f
  5600  002BA0                     __end_of_DMA1_DMAOR_ISR:
  5601                           	opt callstack 0
  5602                           
  5603                           ;
  5604                           ; Interrupt Vector Table @ 0x8
  5605                           ;
  5606                           
  5607                           	psect	ivt0x8
  5608  000008                     __pivt0x8:
  5609                           	opt callstack 0
  5610  000008                     ivt0x8_base:
  5611                           	opt callstack 0
  5612                           
  5613                           ; Vector 0 : SWINT
  5614  000008  0AF0               	dw	_Default_ISR shr (0+2)
  5615                           
  5616                           ; Vector 1 : HLVD
  5617  00000A  0AF0               	dw	_Default_ISR shr (0+2)
  5618                           
  5619                           ; Vector 2 : OSF
  5620  00000C  0AF0               	dw	_Default_ISR shr (0+2)
  5621                           
  5622                           ; Vector 3 : CSW
  5623  00000E  0AF0               	dw	_Default_ISR shr (0+2)
  5624                           
  5625                           ; Vector 4 : NVM
  5626  000010  0AF0               	dw	_Default_ISR shr (0+2)
  5627                           
  5628                           ; Vector 5 : SCAN
  5629  000012  0AF0               	dw	_Default_ISR shr (0+2)
  5630                           
  5631                           ; Vector 6 : CRC
  5632  000014  0AF0               	dw	_Default_ISR shr (0+2)
  5633                           
  5634                           ; Vector 7 : IOC
  5635  000016  0AF0               	dw	_Default_ISR shr (0+2)
  5636                           
  5637                           ; Vector 8 : INT0
  5638  000018  0ADB               	dw	_INT0_ISR shr (0+2)
  5639                           
  5640                           ; Vector 9 : ZCD
  5641  00001A  0AF0               	dw	_Default_ISR shr (0+2)
  5642                           
  5643                           ; Vector 10 : AD
  5644  00001C  09FD               	dw	_ADCC_ISR shr (0+2)
  5645                           
  5646                           ; Vector 11 : ADT
  5647  00001E  0AF0               	dw	_Default_ISR shr (0+2)
  5648                           
  5649                           ; Vector 12 : CMP1
  5650  000020  0AF0               	dw	_Default_ISR shr (0+2)
  5651                           
  5652                           ; Vector 13 : SMT1
  5653  000022  0AF0               	dw	_Default_ISR shr (0+2)
  5654                           
  5655                           ; Vector 14 : SMT1PRA
  5656  000024  0AF0               	dw	_Default_ISR shr (0+2)
  5657                           
  5658                           ; Vector 15 : SMT1PRW
  5659  000026  0AF0               	dw	_Default_ISR shr (0+2)
  5660                           
  5661                           ; Vector 16 : DMA1SCNT
  5662  000028  0AE4               	dw	_DMA1_DMASCNT_ISR shr (0+2)
  5663                           
  5664                           ; Vector 17 : DMA1DCNT
  5665  00002A  0AEA               	dw	_DMA1_DMADCNT_ISR shr (0+2)
  5666                           
  5667                           ; Vector 18 : DMA1OR
  5668  00002C  0AE6               	dw	_DMA1_DMAOR_ISR shr (0+2)
  5669                           
  5670                           ; Vector 19 : DMA1A
  5671  00002E  0AEC               	dw	_DMA1_DMAA_ISR shr (0+2)
  5672                           
  5673                           ; Vector 20 : SPI1RX
  5674  000030  0AF0               	dw	_Default_ISR shr (0+2)
  5675                           
  5676                           ; Vector 21 : SPI1TX
  5677  000032  0AF0               	dw	_Default_ISR shr (0+2)
  5678                           
  5679                           ; Vector 22 : SPI1
  5680  000034  0AF0               	dw	_Default_ISR shr (0+2)
  5681                           
  5682                           ; Vector 23 : I2C1RX
  5683  000036  0AF0               	dw	_Default_ISR shr (0+2)
  5684                           
  5685                           ; Vector 24 : I2C1TX
  5686  000038  0AF0               	dw	_Default_ISR shr (0+2)
  5687                           
  5688                           ; Vector 25 : I2C1
  5689  00003A  0AF0               	dw	_Default_ISR shr (0+2)
  5690                           
  5691                           ; Vector 26 : I2C1E
  5692  00003C  0AF0               	dw	_Default_ISR shr (0+2)
  5693                           
  5694                           ; Vector 27 : U1RX
  5695  00003E  0A4C               	dw	_UART1_rx_vect_isr shr (0+2)
  5696                           
  5697                           ; Vector 28 : U1TX
  5698  000040  0A43               	dw	_UART1_tx_vect_isr shr (0+2)
  5699                           
  5700                           ; Vector 29 : U1E
  5701  000042  0AF0               	dw	_Default_ISR shr (0+2)
  5702                           
  5703                           ; Vector 30 : U1
  5704  000044  0AF0               	dw	_Default_ISR shr (0+2)
  5705                           
  5706                           ; Vector 31 : TMR0
  5707  000046  0AF0               	dw	_Default_ISR shr (0+2)
  5708                           
  5709                           ; Vector 32 : TMR1
  5710  000048  0AF0               	dw	_Default_ISR shr (0+2)
  5711                           
  5712                           ; Vector 33 : TMR1G
  5713  00004A  0AF0               	dw	_Default_ISR shr (0+2)
  5714                           
  5715                           ; Vector 34 : TMR2
  5716  00004C  0AF0               	dw	_Default_ISR shr (0+2)
  5717                           
  5718                           ; Vector 35 : CCP1
  5719  00004E  0AF0               	dw	_Default_ISR shr (0+2)
  5720                           
  5721                           ; Vector 36 : Undefined
  5722  000050  002B               	dw	ivt0x8_undefint shr (0+2)
  5723                           
  5724                           ; Vector 37 : NCO1
  5725  000052  0AF0               	dw	_Default_ISR shr (0+2)
  5726                           
  5727                           ; Vector 38 : CWG1
  5728  000054  0AF0               	dw	_Default_ISR shr (0+2)
  5729                           
  5730                           ; Vector 39 : CLC1
  5731  000056  0AF0               	dw	_Default_ISR shr (0+2)
  5732                           
  5733                           ; Vector 40 : INT1
  5734  000058  0ADE               	dw	_INT1_ISR shr (0+2)
  5735                           
  5736                           ; Vector 41 : CMP2
  5737  00005A  0AF0               	dw	_Default_ISR shr (0+2)
  5738                           
  5739                           ; Vector 42 : DMA2SCNT
  5740  00005C  0AF0               	dw	_Default_ISR shr (0+2)
  5741                           
  5742                           ; Vector 43 : DMA2DCNT
  5743  00005E  0AF0               	dw	_Default_ISR shr (0+2)
  5744                           
  5745                           ; Vector 44 : DMA2OR
  5746  000060  0AF0               	dw	_Default_ISR shr (0+2)
  5747                           
  5748                           ; Vector 45 : DMA2A
  5749  000062  0AF0               	dw	_Default_ISR shr (0+2)
  5750                           
  5751                           ; Vector 46 : I2C2RX
  5752  000064  0AF0               	dw	_Default_ISR shr (0+2)
  5753                           
  5754                           ; Vector 47 : I2C2TX
  5755  000066  0AF0               	dw	_Default_ISR shr (0+2)
  5756                           
  5757                           ; Vector 48 : I2C2
  5758  000068  0AF0               	dw	_Default_ISR shr (0+2)
  5759                           
  5760                           ; Vector 49 : I2C2E
  5761  00006A  0AF0               	dw	_Default_ISR shr (0+2)
  5762                           
  5763                           ; Vector 50 : U2RX
  5764  00006C  0A5E               	dw	_UART2_rx_vect_isr shr (0+2)
  5765                           
  5766                           ; Vector 51 : U2TX
  5767  00006E  0A55               	dw	_UART2_tx_vect_isr shr (0+2)
  5768                           
  5769                           ; Vector 52 : U2E
  5770  000070  0AF0               	dw	_Default_ISR shr (0+2)
  5771                           
  5772                           ; Vector 53 : U2
  5773  000072  0AF0               	dw	_Default_ISR shr (0+2)
  5774                           
  5775                           ; Vector 54 : TMR3
  5776  000074  0AF0               	dw	_Default_ISR shr (0+2)
  5777                           
  5778                           ; Vector 55 : TMR3G
  5779  000076  0AF0               	dw	_Default_ISR shr (0+2)
  5780                           
  5781                           ; Vector 56 : TMR4
  5782  000078  0AF0               	dw	_Default_ISR shr (0+2)
  5783                           
  5784                           ; Vector 57 : CCP2
  5785  00007A  0AF0               	dw	_Default_ISR shr (0+2)
  5786                           
  5787                           ; Vector 58 : Undefined
  5788  00007C  002B               	dw	ivt0x8_undefint shr (0+2)
  5789                           
  5790                           ; Vector 59 : CWG2
  5791  00007E  0AF0               	dw	_Default_ISR shr (0+2)
  5792                           
  5793                           ; Vector 60 : CLC2
  5794  000080  0AF0               	dw	_Default_ISR shr (0+2)
  5795                           
  5796                           ; Vector 61 : INT2
  5797  000082  0AE1               	dw	_INT2_ISR shr (0+2)
  5798                           
  5799                           ; Vector 62 : Undefined
  5800  000084  002B               	dw	ivt0x8_undefint shr (0+2)
  5801                           
  5802                           ; Vector 63 : Undefined
  5803  000086  002B               	dw	ivt0x8_undefint shr (0+2)
  5804                           
  5805                           ; Vector 64 : Undefined
  5806  000088  002B               	dw	ivt0x8_undefint shr (0+2)
  5807                           
  5808                           ; Vector 65 : Undefined
  5809  00008A  002B               	dw	ivt0x8_undefint shr (0+2)
  5810                           
  5811                           ; Vector 66 : Undefined
  5812  00008C  002B               	dw	ivt0x8_undefint shr (0+2)
  5813                           
  5814                           ; Vector 67 : Undefined
  5815  00008E  002B               	dw	ivt0x8_undefint shr (0+2)
  5816                           
  5817                           ; Vector 68 : Undefined
  5818  000090  002B               	dw	ivt0x8_undefint shr (0+2)
  5819                           
  5820                           ; Vector 69 : Undefined
  5821  000092  002B               	dw	ivt0x8_undefint shr (0+2)
  5822                           
  5823                           ; Vector 70 : TMR5
  5824  000094  0AF0               	dw	_Default_ISR shr (0+2)
  5825                           
  5826                           ; Vector 71 : TMR5G
  5827  000096  0AF0               	dw	_Default_ISR shr (0+2)
  5828                           
  5829                           ; Vector 72 : TMR6
  5830  000098  0A67               	dw	_TMR6_ISR shr (0+2)
  5831                           
  5832                           ; Vector 73 : CCP3
  5833  00009A  0AF0               	dw	_Default_ISR shr (0+2)
  5834                           
  5835                           ; Vector 74 : CWG3
  5836  00009C  0AF0               	dw	_Default_ISR shr (0+2)
  5837                           
  5838                           ; Vector 75 : CLC3
  5839  00009E  0AF0               	dw	_Default_ISR shr (0+2)
  5840                           
  5841                           ; Vector 76 : Undefined
  5842  0000A0  002B               	dw	ivt0x8_undefint shr (0+2)
  5843                           
  5844                           ; Vector 77 : Undefined
  5845  0000A2  002B               	dw	ivt0x8_undefint shr (0+2)
  5846                           
  5847                           ; Vector 78 : Undefined
  5848  0000A4  002B               	dw	ivt0x8_undefint shr (0+2)
  5849                           
  5850                           ; Vector 79 : Undefined
  5851  0000A6  002B               	dw	ivt0x8_undefint shr (0+2)
  5852                           
  5853                           ; Vector 80 : CCP4
  5854  0000A8  0AF0               	dw	_Default_ISR shr (0+2)
  5855                           
  5856                           ; Vector 81 : CLC4
  5857  0000AA  0AF0               	dw	_Default_ISR shr (0+2)
  5858  0000AC                     ivt0x8_undefint:
  5859                           	opt callstack 0
  5860  0000AC  00FF               	reset	
  5861                           
  5862                           	psect	text65
  5863  000000                     __ptext65:
  5864                           	opt callstack 0
  5865                           
  5866                           	psect	rparam
  5867  0000                     tosu	equ	0x3FFF
  5868                           tosh	equ	0x3FFE
  5869                           tosl	equ	0x3FFD
  5870                           stkptr	equ	0x3FFC
  5871                           pclatu	equ	0x3FFB
  5872                           pclath	equ	0x3FFA
  5873                           pcl	equ	0x3FF9
  5874                           tblptru	equ	0x3FF8
  5875                           tblptrh	equ	0x3FF7
  5876                           tblptrl	equ	0x3FF6
  5877                           tablat	equ	0x3FF5
  5878                           prodh	equ	0x3FF4
  5879                           prodl	equ	0x3FF3
  5880                           indf0	equ	0x3FEF
  5881                           postinc0	equ	0x3FEE
  5882                           postdec0	equ	0x3FED
  5883                           preinc0	equ	0x3FEC
  5884                           plusw0	equ	0x3FEB
  5885                           fsr0h	equ	0x3FEA
  5886                           fsr0l	equ	0x3FE9
  5887                           wreg	equ	0x3FE8
  5888                           indf1	equ	0x3FE7
  5889                           postinc1	equ	0x3FE6
  5890                           postdec1	equ	0x3FE5
  5891                           preinc1	equ	0x3FE4
  5892                           plusw1	equ	0x3FE3
  5893                           fsr1h	equ	0x3FE2
  5894                           fsr1l	equ	0x3FE1
  5895                           bsr	equ	0x3FE0
  5896                           indf2	equ	0x3FDF
  5897                           postinc2	equ	0x3FDE
  5898                           postdec2	equ	0x3FDD
  5899                           preinc2	equ	0x3FDC
  5900                           plusw2	equ	0x3FDB
  5901                           fsr2h	equ	0x3FDA
  5902                           fsr2l	equ	0x3FD9
  5903                           status	equ	0x3FD8


Data Sizes:
    Strings     59
    Constant    0
    Data        0
    BSS         89
    Persistent  0
    Stack       0

Auto Spaces:
    Space          Size  Autos    Used
    COMRAM           95     17      90
    BANK0           160      0      16
    BANK1           256      0       0
    BANK2           256      0       0
    BANK3           256      0       0
    BANK4           256      0       0
    BANK5           256      0       0
    BANK6           256      0       0
    BANK7           256      0       0
    BANK8           256      0       0
    BANK9           256      0       0
    BANK10          256      0       0
    BANK11          256      0       0
    BANK12          256      0       0
    BANK13          256      0       0
    BANK14          256      0       0
    BANK15          256      0       0
    BANK16          189      0       0
    BANK17          189      0       0
    BANK18          256      0       0
    BANK19          256      0       0
    BANK20          256      0       0
    BANK21          256      0       0
    BANK22          256      0       0
    BANK23          256      0       0
    BANK24          256      0       0
    BANK25          256      0       0
    BANK26          256      0       0
    BANK27          256      0       0
    BANK28          256      0       0
    BANK29          256      0       0
    BANK30          256      0       0
    BANK31          256      0       0

Pointer List with Targets:

    strlen@s	PTR const unsigned char  size(1) Largest target is 49
		 -> STR_2(CODE[49]), STR_1(CODE[49]), 

    strlen@cp	PTR const unsigned char  size(1) Largest target is 49
		 -> STR_2(CODE[49]), STR_1(CODE[49]), 

    memset@p1	PTR void  size(2) Largest target is 67
		 -> ring_buf2(BIGRAMhl[67]), ring_buf1(BIGRAMl[67]), 

    memset@p	PTR unsigned char  size(2) Largest target is 67
		 -> ring_buf2(BIGRAMhl[67]), ring_buf1(BIGRAMl[67]), 

    printf@f	PTR const unsigned char  size(1) Largest target is 3
		 -> STR_4(CODE[3]), STR_3(CODE[3]), 

    printf@cp	PTR const unsigned char  size(2) Largest target is 49
		 -> STR_5(CODE[7]), ?_printf(COMRAM[2]), STR_2(CODE[49]), STR_1(CODE[49]), 

    printf@ap	PTR void [1] size(1) Largest target is 2
		 -> ?_printf(COMRAM[2]), 

    ringBufS_flush@_this	PTR struct ringBufS_t size(2) Largest target is 67
		 -> ring_buf1(BIGRAMl[67]), 

    ringBufS_put_dma@_this	PTR struct ringBufS_t size(2) Largest target is 67
		 -> ring_buf1(BIGRAMl[67]), 

    sp__memset	PTR void  size(2) Largest target is 67
		 -> ring_buf2(BIGRAMhl[67]), ring_buf1(BIGRAMl[67]), 

    ringBufS_init@_this	PTR volatile struct ringBufS_t size(2) Largest target is 67
		 -> ring_buf2(BIGRAMhl[67]), ring_buf1(BIGRAMl[67]), 

    eaDogM_WriteString@strPtr	PTR unsigned char  size(1) Largest target is 49
		 -> STR_2(CODE[49]), STR_1(CODE[49]), 

    S1944spi_link_type$tx1a	PTR struct ringBufS_t size(2) Largest target is 67
		 -> ring_buf1(BIGRAMl[67]), 

    spi_link.tx1a	PTR struct ringBufS_t size(2) Largest target is 67
		 -> ring_buf1(BIGRAMl[67]), 

    S1944spi_link_type$tx1b	PTR struct ringBufS_t size(2) Largest target is 67
		 -> ring_buf2(BIGRAMhl[67]), 

    spi_link.tx1b	PTR struct ringBufS_t size(2) Largest target is 67
		 -> ring_buf2(BIGRAMhl[67]), 

    TMR6_SetInterruptHandler@InterruptHandler	PTR FTN()void  size(3) Largest target is 1
		 -> TMR6_DefaultInterruptHandler(), 

    TMR6_InterruptHandler	PTR FTN()void  size(3) Largest target is 1
		 -> TMR6_DefaultInterruptHandler(), Absolute function(), 

    UART2_SetTxInterruptHandler@InterruptHandler	PTR FTN()void  size(3) Largest target is 1
		 -> UART2_Transmit_ISR(), 

    UART2_SetRxInterruptHandler@InterruptHandler	PTR FTN()void  size(3) Largest target is 1
		 -> UART2_Receive_ISR(), 

    UART2_RxInterruptHandler	PTR FTN()void  size(3) Largest target is 1
		 -> UART2_Receive_ISR(), Absolute function(), 

    UART2_TxInterruptHandler	PTR FTN()void  size(3) Largest target is 1
		 -> UART2_Transmit_ISR(), Absolute function(), 

    UART1_SetTxInterruptHandler@InterruptHandler	PTR FTN()void  size(3) Largest target is 1
		 -> UART1_Transmit_ISR(), 

    UART1_SetRxInterruptHandler@InterruptHandler	PTR FTN()void  size(3) Largest target is 1
		 -> UART1_Receive_ISR(), 

    UART1_RxInterruptHandler	PTR FTN()void  size(3) Largest target is 1
		 -> UART1_Receive_ISR(), Absolute function(), 

    UART1_TxInterruptHandler	PTR FTN()void  size(3) Largest target is 1
		 -> UART1_Transmit_ISR(), Absolute function(), 

    ADCC_SetADIInterruptHandler@InterruptHandler	PTR FTN()void  size(3) Largest target is 1
		 -> ADCC_DefaultInterruptHandler(), 

    ADCC_ADI_InterruptHandler	PTR FTN()void  size(3) Largest target is 1
		 -> ADCC_DefaultInterruptHandler(), Absolute function(), 

    INT2_SetInterruptHandler@InterruptHandler	PTR FTN()void  size(3) Largest target is 1
		 -> INT2_DefaultInterruptHandler(), 

    INT2_InterruptHandler	PTR FTN()void  size(3) Largest target is 1
		 -> INT2_DefaultInterruptHandler(), Absolute function(), 

    INT1_SetInterruptHandler@InterruptHandler	PTR FTN()void  size(3) Largest target is 1
		 -> INT1_DefaultInterruptHandler(), 

    INT1_InterruptHandler	PTR FTN()void  size(3) Largest target is 1
		 -> INT1_DefaultInterruptHandler(), Absolute function(), 

    INT0_SetInterruptHandler@InterruptHandler	PTR FTN()void  size(3) Largest target is 1
		 -> INT0_DefaultInterruptHandler(), 

    INT0_InterruptHandler	PTR FTN()void  size(3) Largest target is 1
		 -> INT0_DefaultInterruptHandler(), Absolute function(), 


Critical Paths under _main in COMRAM

    _main->_eaDogM_WriteString
    _wait_lcd_done->_wdtdelay
    _init_display->_ringBufS_init
    _send_lcd_cmd_long->_wdtdelay
    _send_lcd_cmd->_wdtdelay
    _ringBufS_init->_memset
    _eaDogM_WriteString->_printf
    _ringBufS_flush->_memset
    _printf->_putch
    _putch->_ringBufS_put_dma
    _UART2_Initialize->_UART2_SetRxInterruptHandler
    _UART2_Initialize->_UART2_SetTxInterruptHandler
    _UART1_Initialize->_UART1_SetRxInterruptHandler
    _UART1_Initialize->_UART1_SetTxInterruptHandler
    _TMR6_Initialize->_TMR6_SetInterruptHandler
    _EXT_INT_Initialize->_INT0_SetInterruptHandler
    _EXT_INT_Initialize->_INT1_SetInterruptHandler
    _EXT_INT_Initialize->_INT2_SetInterruptHandler
    _ADCC_Initialize->_ADCC_SetADIInterruptHandler

Critical Paths under _INT0_ISR in COMRAM

    None.

Critical Paths under _INT1_ISR in COMRAM

    None.

Critical Paths under _INT2_ISR in COMRAM

    None.

Critical Paths under _Default_ISR in COMRAM

    None.

Critical Paths under _ADCC_ISR in COMRAM

    None.

Critical Paths under _UART1_tx_vect_isr in COMRAM

    None.

Critical Paths under _UART1_rx_vect_isr in COMRAM

    None.

Critical Paths under _UART2_tx_vect_isr in COMRAM

    None.

Critical Paths under _UART2_rx_vect_isr in COMRAM

    None.

Critical Paths under _TMR6_ISR in COMRAM

    _TMR6_CallBack->_TMR6_DefaultInterruptHandler

Critical Paths under _DMA1_DMASCNT_ISR in COMRAM

    None.

Critical Paths under _DMA1_DMADCNT_ISR in COMRAM

    None.

Critical Paths under _DMA1_DMAA_ISR in COMRAM

    None.

Critical Paths under _DMA1_DMAOR_ISR in COMRAM

    None.

Critical Paths under _main in BANK0

    None.

Critical Paths under _INT0_ISR in BANK0

    None.

Critical Paths under _INT1_ISR in BANK0

    None.

Critical Paths under _INT2_ISR in BANK0

    None.

Critical Paths under _Default_ISR in BANK0

    None.

Critical Paths under _ADCC_ISR in BANK0

    None.

Critical Paths under _UART1_tx_vect_isr in BANK0

    None.

Critical Paths under _UART1_rx_vect_isr in BANK0

    None.

Critical Paths under _UART2_tx_vect_isr in BANK0

    None.

Critical Paths under _UART2_rx_vect_isr in BANK0

    None.

Critical Paths under _TMR6_ISR in BANK0

    None.

Critical Paths under _DMA1_DMASCNT_ISR in BANK0

    None.

Critical Paths under _DMA1_DMADCNT_ISR in BANK0

    None.

Critical Paths under _DMA1_DMAA_ISR in BANK0

    None.

Critical Paths under _DMA1_DMAOR_ISR in BANK0

    None.

Critical Paths under _main in BANK1

    None.

Critical Paths under _INT0_ISR in BANK1

    None.

Critical Paths under _INT1_ISR in BANK1

    None.

Critical Paths under _INT2_ISR in BANK1

    None.

Critical Paths under _Default_ISR in BANK1

    None.

Critical Paths under _ADCC_ISR in BANK1

    None.

Critical Paths under _UART1_tx_vect_isr in BANK1

    None.

Critical Paths under _UART1_rx_vect_isr in BANK1

    None.

Critical Paths under _UART2_tx_vect_isr in BANK1

    None.

Critical Paths under _UART2_rx_vect_isr in BANK1

    None.

Critical Paths under _TMR6_ISR in BANK1

    None.

Critical Paths under _DMA1_DMASCNT_ISR in BANK1

    None.

Critical Paths under _DMA1_DMADCNT_ISR in BANK1

    None.

Critical Paths under _DMA1_DMAA_ISR in BANK1

    None.

Critical Paths under _DMA1_DMAOR_ISR in BANK1

    None.

Critical Paths under _main in BANK2

    None.

Critical Paths under _INT0_ISR in BANK2

    None.

Critical Paths under _INT1_ISR in BANK2

    None.

Critical Paths under _INT2_ISR in BANK2

    None.

Critical Paths under _Default_ISR in BANK2

    None.

Critical Paths under _ADCC_ISR in BANK2

    None.

Critical Paths under _UART1_tx_vect_isr in BANK2

    None.

Critical Paths under _UART1_rx_vect_isr in BANK2

    None.

Critical Paths under _UART2_tx_vect_isr in BANK2

    None.

Critical Paths under _UART2_rx_vect_isr in BANK2

    None.

Critical Paths under _TMR6_ISR in BANK2

    None.

Critical Paths under _DMA1_DMASCNT_ISR in BANK2

    None.

Critical Paths under _DMA1_DMADCNT_ISR in BANK2

    None.

Critical Paths under _DMA1_DMAA_ISR in BANK2

    None.

Critical Paths under _DMA1_DMAOR_ISR in BANK2

    None.

Critical Paths under _main in BANK3

    None.

Critical Paths under _INT0_ISR in BANK3

    None.

Critical Paths under _INT1_ISR in BANK3

    None.

Critical Paths under _INT2_ISR in BANK3

    None.

Critical Paths under _Default_ISR in BANK3

    None.

Critical Paths under _ADCC_ISR in BANK3

    None.

Critical Paths under _UART1_tx_vect_isr in BANK3

    None.

Critical Paths under _UART1_rx_vect_isr in BANK3

    None.

Critical Paths under _UART2_tx_vect_isr in BANK3

    None.

Critical Paths under _UART2_rx_vect_isr in BANK3

    None.

Critical Paths under _TMR6_ISR in BANK3

    None.

Critical Paths under _DMA1_DMASCNT_ISR in BANK3

    None.

Critical Paths under _DMA1_DMADCNT_ISR in BANK3

    None.

Critical Paths under _DMA1_DMAA_ISR in BANK3

    None.

Critical Paths under _DMA1_DMAOR_ISR in BANK3

    None.

Critical Paths under _main in BANK4

    None.

Critical Paths under _INT0_ISR in BANK4

    None.

Critical Paths under _INT1_ISR in BANK4

    None.

Critical Paths under _INT2_ISR in BANK4

    None.

Critical Paths under _Default_ISR in BANK4

    None.

Critical Paths under _ADCC_ISR in BANK4

    None.

Critical Paths under _UART1_tx_vect_isr in BANK4

    None.

Critical Paths under _UART1_rx_vect_isr in BANK4

    None.

Critical Paths under _UART2_tx_vect_isr in BANK4

    None.

Critical Paths under _UART2_rx_vect_isr in BANK4

    None.

Critical Paths under _TMR6_ISR in BANK4

    None.

Critical Paths under _DMA1_DMASCNT_ISR in BANK4

    None.

Critical Paths under _DMA1_DMADCNT_ISR in BANK4

    None.

Critical Paths under _DMA1_DMAA_ISR in BANK4

    None.

Critical Paths under _DMA1_DMAOR_ISR in BANK4

    None.

Critical Paths under _main in BANK5

    None.

Critical Paths under _INT0_ISR in BANK5

    None.

Critical Paths under _INT1_ISR in BANK5

    None.

Critical Paths under _INT2_ISR in BANK5

    None.

Critical Paths under _Default_ISR in BANK5

    None.

Critical Paths under _ADCC_ISR in BANK5

    None.

Critical Paths under _UART1_tx_vect_isr in BANK5

    None.

Critical Paths under _UART1_rx_vect_isr in BANK5

    None.

Critical Paths under _UART2_tx_vect_isr in BANK5

    None.

Critical Paths under _UART2_rx_vect_isr in BANK5

    None.

Critical Paths under _TMR6_ISR in BANK5

    None.

Critical Paths under _DMA1_DMASCNT_ISR in BANK5

    None.

Critical Paths under _DMA1_DMADCNT_ISR in BANK5

    None.

Critical Paths under _DMA1_DMAA_ISR in BANK5

    None.

Critical Paths under _DMA1_DMAOR_ISR in BANK5

    None.

Critical Paths under _main in BANK6

    None.

Critical Paths under _INT0_ISR in BANK6

    None.

Critical Paths under _INT1_ISR in BANK6

    None.

Critical Paths under _INT2_ISR in BANK6

    None.

Critical Paths under _Default_ISR in BANK6

    None.

Critical Paths under _ADCC_ISR in BANK6

    None.

Critical Paths under _UART1_tx_vect_isr in BANK6

    None.

Critical Paths under _UART1_rx_vect_isr in BANK6

    None.

Critical Paths under _UART2_tx_vect_isr in BANK6

    None.

Critical Paths under _UART2_rx_vect_isr in BANK6

    None.

Critical Paths under _TMR6_ISR in BANK6

    None.

Critical Paths under _DMA1_DMASCNT_ISR in BANK6

    None.

Critical Paths under _DMA1_DMADCNT_ISR in BANK6

    None.

Critical Paths under _DMA1_DMAA_ISR in BANK6

    None.

Critical Paths under _DMA1_DMAOR_ISR in BANK6

    None.

Critical Paths under _main in BANK7

    None.

Critical Paths under _INT0_ISR in BANK7

    None.

Critical Paths under _INT1_ISR in BANK7

    None.

Critical Paths under _INT2_ISR in BANK7

    None.

Critical Paths under _Default_ISR in BANK7

    None.

Critical Paths under _ADCC_ISR in BANK7

    None.

Critical Paths under _UART1_tx_vect_isr in BANK7

    None.

Critical Paths under _UART1_rx_vect_isr in BANK7

    None.

Critical Paths under _UART2_tx_vect_isr in BANK7

    None.

Critical Paths under _UART2_rx_vect_isr in BANK7

    None.

Critical Paths under _TMR6_ISR in BANK7

    None.

Critical Paths under _DMA1_DMASCNT_ISR in BANK7

    None.

Critical Paths under _DMA1_DMADCNT_ISR in BANK7

    None.

Critical Paths under _DMA1_DMAA_ISR in BANK7

    None.

Critical Paths under _DMA1_DMAOR_ISR in BANK7

    None.

Critical Paths under _main in BANK8

    None.

Critical Paths under _INT0_ISR in BANK8

    None.

Critical Paths under _INT1_ISR in BANK8

    None.

Critical Paths under _INT2_ISR in BANK8

    None.

Critical Paths under _Default_ISR in BANK8

    None.

Critical Paths under _ADCC_ISR in BANK8

    None.

Critical Paths under _UART1_tx_vect_isr in BANK8

    None.

Critical Paths under _UART1_rx_vect_isr in BANK8

    None.

Critical Paths under _UART2_tx_vect_isr in BANK8

    None.

Critical Paths under _UART2_rx_vect_isr in BANK8

    None.

Critical Paths under _TMR6_ISR in BANK8

    None.

Critical Paths under _DMA1_DMASCNT_ISR in BANK8

    None.

Critical Paths under _DMA1_DMADCNT_ISR in BANK8

    None.

Critical Paths under _DMA1_DMAA_ISR in BANK8

    None.

Critical Paths under _DMA1_DMAOR_ISR in BANK8

    None.

Critical Paths under _main in BANK9

    None.

Critical Paths under _INT0_ISR in BANK9

    None.

Critical Paths under _INT1_ISR in BANK9

    None.

Critical Paths under _INT2_ISR in BANK9

    None.

Critical Paths under _Default_ISR in BANK9

    None.

Critical Paths under _ADCC_ISR in BANK9

    None.

Critical Paths under _UART1_tx_vect_isr in BANK9

    None.

Critical Paths under _UART1_rx_vect_isr in BANK9

    None.

Critical Paths under _UART2_tx_vect_isr in BANK9

    None.

Critical Paths under _UART2_rx_vect_isr in BANK9

    None.

Critical Paths under _TMR6_ISR in BANK9

    None.

Critical Paths under _DMA1_DMASCNT_ISR in BANK9

    None.

Critical Paths under _DMA1_DMADCNT_ISR in BANK9

    None.

Critical Paths under _DMA1_DMAA_ISR in BANK9

    None.

Critical Paths under _DMA1_DMAOR_ISR in BANK9

    None.

Critical Paths under _main in BANK10

    None.

Critical Paths under _INT0_ISR in BANK10

    None.

Critical Paths under _INT1_ISR in BANK10

    None.

Critical Paths under _INT2_ISR in BANK10

    None.

Critical Paths under _Default_ISR in BANK10

    None.

Critical Paths under _ADCC_ISR in BANK10

    None.

Critical Paths under _UART1_tx_vect_isr in BANK10

    None.

Critical Paths under _UART1_rx_vect_isr in BANK10

    None.

Critical Paths under _UART2_tx_vect_isr in BANK10

    None.

Critical Paths under _UART2_rx_vect_isr in BANK10

    None.

Critical Paths under _TMR6_ISR in BANK10

    None.

Critical Paths under _DMA1_DMASCNT_ISR in BANK10

    None.

Critical Paths under _DMA1_DMADCNT_ISR in BANK10

    None.

Critical Paths under _DMA1_DMAA_ISR in BANK10

    None.

Critical Paths under _DMA1_DMAOR_ISR in BANK10

    None.

Critical Paths under _main in BANK11

    None.

Critical Paths under _INT0_ISR in BANK11

    None.

Critical Paths under _INT1_ISR in BANK11

    None.

Critical Paths under _INT2_ISR in BANK11

    None.

Critical Paths under _Default_ISR in BANK11

    None.

Critical Paths under _ADCC_ISR in BANK11

    None.

Critical Paths under _UART1_tx_vect_isr in BANK11

    None.

Critical Paths under _UART1_rx_vect_isr in BANK11

    None.

Critical Paths under _UART2_tx_vect_isr in BANK11

    None.

Critical Paths under _UART2_rx_vect_isr in BANK11

    None.

Critical Paths under _TMR6_ISR in BANK11

    None.

Critical Paths under _DMA1_DMASCNT_ISR in BANK11

    None.

Critical Paths under _DMA1_DMADCNT_ISR in BANK11

    None.

Critical Paths under _DMA1_DMAA_ISR in BANK11

    None.

Critical Paths under _DMA1_DMAOR_ISR in BANK11

    None.

Critical Paths under _main in BANK12

    None.

Critical Paths under _INT0_ISR in BANK12

    None.

Critical Paths under _INT1_ISR in BANK12

    None.

Critical Paths under _INT2_ISR in BANK12

    None.

Critical Paths under _Default_ISR in BANK12

    None.

Critical Paths under _ADCC_ISR in BANK12

    None.

Critical Paths under _UART1_tx_vect_isr in BANK12

    None.

Critical Paths under _UART1_rx_vect_isr in BANK12

    None.

Critical Paths under _UART2_tx_vect_isr in BANK12

    None.

Critical Paths under _UART2_rx_vect_isr in BANK12

    None.

Critical Paths under _TMR6_ISR in BANK12

    None.

Critical Paths under _DMA1_DMASCNT_ISR in BANK12

    None.

Critical Paths under _DMA1_DMADCNT_ISR in BANK12

    None.

Critical Paths under _DMA1_DMAA_ISR in BANK12

    None.

Critical Paths under _DMA1_DMAOR_ISR in BANK12

    None.

Critical Paths under _main in BANK13

    None.

Critical Paths under _INT0_ISR in BANK13

    None.

Critical Paths under _INT1_ISR in BANK13

    None.

Critical Paths under _INT2_ISR in BANK13

    None.

Critical Paths under _Default_ISR in BANK13

    None.

Critical Paths under _ADCC_ISR in BANK13

    None.

Critical Paths under _UART1_tx_vect_isr in BANK13

    None.

Critical Paths under _UART1_rx_vect_isr in BANK13

    None.

Critical Paths under _UART2_tx_vect_isr in BANK13

    None.

Critical Paths under _UART2_rx_vect_isr in BANK13

    None.

Critical Paths under _TMR6_ISR in BANK13

    None.

Critical Paths under _DMA1_DMASCNT_ISR in BANK13

    None.

Critical Paths under _DMA1_DMADCNT_ISR in BANK13

    None.

Critical Paths under _DMA1_DMAA_ISR in BANK13

    None.

Critical Paths under _DMA1_DMAOR_ISR in BANK13

    None.

Critical Paths under _main in BANK14

    None.

Critical Paths under _INT0_ISR in BANK14

    None.

Critical Paths under _INT1_ISR in BANK14

    None.

Critical Paths under _INT2_ISR in BANK14

    None.

Critical Paths under _Default_ISR in BANK14

    None.

Critical Paths under _ADCC_ISR in BANK14

    None.

Critical Paths under _UART1_tx_vect_isr in BANK14

    None.

Critical Paths under _UART1_rx_vect_isr in BANK14

    None.

Critical Paths under _UART2_tx_vect_isr in BANK14

    None.

Critical Paths under _UART2_rx_vect_isr in BANK14

    None.

Critical Paths under _TMR6_ISR in BANK14

    None.

Critical Paths under _DMA1_DMASCNT_ISR in BANK14

    None.

Critical Paths under _DMA1_DMADCNT_ISR in BANK14

    None.

Critical Paths under _DMA1_DMAA_ISR in BANK14

    None.

Critical Paths under _DMA1_DMAOR_ISR in BANK14

    None.

Critical Paths under _main in BANK15

    None.

Critical Paths under _INT0_ISR in BANK15

    None.

Critical Paths under _INT1_ISR in BANK15

    None.

Critical Paths under _INT2_ISR in BANK15

    None.

Critical Paths under _Default_ISR in BANK15

    None.

Critical Paths under _ADCC_ISR in BANK15

    None.

Critical Paths under _UART1_tx_vect_isr in BANK15

    None.

Critical Paths under _UART1_rx_vect_isr in BANK15

    None.

Critical Paths under _UART2_tx_vect_isr in BANK15

    None.

Critical Paths under _UART2_rx_vect_isr in BANK15

    None.

Critical Paths under _TMR6_ISR in BANK15

    None.

Critical Paths under _DMA1_DMASCNT_ISR in BANK15

    None.

Critical Paths under _DMA1_DMADCNT_ISR in BANK15

    None.

Critical Paths under _DMA1_DMAA_ISR in BANK15

    None.

Critical Paths under _DMA1_DMAOR_ISR in BANK15

    None.

Critical Paths under _main in BANK16

    None.

Critical Paths under _INT0_ISR in BANK16

    None.

Critical Paths under _INT1_ISR in BANK16

    None.

Critical Paths under _INT2_ISR in BANK16

    None.

Critical Paths under _Default_ISR in BANK16

    None.

Critical Paths under _ADCC_ISR in BANK16

    None.

Critical Paths under _UART1_tx_vect_isr in BANK16

    None.

Critical Paths under _UART1_rx_vect_isr in BANK16

    None.

Critical Paths under _UART2_tx_vect_isr in BANK16

    None.

Critical Paths under _UART2_rx_vect_isr in BANK16

    None.

Critical Paths under _TMR6_ISR in BANK16

    None.

Critical Paths under _DMA1_DMASCNT_ISR in BANK16

    None.

Critical Paths under _DMA1_DMADCNT_ISR in BANK16

    None.

Critical Paths under _DMA1_DMAA_ISR in BANK16

    None.

Critical Paths under _DMA1_DMAOR_ISR in BANK16

    None.

Critical Paths under _main in BANK17

    None.

Critical Paths under _INT0_ISR in BANK17

    None.

Critical Paths under _INT1_ISR in BANK17

    None.

Critical Paths under _INT2_ISR in BANK17

    None.

Critical Paths under _Default_ISR in BANK17

    None.

Critical Paths under _ADCC_ISR in BANK17

    None.

Critical Paths under _UART1_tx_vect_isr in BANK17

    None.

Critical Paths under _UART1_rx_vect_isr in BANK17

    None.

Critical Paths under _UART2_tx_vect_isr in BANK17

    None.

Critical Paths under _UART2_rx_vect_isr in BANK17

    None.

Critical Paths under _TMR6_ISR in BANK17

    None.

Critical Paths under _DMA1_DMASCNT_ISR in BANK17

    None.

Critical Paths under _DMA1_DMADCNT_ISR in BANK17

    None.

Critical Paths under _DMA1_DMAA_ISR in BANK17

    None.

Critical Paths under _DMA1_DMAOR_ISR in BANK17

    None.

Critical Paths under _main in BANK18

    None.

Critical Paths under _INT0_ISR in BANK18

    None.

Critical Paths under _INT1_ISR in BANK18

    None.

Critical Paths under _INT2_ISR in BANK18

    None.

Critical Paths under _Default_ISR in BANK18

    None.

Critical Paths under _ADCC_ISR in BANK18

    None.

Critical Paths under _UART1_tx_vect_isr in BANK18

    None.

Critical Paths under _UART1_rx_vect_isr in BANK18

    None.

Critical Paths under _UART2_tx_vect_isr in BANK18

    None.

Critical Paths under _UART2_rx_vect_isr in BANK18

    None.

Critical Paths under _TMR6_ISR in BANK18

    None.

Critical Paths under _DMA1_DMASCNT_ISR in BANK18

    None.

Critical Paths under _DMA1_DMADCNT_ISR in BANK18

    None.

Critical Paths under _DMA1_DMAA_ISR in BANK18

    None.

Critical Paths under _DMA1_DMAOR_ISR in BANK18

    None.

Critical Paths under _main in BANK19

    None.

Critical Paths under _INT0_ISR in BANK19

    None.

Critical Paths under _INT1_ISR in BANK19

    None.

Critical Paths under _INT2_ISR in BANK19

    None.

Critical Paths under _Default_ISR in BANK19

    None.

Critical Paths under _ADCC_ISR in BANK19

    None.

Critical Paths under _UART1_tx_vect_isr in BANK19

    None.

Critical Paths under _UART1_rx_vect_isr in BANK19

    None.

Critical Paths under _UART2_tx_vect_isr in BANK19

    None.

Critical Paths under _UART2_rx_vect_isr in BANK19

    None.

Critical Paths under _TMR6_ISR in BANK19

    None.

Critical Paths under _DMA1_DMASCNT_ISR in BANK19

    None.

Critical Paths under _DMA1_DMADCNT_ISR in BANK19

    None.

Critical Paths under _DMA1_DMAA_ISR in BANK19

    None.

Critical Paths under _DMA1_DMAOR_ISR in BANK19

    None.

Critical Paths under _main in BANK20

    None.

Critical Paths under _INT0_ISR in BANK20

    None.

Critical Paths under _INT1_ISR in BANK20

    None.

Critical Paths under _INT2_ISR in BANK20

    None.

Critical Paths under _Default_ISR in BANK20

    None.

Critical Paths under _ADCC_ISR in BANK20

    None.

Critical Paths under _UART1_tx_vect_isr in BANK20

    None.

Critical Paths under _UART1_rx_vect_isr in BANK20

    None.

Critical Paths under _UART2_tx_vect_isr in BANK20

    None.

Critical Paths under _UART2_rx_vect_isr in BANK20

    None.

Critical Paths under _TMR6_ISR in BANK20

    None.

Critical Paths under _DMA1_DMASCNT_ISR in BANK20

    None.

Critical Paths under _DMA1_DMADCNT_ISR in BANK20

    None.

Critical Paths under _DMA1_DMAA_ISR in BANK20

    None.

Critical Paths under _DMA1_DMAOR_ISR in BANK20

    None.

Critical Paths under _main in BANK21

    None.

Critical Paths under _INT0_ISR in BANK21

    None.

Critical Paths under _INT1_ISR in BANK21

    None.

Critical Paths under _INT2_ISR in BANK21

    None.

Critical Paths under _Default_ISR in BANK21

    None.

Critical Paths under _ADCC_ISR in BANK21

    None.

Critical Paths under _UART1_tx_vect_isr in BANK21

    None.

Critical Paths under _UART1_rx_vect_isr in BANK21

    None.

Critical Paths under _UART2_tx_vect_isr in BANK21

    None.

Critical Paths under _UART2_rx_vect_isr in BANK21

    None.

Critical Paths under _TMR6_ISR in BANK21

    None.

Critical Paths under _DMA1_DMASCNT_ISR in BANK21

    None.

Critical Paths under _DMA1_DMADCNT_ISR in BANK21

    None.

Critical Paths under _DMA1_DMAA_ISR in BANK21

    None.

Critical Paths under _DMA1_DMAOR_ISR in BANK21

    None.

Critical Paths under _main in BANK22

    None.

Critical Paths under _INT0_ISR in BANK22

    None.

Critical Paths under _INT1_ISR in BANK22

    None.

Critical Paths under _INT2_ISR in BANK22

    None.

Critical Paths under _Default_ISR in BANK22

    None.

Critical Paths under _ADCC_ISR in BANK22

    None.

Critical Paths under _UART1_tx_vect_isr in BANK22

    None.

Critical Paths under _UART1_rx_vect_isr in BANK22

    None.

Critical Paths under _UART2_tx_vect_isr in BANK22

    None.

Critical Paths under _UART2_rx_vect_isr in BANK22

    None.

Critical Paths under _TMR6_ISR in BANK22

    None.

Critical Paths under _DMA1_DMASCNT_ISR in BANK22

    None.

Critical Paths under _DMA1_DMADCNT_ISR in BANK22

    None.

Critical Paths under _DMA1_DMAA_ISR in BANK22

    None.

Critical Paths under _DMA1_DMAOR_ISR in BANK22

    None.

Critical Paths under _main in BANK23

    None.

Critical Paths under _INT0_ISR in BANK23

    None.

Critical Paths under _INT1_ISR in BANK23

    None.

Critical Paths under _INT2_ISR in BANK23

    None.

Critical Paths under _Default_ISR in BANK23

    None.

Critical Paths under _ADCC_ISR in BANK23

    None.

Critical Paths under _UART1_tx_vect_isr in BANK23

    None.

Critical Paths under _UART1_rx_vect_isr in BANK23

    None.

Critical Paths under _UART2_tx_vect_isr in BANK23

    None.

Critical Paths under _UART2_rx_vect_isr in BANK23

    None.

Critical Paths under _TMR6_ISR in BANK23

    None.

Critical Paths under _DMA1_DMASCNT_ISR in BANK23

    None.

Critical Paths under _DMA1_DMADCNT_ISR in BANK23

    None.

Critical Paths under _DMA1_DMAA_ISR in BANK23

    None.

Critical Paths under _DMA1_DMAOR_ISR in BANK23

    None.

Critical Paths under _main in BANK24

    None.

Critical Paths under _INT0_ISR in BANK24

    None.

Critical Paths under _INT1_ISR in BANK24

    None.

Critical Paths under _INT2_ISR in BANK24

    None.

Critical Paths under _Default_ISR in BANK24

    None.

Critical Paths under _ADCC_ISR in BANK24

    None.

Critical Paths under _UART1_tx_vect_isr in BANK24

    None.

Critical Paths under _UART1_rx_vect_isr in BANK24

    None.

Critical Paths under _UART2_tx_vect_isr in BANK24

    None.

Critical Paths under _UART2_rx_vect_isr in BANK24

    None.

Critical Paths under _TMR6_ISR in BANK24

    None.

Critical Paths under _DMA1_DMASCNT_ISR in BANK24

    None.

Critical Paths under _DMA1_DMADCNT_ISR in BANK24

    None.

Critical Paths under _DMA1_DMAA_ISR in BANK24

    None.

Critical Paths under _DMA1_DMAOR_ISR in BANK24

    None.

Critical Paths under _main in BANK25

    None.

Critical Paths under _INT0_ISR in BANK25

    None.

Critical Paths under _INT1_ISR in BANK25

    None.

Critical Paths under _INT2_ISR in BANK25

    None.

Critical Paths under _Default_ISR in BANK25

    None.

Critical Paths under _ADCC_ISR in BANK25

    None.

Critical Paths under _UART1_tx_vect_isr in BANK25

    None.

Critical Paths under _UART1_rx_vect_isr in BANK25

    None.

Critical Paths under _UART2_tx_vect_isr in BANK25

    None.

Critical Paths under _UART2_rx_vect_isr in BANK25

    None.

Critical Paths under _TMR6_ISR in BANK25

    None.

Critical Paths under _DMA1_DMASCNT_ISR in BANK25

    None.

Critical Paths under _DMA1_DMADCNT_ISR in BANK25

    None.

Critical Paths under _DMA1_DMAA_ISR in BANK25

    None.

Critical Paths under _DMA1_DMAOR_ISR in BANK25

    None.

Critical Paths under _main in BANK26

    None.

Critical Paths under _INT0_ISR in BANK26

    None.

Critical Paths under _INT1_ISR in BANK26

    None.

Critical Paths under _INT2_ISR in BANK26

    None.

Critical Paths under _Default_ISR in BANK26

    None.

Critical Paths under _ADCC_ISR in BANK26

    None.

Critical Paths under _UART1_tx_vect_isr in BANK26

    None.

Critical Paths under _UART1_rx_vect_isr in BANK26

    None.

Critical Paths under _UART2_tx_vect_isr in BANK26

    None.

Critical Paths under _UART2_rx_vect_isr in BANK26

    None.

Critical Paths under _TMR6_ISR in BANK26

    None.

Critical Paths under _DMA1_DMASCNT_ISR in BANK26

    None.

Critical Paths under _DMA1_DMADCNT_ISR in BANK26

    None.

Critical Paths under _DMA1_DMAA_ISR in BANK26

    None.

Critical Paths under _DMA1_DMAOR_ISR in BANK26

    None.

Critical Paths under _main in BANK27

    None.

Critical Paths under _INT0_ISR in BANK27

    None.

Critical Paths under _INT1_ISR in BANK27

    None.

Critical Paths under _INT2_ISR in BANK27

    None.

Critical Paths under _Default_ISR in BANK27

    None.

Critical Paths under _ADCC_ISR in BANK27

    None.

Critical Paths under _UART1_tx_vect_isr in BANK27

    None.

Critical Paths under _UART1_rx_vect_isr in BANK27

    None.

Critical Paths under _UART2_tx_vect_isr in BANK27

    None.

Critical Paths under _UART2_rx_vect_isr in BANK27

    None.

Critical Paths under _TMR6_ISR in BANK27

    None.

Critical Paths under _DMA1_DMASCNT_ISR in BANK27

    None.

Critical Paths under _DMA1_DMADCNT_ISR in BANK27

    None.

Critical Paths under _DMA1_DMAA_ISR in BANK27

    None.

Critical Paths under _DMA1_DMAOR_ISR in BANK27

    None.

Critical Paths under _main in BANK28

    None.

Critical Paths under _INT0_ISR in BANK28

    None.

Critical Paths under _INT1_ISR in BANK28

    None.

Critical Paths under _INT2_ISR in BANK28

    None.

Critical Paths under _Default_ISR in BANK28

    None.

Critical Paths under _ADCC_ISR in BANK28

    None.

Critical Paths under _UART1_tx_vect_isr in BANK28

    None.

Critical Paths under _UART1_rx_vect_isr in BANK28

    None.

Critical Paths under _UART2_tx_vect_isr in BANK28

    None.

Critical Paths under _UART2_rx_vect_isr in BANK28

    None.

Critical Paths under _TMR6_ISR in BANK28

    None.

Critical Paths under _DMA1_DMASCNT_ISR in BANK28

    None.

Critical Paths under _DMA1_DMADCNT_ISR in BANK28

    None.

Critical Paths under _DMA1_DMAA_ISR in BANK28

    None.

Critical Paths under _DMA1_DMAOR_ISR in BANK28

    None.

Critical Paths under _main in BANK29

    None.

Critical Paths under _INT0_ISR in BANK29

    None.

Critical Paths under _INT1_ISR in BANK29

    None.

Critical Paths under _INT2_ISR in BANK29

    None.

Critical Paths under _Default_ISR in BANK29

    None.

Critical Paths under _ADCC_ISR in BANK29

    None.

Critical Paths under _UART1_tx_vect_isr in BANK29

    None.

Critical Paths under _UART1_rx_vect_isr in BANK29

    None.

Critical Paths under _UART2_tx_vect_isr in BANK29

    None.

Critical Paths under _UART2_rx_vect_isr in BANK29

    None.

Critical Paths under _TMR6_ISR in BANK29

    None.

Critical Paths under _DMA1_DMASCNT_ISR in BANK29

    None.

Critical Paths under _DMA1_DMADCNT_ISR in BANK29

    None.

Critical Paths under _DMA1_DMAA_ISR in BANK29

    None.

Critical Paths under _DMA1_DMAOR_ISR in BANK29

    None.

Critical Paths under _main in BANK30

    None.

Critical Paths under _INT0_ISR in BANK30

    None.

Critical Paths under _INT1_ISR in BANK30

    None.

Critical Paths under _INT2_ISR in BANK30

    None.

Critical Paths under _Default_ISR in BANK30

    None.

Critical Paths under _ADCC_ISR in BANK30

    None.

Critical Paths under _UART1_tx_vect_isr in BANK30

    None.

Critical Paths under _UART1_rx_vect_isr in BANK30

    None.

Critical Paths under _UART2_tx_vect_isr in BANK30

    None.

Critical Paths under _UART2_rx_vect_isr in BANK30

    None.

Critical Paths under _TMR6_ISR in BANK30

    None.

Critical Paths under _DMA1_DMASCNT_ISR in BANK30

    None.

Critical Paths under _DMA1_DMADCNT_ISR in BANK30

    None.

Critical Paths under _DMA1_DMAA_ISR in BANK30

    None.

Critical Paths under _DMA1_DMAOR_ISR in BANK30

    None.

Critical Paths under _main in BANK31

    None.

Critical Paths under _INT0_ISR in BANK31

    None.

Critical Paths under _INT1_ISR in BANK31

    None.

Critical Paths under _INT2_ISR in BANK31

    None.

Critical Paths under _Default_ISR in BANK31

    None.

Critical Paths under _ADCC_ISR in BANK31

    None.

Critical Paths under _UART1_tx_vect_isr in BANK31

    None.

Critical Paths under _UART1_rx_vect_isr in BANK31

    None.

Critical Paths under _UART2_tx_vect_isr in BANK31

    None.

Critical Paths under _UART2_rx_vect_isr in BANK31

    None.

Critical Paths under _TMR6_ISR in BANK31

    None.

Critical Paths under _DMA1_DMASCNT_ISR in BANK31

    None.

Critical Paths under _DMA1_DMADCNT_ISR in BANK31

    None.

Critical Paths under _DMA1_DMAA_ISR in BANK31

    None.

Critical Paths under _DMA1_DMAOR_ISR in BANK31

    None.

Call Graph Tables:

 ---------------------------------------------------------------------------------
 (Depth) Function   	        Calls       Base Space   Used Autos Params    Refs
 ---------------------------------------------------------------------------------
 (0) _main                                                 0     0      0    5559
                  _SYSTEM_Initialize
                 _eaDogM_WriteString
                       _init_display
                      _wait_lcd_done
 ---------------------------------------------------------------------------------
 (1) _wait_lcd_done                                        0     0      0     465
                           _wdtdelay
 ---------------------------------------------------------------------------------
 (1) _init_display                                         0     0      0    2209
                      _ringBufS_init
                       _send_lcd_cmd
                  _send_lcd_cmd_long
                           _wdtdelay
 ---------------------------------------------------------------------------------
 (2) _send_lcd_cmd_long                                    1     1      0     509
                                              5 COMRAM     1     1      0
                  _SPI1_Exchange8bit
                           _wdtdelay
 ---------------------------------------------------------------------------------
 (2) _send_lcd_cmd                                         1     1      0     509
                                              5 COMRAM     1     1      0
                  _SPI1_Exchange8bit
                           _wdtdelay
 ---------------------------------------------------------------------------------
 (2) _wdtdelay                                             4     0      4     465
                                              1 COMRAM     4     0      4
 ---------------------------------------------------------------------------------
 (3) _SPI1_Exchange8bit                                    1     1      0      22
                                              1 COMRAM     1     1      0
 ---------------------------------------------------------------------------------
 (2) _ringBufS_init                                        2     0      2     726
                                              9 COMRAM     2     0      2
                             _memset
 ---------------------------------------------------------------------------------
 (1) _eaDogM_WriteString                                   2     1      1    1988
                                             15 COMRAM     2     1      1
                             _printf
                     _ringBufS_flush
                          _start_lcd
                             _strlen
                       _wait_lcd_set
 ---------------------------------------------------------------------------------
 (2) _wait_lcd_set                                         0     0      0       0
 ---------------------------------------------------------------------------------
 (2) _strlen                                               3     1      2     305
                                              1 COMRAM     3     1      2
 ---------------------------------------------------------------------------------
 (2) _start_lcd                                            0     0      0       0
 ---------------------------------------------------------------------------------
 (2) _ringBufS_flush                                       3     0      3     814
                                              9 COMRAM     3     0      3
                             _memset
 ---------------------------------------------------------------------------------
 (3) _memset                                               8     2      6     552
                                              1 COMRAM     8     2      6
 ---------------------------------------------------------------------------------
 (2) _printf                                              18    15      3     629
                                              6 COMRAM     9     6      3
                              _putch
 ---------------------------------------------------------------------------------
 (3) _putch                                                1     1      0     306
                                              5 COMRAM     1     1      0
                   _ringBufS_put_dma
 ---------------------------------------------------------------------------------
 (4) _ringBufS_put_dma                                     4     1      3     284
                                              1 COMRAM     4     1      3
 ---------------------------------------------------------------------------------
 (1) _SYSTEM_Initialize                                    0     0      0     897
                    _ADCC_Initialize
                    _DMA1_Initialize
                 _EXT_INT_Initialize
               _INTERRUPT_Initialize
              _OSCILLATOR_Initialize
             _PIN_MANAGER_Initialize
                     _PMD_Initialize
                    _SPI1_Initialize
                    _TMR6_Initialize
                   _UART1_Initialize
                   _UART2_Initialize
 ---------------------------------------------------------------------------------
 (2) _UART2_Initialize                                     0     0      0     196
        _UART2_SetRxInterruptHandler
        _UART2_SetTxInterruptHandler
 ---------------------------------------------------------------------------------
 (3) _UART2_SetTxInterruptHandler                          3     0      3      98
                                              1 COMRAM     3     0      3
 ---------------------------------------------------------------------------------
 (3) _UART2_SetRxInterruptHandler                          3     0      3      98
                                              1 COMRAM     3     0      3
 ---------------------------------------------------------------------------------
 (2) _UART1_Initialize                                     0     0      0     196
        _UART1_SetRxInterruptHandler
        _UART1_SetTxInterruptHandler
 ---------------------------------------------------------------------------------
 (3) _UART1_SetTxInterruptHandler                          3     0      3      98
                                              1 COMRAM     3     0      3
 ---------------------------------------------------------------------------------
 (3) _UART1_SetRxInterruptHandler                          3     0      3      98
                                              1 COMRAM     3     0      3
 ---------------------------------------------------------------------------------
 (2) _TMR6_Initialize                                      0     0      0      98
           _TMR6_SetInterruptHandler
 ---------------------------------------------------------------------------------
 (3) _TMR6_SetInterruptHandler                             3     0      3      98
                                              1 COMRAM     3     0      3
 ---------------------------------------------------------------------------------
 (2) _SPI1_Initialize                                      0     0      0       0
 ---------------------------------------------------------------------------------
 (2) _PMD_Initialize                                       0     0      0       0
 ---------------------------------------------------------------------------------
 (2) _PIN_MANAGER_Initialize                               0     0      0       0
 ---------------------------------------------------------------------------------
 (2) _OSCILLATOR_Initialize                                0     0      0       0
 ---------------------------------------------------------------------------------
 (2) _INTERRUPT_Initialize                                 1     1      0      15
                                              1 COMRAM     1     1      0
 ---------------------------------------------------------------------------------
 (2) _EXT_INT_Initialize                                   0     0      0     294
           _INT0_SetInterruptHandler
           _INT1_SetInterruptHandler
           _INT2_SetInterruptHandler
 ---------------------------------------------------------------------------------
 (3) _INT2_SetInterruptHandler                             3     0      3      98
                                              1 COMRAM     3     0      3
 ---------------------------------------------------------------------------------
 (3) _INT1_SetInterruptHandler                             3     0      3      98
                                              1 COMRAM     3     0      3
 ---------------------------------------------------------------------------------
 (3) _INT0_SetInterruptHandler                             3     0      3      98
                                              1 COMRAM     3     0      3
 ---------------------------------------------------------------------------------
 (2) _DMA1_Initialize                                      0     0      0       0
 ---------------------------------------------------------------------------------
 (2) _ADCC_Initialize                                      0     0      0      98
        _ADCC_SetADIInterruptHandler
 ---------------------------------------------------------------------------------
 (3) _ADCC_SetADIInterruptHandler                          3     0      3      98
                                              1 COMRAM     3     0      3
 ---------------------------------------------------------------------------------
 Estimated maximum stack depth 4
 ---------------------------------------------------------------------------------
 (Depth) Function   	        Calls       Base Space   Used Autos Params    Refs
 ---------------------------------------------------------------------------------
 (5) _INT0_ISR                                             0     0      0       0
                      _INT0_CallBack
 ---------------------------------------------------------------------------------
 (6) _INT0_CallBack                                        0     0      0       0
                   Absolute function *
       _INT0_DefaultInterruptHandler *
 ---------------------------------------------------------------------------------
 (7) _INT0_DefaultInterruptHandler                         0     0      0       0
 ---------------------------------------------------------------------------------
 (7) Absolute function(Fake)                               0     0      0       0
 ---------------------------------------------------------------------------------
 Estimated maximum stack depth 7
 ---------------------------------------------------------------------------------
 (Depth) Function   	        Calls       Base Space   Used Autos Params    Refs
 ---------------------------------------------------------------------------------
 (5) _INT1_ISR                                             0     0      0       0
                      _INT1_CallBack
 ---------------------------------------------------------------------------------
 (6) _INT1_CallBack                                        0     0      0       0
                   Absolute function *
       _INT1_DefaultInterruptHandler *
 ---------------------------------------------------------------------------------
 (7) _INT1_DefaultInterruptHandler                         0     0      0       0
 ---------------------------------------------------------------------------------
 (7) Absolute function(Fake)                               0     0      0       0
 ---------------------------------------------------------------------------------
 Estimated maximum stack depth 7
 ---------------------------------------------------------------------------------
 (Depth) Function   	        Calls       Base Space   Used Autos Params    Refs
 ---------------------------------------------------------------------------------
 (5) _INT2_ISR                                             0     0      0       0
                      _INT2_CallBack
 ---------------------------------------------------------------------------------
 (6) _INT2_CallBack                                        0     0      0       0
                   Absolute function *
       _INT2_DefaultInterruptHandler *
 ---------------------------------------------------------------------------------
 (7) _INT2_DefaultInterruptHandler                         0     0      0       0
 ---------------------------------------------------------------------------------
 (7) Absolute function(Fake)                               0     0      0       0
 ---------------------------------------------------------------------------------
 Estimated maximum stack depth 7
 ---------------------------------------------------------------------------------
 (Depth) Function   	        Calls       Base Space   Used Autos Params    Refs
 ---------------------------------------------------------------------------------
 (5) _Default_ISR                                          0     0      0       0
 ---------------------------------------------------------------------------------
 Estimated maximum stack depth 5
 ---------------------------------------------------------------------------------
 (Depth) Function   	        Calls       Base Space   Used Autos Params    Refs
 ---------------------------------------------------------------------------------
 (5) _ADCC_ISR                                             0     0      0       0
                   Absolute function *
       _ADCC_DefaultInterruptHandler *
 ---------------------------------------------------------------------------------
 (6) _ADCC_DefaultInterruptHandler                         0     0      0       0
 ---------------------------------------------------------------------------------
 (7) Absolute function(Fake)                               0     0      0       0
 ---------------------------------------------------------------------------------
 Estimated maximum stack depth 7
 ---------------------------------------------------------------------------------
 (Depth) Function   	        Calls       Base Space   Used Autos Params    Refs
 ---------------------------------------------------------------------------------
 (5) _UART1_tx_vect_isr                                    0     0      0       0
                   Absolute function *
                 _UART1_Transmit_ISR *
 ---------------------------------------------------------------------------------
 (6) _UART1_Transmit_ISR                                   0     0      0       0
 ---------------------------------------------------------------------------------
 (7) Absolute function(Fake)                               0     0      0       0
 ---------------------------------------------------------------------------------
 Estimated maximum stack depth 7
 ---------------------------------------------------------------------------------
 (Depth) Function   	        Calls       Base Space   Used Autos Params    Refs
 ---------------------------------------------------------------------------------
 (5) _UART1_rx_vect_isr                                    0     0      0       0
                   Absolute function *
                  _UART1_Receive_ISR *
 ---------------------------------------------------------------------------------
 (6) _UART1_Receive_ISR                                    0     0      0       0
 ---------------------------------------------------------------------------------
 (7) Absolute function(Fake)                               0     0      0       0
 ---------------------------------------------------------------------------------
 Estimated maximum stack depth 7
 ---------------------------------------------------------------------------------
 (Depth) Function   	        Calls       Base Space   Used Autos Params    Refs
 ---------------------------------------------------------------------------------
 (5) _UART2_tx_vect_isr                                    0     0      0       0
                   Absolute function *
                 _UART2_Transmit_ISR *
 ---------------------------------------------------------------------------------
 (6) _UART2_Transmit_ISR                                   0     0      0       0
 ---------------------------------------------------------------------------------
 (7) Absolute function(Fake)                               0     0      0       0
 ---------------------------------------------------------------------------------
 Estimated maximum stack depth 7
 ---------------------------------------------------------------------------------
 (Depth) Function   	        Calls       Base Space   Used Autos Params    Refs
 ---------------------------------------------------------------------------------
 (5) _UART2_rx_vect_isr                                    0     0      0       0
                   Absolute function *
                  _UART2_Receive_ISR *
 ---------------------------------------------------------------------------------
 (6) _UART2_Receive_ISR                                    0     0      0       0
 ---------------------------------------------------------------------------------
 (7) Absolute function(Fake)                               0     0      0       0
 ---------------------------------------------------------------------------------
 Estimated maximum stack depth 7
 ---------------------------------------------------------------------------------
 (Depth) Function   	        Calls       Base Space   Used Autos Params    Refs
 ---------------------------------------------------------------------------------
 (5) _TMR6_ISR                                             0     0      0       0
                      _TMR6_CallBack
 ---------------------------------------------------------------------------------
 (6) _TMR6_CallBack                                        0     0      0       0
                   Absolute function *
       _TMR6_DefaultInterruptHandler *
 ---------------------------------------------------------------------------------
 (7) _TMR6_DefaultInterruptHandler                         1     1      0       0
                                              0 COMRAM     1     1      0
 ---------------------------------------------------------------------------------
 (7) Absolute function(Fake)                               0     0      0       0
 ---------------------------------------------------------------------------------
 Estimated maximum stack depth 7
 ---------------------------------------------------------------------------------
 (Depth) Function   	        Calls       Base Space   Used Autos Params    Refs
 ---------------------------------------------------------------------------------
 (5) _DMA1_DMASCNT_ISR                                     0     0      0       0
 ---------------------------------------------------------------------------------
 Estimated maximum stack depth 5
 ---------------------------------------------------------------------------------
 (Depth) Function   	        Calls       Base Space   Used Autos Params    Refs
 ---------------------------------------------------------------------------------
 (5) _DMA1_DMADCNT_ISR                                     0     0      0       0
 ---------------------------------------------------------------------------------
 Estimated maximum stack depth 5
 ---------------------------------------------------------------------------------
 (Depth) Function   	        Calls       Base Space   Used Autos Params    Refs
 ---------------------------------------------------------------------------------
 (5) _DMA1_DMAA_ISR                                        0     0      0       0
 ---------------------------------------------------------------------------------
 Estimated maximum stack depth 5
 ---------------------------------------------------------------------------------
 (Depth) Function   	        Calls       Base Space   Used Autos Params    Refs
 ---------------------------------------------------------------------------------
 (5) _DMA1_DMAOR_ISR                                       0     0      0       0
 ---------------------------------------------------------------------------------
 Estimated maximum stack depth 5
 ---------------------------------------------------------------------------------

 Call Graph Graphs:

 _main (ROOT)
   _SYSTEM_Initialize
     _ADCC_Initialize
       _ADCC_SetADIInterruptHandler
     _DMA1_Initialize
     _EXT_INT_Initialize
       _INT0_SetInterruptHandler
       _INT1_SetInterruptHandler
       _INT2_SetInterruptHandler
     _INTERRUPT_Initialize
     _OSCILLATOR_Initialize
     _PIN_MANAGER_Initialize
     _PMD_Initialize
     _SPI1_Initialize
     _TMR6_Initialize
       _TMR6_SetInterruptHandler
     _UART1_Initialize
       _UART1_SetRxInterruptHandler
       _UART1_SetTxInterruptHandler
     _UART2_Initialize
       _UART2_SetRxInterruptHandler
       _UART2_SetTxInterruptHandler
   _eaDogM_WriteString
     _printf
       _putch
         _ringBufS_put_dma
     _ringBufS_flush
       _memset
     _start_lcd
     _strlen
     _wait_lcd_set
   _init_display
     _ringBufS_init
       _memset
     _send_lcd_cmd
       _SPI1_Exchange8bit
       _wdtdelay
     _send_lcd_cmd_long
       _SPI1_Exchange8bit
       _wdtdelay
     _wdtdelay
   _wait_lcd_done
     _wdtdelay

 _INT0_ISR (ROOT)
   _INT0_CallBack
     Absolute function(Fake) *
     _INT0_DefaultInterruptHandler *

 _INT1_ISR (ROOT)
   _INT1_CallBack
     Absolute function(Fake) *
     _INT1_DefaultInterruptHandler *

 _INT2_ISR (ROOT)
   _INT2_CallBack
     Absolute function(Fake) *
     _INT2_DefaultInterruptHandler *

 _Default_ISR (ROOT)

 _ADCC_ISR (ROOT)
   Absolute function(Fake) *
   _ADCC_DefaultInterruptHandler *

 _UART1_tx_vect_isr (ROOT)
   Absolute function(Fake) *
   _UART1_Transmit_ISR *

 _UART1_rx_vect_isr (ROOT)
   Absolute function(Fake) *
   _UART1_Receive_ISR *

 _UART2_tx_vect_isr (ROOT)
   Absolute function(Fake) *
   _UART2_Transmit_ISR *

 _UART2_rx_vect_isr (ROOT)
   Absolute function(Fake) *
   _UART2_Receive_ISR *

 _TMR6_ISR (ROOT)
   _TMR6_CallBack
     Absolute function(Fake) *
     _TMR6_DefaultInterruptHandler *

 _DMA1_DMASCNT_ISR (ROOT)

 _DMA1_DMADCNT_ISR (ROOT)

 _DMA1_DMAA_ISR (ROOT)

 _DMA1_DMAOR_ISR (ROOT)

 Address spaces:
Name               Size   Autos  Total    Cost      Usage
BIGRAMl            FFF      0       0      71        0.0%
BIGRAMhh           EBD      0       0      69        0.0%
EEDATA             400      0       0       0        0.0%
BITBANK31          100      0       0      67        0.0%
BANK31             100      0       0      68        0.0%
BITBANK30          100      0       0      65        0.0%
BANK30             100      0       0      66        0.0%
BITBANK29          100      0       0      63        0.0%
BANK29             100      0       0      64        0.0%
BITBANK28          100      0       0      61        0.0%
BANK28             100      0       0      62        0.0%
BITBANK27          100      0       0      59        0.0%
BANK27             100      0       0      60        0.0%
BITBANK26          100      0       0      57        0.0%
BANK26             100      0       0      58        0.0%
BITBANK25          100      0       0      55        0.0%
BANK25             100      0       0      56        0.0%
BITBANK24          100      0       0      53        0.0%
BANK24             100      0       0      54        0.0%
BITBANK23          100      0       0      51        0.0%
BANK23             100      0       0      52        0.0%
BITBANK22          100      0       0      49        0.0%
BANK22             100      0       0      50        0.0%
BITBANK21          100      0       0      47        0.0%
BANK21             100      0       0      48        0.0%
BITBANK20          100      0       0      45        0.0%
BANK20             100      0       0      46        0.0%
BITBANK19          100      0       0      42        0.0%
BANK19             100      0       0      43        0.0%
BITBANK18          100      0       0      40        0.0%
BANK18             100      0       0      41        0.0%
BITBANK15          100      0       0      34        0.0%
BANK15             100      0       0      35        0.0%
BITBANK14          100      0       0      32        0.0%
BANK14             100      0       0      33        0.0%
BITBANK13          100      0       0      30        0.0%
BANK13             100      0       0      31        0.0%
BITBANK12          100      0       0      28        0.0%
BANK12             100      0       0      29        0.0%
BITBANK11          100      0       0      26        0.0%
BANK11             100      0       0      27        0.0%
BITBANK10          100      0       0      24        0.0%
BANK10             100      0       0      25        0.0%
BITBANK9           100      0       0      22        0.0%
BANK9              100      0       0      23        0.0%
BITBANK8           100      0       0      20        0.0%
BANK8              100      0       0      21        0.0%
BITBANK7           100      0       0      18        0.0%
BANK7              100      0       0      19        0.0%
BITBANK6           100      0       0      16        0.0%
BANK6              100      0       0      17        0.0%
BITBANK5           100      0       0      14        0.0%
BANK5              100      0       0      15        0.0%
BITBANK4           100      0       0      12        0.0%
BANK4              100      0       0      13        0.0%
BITBANK3           100      0       0      10        0.0%
BANK3              100      0       0      11        0.0%
BITBANK2           100      0       0       8        0.0%
BANK2              100      0       0       9        0.0%
BITBANK1           100      0       0       6        0.0%
BANK1              100      0       0       7        0.0%
BIGRAMhl            BD      0       0      70        0.0%
BITBANK17           BD      0       0      38        0.0%
BANK17              BD      0       0      39        0.0%
BITBANK16           BD      0       0      36        0.0%
BANK16              BD      0       0      37        0.0%
BITBANK0            A0      0       0       4        0.0%
BANK0               A0      0      10       5       10.0%
BITCOMRAM           5F      0       0       0        0.0%
COMRAM              5F     11      5A       1       94.7%
BITSFR_8             0      0       0     200        0.0%
SFR_8                0      0       0     200        0.0%
BITSFR_7             0      0       0     200        0.0%
SFR_7                0      0       0     200        0.0%
BITSFR_6             0      0       0     200        0.0%
SFR_6                0      0       0     200        0.0%
BITSFR_5             0      0       0     200        0.0%
SFR_5                0      0       0     200        0.0%
BITSFR_4             0      0       0     200        0.0%
SFR_4                0      0       0     200        0.0%
BITSFR_3             0      0       0     200        0.0%
SFR_3                0      0       0     200        0.0%
BITSFR_2             0      0       0     200        0.0%
SFR_2                0      0       0     200        0.0%
BITSFR_1             0      0       0     200        0.0%
SFR_1                0      0       0     200        0.0%
BITSFR               0      0       0     200        0.0%
SFR                  0      0       0     200        0.0%
STACK                0      0       0       2        0.0%
NULL                 0      0       0       0        0.0%
ABS                  0      0      6A      44        0.0%
DATA                 0      0      6A       3        0.0%
CODE                 0      0       0       0        0.0%


Microchip Technology PIC18 Macro Assembler V2.05 build -831301201 
Symbol Table                                                                                   Sat Feb 23 01:54:10 2019

                          _SPI1_Exchange8bit 2A52                           ?_SPI1_Exchange8bit 004A  
                                __CFG_CP$OFF 000000                      __size_of_ringBufS_flush 0058  
                                         u50 259E                                           u65 25A0  
                                __CFG_LVP$ON 000000                                          l182 2A32  
                                        l825 2A60                                          l977 2676  
                                        l978 2666                                          _GIE 01FE97  
                                        u520 20AA                                          u530 20DC  
                                        u527 209C                                          u537 20CE  
                                        u590 22E0                   ??_INT0_SetInterruptHandler 004E  
                        ??_SPI1_Exchange8bit 004B                      __size_of_PMD_Initialize 0022  
                                        tosl 003FFD                                          wreg 003FE8  
                              _INT0_CallBack 28A6                              send_lcd_cmd@cmd 004F  
               ?_ADCC_SetADIInterruptHandler 004B                           _UART1_Transmit_ISR 2776  
                              __CFG_BBEN$OFF 000000                                _INT1_CallBack 28C8  
                               __CFG_ZCD$OFF 000000                                         l2465 269A  
                                       l2651 2080                                         l2643 2054  
                                       l2627 26CA                                         l2637 2044  
                                       l2661 210E                                         l2469 26B0  
                                       l2629 26CC                                         l2655 20B2  
                                       l2809 27E4                                         l2659 20E4  
                                       l2771 22FE                                         STR_1 2001  
                                       STR_2 2001                                         STR_3 2039  
                                       STR_5 2032                                         _LATA 003FBA  
                                       _LATB 003FBB                                         _LATC 003FBC  
                                       _LATD 003FBD                                         _LATE 003FBE  
                                       _LATF 003FBF                                         _T6PR 003F93  
                                       _PMD0 0039C0                                         _PMD1 0039C1  
                                       _PMD2 0039C2                                         _PMD3 0039C3  
                                       _PMD4 0039C4                                         _PMD5 0039C5  
                                       _PMD6 0039C6                                         _PMD7 0039C7  
                                       _PLLR 01CEE0                                         _WPUA 003A41  
                                       _WPUB 003A51                                         _WPUC 003A61  
                                       _WPUD 003A71                                         _WPUE 003A81  
                                       _WPUF 003A91                                _INT2_CallBack 28EA  
                           __end_of_ADCC_ISR 281A                                __CFG_FCMEN$ON 000000  
                        ?_UART1_Transmit_ISR 004A                                         _main 27CC  
                                       fsr2h 003FDA                                         indf2 003FDF  
                                       fsr2l 003FD9            __size_of_INT2_SetInterruptHandler 0014  
                  ?_INT2_SetInterruptHandler 004B                                         start 00AE  
                  __end_of_SPI1_Exchange8bit 2A6C                ??_UART1_SetTxInterruptHandler 004E  
              ??_UART2_SetRxInterruptHandler 004E                                __CFG_CSWEN$ON 000000  
                          _UART1_rx_vect_isr 2930                                 ___param_bank 000000  
                         ?_UART1_rx_vect_isr 004A                             __end_of_INT0_ISR 2B76  
                           __end_of_INT1_ISR 2B82                             __end_of_INT2_ISR 2B8E  
             __size_of_OSCILLATOR_Initialize 001C                     __end_of_ringBufS_put_dma 2610  
                       ??_UART1_Transmit_ISR 004A                __end_of_OSCILLATOR_Initialize 2A38  
                                      PRLOCK 0039EF                                        _ADCAP 003EF5  
                                      _ADACT 003EFE                                        ?_main 004A  
                                      _ADCLK 003EFF                                        _ADPCH 003EF1  
                                      _ADREF 003EFD                                __CFG_WDTE$OFF 000000  
                                      _ADRPT 003EEC                                        _U1P1H 003DED  
                                      _U1P2H 003DEF                                        _U1P1L 003DEC  
                                      _U1P3H 003DF1                                        _U1P2L 003DEE  
                                      _U1P3L 003DF0                                        _U2P1L 003DD4  
                                      _U2P2L 003DD6                                        _U2P3L 003DD8  
                                      _T6CON 003F94                               __CFG_DEBUG$OFF 000000  
                                      _T6HLT 003F95                                        _U1UIR 003DF8  
                                      _U1RXB 003DE8                                        _U2UIR 003DE0  
                                      _U1TXB 003DEA                                        _U2RXB 003DD0  
                                      _U2TXB 003DD2                                        _T6TMR 003F92  
                                      _T6RST 003F97                          ??_UART1_rx_vect_isr 004A  
                                      i2l579 279A                                        i2l695 27C4  
                                      _ISRPR 0039F1                                        _OSCEN 0039DD  
                                      _TRISA 003FC2                                        _TRISB 003FC3  
                             ?_INT0_CallBack 004A                                        _TRISC 003FC4  
                                      _TRISD 003FC5                                        _TRISE 003FC6  
                                      _TRISF 003FC7                                  _Default_ISR 2BC0  
                   eaDogM_WriteString@strPtr 0059            __size_of_TMR6_SetInterruptHandler 0014  
                  ?_TMR6_SetInterruptHandler 004B                            _UART1_tx_vect_isr 290C  
                              __CFG_WRTB$OFF 000000                                __CFG_WRTC$OFF 000000  
                              __CFG_WRTD$OFF 000000                               ?_INT1_CallBack 004A  
                               _DMA1CON0bits 003BFC                             __end_of_TMR6_ISR 29BE  
                               _DMA1CON1bits 003BFD               ??_INT1_DefaultInterruptHandler 004A  
                 __size_of_send_lcd_cmd_long 0024                           __CFG_MCLRE$EXTMCLR 000000  
                         ?_UART1_tx_vect_isr 004A                                        _putch 2A6C  
                             ?_INT2_CallBack 004A                     _INT1_SetInterruptHandler 2B30  
                                      pclath 003FFA                                        tablat 003FF5  
                   __size_of_DMA1_Initialize 0070                                        status 003FD8  
        __end_of_UART1_SetRxInterruptHandler 2B08                  _UART1_SetRxInterruptHandler 2AF4  
                        ??_UART1_tx_vect_isr 004A                    __size_of_DMA1_DMADCNT_ISR 0006  
                  __end_of_UART1_rx_vect_isr 2952                     __size_of_SPI1_Initialize 0018  
             ??_TMR6_DefaultInterruptHandler 004A                        __end_of_ringBufS_init 2884  
                            __initialization 274C                            _UART2_rx_vect_isr 2978  
                               __end_of_main 27F4                               __CFG_SAFEN$OFF 000000  
                         ?_UART2_rx_vect_isr 004A                                       ??_main 005B  
                             __CFG_PR1WAY$ON 000000                                __activetblptr 000003  
                  __size_of_DMA1_DMASCNT_ISR 0008         __size_of_UART1_SetTxInterruptHandler 0014  
                        ??_UART2_rx_vect_isr 004A                    __end_of_UART1_tx_vect_isr 292E  
                                     INTCON0 003FD2         __size_of_UART2_SetRxInterruptHandler 0014  
                             __CFG_MVECEN$ON 000000                              _TMR6_Initialize 2720  
                           _UART1_Initialize 233A                            _UART2_tx_vect_isr 2954  
                         _UART2_Transmit_ISR 27A0                                       _ADACCU 003EEA  
                                     _ADACQH 003EF4                                       _ADACQL 003EF3  
                                     _ADCON0 003EF8                                       _ADCON1 003EF9  
                                     _ADCON2 003EFA                                       _ADCON3 003EFB  
                                     _ADLTHH 003EDF                                       _ADLTHL 003EDE  
                                     _ADPREH 003EF7                                       _ADPREL 003EF6  
                                     _DMA1PR 0039F3                                       _DMA2PR 0039F4  
                                     _ADSTAT 003EFC                                       _ADUTHH 003EE1  
                                     _ADUTHL 003EE0                                       _ANSELA 003A40  
                                     ?_putch 004A                                       _ANSELB 003A50  
                                     _ANSELC 003A60                                       _ANSELD 003A70  
                                     _ANSELE 003A80                                       _ANSELF 003A90  
                         ?_UART2_tx_vect_isr 004A                                       _U1CON0 003DF2  
                                     _U1CON1 003DF3                                       _U1CON2 003DF4  
                                     _U1BRGH 003DF6                                       _U1FIFO 003DF7  
                                     _U2CON0 003DDA                                       _U2CON1 003DDB  
                                     _U1BRGL 003DF5                                       _U2CON2 003DDC  
                                     _U2BRGH 003DDE                                       _U2FIFO 003DDF  
                                     _U2BRGL 003DDD                                       _MAINPR 0039F2  
                                     _RC3PPS 003A13                                       _RB6PPS 003A0E  
                                     _RC5PPS 003A15                                       _ODCONA 003A42  
                                     _ODCONB 003A52                                       _ODCONC 003A62  
                                     _RC6PPS 003A16                                       _ODCOND 003A72  
                                     _ODCONE 003A82                                       _ODCONF 003A92  
                             __CFG_WDTCCS$SC 000000                                       i2l2237 2796  
                                     i2l2247 29FA                                       i2l2689 27C0  
                                     i2l2699 2A18                                       _SCANPR 0039F7  
                              ?_init_display 004A                                       _IVTADH 00389E  
                                     _IVTADL 00389D                                       _IVTADU 00389F  
                                     _OSCFRQ 0039DF                          ?_UART2_Transmit_ISR 004A  
                                     i2u8_40 2A8E                                       i2u8_46 2A90  
                      SPI1_Exchange8bit@data 004B                          ??_UART2_tx_vect_isr 004A  
                  ringBufS_flush@clearBuffer 0055                    __end_of_UART2_rx_vect_isr 299A  
                 __size_of_SPI1_Exchange8bit 001A                       __size_of_DMA1_DMAA_ISR 0006  
                             __CFG_XINST$OFF 000000                             _UART2_Initialize 23BA  
       __size_of_ADCC_SetADIInterruptHandler 0014                               __CFG_STVREN$ON 000000  
                             _ringBufS_flush 2510                         send_lcd_cmd_long@cmd 004F  
                                     _memset 268C                                       clear_0 2752  
                                     clear_1 275E                         ??_UART2_Transmit_ISR 004A  
                                     _printf 203E                           _eaDogM_WriteString 22B0  
                            ??_INT0_CallBack 004A                                    ?_ADCC_ISR 004A  
                                     _strlen 26C2                              _ADCC_Initialize 242E  
                             _PMD_Initialize 2884         __end_of_INT2_DefaultInterruptHandler 2BC0  
      __size_of_INT2_DefaultInterruptHandler 0002                 _INT2_DefaultInterruptHandler 2BBE  
                  __end_of_UART2_tx_vect_isr 2976                              ??_INT1_CallBack 004A  
                               __mediumconst 0000                                       tblptrh 003FF7  
                                     tblptrl 003FF6                                       tblptru 003FF8  
                        ?_eaDogM_WriteString 0059                             __end_of_wdtdelay 268C  
                                     putch@c 004F                              ??_INT2_CallBack 004A  
                              wdtdelay@delay 004B     TMR6_SetInterruptHandler@InterruptHandler 004B  
UART2_SetTxInterruptHandler@InterruptHandler 004B  UART2_SetRxInterruptHandler@InterruptHandler 004B  
UART1_SetTxInterruptHandler@InterruptHandler 004B  UART1_SetRxInterruptHandler@InterruptHandler 004B  
ADCC_SetADIInterruptHandler@InterruptHandler 004B     INT2_SetInterruptHandler@InterruptHandler 004B  
   INT1_SetInterruptHandler@InterruptHandler 004B     INT0_SetInterruptHandler@InterruptHandler 004B  
              __size_of_INTERRUPT_Initialize 0056                               ??_init_display 0055  
                          _SYSTEM_Initialize 26F2                                   __accesstop 0060  
                    __end_of__initialization 2770                                    ?_INT0_ISR 004A  
                                  ?_INT1_ISR 004A                                    ?_INT2_ISR 004A  
                         ?_SYSTEM_Initialize 004A                                ___rparam_used 000001  
                 __size_of_UART1_rx_vect_isr 0022                         ??_eaDogM_WriteString 005A  
                          ??_DMA1_Initialize 004B                       __end_of_ringBufS_flush 2568  
                             __pcstackCOMRAM 004A                          ??_SYSTEM_Initialize 004E  
                                  ?_TMR6_ISR 004A                               ivt0x8_undefint 00AC  
                          ??_SPI1_Initialize 004B                                __end_of_putch 2A86  
                    __end_of_TMR6_Initialize 274C                       __end_of_PMD_Initialize 28A6  
                                 ??_ADCC_ISR 004A                        __end_of_TMR6_CallBack 29E0  
                __size_of_EXT_INT_Initialize 0044                   __size_of_UART1_tx_vect_isr 0022  
                              _DMA1_DMAA_ISR 2BB0                        TMR6_ISR@CountCallBack 003C  
           __end_of_INT2_SetInterruptHandler 2B30                ?_INT2_DefaultInterruptHandler 004A  
                   _UART2_RxInterruptHandler 0030                    __end_of_SYSTEM_Initialize 2720  
                            __CFG_IVT1WAY$ON 000000                                      ??_putch 004F  
                                 __pbssBANK0 0060                           ringBufS_init@_this 0053  
                      _INT0_InterruptHandler 0039                                   ??_INT0_ISR 004A  
                                 ??_INT1_ISR 004A                                   ??_INT2_ISR 004A  
                           _DMA1_DMADCNT_ISR 2BA8                 ?_UART2_SetTxInterruptHandler 004B  
                 __size_of_UART2_rx_vect_isr 0022                                      IVTBASEH 003FD6  
                                    IVTBASEL 003FD5                                      IVTBASEU 003FD7  
                            ?_ringBufS_flush 0053                        __end_of_wait_lcd_done 2A52  
                            __CFG_PPS1WAY$ON 000000             __end_of_TMR6_SetInterruptHandler 2B1C  
                    __end_of_ADCC_Initialize 24A0                                ?_send_lcd_cmd 004A  
                                 ??_TMR6_ISR 004B                                      ?_memset 004B  
                                    _DMA1DSA 003BF0                                      _DMA1DSZ 003BEE  
                                    _DMA1SSA 003BF9                                      _DMA1SSZ 003BF7  
                                    _ADSTPTH 003EE5                                      _ADSTPTL 003EE4  
                                    ?_printf 0050                              ?_PMD_Initialize 004A  
                          ?_ringBufS_put_dma 004B                            _UART1_Receive_ISR 29E0  
                                    ?_strlen 004B                               ?_DMA1_DMAA_ISR 004A  
                           _DMA1_DMASCNT_ISR 2B90                                      _U1ERRIE 003DFA  
                                    _U1ERRIR 003DF9                                      _U2ERRIE 003DE2  
                                    _U2ERRIR 003DE1                   ??_INT1_SetInterruptHandler 004E  
                                    _INT0PPS 003AC0                          __CFG_PWRTS$PWRT_OFF 000000  
                                    _INT1PPS 003AC1                                      _INT2PPS 003AC2  
                               ?_Default_ISR 004A                           ??_ringBufS_put_dma 004E  
                         ?_UART1_Receive_ISR 004A                   __size_of_UART2_tx_vect_isr 0022  
                                    _U1RXPPS 003AE5                                      _U2RXPPS 003AE8  
                                    _OSCCON1 0039D9                                      _OSCCON3 0039DB  
                                    _IVTLOCK 003FD4                                      _SPI1CLK 003D1C  
                                    i2u20_48 28D6                                      i2u30_48 29CC  
                                    i2u22_48 28F8                                      i2u43_40 29B0  
                                    i2u34_48 2806                                      i2u18_48 28B4  
                                    _SPI1RXB 003D10                                      _SPI1TXB 003D11  
                                    i2u36_48 291A                                      _OSCTUNE 0039DE  
                                    i2u62_48 2962                                      i2u38_48 293E  
                                    i2u64_48 2986                                      _SLRCONA 003A43  
                                    _SLRCONB 003A53                                      _SLRCONC 003A63  
                                    _SLRCOND 003A73                                      _SLRCONE 003A83  
                                    _SLRCONF 003A93                           __size_of_start_lcd 0006  
                        ??_UART1_Receive_ISR 004A                        ringBufS_put_dma@_this 004B  
          __size_of_INT0_SetInterruptHandler 0014                    ?_INT0_SetInterruptHandler 004B  
                  INTERRUPT_Initialize@state 004B                      __size_of_DMA1_DMAOR_ISR 0008  
                                    __Hparam 0000                                      __Lparam 0000  
                   __end_of_UART1_Initialize 23BA                ??_UART2_SetTxInterruptHandler 004E  
                             ??_send_lcd_cmd 004F                                    ?_wdtdelay 004B  
                  __end_of_UART1_Receive_ISR 29FE                                 __psmallconst 2000  
                       __end_of_init_display 2206                                      __pcinit 274C  
                            __size_of_memset 0036                             ?_TMR6_Initialize 004A  
                                    __ramtop 2000                  __size_of_UART1_Transmit_ISR 002A  
                                    __ptext0 27CC                                      __ptext1 2A38  
                                    __ptext2 2132                                      __ptext3 281A  
                                    __ptext4 283E                                      __ptext5 2654  
                                    __ptext6 2A52                                      __ptext7 2862  
                                    __ptext8 22B0                                      __ptext9 2BB6  
                          _UART2_Receive_ISR 29FE                              __size_of_printf 00F4  
                            __CFG_WRTAPP$OFF 000000                              __size_of_strlen 0030  
                      _OSCILLATOR_Initialize 2A1C                           ?_UART2_Receive_ISR 004A  
                   ??_PIN_MANAGER_Initialize 004B                              __CFG_WRTSAF$OFF 000000  
                   __end_of_UART2_Initialize 242E                                ?_wait_lcd_set 004A  
                 __size_of_SYSTEM_Initialize 002E                         end_of_initialization 2770  
                        ??_UART2_Receive_ISR 004A                     _INT2_SetInterruptHandler 2B1C  
             ??_INT2_DefaultInterruptHandler 004A                                      memset@c 004D  
                                    memset@n 004F                                      memset@p 0051  
        __end_of_UART1_SetTxInterruptHandler 2AF4                  _UART1_SetTxInterruptHandler 2AE0  
        __end_of_UART2_SetRxInterruptHandler 2AE0                  _UART2_SetRxInterruptHandler 2ACC  
                                  _SPI1TCNTL 003D12                                      printf@c 0056  
                                    printf@f 0050                                      postdec2 003FDD  
                                    postinc0 003FEE                                      postinc2 003FDE  
                                 ??_wdtdelay 004F                             ?_ADCC_Initialize 004A  
                          __end_of_start_lcd 2BA6                    __end_of_UART2_Receive_ISR 2A1C  
                             wdtdelay@dcount 001D                        __CFG_WDTCPS$WDTCPS_31 000000  
                                    strlen@s 004B                              ??_DMA1_DMAA_ISR 004B  
                      _INT1_InterruptHandler 0036                     _TMR6_SetInterruptHandler 2B08  
       __size_of_UART2_SetTxInterruptHandler 0014                            __size_of_ADCC_ISR 0026  
        __end_of_ADCC_SetADIInterruptHandler 2B6C                  _ADCC_SetADIInterruptHandler 2B58  
                             ??_wait_lcd_set 004B                       __size_of_ringBufS_init 0022  
                           __CFG_FEXTOSC$ECH 000000                              _DMA1_Initialize 24A0  
              ??_ADCC_SetADIInterruptHandler 004E                              _SPI1_Initialize 2AA0  
                          __size_of_INT0_ISR 000A                            __size_of_INT1_ISR 000A  
                          __size_of_INT2_ISR 000A                 __end_of_INTERRUPT_Initialize 25BE  
             ??_ADCC_DefaultInterruptHandler 004A         __end_of_INT0_DefaultInterruptHandler 2BBC  
      __size_of_INT0_DefaultInterruptHandler 0002                 _INT0_DefaultInterruptHandler 2BBA  
                 __size_of_UART1_Receive_ISR 001E                            __size_of_TMR6_ISR 0022  
                __size_of_UART2_Transmit_ISR 002A                       ?_OSCILLATOR_Initialize 004A  
                             __end_of_memset 26C2                               __end_of_printf 2132  
                   __end_of_DMA1_DMADCNT_ISR 2BAE                        __end_of_INT0_CallBack 28C8  
                             __end_of_strlen 26F2                          start_initialization 274C  
            __size_of_PIN_MANAGER_Initialize 00AA                        __end_of_INT1_CallBack 28EA  
                       __size_of_Default_ISR 0002                         __end_of_send_lcd_cmd 2862  
                                 ivt0x8_base 0008                        __end_of_INT2_CallBack 290C  
                              _uart1RxBuffer 000D                             ??_ringBufS_flush 0056  
                              _uart2RxBuffer 0060                                _uart1TxBuffer 0015  
                   __end_of_DMA1_DMASCNT_ISR 2B98                                _uart2TxBuffer 0068  
                             _DMA1_DMAOR_ISR 2B98                             __CFG_LPBOREN$OFF 000000  
                      __size_of_init_display 00D4                  __size_of_eaDogM_WriteString 008A  
                           ??_PMD_Initialize 004B                                _ringBufS_init 2862  
                 __size_of_UART2_Receive_ISR 001E                                     ??_memset 0051  
                 __end_of_EXT_INT_Initialize 2654                ?_INT0_DefaultInterruptHandler 004A  
                                   ??_printf 0053                                     ??_strlen 004D  
                    __end_of_DMA1_Initialize 2510                                  __pbssCOMRAM 0001  
           __end_of_INT0_SetInterruptHandler 2B58                          ringBufS_flush@_this 0053  
                    __end_of_SPI1_Initialize 2AB8                     _UART1_RxInterruptHandler 002A  
                   _UART2_TxInterruptHandler 002D                    __size_of_ringBufS_put_dma 0052  
                               _init_display 2132                       __end_of_DMA1_DMAOR_ISR 2BA0  
                      _INT2_InterruptHandler 0033                 ?_UART1_SetRxInterruptHandler 004B  
                      _TMR6_InterruptHandler 0021                       __size_of_TMR6_CallBack 0022  
                     _PIN_MANAGER_Initialize 2206                               ?_ringBufS_init 0053  
                          ?_UART1_Initialize 004A                         __end_of_wait_lcd_set 2BBA  
                         ??_UART1_Initialize 004E                            __size_of_wdtdelay 0038  
                                   _ADCC_ISR 27F4                       __CFG_BBSIZE$BBSIZE_512 000000  
                                __smallconst 2000                   ??_INT2_SetInterruptHandler 004E  
                                   _DMA1CON0 003BFC                                     _DMA1CON1 003BFD  
                                   _DMA1AIRQ 003BFE                                     _DMA1SIRQ 003BFF  
                          ?_UART2_Initialize 004A                       __size_of_wait_lcd_done 001A  
                         ??_UART2_Initialize 004E                               __size_of_putch 001A  
                          ringBufS_put_dma@c 004D                         _INTERRUPT_Initialize 2568  
                                   _T6CLKCON 003F96                              ?_DMA1_DMAOR_ISR 004A  
                                   _INT0_ISR 2B6C                                     _INT1_ISR 2B78  
                                   _INT2_ISR 2B84                                     _LATCbits 003FBC  
                                   _LATEbits 003FBE            __size_of_INT1_SetInterruptHandler 0014  
                  ?_INT1_SetInterruptHandler 004B                                     _IPR1bits 003981  
                                   _IPR2bits 003982                                     _PIE1bits 003991  
                                   _IPR3bits 003983                                     _PIE2bits 003992  
                                   _IPR5bits 003985                                     _PIE3bits 003993  
                                   _IPR6bits 003986                                     _PIE5bits 003995  
                                   _IPR7bits 003987                                     _PIE6bits 003996  
                                   _PIE7bits 003997                                     _IPR9bits 003989  
                        __CFG_BORV$VBOR_2P45 000000                                     _PIE9bits 003999  
              ??_UART1_SetRxInterruptHandler 004E                                    _ring_buf1 001000  
                                  _ring_buf2 001100                                     _PIR1bits 0039A1  
                                   _PIR2bits 0039A2                                     _SPI1BAUD 003D19  
                                   _SPI1CON0 003D14                                     _SPI1CON1 003D15  
                                   _SPI1CON2 003D16                                     _PIR5bits 0039A5  
                                   _PIR7bits 0039A7                                     _PIR9bits 0039A9  
                 ??_TMR6_SetInterruptHandler 004E                   __end_of_UART1_Transmit_ISR 27A0  
                                   _TMR6_ISR 299C                                 _SPI1INTFbits 003D1A  
                                  _start_lcd 2BA0                                _TMR6_CallBack 29BE  
                      __size_of_send_lcd_cmd 0024                             ?_DMA1_Initialize 004A  
             ??_INT0_DefaultInterruptHandler 004A                     __size_of_TMR6_Initialize 002C  
                           ?_SPI1_Initialize 004A                                  _INTCON0bits 003FD2  
                      ?_INTERRUPT_Initialize 004A                     _INT0_SetInterruptHandler 2B44  
                     _uart1TxBufferRemaining 0047          __end_of_UART2_SetTxInterruptHandler 2ACC  
                _UART2_SetTxInterruptHandler 2AB8                                 _uart1RxCount 0044  
                            ??_ringBufS_init 0055                                 _uart2RxCount 003E  
                                   __Hrparam 0000                      __CFG_RSTOSC$EXTOSC_4PLL 000000  
                                   __Lrparam 0000                           __CFG_BOREN$SBORDIS 000000  
                              _wait_lcd_done 2A38                      ??_OSCILLATOR_Initialize 004B  
                               _send_lcd_cmd 283E                               ?_TMR6_CallBack 004A  
                      __end_of_DMA1_DMAA_ISR 2BB6                                   ?_start_lcd 004A  
       __size_of_UART1_SetRxInterruptHandler 0014                            ?_DMA1_DMADCNT_ISR 004A  
                   __size_of_ADCC_Initialize 0072                                     __pivt0x8 0008  
                         ??_DMA1_DMADCNT_ISR 004B                                     __ptext10 26C2  
                                   __ptext11 2BA0                                     __ptext20 2ACC  
                                   __ptext12 2510                                     __ptext21 233A  
                                   __ptext13 268C                                     __ptext30 2568  
                                   __ptext22 2AE0                                     __ptext14 203E  
                                   __ptext31 2610                                     __ptext23 2AF4  
                                   __ptext15 2A6C                                     __ptext40 2BBA  
                                   __ptext32 2B1C                                     __ptext24 2720  
                                   __ptext16 25BE                                     __ptext41 2B78  
                                   __ptext33 2B30                                     __ptext25 2B08  
                                   __ptext17 26F2                                     __ptext50 290C  
                                   __ptext42 28C8                                     __ptext34 2B44  
                                   __ptext26 2AA0                                     __ptext18 23BA  
                                   __ptext51 2776                                     __ptext43 2BBC  
                                   __ptext35 24A0                                     __ptext27 2884  
                                   __ptext19 2AB8                                     __ptext60 2A86  
                                   __ptext52 2930                                     __ptext44 2B84  
                                   __ptext36 242E                                     __ptext28 2206  
                                   __ptext61 2B90                                     __ptext53 29E0  
                                   __ptext45 28EA                                     __ptext37 2B58  
                                   __ptext29 2A1C                                     __ptext62 2BA8  
                                   __ptext54 2954                                     __ptext46 2BBE  
                                   __ptext38 2B6C                                     __ptext63 2BB0  
                                   __ptext55 27A0                                     __ptext47 2BC0  
                                   __ptext39 28A6                                     __ptext64 2B98  
                                   __ptext56 2978                                     __ptext48 27F4  
                                   __ptext65 0000                                     __ptext57 29FE  
                                   __ptext49 2BC2                                     __ptext58 299C  
                                   __ptext59 29BE                             _ringBufS_put_dma 25BE  
                              __size_of_main 0028                        __size_of_wait_lcd_set 0004  
                       __CFG_WDTCWS$WDTCWS_7 000000                            ?_DMA1_DMASCNT_ISR 004A  
                                _IVTLOCKbits 003FD4                    _ADCC_ADI_InterruptHandler 0024  
                         ??_DMA1_DMASCNT_ISR 004B                               ?_wait_lcd_done 004A  
                                   _spi_link 0001                                     _wdtdelay 2654  
                 __end_of_UART2_Transmit_ISR 27CA         __end_of_INT1_DefaultInterruptHandler 2BBE  
      __size_of_INT1_DefaultInterruptHandler 0002                 _INT1_DefaultInterruptHandler 2BBC  
                              ??_Default_ISR 004A                                  _uart1RxHead 0046  
                                _uart1TxHead 0049                                  _uart2RxHead 0040  
                                _uart1RxTail 0045                                  _uart2TxHead 0043  
                                _uart1TxTail 0048                                  _uart2RxTail 003F  
                                _uart2TxTail 0042                       ??_INTERRUPT_Initialize 004B  
                                   memset@p1 004B                                 _wait_lcd_set 2BB6  
                         _EXT_INT_Initialize 2610         __end_of_TMR6_DefaultInterruptHandler 2AA0  
      __size_of_TMR6_DefaultInterruptHandler 001A                 _TMR6_DefaultInterruptHandler 2A86  
       __end_of_ADCC_DefaultInterruptHandler 2BC4        __size_of_ADCC_DefaultInterruptHandler 0002  
               _ADCC_DefaultInterruptHandler 2BC2                                     intlevel2 0000  
                          _send_lcd_cmd_long 281A                      ?_PIN_MANAGER_Initialize 004A  
                          ??_TMR6_Initialize 004E                            __CFG_CLKOUTEN$OFF 000000  
                         ?_send_lcd_cmd_long 004A                          ?_EXT_INT_Initialize 004A  
                 __end_of_eaDogM_WriteString 233A                       __size_of_INT0_CallBack 0022  
                                 _SPI1SCKPPS 003ADE                                   _SPI1SDIPPS 003ADF  
                        ??_send_lcd_cmd_long 004F                                     printf@ap 0055  
                                   printf@cp 0057                       __size_of_INT1_CallBack 0022  
                            ??_TMR6_CallBack 004B                       __size_of_INT2_CallBack 0022  
                     _uart2TxBufferRemaining 0041                                  ??_start_lcd 004B  
                       ??_EXT_INT_Initialize 004E                ?_INT1_DefaultInterruptHandler 004A  
                                   strlen@cp 004D             __end_of_INT1_SetInterruptHandler 2B44  
                  __size_of_UART1_Initialize 0080                             ??_DMA1_DMAOR_ISR 004B  
                   _UART1_TxInterruptHandler 0027                    __end_of_send_lcd_cmd_long 283E  
                        __end_of_Default_ISR 2BC2               __end_of_PIN_MANAGER_Initialize 22B0  
                          ??_ADCC_Initialize 004E                ?_TMR6_DefaultInterruptHandler 004A  
              ?_ADCC_DefaultInterruptHandler 004A                 ?_UART1_SetTxInterruptHandler 004B  
               ?_UART2_SetRxInterruptHandler 004B                              ??_wait_lcd_done 004F  
                  __size_of_UART2_Initialize 0074  
