

Microchip MPLAB XC8 Assembler V2.05 build -831301201 
                                                                                               Sat Aug 17 03:25:04 2019

Microchip MPLAB XC8 C Compiler v2.05 (Free license) build 20181220022703 Og9 
     1                           	processor	18F47K42
     2                           	fnconf	rparam,??,?,0
     3                           	opt	pw 120
     4                           	opt	flic
     5                           	psect	idataBANK0,global,class=CODE,delta=1,noexec
     6                           	psect	smallconst,global,reloc=2,class=SMALLCONST,delta=1,noexec
     7                           	psect	cinit,global,reloc=2,class=CODE,delta=1
     8                           	psect	bssCOMRAM,global,class=COMRAM,space=1,delta=1,noexec
     9                           	psect	bssBANK0,global,class=BANK0,space=1,delta=1,lowdata,noexec
    10                           	psect	dataBANK0,global,class=BANK0,space=1,delta=1,lowdata,noexec
    11                           	psect	cstackBANK1,global,class=BANK1,space=1,delta=1,noexec
    12                           	psect	cstackCOMRAM,global,class=COMRAM,space=1,delta=1,noexec
    13                           	psect	text0,global,reloc=2,class=CODE,delta=1
    14                           	psect	text1,global,reloc=2,class=CODE,delta=1
    15                           	psect	text2,global,reloc=2,class=CODE,delta=1
    16                           	psect	text3,global,reloc=2,class=CODE,delta=1
    17                           	psect	text4,global,reloc=2,class=CODE,delta=1
    18                           	psect	text5,global,reloc=2,class=CODE,delta=1
    19                           	psect	text6,global,reloc=2,class=CODE,delta=1
    20                           	psect	text7,global,reloc=2,class=CODE,delta=1
    21                           	psect	text8,global,reloc=2,class=CODE,delta=1
    22                           	psect	text9,global,reloc=2,class=CODE,delta=1
    23                           	psect	text10,global,reloc=2,class=CODE,delta=1
    24                           	psect	text11,global,reloc=2,class=CODE,delta=1
    25                           	psect	text12,global,reloc=2,class=CODE,delta=1
    26                           	psect	text13,global,reloc=2,class=CODE,delta=1
    27                           	psect	text14,global,reloc=2,class=CODE,delta=1
    28                           	psect	text15,global,reloc=2,class=CODE,delta=1
    29                           	psect	text16,global,reloc=2,class=CODE,delta=1
    30                           	psect	text17,global,reloc=2,class=CODE,delta=1
    31                           	psect	text18,global,reloc=2,class=CODE,delta=1
    32                           	psect	text19,global,reloc=2,class=CODE,delta=1
    33                           	psect	text20,global,reloc=2,class=CODE,delta=1
    34                           	psect	text21,global,reloc=2,class=CODE,delta=1
    35                           	psect	text22,global,reloc=2,class=CODE,delta=1
    36                           	psect	text23,global,reloc=2,class=CODE,delta=1
    37                           	psect	text24,global,reloc=2,class=CODE,delta=1
    38                           	psect	text25,global,reloc=2,class=CODE,delta=1
    39                           	psect	text26,global,reloc=2,class=CODE,delta=1
    40                           	psect	text27,global,reloc=2,class=CODE,delta=1
    41                           	psect	text28,global,reloc=2,class=CODE,delta=1
    42                           	psect	text29,global,reloc=2,class=CODE,delta=1
    43                           	psect	text30,global,reloc=2,class=CODE,delta=1,group=2
    44                           	psect	text31,global,reloc=2,class=CODE,delta=1
    45                           	psect	text32,global,reloc=2,class=CODE,delta=1
    46                           	psect	text33,global,reloc=2,class=CODE,delta=1
    47                           	psect	text34,global,reloc=2,class=CODE,delta=1,group=2
    48                           	psect	text35,global,reloc=2,class=CODE,delta=1,group=2
    49                           	psect	text36,global,reloc=2,class=CODE,delta=1
    50                           	psect	text37,global,reloc=2,class=CODE,delta=1
    51                           	psect	text38,global,reloc=2,class=CODE,delta=1
    52                           	psect	text39,global,reloc=2,class=CODE,delta=1,inline
    53                           	psect	text40,global,reloc=2,class=CODE,delta=1,inline
    54                           	psect	text41,global,reloc=2,class=CODE,delta=1
    55                           	psect	text42,global,reloc=2,class=CODE,delta=1
    56                           	psect	text43,global,reloc=2,class=CODE,delta=1
    57                           	psect	text44,global,reloc=2,class=CODE,delta=1
    58                           	psect	text45,global,reloc=2,class=CODE,delta=1
    59                           	psect	text46,global,reloc=4,class=CODE,delta=1
    60                           	psect	text47,global,reloc=4,class=CODE,delta=1
    61                           	psect	text48,global,reloc=2,class=CODE,delta=1
    62                           	psect	text49,global,reloc=4,class=CODE,delta=1
    63                           	psect	text50,global,reloc=2,class=CODE,delta=1
    64                           	psect	text51,global,reloc=2,class=CODE,delta=1
    65                           	psect	text52,global,reloc=2,class=CODE,delta=1
    66                           	psect	text53,global,reloc=2,class=CODE,delta=1
    67                           	psect	text54,global,reloc=2,class=CODE,delta=1
    68                           	psect	text55,global,reloc=4,class=CODE,delta=1
    69                           	psect	text56,global,reloc=2,class=CODE,delta=1
    70                           	psect	text57,global,reloc=4,class=CODE,delta=1
    71                           	psect	text58,global,reloc=2,class=CODE,delta=1
    72                           	psect	text59,global,reloc=2,class=CODE,delta=1
    73                           	psect	text60,global,reloc=2,class=CODE,delta=1
    74                           	psect	text61,global,reloc=2,class=CODE,delta=1
    75                           	psect	text62,global,reloc=2,class=CODE,delta=1
    76                           	psect	text63,global,reloc=4,class=CODE,delta=1
    77                           	psect	text64,global,reloc=2,class=CODE,delta=1
    78                           	psect	text65,global,reloc=4,class=CODE,delta=1
    79                           	psect	text66,global,reloc=2,class=CODE,delta=1
    80                           	psect	text67,global,reloc=2,class=CODE,delta=1
    81                           	psect	text68,global,reloc=2,class=CODE,delta=1
    82                           	psect	ivt0x8,global,reloc=2,class=CODE,delta=1,noexec,keep,optim=
    83                           	psect	intsave_regs,global,class=BIGRAM,space=1,delta=1,noexec
    84                           	psect	text69,global,reloc=2,class=CODE,delta=1
    85                           	psect	rparam,global,class=COMRAM,space=1,delta=1,noexec
    86  0000                     
    87                           ; Version 2.05
    88                           ; Generated 20/12/2018 GMT
    89                           ; 
    90                           ; Copyright © 2018, Microchip Technology Inc. and its subsidiaries ("Microchip")
    91                           ; All rights reserved.
    92                           ; 
    93                           ; This software is developed by Microchip Technology Inc. and its subsidiaries ("Microch
      +                          ip").
    94                           ; 
    95                           ; Redistribution and use in source and binary forms, with or without modification, are
    96                           ; permitted provided that the following conditions are met:
    97                           ; 
    98                           ;     1. Redistributions of source code must retain the above copyright notice, this lis
      +                          t of
    99                           ;        conditions and the following disclaimer.
   100                           ; 
   101                           ;     2. Redistributions in binary form must reproduce the above copyright notice, this 
      +                          list
   102                           ;        of conditions and the following disclaimer in the documentation and/or other
   103                           ;        materials provided with the distribution.
   104                           ; 
   105                           ;     3. Microchip's name may not be used to endorse or promote products derived from th
      +                          is
   106                           ;        software without specific prior written permission.
   107                           ; 
   108                           ; THIS SOFTWARE IS PROVIDED BY MICROCHIP "AS IS" AND ANY EXPRESS OR IMPLIED WARRANTIES,
   109                           ; INCLUDING, BUT NOT LIMITED TO, THE IMPLIED WARRANTIES OF MERCHANTABILITY AND FITNESS F
      +                          OR
   110                           ; PURPOSE ARE DISCLAIMED.  IN NO EVENT SHALL MICROCHIP BE LIABLE FOR ANY DIRECT, INDIREC
      +                          T,
   111                           ; INCIDENTAL, SPECIAL, EXEMPLARY, OR CONSEQUENTIAL DAMAGES (INCLUDING BUT NOT LIMITED TO
   112                           ; PROCUREMENT OF SUBSTITUTE GOODS OR SERVICES; LOSS OF USE, DATA OR PROFITS; OR BUSINESS
   113                           ; INTERRUPTION) HOWSOEVER CAUSED AND ON ANY THEORY OF LIABILITY, WHETHER IN CONTRACT, ST
      +                          RICT
   114                           ; LIABILITY, OR TORT (INCLUDING NEGLIGENCE OR OTHERWISE) ARISING IN ANY WAY OUT OF THE U
      +                          SE OF
   115                           ; THIS SOFTWARE, EVEN IF ADVISED OF THE POSSIBILITY OF SUCH DAMAGE.
   116                           ; 
   117                           ; 
   118                           ; Code-generator required, PIC18F47K42 Definitions
   119                           ; 
   120                           ; SFR Addresses
   121  0000                     
   122                           	psect	idataBANK0
   123  003086                     __pidataBANK0:
   124                           	opt callstack 0
   125                           
   126                           ;initializer for stoa@F1131
   127  003086  28                 	db	40
   128  003087  6E                 	db	110
   129  003088  75                 	db	117
   130  003089  6C                 	db	108
   131  00308A  6C                 	db	108
   132  00308B  29                 	db	41
   133  00308C  00                 	db	0
   134  0000                     _IVTADL	set	14493
   135  0000                     _IVTADH	set	14494
   136  0000                     _IVTADU	set	14495
   137  0000                     _PIE8bits	set	14744
   138  0000                     _PIR8bits	set	14760
   139  0000                     _PIE9bits	set	14745
   140  0000                     _PIR9bits	set	14761
   141  0000                     _PIR4bits	set	14756
   142  0000                     _PIE6bits	set	14742
   143  0000                     _PIE3bits	set	14739
   144  0000                     _IPR8bits	set	14728
   145  0000                     _IPR9bits	set	14729
   146  0000                     _IPR3bits	set	14723
   147  0000                     _IPR6bits	set	14726
   148  0000                     _PMD7	set	14791
   149  0000                     _PMD6	set	14790
   150  0000                     _PMD5	set	14789
   151  0000                     _PMD4	set	14788
   152  0000                     _PMD3	set	14787
   153  0000                     _PMD2	set	14786
   154  0000                     _PMD1	set	14785
   155  0000                     _PMD0	set	14784
   156  0000                     _OSCTUNE	set	14814
   157  0000                     _OSCFRQ	set	14815
   158  0000                     _OSCEN	set	14813
   159  0000                     _OSCCON3	set	14811
   160  0000                     _OSCCON1	set	14809
   161  0000                     _PLLR	set	118496
   162  0000                     _U1RXPPS	set	15077
   163  0000                     _RC6PPS	set	14870
   164  0000                     _RD1PPS	set	14873
   165  0000                     _RB6PPS	set	14862
   166  0000                     _U2RXPPS	set	15080
   167  0000                     _SLRCONE	set	14979
   168  0000                     _SLRCOND	set	14963
   169  0000                     _SLRCONC	set	14947
   170  0000                     _SLRCONB	set	14931
   171  0000                     _SLRCONA	set	14915
   172  0000                     _ODCOND	set	14962
   173  0000                     _ODCONC	set	14946
   174  0000                     _ODCONB	set	14930
   175  0000                     _ODCONA	set	14914
   176  0000                     _ODCONE	set	14978
   177  0000                     _RD1I2C	set	14971
   178  0000                     _RD0I2C	set	14970
   179  0000                     _RC4I2C	set	14955
   180  0000                     _RC3I2C	set	14954
   181  0000                     _RB2I2C	set	14939
   182  0000                     _RB1I2C	set	14938
   183  0000                     _WPUC	set	14945
   184  0000                     _WPUA	set	14913
   185  0000                     _WPUB	set	14929
   186  0000                     _WPUE	set	14977
   187  0000                     _WPUD	set	14961
   188  0000                     _ANSELA	set	14912
   189  0000                     _ANSELE	set	14976
   190  0000                     _ANSELB	set	14928
   191  0000                     _ANSELC	set	14944
   192  0000                     _ANSELD	set	14960
   193  0000                     _U2RXB	set	15824
   194  0000                     _U2TXB	set	15826
   195  0000                     _U2ERRIRbits	set	15841
   196  0000                     _U2ERRIE	set	15842
   197  0000                     _U2ERRIR	set	15841
   198  0000                     _U2UIR	set	15840
   199  0000                     _U2FIFO	set	15839
   200  0000                     _U2BRGH	set	15838
   201  0000                     _U2BRGL	set	15837
   202  0000                     _U2CON2	set	15836
   203  0000                     _U2CON1	set	15835
   204  0000                     _U2CON0	set	15834
   205  0000                     _U2P3L	set	15832
   206  0000                     _U2P2L	set	15830
   207  0000                     _U2P1L	set	15828
   208  0000                     _U1RXB	set	15848
   209  0000                     _U1TXB	set	15850
   210  0000                     _U1ERRIRbits	set	15865
   211  0000                     _U1ERRIE	set	15866
   212  0000                     _U1ERRIR	set	15865
   213  0000                     _U1UIR	set	15864
   214  0000                     _U1FIFO	set	15863
   215  0000                     _U1BRGH	set	15862
   216  0000                     _U1BRGL	set	15861
   217  0000                     _U1CON2	set	15860
   218  0000                     _U1CON1	set	15859
   219  0000                     _U1CON0	set	15858
   220  0000                     _U1P3H	set	15857
   221  0000                     _U1P3L	set	15856
   222  0000                     _U1P2H	set	15855
   223  0000                     _U1P2L	set	15854
   224  0000                     _U1P1H	set	15853
   225  0000                     _U1P1L	set	15852
   226  0000                     _ADRESL	set	16111
   227  0000                     _ADRESH	set	16112
   228  0000                     _ADCON0bits	set	16120
   229  0000                     _ADCON0	set	16120
   230  0000                     _ADCLK	set	16127
   231  0000                     _ADACT	set	16126
   232  0000                     _ADREF	set	16125
   233  0000                     _ADSTAT	set	16124
   234  0000                     _ADCON3	set	16123
   235  0000                     _ADCON2	set	16122
   236  0000                     _ADCON1	set	16121
   237  0000                     _ADPREH	set	16119
   238  0000                     _ADPREL	set	16118
   239  0000                     _ADCAP	set	16117
   240  0000                     _ADACQH	set	16116
   241  0000                     _ADACQL	set	16115
   242  0000                     _ADPCH	set	16113
   243  0000                     _ADRPT	set	16108
   244  0000                     _ADACCU	set	16106
   245  0000                     _ADSTPTH	set	16101
   246  0000                     _ADSTPTL	set	16100
   247  0000                     _ADUTHH	set	16097
   248  0000                     _ADUTHL	set	16096
   249  0000                     _ADLTHH	set	16095
   250  0000                     _ADLTHL	set	16094
   251  0000                     _CCPTMRS1bits	set	16223
   252  0000                     _LATEbits	set	16318
   253  0000                     _T5CONbits	set	16282
   254  0000                     _T5CON	set	16282
   255  0000                     _TMR5L	set	16280
   256  0000                     _TMR5H	set	16281
   257  0000                     _T5CLK	set	16285
   258  0000                     _T5GATE	set	16284
   259  0000                     _T5GCON	set	16283
   260  0000                     _T6CON	set	16276
   261  0000                     _T6TMR	set	16274
   262  0000                     _T6PR	set	16275
   263  0000                     _T6RST	set	16279
   264  0000                     _T6HLT	set	16277
   265  0000                     _T6CLKCON	set	16278
   266  0000                     _PWM8DCL	set	16224
   267  0000                     _PWM8DCH	set	16225
   268  0000                     _PWM8CON	set	16226
   269  0000                     _T2CON	set	16300
   270  0000                     _T2TMR	set	16298
   271  0000                     _T2PR	set	16299
   272  0000                     _T2RST	set	16303
   273  0000                     _T2HLT	set	16301
   274  0000                     _T2CLKCON	set	16302
   275  0000                     _IVTLOCKbits	set	16340
   276  0000                     _IVTLOCK	set	16340
   277  0000                     _INTCON0bits	set	16338
   278  0000                     _TRISD	set	16325
   279  0000                     _TRISC	set	16324
   280  0000                     _TRISB	set	16323
   281  0000                     _TRISA	set	16322
   282  0000                     _TRISE	set	16326
   283  0000                     _LATC	set	16316
   284  0000                     _LATB	set	16315
   285  0000                     _LATA	set	16314
   286  0000                     _LATD	set	16317
   287  0000                     _LATE	set	16318
   288  0000                     _GIE	set	130711
   289                           
   290                           	psect	smallconst
   291  002000                     __psmallconst:
   292                           	opt callstack 0
   293  002000  00                 	db	0
   294  002001                     STR_12:
   295                           
   296                           ; BSR set to: 0
   297  002001  52                 	db	82	;'R'
   298  002002  30                 	db	48	;'0'
   299  002003  0D                 	db	13
   300  002004  00                 	db	0
   301  002005                     STR_4:
   302                           
   303                           ; BSR set to: 0
   304  002005  54                 	db	84	;'T'
   305  002006  32                 	db	50	;'2'
   306  002007  0D                 	db	13
   307  002008  00                 	db	0
   308  002009                     STR_6:
   309                           
   310                           ; BSR set to: 0
   311  002009  43                 	db	67	;'C'
   312  00200A  34                 	db	52	;'4'
   313  00200B  0D                 	db	13
   314  00200C  00                 	db	0
   315  00200D                     STR_8:
   316                           
   317                           ; BSR set to: 0
   318  00200D  46                 	db	70	;'F'
   319  00200E  34                 	db	52	;'4'
   320  00200F  0D                 	db	13
   321  002010  00                 	db	0
   322  002011                     STR_10:
   323                           
   324                           ; BSR set to: 0
   325  002011  4D                 	db	77	;'M'
   326  002012  34                 	db	52	;'4'
   327  002013  0D                 	db	13
   328  002014  00                 	db	0
   329  002015                     STR_2:
   330                           
   331                           ; BSR set to: 0
   332  002015  58                 	db	88	;'X'
   333  002016  51                 	db	81	;'Q'
   334  002017  0D                 	db	13
   335  002018  00                 	db	0
   336  002019                     STR_1:
   337                           
   338                           ; BSR set to: 0
   339  002019  25                 	db	37
   340  00201A  73                 	db	115	;'s'
   341  00201B  00                 	db	0
   342  0000                     
   343                           ; #config settings
   344  00201C  00                 	db	0	; dummy byte at the end
   345  0000                     
   346                           	psect	cinit
   347  002A42                     __pcinit:
   348                           	opt callstack 0
   349  002A42                     start_initialization:
   350                           	opt callstack 0
   351  002A42                     __initialization:
   352                           	opt callstack 0
   353                           
   354                           ; Initialize objects allocated to BANK0 (7 bytes)
   355                           ; load TBLPTR registers with __pidataBANK0
   356  002A42  0E86               	movlw	low __pidataBANK0
   357  002A44  6EF6               	movwf	tblptrl,c
   358  002A46  0E30               	movlw	high __pidataBANK0
   359  002A48  6EF7               	movwf	tblptrh,c
   360  002A4A  0E00               	movlw	low (__pidataBANK0 shr (0+16))
   361  002A4C  6EF8               	movwf	tblptru,c
   362  002A4E  EE00  F0F8         	lfsr	0,__pdataBANK0
   363  002A52  EE10 F007          	lfsr	1,7
   364  002A56                     copy_data0:
   365  002A56  0009               	tblrd		*+
   366  002A58  006F FFD7 FFEE     	movff	tablat,postinc0
   367  002A5E  50E5               	movf	postdec1,w,c
   368  002A60  50E1               	movf	fsr1l,w,c
   369  002A62  E1F9               	bnz	copy_data0
   370                           
   371                           ; Clear objects allocated to BANK0 (152 bytes)
   372  002A64  EE00  F060         	lfsr	0,__pbssBANK0
   373  002A68  0E98               	movlw	152
   374  002A6A                     clear_0:
   375  002A6A  6AEE               	clrf	postinc0,c
   376  002A6C  06E8               	decf	wreg,f,c
   377  002A6E  E1FD               	bnz	clear_0
   378                           
   379                           ; Clear objects allocated to COMRAM (34 bytes)
   380  002A70  EE00  F038         	lfsr	0,__pbssCOMRAM
   381  002A74  0E22               	movlw	34
   382  002A76                     clear_1:
   383  002A76  6AEE               	clrf	postinc0,c
   384  002A78  06E8               	decf	wreg,f,c
   385  002A7A  E1FD               	bnz	clear_1
   386                           
   387                           ;
   388                           ; Setup IVTBASE
   389                           ;
   390  002A7C  0E08               	movlw	(ivt0x8_base shr 0)& (0+255)
   391  002A7E  6ED5               	movwf	213,c
   392  002A80  0E00               	movlw	(ivt0x8_base shr (0+8))& (0+255)
   393  002A82  6ED6               	movwf	214,c
   394  002A84  0E00               	movlw	(ivt0x8_base shr (0+16))& (0+255)
   395  002A86  6ED7               	movwf	215,c
   396  002A88                     end_of_initialization:
   397                           	opt callstack 0
   398  002A88                     __end_of__initialization:
   399                           	opt callstack 0
   400  002A88  0100               	movlb	0
   401  002A8A  EFD0  F014         	goto	_main	;jump to C main() function
   402                           
   403                           	psect	bssCOMRAM
   404  000038                     __pbssCOMRAM:
   405                           	opt callstack 0
   406  000038                     _UART1_TxInterruptHandler:
   407                           	opt callstack 0
   408  000038                     	ds	3
   409  00003B                     _UART1_RxInterruptHandler:
   410                           	opt callstack 0
   411  00003B                     	ds	3
   412  00003E                     _UART2_TxInterruptHandler:
   413                           	opt callstack 0
   414  00003E                     	ds	3
   415  000041                     _UART2_RxInterruptHandler:
   416                           	opt callstack 0
   417  000041                     	ds	3
   418  000044                     _prec:
   419                           	opt callstack 0
   420  000044                     	ds	2
   421  000046                     _flags:
   422                           	opt callstack 0
   423  000046                     	ds	2
   424  000048                     TMR5_ISR@CountCallBack:
   425                           	opt callstack 0
   426  000048                     	ds	2
   427  00004A                     _timer5ReloadVal:
   428                           	opt callstack 0
   429  00004A                     	ds	2
   430  00004C                     _uart2RxLastError:
   431                           	opt callstack 0
   432  00004C                     	ds	1
   433  00004D                     _uart2RxCount:
   434                           	opt callstack 0
   435  00004D                     	ds	1
   436  00004E                     _uart2RxTail:
   437                           	opt callstack 0
   438  00004E                     	ds	1
   439  00004F                     _uart2RxHead:
   440                           	opt callstack 0
   441  00004F                     	ds	1
   442  000050                     _uart2TxBufferRemaining:
   443                           	opt callstack 0
   444  000050                     	ds	1
   445  000051                     _uart2TxTail:
   446                           	opt callstack 0
   447  000051                     	ds	1
   448  000052                     _uart2TxHead:
   449                           	opt callstack 0
   450  000052                     	ds	1
   451  000053                     _uart1RxLastError:
   452                           	opt callstack 0
   453  000053                     	ds	1
   454  000054                     _uart1RxCount:
   455                           	opt callstack 0
   456  000054                     	ds	1
   457  000055                     _uart1RxTail:
   458                           	opt callstack 0
   459  000055                     	ds	1
   460  000056                     _uart1RxHead:
   461                           	opt callstack 0
   462  000056                     	ds	1
   463  000057                     _uart1TxBufferRemaining:
   464                           	opt callstack 0
   465  000057                     	ds	1
   466  000058                     _uart1TxTail:
   467                           	opt callstack 0
   468  000058                     	ds	1
   469  000059                     _uart1TxHead:
   470                           	opt callstack 0
   471  000059                     	ds	1
   472                           
   473                           	psect	bssBANK0
   474  000060                     __pbssBANK0:
   475                           	opt callstack 0
   476  000060                     	ds	32
   477  000080                     _tickCount:
   478                           	opt callstack 0
   479  000080                     	ds	26
   480  00009A                     _IO:
   481                           	opt callstack 0
   482  00009A                     	ds	18
   483  0000AC                     _uart2RxStatusBuffer:
   484                           	opt callstack 0
   485  0000AC                     	ds	8
   486  0000B4                     _uart2RxBuffer:
   487                           	opt callstack 0
   488  0000B4                     	ds	8
   489  0000BC                     _uart2TxBuffer:
   490                           	opt callstack 0
   491  0000BC                     	ds	8
   492  0000C4                     _uart1RxStatusBuffer:
   493                           	opt callstack 0
   494  0000C4                     	ds	8
   495  0000CC                     _uart1RxBuffer:
   496                           	opt callstack 0
   497  0000CC                     	ds	8
   498  0000D4                     _uart1TxBuffer:
   499                           	opt callstack 0
   500  0000D4                     	ds	8
   501  0000DC                     _TMR5_InterruptHandler:
   502                           	opt callstack 0
   503  0000DC                     	ds	3
   504  0000DF                     _TMR6_InterruptHandler:
   505                           	opt callstack 0
   506  0000DF                     	ds	3
   507  0000E2                     _UART2_ErrorHandler:
   508                           	opt callstack 0
   509  0000E2                     	ds	3
   510  0000E5                     _UART2_OverrunErrorHandler:
   511                           	opt callstack 0
   512  0000E5                     	ds	3
   513  0000E8                     _UART2_FramingErrorHandler:
   514                           	opt callstack 0
   515  0000E8                     	ds	3
   516  0000EB                     _UART1_ErrorHandler:
   517                           	opt callstack 0
   518  0000EB                     	ds	3
   519  0000EE                     _UART1_OverrunErrorHandler:
   520                           	opt callstack 0
   521  0000EE                     	ds	3
   522  0000F1                     _UART1_FramingErrorHandler:
   523                           	opt callstack 0
   524  0000F1                     	ds	3
   525  0000F4                     _nout:
   526                           	opt callstack 0
   527  0000F4                     	ds	2
   528  0000F6                     _width:
   529                           	opt callstack 0
   530  0000F6                     	ds	2
   531                           
   532                           	psect	dataBANK0
   533  0000F8                     __pdataBANK0:
   534                           	opt callstack 0
   535  0000F8                     stoa@F1131:
   536                           	opt callstack 0
   537  0000F8                     	ds	7
   538                           
   539                           	psect	cstackBANK1
   540  000100                     __pcstackBANK1:
   541                           	opt callstack 0
   542  000100                     ??_Digital232_RW:
   543                           
   544                           ; 1 bytes @ 0x0
   545  000100                     	ds	2
   546  000102                     Digital232_RW@i:
   547                           	opt callstack 0
   548                           
   549                           ; 1 bytes @ 0x2
   550  000102                     	ds	1
   551  000103                     Digital232_RW@j:
   552                           	opt callstack 0
   553                           
   554                           ; 1 bytes @ 0x3
   555  000103                     	ds	2
   556  000105                     main@x:
   557                           	opt callstack 0
   558                           
   559                           ; 1 bytes @ 0x5
   560  000105                     	ds	1
   561                           
   562                           	psect	cstackCOMRAM
   563  000001                     __pcstackCOMRAM:
   564                           	opt callstack 0
   565  000001                     
   566                           ; 1 bytes @ 0x0
   567  000001                     	ds	2
   568  000003                     TMR6_DefaultInterruptHandler@i:
   569                           	opt callstack 0
   570                           
   571                           ; 1 bytes @ 0x2
   572  000003                     	ds	1
   573  000004                     ??_TMR5_DefaultInterruptHandler:
   574  000004                     TMR5_WriteTimer@timerVal:
   575                           	opt callstack 0
   576                           
   577                           ; 2 bytes @ 0x3
   578  000004                     	ds	1
   579  000005                     
   580                           ; 1 bytes @ 0x4
   581  000005                     	ds	1
   582  000006                     ?_ADCC_GetConversionResult:
   583                           	opt callstack 0
   584  000006                     ?_strlen:
   585                           	opt callstack 0
   586  000006                     INTERRUPT_Initialize@state:
   587                           	opt callstack 0
   588  000006                     UART1_Write@txData:
   589                           	opt callstack 0
   590  000006                     UART2_Read@readValue:
   591                           	opt callstack 0
   592  000006                     UART2_Write@txData:
   593                           	opt callstack 0
   594  000006                     ADCC_StartConversion@channel:
   595                           	opt callstack 0
   596  000006                     StartTimer@count:
   597                           	opt callstack 0
   598  000006                     strlen@s:
   599                           	opt callstack 0
   600  000006                     UART1_SetFramingErrorHandler@interruptHandler:
   601                           	opt callstack 0
   602  000006                     UART1_SetOverrunErrorHandler@interruptHandler:
   603                           	opt callstack 0
   604  000006                     UART1_SetErrorHandler@interruptHandler:
   605                           	opt callstack 0
   606  000006                     UART1_SetRxInterruptHandler@InterruptHandler:
   607                           	opt callstack 0
   608  000006                     UART1_SetTxInterruptHandler@InterruptHandler:
   609                           	opt callstack 0
   610  000006                     UART2_SetFramingErrorHandler@interruptHandler:
   611                           	opt callstack 0
   612  000006                     UART2_SetOverrunErrorHandler@interruptHandler:
   613                           	opt callstack 0
   614  000006                     UART2_SetErrorHandler@interruptHandler:
   615                           	opt callstack 0
   616  000006                     UART2_SetRxInterruptHandler@InterruptHandler:
   617                           	opt callstack 0
   618  000006                     UART2_SetTxInterruptHandler@InterruptHandler:
   619                           	opt callstack 0
   620  000006                     TMR6_SetInterruptHandler@InterruptHandler:
   621                           	opt callstack 0
   622  000006                     TMR5_SetInterruptHandler@InterruptHandler:
   623                           	opt callstack 0
   624                           
   625                           ; 3 bytes @ 0x5
   626  000006                     	ds	1
   627  000007                     putch@txData:
   628                           	opt callstack 0
   629                           
   630                           ; 1 bytes @ 0x6
   631  000007                     	ds	1
   632  000008                     ??_StartTimer:
   633  000008                     ??_ADCC_GetConversionResult:
   634  000008                     TimerDone@timer:
   635                           	opt callstack 0
   636  000008                     fputc@c:
   637                           	opt callstack 0
   638  000008                     strlen@a:
   639                           	opt callstack 0
   640                           
   641                           ; 2 bytes @ 0x7
   642  000008                     	ds	1
   643  000009                     ??_TMR5_Initialize:
   644  000009                     
   645                           ; 1 bytes @ 0x8
   646  000009                     	ds	1
   647  00000A                     StartTimer@timer:
   648                           	opt callstack 0
   649  00000A                     fputc@fp:
   650                           	opt callstack 0
   651                           
   652                           ; 2 bytes @ 0x9
   653  00000A                     	ds	1
   654  00000B                     WaitMs@numMilliseconds:
   655                           	opt callstack 0
   656                           
   657                           ; 2 bytes @ 0xA
   658  00000B                     	ds	1
   659  00000C                     ??_fputc:
   660                           
   661                           ; 1 bytes @ 0xB
   662  00000C                     	ds	1
   663  00000D                     
   664                           ; 1 bytes @ 0xC
   665  00000D                     	ds	4
   666  000011                     ?_stoa:
   667                           	opt callstack 0
   668  000011                     stoa@fp:
   669                           	opt callstack 0
   670                           
   671                           ; 2 bytes @ 0x10
   672  000011                     	ds	2
   673  000013                     stoa@s:
   674                           	opt callstack 0
   675                           
   676                           ; 2 bytes @ 0x12
   677  000013                     	ds	2
   678  000015                     ??_stoa:
   679                           
   680                           ; 1 bytes @ 0x14
   681  000015                     	ds	1
   682  000016                     stoa@nuls:
   683                           	opt callstack 0
   684                           
   685                           ; 7 bytes @ 0x15
   686  000016                     	ds	7
   687  00001D                     stoa@i:
   688                           	opt callstack 0
   689                           
   690                           ; 2 bytes @ 0x1C
   691  00001D                     	ds	2
   692  00001F                     stoa@w:
   693                           	opt callstack 0
   694                           
   695                           ; 2 bytes @ 0x1E
   696  00001F                     	ds	2
   697  000021                     stoa@cp:
   698                           	opt callstack 0
   699                           
   700                           ; 2 bytes @ 0x20
   701  000021                     	ds	2
   702  000023                     stoa@p:
   703                           	opt callstack 0
   704                           
   705                           ; 2 bytes @ 0x22
   706  000023                     	ds	2
   707  000025                     stoa@l:
   708                           	opt callstack 0
   709                           
   710                           ; 2 bytes @ 0x24
   711  000025                     	ds	2
   712  000027                     ?_vfpfcnvrt:
   713                           	opt callstack 0
   714  000027                     vfpfcnvrt@fp:
   715                           	opt callstack 0
   716                           
   717                           ; 2 bytes @ 0x26
   718  000027                     	ds	2
   719  000029                     vfpfcnvrt@fmt:
   720                           	opt callstack 0
   721                           
   722                           ; 1 bytes @ 0x28
   723  000029                     	ds	1
   724  00002A                     vfpfcnvrt@ap:
   725                           	opt callstack 0
   726                           
   727                           ; 1 bytes @ 0x29
   728  00002A                     	ds	1
   729  00002B                     vfpfcnvrt@cp:
   730                           	opt callstack 0
   731                           
   732                           ; 2 bytes @ 0x2A
   733  00002B                     	ds	2
   734  00002D                     ?_vfprintf:
   735                           	opt callstack 0
   736  00002D                     vfprintf@fp:
   737                           	opt callstack 0
   738                           
   739                           ; 2 bytes @ 0x2C
   740  00002D                     	ds	2
   741  00002F                     vfprintf@fmt:
   742                           	opt callstack 0
   743                           
   744                           ; 1 bytes @ 0x2E
   745  00002F                     	ds	1
   746  000030                     vfprintf@ap:
   747                           	opt callstack 0
   748                           
   749                           ; 1 bytes @ 0x2F
   750  000030                     	ds	1
   751  000031                     vfprintf@cfmt:
   752                           	opt callstack 0
   753                           
   754                           ; 1 bytes @ 0x30
   755  000031                     	ds	1
   756  000032                     ?_printf:
   757                           	opt callstack 0
   758  000032                     printf@fmt:
   759                           	opt callstack 0
   760                           
   761                           ; 1 bytes @ 0x31
   762  000032                     	ds	3
   763  000035                     
   764                           ; 1 bytes @ 0x34
   765  000035                     	ds	2
   766  000037                     printf@ap:
   767                           	opt callstack 0
   768                           
   769                           ; 1 bytes @ 0x36
   770  000037                     	ds	1
   771  000038                     
   772                           ; 1 bytes @ 0x37
   773 ;;
   774 ;;Main: autosize = 0, tempsize = 0, incstack = 0, save=0
   775 ;;
   776 ;; *************** function _main *****************
   777 ;; Defined at:
   778 ;;		line 67 in file "main.c"
   779 ;; Parameters:    Size  Location     Type
   780 ;;		None
   781 ;; Auto vars:     Size  Location     Type
   782 ;;  x               1    5[BANK1 ] unsigned char 
   783 ;;  y               1    0        unsigned char 
   784 ;; Return value:  Size  Location     Type
   785 ;;                  1    wreg      void 
   786 ;; Registers used:
   787 ;;		wreg, fsr1l, fsr1h, fsr2l, fsr2h, status,2, status,0, tblptrl, tblptrh, tblptru, prodl, prodh, cstack
   788 ;; Tracked objects:
   789 ;;		On entry : 0/0
   790 ;;		On exit  : 0/0
   791 ;;		Unchanged: 0/0
   792 ;; Data sizes:     COMRAM   BANK0   BANK1   BANK2   BANK3   BANK4   BANK5   BANK6   BANK7   BANK8   BANK9  BANK10  BANK1
      +1  BANK12  BANK13  BANK14  BANK15  BANK16  BANK17  BANK18  BANK19  BANK20  BANK21  BANK22  BANK23  BANK24  BANK25  BANK2
      +6  BANK27  BANK28  BANK29  BANK30  BANK31
   793 ;;      Params:         0       0       0       0       0       0       0       0       0       0       0       0       
      +0       0       0       0       0       0       0       0       0       0       0       0       0       0       0       
      +0       0       0       0       0       0
   794 ;;      Locals:         0       0       2       0       0       0       0       0       0       0       0       0       
      +0       0       0       0       0       0       0       0       0       0       0       0       0       0       0       
      +0       0       0       0       0       0
   795 ;;      Temps:          0       0       0       0       0       0       0       0       0       0       0       0       
      +0       0       0       0       0       0       0       0       0       0       0       0       0       0       0       
      +0       0       0       0       0       0
   796 ;;      Totals:         0       0       2       0       0       0       0       0       0       0       0       0       
      +0       0       0       0       0       0       0       0       0       0       0       0       0       0       0       
      +0       0       0       0       0       0
   797 ;;Total ram usage:        2 bytes
   798 ;; Hardware stack levels required when called:   12
   799 ;; This function calls:
   800 ;;		_Digital232_RW
   801 ;;		_Digital232_init
   802 ;;		_SYSTEM_Initialize
   803 ;;		_StartTimer
   804 ;;		_UART1_Write
   805 ;;		_UART1_is_tx_ready
   806 ;;		_work_sw
   807 ;; This function is called by:
   808 ;;		Startup code after reset
   809 ;; This function uses a non-reentrant model
   810 ;;
   811                           
   812                           	psect	text0
   813  0029A0                     __ptext0:
   814                           	opt callstack 0
   815  0029A0                     _main:
   816                           	opt callstack 19
   817                           
   818                           ;main.c: 69:  uint8_t x = 0, y = 0;
   819                           
   820                           ;incstack = 0
   821  0029A0  0E00               	movlw	0
   822  0029A2  0101               	movlb	1	; () banked
   823  0029A4  6F05               	movwf	main@x& (0+255),b
   824                           
   825                           ; BSR set to: 1
   826                           ;main.c: 71:  SYSTEM_Initialize();
   827  0029A6  EC17  F016         	call	_SYSTEM_Initialize	;wreg free
   828                           
   829                           ; BSR set to: 57
   830                           ;main.c: 78:  (INTCON0bits.GIEH = 1);
   831  0029AA  8ED2               	bsf	16338,7,c	;volatile
   832                           
   833                           ; BSR set to: 57
   834                           ;main.c: 81:  (INTCON0bits.GIEL = 1);
   835  0029AC  8CD2               	bsf	16338,6,c	;volatile
   836                           
   837                           ; BSR set to: 57
   838                           ;main.c: 89:  IO.input_ok = 0;
   839  0029AE  0E00               	movlw	0
   840  0029B0  0100               	movlb	0	; () banked
   841  0029B2  6FA4               	movwf	(_IO+10)& (0+255),b	;volatile
   842                           
   843                           ; BSR set to: 0
   844                           ;main.c: 90:  IO.output_ok = 0;
   845  0029B4  0E00               	movlw	0
   846  0029B6  6FA5               	movwf	(_IO+11)& (0+255),b	;volatile
   847                           
   848                           ; BSR set to: 0
   849                           ;main.c: 91:  IO.d232 = D232_IDLE;
   850  0029B8  0E00               	movlw	0
   851  0029BA  6FA7               	movwf	(_IO+13)& (0+255),b	;volatile
   852                           
   853                           ; BSR set to: 0
   854                           ;main.c: 92:  IO.io = IO_IDLE;
   855  0029BC  0E00               	movlw	0
   856  0029BE  6FA6               	movwf	(_IO+12)& (0+255),b	;volatile
   857                           
   858                           ; BSR set to: 0
   859                           ;main.c: 94:  StartTimer(TMR_INIT, 1000);
   860  0029C0  0E03               	movlw	3
   861  0029C2  6E07               	movwf	StartTimer@count+1,c
   862  0029C4  0EE8               	movlw	232
   863  0029C6  6E06               	movwf	StartTimer@count,c
   864  0029C8  0E01               	movlw	1
   865  0029CA  EC2E  F016         	call	_StartTimer
   866                           
   867                           ;main.c: 95:  Digital232_init();
   868  0029CE  EC4C  F012         	call	_Digital232_init	;wreg free
   869  0029D2                     l3945:
   870                           
   871                           ;main.c: 98:   if (UART1_is_tx_ready())
   872  0029D2  EC4D  F018         	call	_UART1_is_tx_ready	;wreg free
   873  0029D6  0900               	iorlw	0
   874  0029D8  B4D8               	btfsc	status,2,c
   875  0029DA  D006               	goto	l3951
   876                           
   877                           ;main.c: 99:    UART1_Write(x++);
   878  0029DC  0101               	movlb	1	; () banked
   879  0029DE  5105               	movf	main@x& (0+255),w,b
   880  0029E0  EC90  F015         	call	_UART1_Write
   881                           
   882                           ; BSR set to: 57
   883  0029E4  0101               	movlb	1	; () banked
   884  0029E6  2B05               	incf	main@x& (0+255),f,b
   885  0029E8                     l3951:
   886                           
   887                           ;main.c: 101:   work_sw();
   888  0029E8  EC6A  F017         	call	_work_sw	;wreg free
   889                           
   890                           ;main.c: 102:   Digital232_RW();
   891  0029EC  EC0F  F010         	call	_Digital232_RW	;wreg free
   892  0029F0  D7F0               	goto	l3945
   893  0029F2                     __end_of_main:
   894                           	opt callstack 0
   895                           
   896 ;; *************** function _work_sw *****************
   897 ;; Defined at:
   898 ;;		line 57 in file "main.c"
   899 ;; Parameters:    Size  Location     Type
   900 ;;		None
   901 ;; Auto vars:     Size  Location     Type
   902 ;;		None
   903 ;; Return value:  Size  Location     Type
   904 ;;                  1    wreg      void 
   905 ;; Registers used:
   906 ;;		wreg, fsr2l, fsr2h, status,2, status,0, prodl, prodh, cstack
   907 ;; Tracked objects:
   908 ;;		On entry : 0/3E
   909 ;;		On exit  : 0/0
   910 ;;		Unchanged: 0/0
   911 ;; Data sizes:     COMRAM   BANK0   BANK1   BANK2   BANK3   BANK4   BANK5   BANK6   BANK7   BANK8   BANK9  BANK10  BANK1
      +1  BANK12  BANK13  BANK14  BANK15  BANK16  BANK17  BANK18  BANK19  BANK20  BANK21  BANK22  BANK23  BANK24  BANK25  BANK2
      +6  BANK27  BANK28  BANK29  BANK30  BANK31
   912 ;;      Params:         0       0       0       0       0       0       0       0       0       0       0       0       
      +0       0       0       0       0       0       0       0       0       0       0       0       0       0       0       
      +0       0       0       0       0       0
   913 ;;      Locals:         0       0       0       0       0       0       0       0       0       0       0       0       
      +0       0       0       0       0       0       0       0       0       0       0       0       0       0       0       
      +0       0       0       0       0       0
   914 ;;      Temps:          0       0       0       0       0       0       0       0       0       0       0       0       
      +0       0       0       0       0       0       0       0       0       0       0       0       0       0       0       
      +0       0       0       0       0       0
   915 ;;      Totals:         0       0       0       0       0       0       0       0       0       0       0       0       
      +0       0       0       0       0       0       0       0       0       0       0       0       0       0       0       
      +0       0       0       0       0       0
   916 ;;Total ram usage:        0 bytes
   917 ;; Hardware stack levels used:    1
   918 ;; Hardware stack levels required when called:    5
   919 ;; This function calls:
   920 ;;		_StartTimer
   921 ;;		_TimerDone
   922 ;; This function is called by:
   923 ;;		_main
   924 ;; This function uses a non-reentrant model
   925 ;;
   926                           
   927                           	psect	text1
   928  002ED4                     __ptext1:
   929                           	opt callstack 0
   930  002ED4                     _work_sw:
   931                           	opt callstack 25
   932                           
   933                           ;main.c: 59:  if (TimerDone(TMR_INIT)) {
   934                           
   935                           ;incstack = 0
   936  002ED4  0E01               	movlw	1
   937  002ED6  EC2D  F017         	call	_TimerDone
   938  002EDA  0900               	iorlw	0
   939  002EDC  B4D8               	btfsc	status,2,c
   940  002EDE  0012               	return	
   941                           
   942                           ;main.c: 60:   StartTimer(TMR_INIT, 1000);
   943  002EE0  0E03               	movlw	3
   944  002EE2  6E07               	movwf	StartTimer@count+1,c
   945  002EE4  0EE8               	movlw	232
   946  002EE6  6E06               	movwf	StartTimer@count,c
   947  002EE8  0E01               	movlw	1
   948  002EEA  EC2E  F016         	call	_StartTimer
   949  002EEE  0012               	return		;funcret
   950  002EF0                     __end_of_work_sw:
   951                           	opt callstack 0
   952                           
   953 ;; *************** function _UART1_is_tx_ready *****************
   954 ;; Defined at:
   955 ;;		line 166 in file "mcc_generated_files/uart1.c"
   956 ;; Parameters:    Size  Location     Type
   957 ;;		None
   958 ;; Auto vars:     Size  Location     Type
   959 ;;		None
   960 ;; Return value:  Size  Location     Type
   961 ;;                  1    wreg      unsigned char 
   962 ;; Registers used:
   963 ;;		wreg, status,2
   964 ;; Tracked objects:
   965 ;;		On entry : 0/3E
   966 ;;		On exit  : 0/0
   967 ;;		Unchanged: 0/0
   968 ;; Data sizes:     COMRAM   BANK0   BANK1   BANK2   BANK3   BANK4   BANK5   BANK6   BANK7   BANK8   BANK9  BANK10  BANK1
      +1  BANK12  BANK13  BANK14  BANK15  BANK16  BANK17  BANK18  BANK19  BANK20  BANK21  BANK22  BANK23  BANK24  BANK25  BANK2
      +6  BANK27  BANK28  BANK29  BANK30  BANK31
   969 ;;      Params:         0       0       0       0       0       0       0       0       0       0       0       0       
      +0       0       0       0       0       0       0       0       0       0       0       0       0       0       0       
      +0       0       0       0       0       0
   970 ;;      Locals:         0       0       0       0       0       0       0       0       0       0       0       0       
      +0       0       0       0       0       0       0       0       0       0       0       0       0       0       0       
      +0       0       0       0       0       0
   971 ;;      Temps:          0       0       0       0       0       0       0       0       0       0       0       0       
      +0       0       0       0       0       0       0       0       0       0       0       0       0       0       0       
      +0       0       0       0       0       0
   972 ;;      Totals:         0       0       0       0       0       0       0       0       0       0       0       0       
      +0       0       0       0       0       0       0       0       0       0       0       0       0       0       0       
      +0       0       0       0       0       0
   973 ;;Total ram usage:        0 bytes
   974 ;; Hardware stack levels used:    1
   975 ;; Hardware stack levels required when called:    4
   976 ;; This function calls:
   977 ;;		Nothing
   978 ;; This function is called by:
   979 ;;		_main
   980 ;; This function uses a non-reentrant model
   981 ;;
   982                           
   983                           	psect	text2
   984  00309A                     __ptext2:
   985                           	opt callstack 0
   986  00309A                     _UART1_is_tx_ready:
   987                           	opt callstack 26
   988                           
   989                           ;mcc_generated_files/uart1.c: 168:     return uart1TxBufferRemaining;
   990                           
   991                           ;incstack = 0
   992  00309A  5057               	movf	_uart1TxBufferRemaining,w,c	;volatile
   993  00309C  0012               	return		;funcret
   994  00309E                     __end_of_UART1_is_tx_ready:
   995                           	opt callstack 0
   996                           
   997 ;; *************** function _UART1_Write *****************
   998 ;; Defined at:
   999 ;;		line 202 in file "mcc_generated_files/uart1.c"
  1000 ;; Parameters:    Size  Location     Type
  1001 ;;  txData          1    wreg     unsigned char 
  1002 ;; Auto vars:     Size  Location     Type
  1003 ;;  txData          1    5[COMRAM] unsigned char 
  1004 ;; Return value:  Size  Location     Type
  1005 ;;                  1    wreg      void 
  1006 ;; Registers used:
  1007 ;;		wreg, fsr2l, fsr2h, status,2, status,0
  1008 ;; Tracked objects:
  1009 ;;		On entry : 3F/1
  1010 ;;		On exit  : 3F/39
  1011 ;;		Unchanged: 0/0
  1012 ;; Data sizes:     COMRAM   BANK0   BANK1   BANK2   BANK3   BANK4   BANK5   BANK6   BANK7   BANK8   BANK9  BANK10  BANK1
      +1  BANK12  BANK13  BANK14  BANK15  BANK16  BANK17  BANK18  BANK19  BANK20  BANK21  BANK22  BANK23  BANK24  BANK25  BANK2
      +6  BANK27  BANK28  BANK29  BANK30  BANK31
  1013 ;;      Params:         0       0       0       0       0       0       0       0       0       0       0       0       
      +0       0       0       0       0       0       0       0       0       0       0       0       0       0       0       
      +0       0       0       0       0       0
  1014 ;;      Locals:         1       0       0       0       0       0       0       0       0       0       0       0       
      +0       0       0       0       0       0       0       0       0       0       0       0       0       0       0       
      +0       0       0       0       0       0
  1015 ;;      Temps:          0       0       0       0       0       0       0       0       0       0       0       0       
      +0       0       0       0       0       0       0       0       0       0       0       0       0       0       0       
      +0       0       0       0       0       0
  1016 ;;      Totals:         1       0       0       0       0       0       0       0       0       0       0       0       
      +0       0       0       0       0       0       0       0       0       0       0       0       0       0       0       
      +0       0       0       0       0       0
  1017 ;;Total ram usage:        1 bytes
  1018 ;; Hardware stack levels used:    1
  1019 ;; Hardware stack levels required when called:    4
  1020 ;; This function calls:
  1021 ;;		Nothing
  1022 ;; This function is called by:
  1023 ;;		_main
  1024 ;; This function uses a non-reentrant model
  1025 ;;
  1026                           
  1027                           	psect	text3
  1028  002B20                     __ptext3:
  1029                           	opt callstack 0
  1030  002B20                     _UART1_Write:
  1031                           	opt callstack 26
  1032                           
  1033                           ;incstack = 0
  1034                           ;UART1_Write@txData stored from wreg
  1035  002B20  6E06               	movwf	UART1_Write@txData,c
  1036  002B22                     
  1037                           ;mcc_generated_files/uart1.c: 204:     while(0 == uart1TxBufferRemaining)
  1038                           
  1039                           ;mcc_generated_files/uart1.c: 202: void UART1_Write(uint8_t txData);mcc_generated_files/
      +                          uart1.c: 203: {;mcc_generated_files/uart1.c: 204:     while(0 == uart1TxBufferRemaining)
  1040  002B22  5057               	movf	_uart1TxBufferRemaining,w,c	;volatile
  1041  002B24  B4D8               	btfsc	status,2,c
  1042  002B26  D7FD               	goto	l3769
  1043                           
  1044                           ;mcc_generated_files/uart1.c: 208:     if(0 == PIE3bits.U1TXIE)
  1045  002B28  0139               	movlb	57	; () banked
  1046  002B2A  B993               	btfsc	147,4,b	;volatile
  1047  002B2C  D004               	goto	l314
  1048                           
  1049                           ; BSR set to: 57
  1050                           ;mcc_generated_files/uart1.c: 209:     {;mcc_generated_files/uart1.c: 210:         U1TXB
      +                           = txData;
  1051  002B2E  0060  F01B  FDEA   	movff	UART1_Write@txData,15850	;volatile
  1052                           
  1053                           ;mcc_generated_files/uart1.c: 211:     }
  1054  002B34  D00F               	goto	l3785
  1055  002B36                     l314:
  1056                           
  1057                           ; BSR set to: 57
  1058                           ;mcc_generated_files/uart1.c: 213:     {;mcc_generated_files/uart1.c: 214:         PIE3b
      +                          its.U1TXIE = 0;
  1059  002B36  9993               	bcf	147,4,b	;volatile
  1060                           
  1061                           ; BSR set to: 57
  1062                           ;mcc_generated_files/uart1.c: 215:         uart1TxBuffer[uart1TxHead++] = txData;
  1063  002B38  5059               	movf	_uart1TxHead,w,c
  1064  002B3A  0FD4               	addlw	low _uart1TxBuffer
  1065  002B3C  6ED9               	movwf	fsr2l,c
  1066  002B3E  6ADA               	clrf	fsr2h,c
  1067  002B40  0060  F01B  FFDF   	movff	UART1_Write@txData,indf2
  1068                           
  1069                           ; BSR set to: 57
  1070  002B46  2A59               	incf	_uart1TxHead,f,c	;volatile
  1071                           
  1072                           ; BSR set to: 57
  1073                           ;mcc_generated_files/uart1.c: 216:         if(sizeof(uart1TxBuffer) <= uart1TxHead)
  1074  002B48  0E07               	movlw	7
  1075  002B4A  6459               	cpfsgt	_uart1TxHead,c
  1076  002B4C  D002               	goto	l3783
  1077                           
  1078                           ; BSR set to: 57
  1079                           ;mcc_generated_files/uart1.c: 217:         {;mcc_generated_files/uart1.c: 218:          
      +                             uart1TxHead = 0;
  1080  002B4E  0E00               	movlw	0
  1081  002B50  6E59               	movwf	_uart1TxHead,c	;volatile
  1082  002B52                     l3783:
  1083                           
  1084                           ; BSR set to: 57
  1085                           ;mcc_generated_files/uart1.c: 220:         uart1TxBufferRemaining--;
  1086  002B52  0657               	decf	_uart1TxBufferRemaining,f,c	;volatile
  1087  002B54                     l3785:
  1088                           
  1089                           ; BSR set to: 57
  1090                           ;mcc_generated_files/uart1.c: 222:     PIE3bits.U1TXIE = 1;
  1091  002B54  8993               	bsf	147,4,b	;volatile
  1092                           
  1093                           ; BSR set to: 57
  1094  002B56  0012               	return		;funcret
  1095  002B58                     __end_of_UART1_Write:
  1096                           	opt callstack 0
  1097                           
  1098 ;; *************** function _SYSTEM_Initialize *****************
  1099 ;; Defined at:
  1100 ;;		line 50 in file "mcc_generated_files/mcc.c"
  1101 ;; Parameters:    Size  Location     Type
  1102 ;;		None
  1103 ;; Auto vars:     Size  Location     Type
  1104 ;;		None
  1105 ;; Return value:  Size  Location     Type
  1106 ;;                  1    wreg      void 
  1107 ;; Registers used:
  1108 ;;		wreg, status,2, status,0, cstack
  1109 ;; Tracked objects:
  1110 ;;		On entry : 3F/1
  1111 ;;		On exit  : 3F/39
  1112 ;;		Unchanged: 0/0
  1113 ;; Data sizes:     COMRAM   BANK0   BANK1   BANK2   BANK3   BANK4   BANK5   BANK6   BANK7   BANK8   BANK9  BANK10  BANK1
      +1  BANK12  BANK13  BANK14  BANK15  BANK16  BANK17  BANK18  BANK19  BANK20  BANK21  BANK22  BANK23  BANK24  BANK25  BANK2
      +6  BANK27  BANK28  BANK29  BANK30  BANK31
  1114 ;;      Params:         0       0       0       0       0       0       0       0       0       0       0       0       
      +0       0       0       0       0       0       0       0       0       0       0       0       0       0       0       
      +0       0       0       0       0       0
  1115 ;;      Locals:         0       0       0       0       0       0       0       0       0       0       0       0       
      +0       0       0       0       0       0       0       0       0       0       0       0       0       0       0       
      +0       0       0       0       0       0
  1116 ;;      Temps:          0       0       0       0       0       0       0       0       0       0       0       0       
      +0       0       0       0       0       0       0       0       0       0       0       0       0       0       0       
      +0       0       0       0       0       0
  1117 ;;      Totals:         0       0       0       0       0       0       0       0       0       0       0       0       
      +0       0       0       0       0       0       0       0       0       0       0       0       0       0       0       
      +0       0       0       0       0       0
  1118 ;;Total ram usage:        0 bytes
  1119 ;; Hardware stack levels used:    1
  1120 ;; Hardware stack levels required when called:    6
  1121 ;; This function calls:
  1122 ;;		_ADCC_Initialize
  1123 ;;		_INTERRUPT_Initialize
  1124 ;;		_OSCILLATOR_Initialize
  1125 ;;		_PIN_MANAGER_Initialize
  1126 ;;		_PMD_Initialize
  1127 ;;		_PWM8_Initialize
  1128 ;;		_TMR2_Initialize
  1129 ;;		_TMR5_Initialize
  1130 ;;		_TMR6_Initialize
  1131 ;;		_UART1_Initialize
  1132 ;;		_UART2_Initialize
  1133 ;; This function is called by:
  1134 ;;		_main
  1135 ;; This function uses a non-reentrant model
  1136 ;;
  1137                           
  1138                           	psect	text4
  1139  002C2E                     __ptext4:
  1140                           	opt callstack 0
  1141  002C2E                     _SYSTEM_Initialize:
  1142                           	opt callstack 24
  1143                           
  1144                           ; BSR set to: 1
  1145                           ;mcc_generated_files/mcc.c: 52:     INTERRUPT_Initialize();
  1146                           
  1147                           ; BSR set to: 57
  1148                           ;incstack = 0
  1149  002C2E  EC6C  F015         	call	_INTERRUPT_Initialize	;wreg free
  1150                           
  1151                           ;mcc_generated_files/mcc.c: 53:     PMD_Initialize();
  1152  002C32  ECD4  F016         	call	_PMD_Initialize	;wreg free
  1153                           
  1154                           ;mcc_generated_files/mcc.c: 54:     PIN_MANAGER_Initialize();
  1155  002C36  EC62  F013         	call	_PIN_MANAGER_Initialize	;wreg free
  1156                           
  1157                           ;mcc_generated_files/mcc.c: 55:     OSCILLATOR_Initialize();
  1158  002C3A  EC78  F017         	call	_OSCILLATOR_Initialize	;wreg free
  1159                           
  1160                           ; BSR set to: 57
  1161                           ;mcc_generated_files/mcc.c: 56:     TMR6_Initialize();
  1162  002C3E  EC45  F016         	call	_TMR6_Initialize	;wreg free
  1163                           
  1164                           ; BSR set to: 57
  1165                           ;mcc_generated_files/mcc.c: 57:     ADCC_Initialize();
  1166  002C42  EC74  F014         	call	_ADCC_Initialize	;wreg free
  1167                           
  1168                           ;mcc_generated_files/mcc.c: 58:     TMR5_Initialize();
  1169  002C46  EC47  F015         	call	_TMR5_Initialize	;wreg free
  1170                           
  1171                           ; BSR set to: 57
  1172                           ;mcc_generated_files/mcc.c: 59:     PWM8_Initialize();
  1173  002C4A  ECA1  F017         	call	_PWM8_Initialize	;wreg free
  1174                           
  1175                           ; BSR set to: 63
  1176                           ;mcc_generated_files/mcc.c: 60:     TMR2_Initialize();
  1177  002C4E  EC3D  F017         	call	_TMR2_Initialize	;wreg free
  1178                           
  1179                           ;mcc_generated_files/mcc.c: 61:     UART2_Initialize();
  1180  002C52  EC0E  F013         	call	_UART2_Initialize	;wreg free
  1181                           
  1182                           ;mcc_generated_files/mcc.c: 62:     UART1_Initialize();
  1183  002C56  ECB4  F012         	call	_UART1_Initialize	;wreg free
  1184                           
  1185                           ; BSR set to: 57
  1186  002C5A  0012               	return		;funcret
  1187  002C5C                     __end_of_SYSTEM_Initialize:
  1188                           	opt callstack 0
  1189                           
  1190 ;; *************** function _UART2_Initialize *****************
  1191 ;; Defined at:
  1192 ;;		line 87 in file "mcc_generated_files/uart2.c"
  1193 ;; Parameters:    Size  Location     Type
  1194 ;;		None
  1195 ;; Auto vars:     Size  Location     Type
  1196 ;;		None
  1197 ;; Return value:  Size  Location     Type
  1198 ;;                  1    wreg      void 
  1199 ;; Registers used:
  1200 ;;		wreg, status,2, status,0, cstack
  1201 ;; Tracked objects:
  1202 ;;		On entry : 3F/39
  1203 ;;		On exit  : 3F/39
  1204 ;;		Unchanged: 0/0
  1205 ;; Data sizes:     COMRAM   BANK0   BANK1   BANK2   BANK3   BANK4   BANK5   BANK6   BANK7   BANK8   BANK9  BANK10  BANK1
      +1  BANK12  BANK13  BANK14  BANK15  BANK16  BANK17  BANK18  BANK19  BANK20  BANK21  BANK22  BANK23  BANK24  BANK25  BANK2
      +6  BANK27  BANK28  BANK29  BANK30  BANK31
  1206 ;;      Params:         0       0       0       0       0       0       0       0       0       0       0       0       
      +0       0       0       0       0       0       0       0       0       0       0       0       0       0       0       
      +0       0       0       0       0       0
  1207 ;;      Locals:         0       0       0       0       0       0       0       0       0       0       0       0       
      +0       0       0       0       0       0       0       0       0       0       0       0       0       0       0       
      +0       0       0       0       0       0
  1208 ;;      Temps:          0       0       0       0       0       0       0       0       0       0       0       0       
      +0       0       0       0       0       0       0       0       0       0       0       0       0       0       0       
      +0       0       0       0       0       0
  1209 ;;      Totals:         0       0       0       0       0       0       0       0       0       0       0       0       
      +0       0       0       0       0       0       0       0       0       0       0       0       0       0       0       
      +0       0       0       0       0       0
  1210 ;;Total ram usage:        0 bytes
  1211 ;; Hardware stack levels used:    1
  1212 ;; Hardware stack levels required when called:    5
  1213 ;; This function calls:
  1214 ;;		_UART2_SetErrorHandler
  1215 ;;		_UART2_SetFramingErrorHandler
  1216 ;;		_UART2_SetOverrunErrorHandler
  1217 ;;		_UART2_SetRxInterruptHandler
  1218 ;;		_UART2_SetTxInterruptHandler
  1219 ;; This function is called by:
  1220 ;;		_SYSTEM_Initialize
  1221 ;; This function uses a non-reentrant model
  1222 ;;
  1223                           
  1224                           	psect	text5
  1225  00261C                     __ptext5:
  1226                           	opt callstack 0
  1227  00261C                     _UART2_Initialize:
  1228                           	opt callstack 24
  1229                           
  1230                           ; BSR set to: 57
  1231                           ;mcc_generated_files/uart2.c: 90:     PIE6bits.U2RXIE = 0;
  1232                           
  1233                           ; BSR set to: 57
  1234                           ;incstack = 0
  1235  00261C  9596               	bcf	150,2,b	;volatile
  1236                           
  1237                           ; BSR set to: 57
  1238                           ;mcc_generated_files/uart2.c: 91:     UART2_SetRxInterruptHandler(UART2_Receive_ISR);
  1239  00261E  0EEE               	movlw	low _UART2_Receive_ISR
  1240  002620  6E06               	movwf	UART2_SetRxInterruptHandler@InterruptHandler,c
  1241  002622  0E27               	movlw	high _UART2_Receive_ISR
  1242  002624  6E07               	movwf	UART2_SetRxInterruptHandler@InterruptHandler+1,c
  1243  002626  0E00               	movlw	low (_UART2_Receive_ISR shr (0+16))
  1244  002628  6E08               	movwf	UART2_SetRxInterruptHandler@InterruptHandler+2,c
  1245  00262A  ECB7  F017         	call	_UART2_SetRxInterruptHandler	;wreg free
  1246                           
  1247                           ; BSR set to: 57
  1248                           ;mcc_generated_files/uart2.c: 92:     PIE6bits.U2TXIE = 0;
  1249  00262E  9796               	bcf	150,3,b	;volatile
  1250                           
  1251                           ;mcc_generated_files/uart2.c: 93:     UART2_SetTxInterruptHandler(UART2_Transmit_ISR);
  1252  002630  0E0C               	movlw	low _UART2_Transmit_ISR
  1253  002632  6E06               	movwf	UART2_SetTxInterruptHandler@InterruptHandler,c
  1254  002634  0E2D               	movlw	high _UART2_Transmit_ISR
  1255  002636  6E07               	movwf	UART2_SetTxInterruptHandler@InterruptHandler+1,c
  1256  002638  0E00               	movlw	low (_UART2_Transmit_ISR shr (0+16))
  1257  00263A  6E08               	movwf	UART2_SetTxInterruptHandler@InterruptHandler+2,c
  1258  00263C  ECAD  F017         	call	_UART2_SetTxInterruptHandler	;wreg free
  1259                           
  1260                           ; BSR set to: 57
  1261                           ;mcc_generated_files/uart2.c: 98:     U2P1L = 0x00;
  1262  002640  0E00               	movlw	0
  1263  002642  013D               	movlb	61	; () banked
  1264  002644  6FD4               	movwf	212,b	;volatile
  1265                           
  1266                           ; BSR set to: 61
  1267                           ;mcc_generated_files/uart2.c: 101:     U2P2L = 0x00;
  1268  002646  0E00               	movlw	0
  1269  002648  6FD6               	movwf	214,b	;volatile
  1270                           
  1271                           ; BSR set to: 61
  1272                           ;mcc_generated_files/uart2.c: 104:     U2P3L = 0x00;
  1273  00264A  0E00               	movlw	0
  1274  00264C  6FD8               	movwf	216,b	;volatile
  1275                           
  1276                           ; BSR set to: 61
  1277                           ;mcc_generated_files/uart2.c: 107:     U2CON0 = 0xB0;
  1278  00264E  0EB0               	movlw	176
  1279  002650  6FDA               	movwf	218,b	;volatile
  1280                           
  1281                           ; BSR set to: 61
  1282                           ;mcc_generated_files/uart2.c: 110:     U2CON1 = 0x80;
  1283  002652  0E80               	movlw	128
  1284  002654  6FDB               	movwf	219,b	;volatile
  1285                           
  1286                           ; BSR set to: 61
  1287                           ;mcc_generated_files/uart2.c: 113:     U2CON2 = 0x00;
  1288  002656  0E00               	movlw	0
  1289  002658  6FDC               	movwf	220,b	;volatile
  1290                           
  1291                           ; BSR set to: 61
  1292                           ;mcc_generated_files/uart2.c: 116:     U2BRGL = 0x40;
  1293  00265A  0E40               	movlw	64
  1294  00265C  6FDD               	movwf	221,b	;volatile
  1295                           
  1296                           ; BSR set to: 61
  1297                           ;mcc_generated_files/uart2.c: 119:     U2BRGH = 0x03;
  1298  00265E  0E03               	movlw	3
  1299  002660  6FDE               	movwf	222,b	;volatile
  1300                           
  1301                           ; BSR set to: 61
  1302                           ;mcc_generated_files/uart2.c: 122:     U2FIFO = 0x00;
  1303  002662  0E00               	movlw	0
  1304  002664  6FDF               	movwf	223,b	;volatile
  1305                           
  1306                           ; BSR set to: 61
  1307                           ;mcc_generated_files/uart2.c: 125:     U2UIR = 0x00;
  1308  002666  0E00               	movlw	0
  1309  002668  6FE0               	movwf	224,b	;volatile
  1310                           
  1311                           ; BSR set to: 61
  1312                           ;mcc_generated_files/uart2.c: 128:     U2ERRIR = 0x00;
  1313  00266A  0E00               	movlw	0
  1314  00266C  6FE1               	movwf	225,b	;volatile
  1315                           
  1316                           ; BSR set to: 61
  1317                           ;mcc_generated_files/uart2.c: 131:     U2ERRIE = 0x00;
  1318  00266E  0E00               	movlw	0
  1319  002670  6FE2               	movwf	226,b	;volatile
  1320                           
  1321                           ;mcc_generated_files/uart2.c: 134:     UART2_SetFramingErrorHandler(UART2_DefaultFraming
      +                          ErrorHandler);
  1322  002672  0EAC               	movlw	low _UART2_DefaultFramingErrorHandler
  1323  002674  6E06               	movwf	UART2_SetFramingErrorHandler@interruptHandler,c
  1324  002676  0E30               	movlw	high _UART2_DefaultFramingErrorHandler
  1325  002678  6E07               	movwf	UART2_SetFramingErrorHandler@interruptHandler+1,c
  1326  00267A  0E00               	movlw	low (_UART2_DefaultFramingErrorHandler shr (0+16))
  1327  00267C  6E08               	movwf	UART2_SetFramingErrorHandler@interruptHandler+2,c
  1328  00267E  ECCB  F017         	call	_UART2_SetFramingErrorHandler	;wreg free
  1329                           
  1330                           ;mcc_generated_files/uart2.c: 135:     UART2_SetOverrunErrorHandler(UART2_DefaultOverrun
      +                          ErrorHandler);
  1331  002682  0EAA               	movlw	low _UART2_DefaultOverrunErrorHandler
  1332  002684  6E06               	movwf	UART2_SetOverrunErrorHandler@interruptHandler,c
  1333  002686  0E30               	movlw	high _UART2_DefaultOverrunErrorHandler
  1334  002688  6E07               	movwf	UART2_SetOverrunErrorHandler@interruptHandler+1,c
  1335  00268A  0E00               	movlw	low (_UART2_DefaultOverrunErrorHandler shr (0+16))
  1336  00268C  6E08               	movwf	UART2_SetOverrunErrorHandler@interruptHandler+2,c
  1337  00268E  ECC1  F017         	call	_UART2_SetOverrunErrorHandler	;wreg free
  1338                           
  1339                           ;mcc_generated_files/uart2.c: 136:     UART2_SetErrorHandler(UART2_DefaultErrorHandler);
  1340  002692  0E94               	movlw	low _UART2_DefaultErrorHandler
  1341  002694  6E06               	movwf	UART2_SetErrorHandler@interruptHandler,c
  1342  002696  0E30               	movlw	high _UART2_DefaultErrorHandler
  1343  002698  6E07               	movwf	UART2_SetErrorHandler@interruptHandler+1,c
  1344  00269A  0E00               	movlw	low (_UART2_DefaultErrorHandler shr (0+16))
  1345  00269C  6E08               	movwf	UART2_SetErrorHandler@interruptHandler+2,c
  1346  00269E  ECD5  F017         	call	_UART2_SetErrorHandler	;wreg free
  1347                           
  1348                           ; BSR set to: 61
  1349                           ;mcc_generated_files/uart2.c: 138:     uart2RxLastError.status = 0;
  1350  0026A2  0E00               	movlw	0
  1351  0026A4  6E4C               	movwf	_uart2RxLastError,c	;volatile
  1352                           
  1353                           ; BSR set to: 61
  1354                           ;mcc_generated_files/uart2.c: 141:     uart2TxHead = 0;
  1355  0026A6  0E00               	movlw	0
  1356  0026A8  6E52               	movwf	_uart2TxHead,c	;volatile
  1357                           
  1358                           ; BSR set to: 61
  1359                           ;mcc_generated_files/uart2.c: 142:     uart2TxTail = 0;
  1360  0026AA  0E00               	movlw	0
  1361  0026AC  6E51               	movwf	_uart2TxTail,c	;volatile
  1362                           
  1363                           ; BSR set to: 61
  1364                           ;mcc_generated_files/uart2.c: 143:     uart2TxBufferRemaining = sizeof(uart2TxBuffer);
  1365  0026AE  0E08               	movlw	8
  1366  0026B0  6E50               	movwf	_uart2TxBufferRemaining,c	;volatile
  1367                           
  1368                           ; BSR set to: 61
  1369                           ;mcc_generated_files/uart2.c: 144:     uart2RxHead = 0;
  1370  0026B2  0E00               	movlw	0
  1371  0026B4  6E4F               	movwf	_uart2RxHead,c	;volatile
  1372                           
  1373                           ; BSR set to: 61
  1374                           ;mcc_generated_files/uart2.c: 145:     uart2RxTail = 0;
  1375  0026B6  0E00               	movlw	0
  1376  0026B8  6E4E               	movwf	_uart2RxTail,c	;volatile
  1377                           
  1378                           ; BSR set to: 61
  1379                           ;mcc_generated_files/uart2.c: 146:     uart2RxCount = 0;
  1380  0026BA  0E00               	movlw	0
  1381  0026BC  6E4D               	movwf	_uart2RxCount,c	;volatile
  1382                           
  1383                           ; BSR set to: 61
  1384                           ;mcc_generated_files/uart2.c: 149:     PIE6bits.U2RXIE = 1;
  1385  0026BE  0139               	movlb	57	; () banked
  1386  0026C0  8596               	bsf	150,2,b	;volatile
  1387                           
  1388                           ; BSR set to: 57
  1389  0026C2  0012               	return		;funcret
  1390  0026C4                     __end_of_UART2_Initialize:
  1391                           	opt callstack 0
  1392                           
  1393 ;; *************** function _UART2_SetTxInterruptHandler *****************
  1394 ;; Defined at:
  1395 ;;		line 324 in file "mcc_generated_files/uart2.c"
  1396 ;; Parameters:    Size  Location     Type
  1397 ;;  InterruptHan    3    5[COMRAM] PTR FTN()void 
  1398 ;;		 -> UART2_Transmit_ISR(1), 
  1399 ;; Auto vars:     Size  Location     Type
  1400 ;;		None
  1401 ;; Return value:  Size  Location     Type
  1402 ;;                  1    wreg      void 
  1403 ;; Registers used:
  1404 ;;		wreg, status,2, status,0
  1405 ;; Tracked objects:
  1406 ;;		On entry : 3F/39
  1407 ;;		On exit  : 3F/39
  1408 ;;		Unchanged: 3E/0
  1409 ;; Data sizes:     COMRAM   BANK0   BANK1   BANK2   BANK3   BANK4   BANK5   BANK6   BANK7   BANK8   BANK9  BANK10  BANK1
      +1  BANK12  BANK13  BANK14  BANK15  BANK16  BANK17  BANK18  BANK19  BANK20  BANK21  BANK22  BANK23  BANK24  BANK25  BANK2
      +6  BANK27  BANK28  BANK29  BANK30  BANK31
  1410 ;;      Params:         3       0       0       0       0       0       0       0       0       0       0       0       
      +0       0       0       0       0       0       0       0       0       0       0       0       0       0       0       
      +0       0       0       0       0       0
  1411 ;;      Locals:         0       0       0       0       0       0       0       0       0       0       0       0       
      +0       0       0       0       0       0       0       0       0       0       0       0       0       0       0       
      +0       0       0       0       0       0
  1412 ;;      Temps:          0       0       0       0       0       0       0       0       0       0       0       0       
      +0       0       0       0       0       0       0       0       0       0       0       0       0       0       0       
      +0       0       0       0       0       0
  1413 ;;      Totals:         3       0       0       0       0       0       0       0       0       0       0       0       
      +0       0       0       0       0       0       0       0       0       0       0       0       0       0       0       
      +0       0       0       0       0       0
  1414 ;;Total ram usage:        3 bytes
  1415 ;; Hardware stack levels used:    1
  1416 ;; Hardware stack levels required when called:    4
  1417 ;; This function calls:
  1418 ;;		Nothing
  1419 ;; This function is called by:
  1420 ;;		_UART2_Initialize
  1421 ;; This function uses a non-reentrant model
  1422 ;;
  1423                           
  1424                           	psect	text6
  1425  002F5A                     __ptext6:
  1426                           	opt callstack 0
  1427  002F5A                     _UART2_SetTxInterruptHandler:
  1428                           	opt callstack 24
  1429                           
  1430                           ; BSR set to: 57
  1431                           ;mcc_generated_files/uart2.c: 325:     UART2_TxInterruptHandler = InterruptHandler;
  1432                           
  1433                           ; BSR set to: 57
  1434                           ;incstack = 0
  1435  002F5A  0060  F018  F03E   	movff	UART2_SetTxInterruptHandler@InterruptHandler,_UART2_TxInterruptHandler
  1436  002F60  0060  F01C  F03F   	movff	UART2_SetTxInterruptHandler@InterruptHandler+1,_UART2_TxInterruptHandler+1
  1437  002F66  0060  F020  F040   	movff	UART2_SetTxInterruptHandler@InterruptHandler+2,_UART2_TxInterruptHandler+2
  1438                           
  1439                           ; BSR set to: 57
  1440  002F6C  0012               	return		;funcret
  1441  002F6E                     __end_of_UART2_SetTxInterruptHandler:
  1442                           	opt callstack 0
  1443                           
  1444 ;; *************** function _UART2_SetRxInterruptHandler *****************
  1445 ;; Defined at:
  1446 ;;		line 320 in file "mcc_generated_files/uart2.c"
  1447 ;; Parameters:    Size  Location     Type
  1448 ;;  InterruptHan    3    5[COMRAM] PTR FTN()void 
  1449 ;;		 -> UART2_Receive_ISR(1), 
  1450 ;; Auto vars:     Size  Location     Type
  1451 ;;		None
  1452 ;; Return value:  Size  Location     Type
  1453 ;;                  1    wreg      void 
  1454 ;; Registers used:
  1455 ;;		wreg, status,2, status,0
  1456 ;; Tracked objects:
  1457 ;;		On entry : 3F/39
  1458 ;;		On exit  : 3F/39
  1459 ;;		Unchanged: 3E/0
  1460 ;; Data sizes:     COMRAM   BANK0   BANK1   BANK2   BANK3   BANK4   BANK5   BANK6   BANK7   BANK8   BANK9  BANK10  BANK1
      +1  BANK12  BANK13  BANK14  BANK15  BANK16  BANK17  BANK18  BANK19  BANK20  BANK21  BANK22  BANK23  BANK24  BANK25  BANK2
      +6  BANK27  BANK28  BANK29  BANK30  BANK31
  1461 ;;      Params:         3       0       0       0       0       0       0       0       0       0       0       0       
      +0       0       0       0       0       0       0       0       0       0       0       0       0       0       0       
      +0       0       0       0       0       0
  1462 ;;      Locals:         0       0       0       0       0       0       0       0       0       0       0       0       
      +0       0       0       0       0       0       0       0       0       0       0       0       0       0       0       
      +0       0       0       0       0       0
  1463 ;;      Temps:          0       0       0       0       0       0       0       0       0       0       0       0       
      +0       0       0       0       0       0       0       0       0       0       0       0       0       0       0       
      +0       0       0       0       0       0
  1464 ;;      Totals:         3       0       0       0       0       0       0       0       0       0       0       0       
      +0       0       0       0       0       0       0       0       0       0       0       0       0       0       0       
      +0       0       0       0       0       0
  1465 ;;Total ram usage:        3 bytes
  1466 ;; Hardware stack levels used:    1
  1467 ;; Hardware stack levels required when called:    4
  1468 ;; This function calls:
  1469 ;;		Nothing
  1470 ;; This function is called by:
  1471 ;;		_UART2_Initialize
  1472 ;; This function uses a non-reentrant model
  1473 ;;
  1474                           
  1475                           	psect	text7
  1476  002F6E                     __ptext7:
  1477                           	opt callstack 0
  1478  002F6E                     _UART2_SetRxInterruptHandler:
  1479                           	opt callstack 24
  1480                           
  1481                           ; BSR set to: 57
  1482                           ;mcc_generated_files/uart2.c: 321:     UART2_RxInterruptHandler = InterruptHandler;
  1483                           
  1484                           ; BSR set to: 57
  1485                           ;incstack = 0
  1486  002F6E  0060  F018  F041   	movff	UART2_SetRxInterruptHandler@InterruptHandler,_UART2_RxInterruptHandler
  1487  002F74  0060  F01C  F042   	movff	UART2_SetRxInterruptHandler@InterruptHandler+1,_UART2_RxInterruptHandler+1
  1488  002F7A  0060  F020  F043   	movff	UART2_SetRxInterruptHandler@InterruptHandler+2,_UART2_RxInterruptHandler+2
  1489                           
  1490                           ; BSR set to: 57
  1491  002F80  0012               	return		;funcret
  1492  002F82                     __end_of_UART2_SetRxInterruptHandler:
  1493                           	opt callstack 0
  1494                           
  1495 ;; *************** function _UART2_SetOverrunErrorHandler *****************
  1496 ;; Defined at:
  1497 ;;		line 310 in file "mcc_generated_files/uart2.c"
  1498 ;; Parameters:    Size  Location     Type
  1499 ;;  interruptHan    3    5[COMRAM] PTR FTN()void 
  1500 ;;		 -> UART2_DefaultOverrunErrorHandler(1), 
  1501 ;; Auto vars:     Size  Location     Type
  1502 ;;		None
  1503 ;; Return value:  Size  Location     Type
  1504 ;;                  1    wreg      void 
  1505 ;; Registers used:
  1506 ;;		wreg, status,2, status,0
  1507 ;; Tracked objects:
  1508 ;;		On entry : 3F/3D
  1509 ;;		On exit  : 3F/3D
  1510 ;;		Unchanged: 3E/0
  1511 ;; Data sizes:     COMRAM   BANK0   BANK1   BANK2   BANK3   BANK4   BANK5   BANK6   BANK7   BANK8   BANK9  BANK10  BANK1
      +1  BANK12  BANK13  BANK14  BANK15  BANK16  BANK17  BANK18  BANK19  BANK20  BANK21  BANK22  BANK23  BANK24  BANK25  BANK2
      +6  BANK27  BANK28  BANK29  BANK30  BANK31
  1512 ;;      Params:         3       0       0       0       0       0       0       0       0       0       0       0       
      +0       0       0       0       0       0       0       0       0       0       0       0       0       0       0       
      +0       0       0       0       0       0
  1513 ;;      Locals:         0       0       0       0       0       0       0       0       0       0       0       0       
      +0       0       0       0       0       0       0       0       0       0       0       0       0       0       0       
      +0       0       0       0       0       0
  1514 ;;      Temps:          0       0       0       0       0       0       0       0       0       0       0       0       
      +0       0       0       0       0       0       0       0       0       0       0       0       0       0       0       
      +0       0       0       0       0       0
  1515 ;;      Totals:         3       0       0       0       0       0       0       0       0       0       0       0       
      +0       0       0       0       0       0       0       0       0       0       0       0       0       0       0       
      +0       0       0       0       0       0
  1516 ;;Total ram usage:        3 bytes
  1517 ;; Hardware stack levels used:    1
  1518 ;; Hardware stack levels required when called:    4
  1519 ;; This function calls:
  1520 ;;		Nothing
  1521 ;; This function is called by:
  1522 ;;		_UART2_Initialize
  1523 ;; This function uses a non-reentrant model
  1524 ;;
  1525                           
  1526                           	psect	text8
  1527  002F82                     __ptext8:
  1528                           	opt callstack 0
  1529  002F82                     _UART2_SetOverrunErrorHandler:
  1530                           	opt callstack 24
  1531                           
  1532                           ; BSR set to: 61
  1533                           ;mcc_generated_files/uart2.c: 311:     UART2_OverrunErrorHandler = interruptHandler;
  1534                           
  1535                           ; BSR set to: 57
  1536                           ;incstack = 0
  1537  002F82  0060  F018  F0E5   	movff	UART2_SetOverrunErrorHandler@interruptHandler,_UART2_OverrunErrorHandler
  1538  002F88  0060  F01C  F0E6   	movff	UART2_SetOverrunErrorHandler@interruptHandler+1,_UART2_OverrunErrorHandler+1
  1539  002F8E  0060  F020  F0E7   	movff	UART2_SetOverrunErrorHandler@interruptHandler+2,_UART2_OverrunErrorHandler+2
  1540                           
  1541                           ; BSR set to: 61
  1542  002F94  0012               	return		;funcret
  1543  002F96                     __end_of_UART2_SetOverrunErrorHandler:
  1544                           	opt callstack 0
  1545                           
  1546 ;; *************** function _UART2_SetFramingErrorHandler *****************
  1547 ;; Defined at:
  1548 ;;		line 306 in file "mcc_generated_files/uart2.c"
  1549 ;; Parameters:    Size  Location     Type
  1550 ;;  interruptHan    3    5[COMRAM] PTR FTN()void 
  1551 ;;		 -> UART2_DefaultFramingErrorHandler(1), 
  1552 ;; Auto vars:     Size  Location     Type
  1553 ;;		None
  1554 ;; Return value:  Size  Location     Type
  1555 ;;                  1    wreg      void 
  1556 ;; Registers used:
  1557 ;;		wreg, status,2, status,0
  1558 ;; Tracked objects:
  1559 ;;		On entry : 3F/3D
  1560 ;;		On exit  : 3F/3D
  1561 ;;		Unchanged: 3E/0
  1562 ;; Data sizes:     COMRAM   BANK0   BANK1   BANK2   BANK3   BANK4   BANK5   BANK6   BANK7   BANK8   BANK9  BANK10  BANK1
      +1  BANK12  BANK13  BANK14  BANK15  BANK16  BANK17  BANK18  BANK19  BANK20  BANK21  BANK22  BANK23  BANK24  BANK25  BANK2
      +6  BANK27  BANK28  BANK29  BANK30  BANK31
  1563 ;;      Params:         3       0       0       0       0       0       0       0       0       0       0       0       
      +0       0       0       0       0       0       0       0       0       0       0       0       0       0       0       
      +0       0       0       0       0       0
  1564 ;;      Locals:         0       0       0       0       0       0       0       0       0       0       0       0       
      +0       0       0       0       0       0       0       0       0       0       0       0       0       0       0       
      +0       0       0       0       0       0
  1565 ;;      Temps:          0       0       0       0       0       0       0       0       0       0       0       0       
      +0       0       0       0       0       0       0       0       0       0       0       0       0       0       0       
      +0       0       0       0       0       0
  1566 ;;      Totals:         3       0       0       0       0       0       0       0       0       0       0       0       
      +0       0       0       0       0       0       0       0       0       0       0       0       0       0       0       
      +0       0       0       0       0       0
  1567 ;;Total ram usage:        3 bytes
  1568 ;; Hardware stack levels used:    1
  1569 ;; Hardware stack levels required when called:    4
  1570 ;; This function calls:
  1571 ;;		Nothing
  1572 ;; This function is called by:
  1573 ;;		_UART2_Initialize
  1574 ;; This function uses a non-reentrant model
  1575 ;;
  1576                           
  1577                           	psect	text9
  1578  002F96                     __ptext9:
  1579                           	opt callstack 0
  1580  002F96                     _UART2_SetFramingErrorHandler:
  1581                           	opt callstack 24
  1582                           
  1583                           ; BSR set to: 61
  1584                           ;mcc_generated_files/uart2.c: 307:     UART2_FramingErrorHandler = interruptHandler;
  1585                           
  1586                           ; BSR set to: 61
  1587                           ;incstack = 0
  1588  002F96  0060  F018  F0E8   	movff	UART2_SetFramingErrorHandler@interruptHandler,_UART2_FramingErrorHandler
  1589  002F9C  0060  F01C  F0E9   	movff	UART2_SetFramingErrorHandler@interruptHandler+1,_UART2_FramingErrorHandler+1
  1590  002FA2  0060  F020  F0EA   	movff	UART2_SetFramingErrorHandler@interruptHandler+2,_UART2_FramingErrorHandler+2
  1591                           
  1592                           ; BSR set to: 61
  1593  002FA8  0012               	return		;funcret
  1594  002FAA                     __end_of_UART2_SetFramingErrorHandler:
  1595                           	opt callstack 0
  1596                           
  1597 ;; *************** function _UART2_SetErrorHandler *****************
  1598 ;; Defined at:
  1599 ;;		line 314 in file "mcc_generated_files/uart2.c"
  1600 ;; Parameters:    Size  Location     Type
  1601 ;;  interruptHan    3    5[COMRAM] PTR FTN()void 
  1602 ;;		 -> UART2_DefaultErrorHandler(1), 
  1603 ;; Auto vars:     Size  Location     Type
  1604 ;;		None
  1605 ;; Return value:  Size  Location     Type
  1606 ;;                  1    wreg      void 
  1607 ;; Registers used:
  1608 ;;		wreg, status,2, status,0
  1609 ;; Tracked objects:
  1610 ;;		On entry : 3F/3D
  1611 ;;		On exit  : 3F/3D
  1612 ;;		Unchanged: 3E/0
  1613 ;; Data sizes:     COMRAM   BANK0   BANK1   BANK2   BANK3   BANK4   BANK5   BANK6   BANK7   BANK8   BANK9  BANK10  BANK1
      +1  BANK12  BANK13  BANK14  BANK15  BANK16  BANK17  BANK18  BANK19  BANK20  BANK21  BANK22  BANK23  BANK24  BANK25  BANK2
      +6  BANK27  BANK28  BANK29  BANK30  BANK31
  1614 ;;      Params:         3       0       0       0       0       0       0       0       0       0       0       0       
      +0       0       0       0       0       0       0       0       0       0       0       0       0       0       0       
      +0       0       0       0       0       0
  1615 ;;      Locals:         0       0       0       0       0       0       0       0       0       0       0       0       
      +0       0       0       0       0       0       0       0       0       0       0       0       0       0       0       
      +0       0       0       0       0       0
  1616 ;;      Temps:          0       0       0       0       0       0       0       0       0       0       0       0       
      +0       0       0       0       0       0       0       0       0       0       0       0       0       0       0       
      +0       0       0       0       0       0
  1617 ;;      Totals:         3       0       0       0       0       0       0       0       0       0       0       0       
      +0       0       0       0       0       0       0       0       0       0       0       0       0       0       0       
      +0       0       0       0       0       0
  1618 ;;Total ram usage:        3 bytes
  1619 ;; Hardware stack levels used:    1
  1620 ;; Hardware stack levels required when called:    4
  1621 ;; This function calls:
  1622 ;;		Nothing
  1623 ;; This function is called by:
  1624 ;;		_UART2_Initialize
  1625 ;; This function uses a non-reentrant model
  1626 ;;
  1627                           
  1628                           	psect	text10
  1629  002FAA                     __ptext10:
  1630                           	opt callstack 0
  1631  002FAA                     _UART2_SetErrorHandler:
  1632                           	opt callstack 24
  1633                           
  1634                           ; BSR set to: 61
  1635                           ;mcc_generated_files/uart2.c: 315:     UART2_ErrorHandler = interruptHandler;
  1636                           
  1637                           ; BSR set to: 61
  1638                           ;incstack = 0
  1639  002FAA  0060  F018  F0E2   	movff	UART2_SetErrorHandler@interruptHandler,_UART2_ErrorHandler
  1640  002FB0  0060  F01C  F0E3   	movff	UART2_SetErrorHandler@interruptHandler+1,_UART2_ErrorHandler+1
  1641  002FB6  0060  F020  F0E4   	movff	UART2_SetErrorHandler@interruptHandler+2,_UART2_ErrorHandler+2
  1642                           
  1643                           ; BSR set to: 61
  1644  002FBC  0012               	return		;funcret
  1645  002FBE                     __end_of_UART2_SetErrorHandler:
  1646                           	opt callstack 0
  1647                           
  1648 ;; *************** function _UART1_Initialize *****************
  1649 ;; Defined at:
  1650 ;;		line 87 in file "mcc_generated_files/uart1.c"
  1651 ;; Parameters:    Size  Location     Type
  1652 ;;		None
  1653 ;; Auto vars:     Size  Location     Type
  1654 ;;		None
  1655 ;; Return value:  Size  Location     Type
  1656 ;;                  1    wreg      void 
  1657 ;; Registers used:
  1658 ;;		wreg, status,2, status,0, cstack
  1659 ;; Tracked objects:
  1660 ;;		On entry : 3F/39
  1661 ;;		On exit  : 3F/39
  1662 ;;		Unchanged: 0/0
  1663 ;; Data sizes:     COMRAM   BANK0   BANK1   BANK2   BANK3   BANK4   BANK5   BANK6   BANK7   BANK8   BANK9  BANK10  BANK1
      +1  BANK12  BANK13  BANK14  BANK15  BANK16  BANK17  BANK18  BANK19  BANK20  BANK21  BANK22  BANK23  BANK24  BANK25  BANK2
      +6  BANK27  BANK28  BANK29  BANK30  BANK31
  1664 ;;      Params:         0       0       0       0       0       0       0       0       0       0       0       0       
      +0       0       0       0       0       0       0       0       0       0       0       0       0       0       0       
      +0       0       0       0       0       0
  1665 ;;      Locals:         0       0       0       0       0       0       0       0       0       0       0       0       
      +0       0       0       0       0       0       0       0       0       0       0       0       0       0       0       
      +0       0       0       0       0       0
  1666 ;;      Temps:          0       0       0       0       0       0       0       0       0       0       0       0       
      +0       0       0       0       0       0       0       0       0       0       0       0       0       0       0       
      +0       0       0       0       0       0
  1667 ;;      Totals:         0       0       0       0       0       0       0       0       0       0       0       0       
      +0       0       0       0       0       0       0       0       0       0       0       0       0       0       0       
      +0       0       0       0       0       0
  1668 ;;Total ram usage:        0 bytes
  1669 ;; Hardware stack levels used:    1
  1670 ;; Hardware stack levels required when called:    5
  1671 ;; This function calls:
  1672 ;;		_UART1_SetErrorHandler
  1673 ;;		_UART1_SetFramingErrorHandler
  1674 ;;		_UART1_SetOverrunErrorHandler
  1675 ;;		_UART1_SetRxInterruptHandler
  1676 ;;		_UART1_SetTxInterruptHandler
  1677 ;; This function is called by:
  1678 ;;		_SYSTEM_Initialize
  1679 ;; This function uses a non-reentrant model
  1680 ;;
  1681                           
  1682                           	psect	text11
  1683  002568                     __ptext11:
  1684                           	opt callstack 0
  1685  002568                     _UART1_Initialize:
  1686                           	opt callstack 24
  1687                           
  1688                           ; BSR set to: 57
  1689                           ;mcc_generated_files/uart1.c: 90:     PIE3bits.U1RXIE = 0;
  1690                           
  1691                           ; BSR set to: 61
  1692                           ;incstack = 0
  1693  002568  9793               	bcf	147,3,b	;volatile
  1694                           
  1695                           ; BSR set to: 57
  1696                           ;mcc_generated_files/uart1.c: 91:     UART1_SetRxInterruptHandler(UART1_Receive_ISR);
  1697  00256A  0E60               	movlw	low _UART1_Receive_ISR
  1698  00256C  6E06               	movwf	UART1_SetRxInterruptHandler@InterruptHandler,c
  1699  00256E  0E27               	movlw	high _UART1_Receive_ISR
  1700  002570  6E07               	movwf	UART1_SetRxInterruptHandler@InterruptHandler+1,c
  1701  002572  0E00               	movlw	low (_UART1_Receive_ISR shr (0+16))
  1702  002574  6E08               	movwf	UART1_SetRxInterruptHandler@InterruptHandler+2,c
  1703  002576  ECE9  F017         	call	_UART1_SetRxInterruptHandler	;wreg free
  1704                           
  1705                           ; BSR set to: 57
  1706                           ;mcc_generated_files/uart1.c: 92:     PIE3bits.U1TXIE = 0;
  1707  00257A  9993               	bcf	147,4,b	;volatile
  1708                           
  1709                           ;mcc_generated_files/uart1.c: 93:     UART1_SetTxInterruptHandler(UART1_Transmit_ISR);
  1710  00257C  0EE2               	movlw	low _UART1_Transmit_ISR
  1711  00257E  6E06               	movwf	UART1_SetTxInterruptHandler@InterruptHandler,c
  1712  002580  0E2C               	movlw	high _UART1_Transmit_ISR
  1713  002582  6E07               	movwf	UART1_SetTxInterruptHandler@InterruptHandler+1,c
  1714  002584  0E00               	movlw	low (_UART1_Transmit_ISR shr (0+16))
  1715  002586  6E08               	movwf	UART1_SetTxInterruptHandler@InterruptHandler+2,c
  1716  002588  ECDF  F017         	call	_UART1_SetTxInterruptHandler	;wreg free
  1717                           
  1718                           ; BSR set to: 57
  1719                           ;mcc_generated_files/uart1.c: 98:     U1P1L = 0x00;
  1720  00258C  0E00               	movlw	0
  1721  00258E  013D               	movlb	61	; () banked
  1722  002590  6FEC               	movwf	236,b	;volatile
  1723                           
  1724                           ; BSR set to: 61
  1725                           ;mcc_generated_files/uart1.c: 101:     U1P1H = 0x00;
  1726  002592  0E00               	movlw	0
  1727  002594  6FED               	movwf	237,b	;volatile
  1728                           
  1729                           ; BSR set to: 61
  1730                           ;mcc_generated_files/uart1.c: 104:     U1P2L = 0x00;
  1731  002596  0E00               	movlw	0
  1732  002598  6FEE               	movwf	238,b	;volatile
  1733                           
  1734                           ; BSR set to: 61
  1735                           ;mcc_generated_files/uart1.c: 107:     U1P2H = 0x00;
  1736  00259A  0E00               	movlw	0
  1737  00259C  6FEF               	movwf	239,b	;volatile
  1738                           
  1739                           ; BSR set to: 61
  1740                           ;mcc_generated_files/uart1.c: 110:     U1P3L = 0x00;
  1741  00259E  0E00               	movlw	0
  1742  0025A0  6FF0               	movwf	240,b	;volatile
  1743                           
  1744                           ; BSR set to: 61
  1745                           ;mcc_generated_files/uart1.c: 113:     U1P3H = 0x00;
  1746  0025A2  0E00               	movlw	0
  1747  0025A4  6FF1               	movwf	241,b	;volatile
  1748                           
  1749                           ; BSR set to: 61
  1750                           ;mcc_generated_files/uart1.c: 116:     U1CON0 = 0x90;
  1751  0025A6  0E90               	movlw	144
  1752  0025A8  6FF2               	movwf	242,b	;volatile
  1753                           
  1754                           ; BSR set to: 61
  1755                           ;mcc_generated_files/uart1.c: 119:     U1CON1 = 0x80;
  1756  0025AA  0E80               	movlw	128
  1757  0025AC  6FF3               	movwf	243,b	;volatile
  1758                           
  1759                           ; BSR set to: 61
  1760                           ;mcc_generated_files/uart1.c: 122:     U1CON2 = 0x00;
  1761  0025AE  0E00               	movlw	0
  1762  0025B0  6FF4               	movwf	244,b	;volatile
  1763                           
  1764                           ; BSR set to: 61
  1765                           ;mcc_generated_files/uart1.c: 125:     U1BRGL = 0x40;
  1766  0025B2  0E40               	movlw	64
  1767  0025B4  6FF5               	movwf	245,b	;volatile
  1768                           
  1769                           ; BSR set to: 61
  1770                           ;mcc_generated_files/uart1.c: 128:     U1BRGH = 0x03;
  1771  0025B6  0E03               	movlw	3
  1772  0025B8  6FF6               	movwf	246,b	;volatile
  1773                           
  1774                           ; BSR set to: 61
  1775                           ;mcc_generated_files/uart1.c: 131:     U1FIFO = 0x00;
  1776  0025BA  0E00               	movlw	0
  1777  0025BC  6FF7               	movwf	247,b	;volatile
  1778                           
  1779                           ; BSR set to: 61
  1780                           ;mcc_generated_files/uart1.c: 134:     U1UIR = 0x00;
  1781  0025BE  0E00               	movlw	0
  1782  0025C0  6FF8               	movwf	248,b	;volatile
  1783                           
  1784                           ; BSR set to: 61
  1785                           ;mcc_generated_files/uart1.c: 137:     U1ERRIR = 0x00;
  1786  0025C2  0E00               	movlw	0
  1787  0025C4  6FF9               	movwf	249,b	;volatile
  1788                           
  1789                           ; BSR set to: 61
  1790                           ;mcc_generated_files/uart1.c: 140:     U1ERRIE = 0x00;
  1791  0025C6  0E00               	movlw	0
  1792  0025C8  6FFA               	movwf	250,b	;volatile
  1793                           
  1794                           ; BSR set to: 61
  1795                           ;mcc_generated_files/uart1.c: 143:     UART1_SetFramingErrorHandler(UART1_DefaultFraming
      +                          ErrorHandler);
  1796  0025CA  0EA8               	movlw	low _UART1_DefaultFramingErrorHandler
  1797  0025CC  6E06               	movwf	UART1_SetFramingErrorHandler@interruptHandler,c
  1798  0025CE  0E30               	movlw	high _UART1_DefaultFramingErrorHandler
  1799  0025D0  6E07               	movwf	UART1_SetFramingErrorHandler@interruptHandler+1,c
  1800  0025D2  0E00               	movlw	low (_UART1_DefaultFramingErrorHandler shr (0+16))
  1801  0025D4  6E08               	movwf	UART1_SetFramingErrorHandler@interruptHandler+2,c
  1802  0025D6  ECFD  F017         	call	_UART1_SetFramingErrorHandler	;wreg free
  1803                           
  1804                           ; BSR set to: 61
  1805                           ;mcc_generated_files/uart1.c: 144:     UART1_SetOverrunErrorHandler(UART1_DefaultOverrun
      +                          ErrorHandler);
  1806  0025DA  0EA6               	movlw	low _UART1_DefaultOverrunErrorHandler
  1807  0025DC  6E06               	movwf	UART1_SetOverrunErrorHandler@interruptHandler,c
  1808  0025DE  0E30               	movlw	high _UART1_DefaultOverrunErrorHandler
  1809  0025E0  6E07               	movwf	UART1_SetOverrunErrorHandler@interruptHandler+1,c
  1810  0025E2  0E00               	movlw	low (_UART1_DefaultOverrunErrorHandler shr (0+16))
  1811  0025E4  6E08               	movwf	UART1_SetOverrunErrorHandler@interruptHandler+2,c
  1812  0025E6  ECF3  F017         	call	_UART1_SetOverrunErrorHandler	;wreg free
  1813                           
  1814                           ; BSR set to: 61
  1815                           ;mcc_generated_files/uart1.c: 145:     UART1_SetErrorHandler(UART1_DefaultErrorHandler);
  1816  0025EA  0E8E               	movlw	low _UART1_DefaultErrorHandler
  1817  0025EC  6E06               	movwf	UART1_SetErrorHandler@interruptHandler,c
  1818  0025EE  0E30               	movlw	high _UART1_DefaultErrorHandler
  1819  0025F0  6E07               	movwf	UART1_SetErrorHandler@interruptHandler+1,c
  1820  0025F2  0E00               	movlw	low (_UART1_DefaultErrorHandler shr (0+16))
  1821  0025F4  6E08               	movwf	UART1_SetErrorHandler@interruptHandler+2,c
  1822  0025F6  EC07  F018         	call	_UART1_SetErrorHandler	;wreg free
  1823                           
  1824                           ;mcc_generated_files/uart1.c: 147:     uart1RxLastError.status = 0;
  1825  0025FA  0E00               	movlw	0
  1826  0025FC  6E53               	movwf	_uart1RxLastError,c	;volatile
  1827                           
  1828                           ;mcc_generated_files/uart1.c: 150:     uart1TxHead = 0;
  1829  0025FE  0E00               	movlw	0
  1830  002600  6E59               	movwf	_uart1TxHead,c	;volatile
  1831                           
  1832                           ;mcc_generated_files/uart1.c: 151:     uart1TxTail = 0;
  1833  002602  0E00               	movlw	0
  1834  002604  6E58               	movwf	_uart1TxTail,c	;volatile
  1835                           
  1836                           ;mcc_generated_files/uart1.c: 152:     uart1TxBufferRemaining = sizeof(uart1TxBuffer);
  1837  002606  0E08               	movlw	8
  1838  002608  6E57               	movwf	_uart1TxBufferRemaining,c	;volatile
  1839                           
  1840                           ;mcc_generated_files/uart1.c: 153:     uart1RxHead = 0;
  1841  00260A  0E00               	movlw	0
  1842  00260C  6E56               	movwf	_uart1RxHead,c	;volatile
  1843                           
  1844                           ;mcc_generated_files/uart1.c: 154:     uart1RxTail = 0;
  1845  00260E  0E00               	movlw	0
  1846  002610  6E55               	movwf	_uart1RxTail,c	;volatile
  1847                           
  1848                           ;mcc_generated_files/uart1.c: 155:     uart1RxCount = 0;
  1849  002612  0E00               	movlw	0
  1850  002614  6E54               	movwf	_uart1RxCount,c	;volatile
  1851                           
  1852                           ; BSR set to: 61
  1853                           ;mcc_generated_files/uart1.c: 158:     PIE3bits.U1RXIE = 1;
  1854  002616  0139               	movlb	57	; () banked
  1855  002618  8793               	bsf	147,3,b	;volatile
  1856                           
  1857                           ; BSR set to: 57
  1858  00261A  0012               	return		;funcret
  1859  00261C                     __end_of_UART1_Initialize:
  1860                           	opt callstack 0
  1861                           
  1862 ;; *************** function _UART1_SetTxInterruptHandler *****************
  1863 ;; Defined at:
  1864 ;;		line 323 in file "mcc_generated_files/uart1.c"
  1865 ;; Parameters:    Size  Location     Type
  1866 ;;  InterruptHan    3    5[COMRAM] PTR FTN()void 
  1867 ;;		 -> UART1_Transmit_ISR(1), 
  1868 ;; Auto vars:     Size  Location     Type
  1869 ;;		None
  1870 ;; Return value:  Size  Location     Type
  1871 ;;                  1    wreg      void 
  1872 ;; Registers used:
  1873 ;;		wreg, status,2, status,0
  1874 ;; Tracked objects:
  1875 ;;		On entry : 3F/39
  1876 ;;		On exit  : 3F/39
  1877 ;;		Unchanged: 3E/0
  1878 ;; Data sizes:     COMRAM   BANK0   BANK1   BANK2   BANK3   BANK4   BANK5   BANK6   BANK7   BANK8   BANK9  BANK10  BANK1
      +1  BANK12  BANK13  BANK14  BANK15  BANK16  BANK17  BANK18  BANK19  BANK20  BANK21  BANK22  BANK23  BANK24  BANK25  BANK2
      +6  BANK27  BANK28  BANK29  BANK30  BANK31
  1879 ;;      Params:         3       0       0       0       0       0       0       0       0       0       0       0       
      +0       0       0       0       0       0       0       0       0       0       0       0       0       0       0       
      +0       0       0       0       0       0
  1880 ;;      Locals:         0       0       0       0       0       0       0       0       0       0       0       0       
      +0       0       0       0       0       0       0       0       0       0       0       0       0       0       0       
      +0       0       0       0       0       0
  1881 ;;      Temps:          0       0       0       0       0       0       0       0       0       0       0       0       
      +0       0       0       0       0       0       0       0       0       0       0       0       0       0       0       
      +0       0       0       0       0       0
  1882 ;;      Totals:         3       0       0       0       0       0       0       0       0       0       0       0       
      +0       0       0       0       0       0       0       0       0       0       0       0       0       0       0       
      +0       0       0       0       0       0
  1883 ;;Total ram usage:        3 bytes
  1884 ;; Hardware stack levels used:    1
  1885 ;; Hardware stack levels required when called:    4
  1886 ;; This function calls:
  1887 ;;		Nothing
  1888 ;; This function is called by:
  1889 ;;		_UART1_Initialize
  1890 ;; This function uses a non-reentrant model
  1891 ;;
  1892                           
  1893                           	psect	text12
  1894  002FBE                     __ptext12:
  1895                           	opt callstack 0
  1896  002FBE                     _UART1_SetTxInterruptHandler:
  1897                           	opt callstack 24
  1898                           
  1899                           ; BSR set to: 57
  1900                           ;mcc_generated_files/uart1.c: 324:     UART1_TxInterruptHandler = InterruptHandler;
  1901                           
  1902                           ; BSR set to: 57
  1903                           ;incstack = 0
  1904  002FBE  0060  F018  F038   	movff	UART1_SetTxInterruptHandler@InterruptHandler,_UART1_TxInterruptHandler
  1905  002FC4  0060  F01C  F039   	movff	UART1_SetTxInterruptHandler@InterruptHandler+1,_UART1_TxInterruptHandler+1
  1906  002FCA  0060  F020  F03A   	movff	UART1_SetTxInterruptHandler@InterruptHandler+2,_UART1_TxInterruptHandler+2
  1907                           
  1908                           ; BSR set to: 57
  1909  002FD0  0012               	return		;funcret
  1910  002FD2                     __end_of_UART1_SetTxInterruptHandler:
  1911                           	opt callstack 0
  1912                           
  1913 ;; *************** function _UART1_SetRxInterruptHandler *****************
  1914 ;; Defined at:
  1915 ;;		line 319 in file "mcc_generated_files/uart1.c"
  1916 ;; Parameters:    Size  Location     Type
  1917 ;;  InterruptHan    3    5[COMRAM] PTR FTN()void 
  1918 ;;		 -> UART1_Receive_ISR(1), 
  1919 ;; Auto vars:     Size  Location     Type
  1920 ;;		None
  1921 ;; Return value:  Size  Location     Type
  1922 ;;                  1    wreg      void 
  1923 ;; Registers used:
  1924 ;;		wreg, status,2, status,0
  1925 ;; Tracked objects:
  1926 ;;		On entry : 3F/39
  1927 ;;		On exit  : 3F/39
  1928 ;;		Unchanged: 3E/0
  1929 ;; Data sizes:     COMRAM   BANK0   BANK1   BANK2   BANK3   BANK4   BANK5   BANK6   BANK7   BANK8   BANK9  BANK10  BANK1
      +1  BANK12  BANK13  BANK14  BANK15  BANK16  BANK17  BANK18  BANK19  BANK20  BANK21  BANK22  BANK23  BANK24  BANK25  BANK2
      +6  BANK27  BANK28  BANK29  BANK30  BANK31
  1930 ;;      Params:         3       0       0       0       0       0       0       0       0       0       0       0       
      +0       0       0       0       0       0       0       0       0       0       0       0       0       0       0       
      +0       0       0       0       0       0
  1931 ;;      Locals:         0       0       0       0       0       0       0       0       0       0       0       0       
      +0       0       0       0       0       0       0       0       0       0       0       0       0       0       0       
      +0       0       0       0       0       0
  1932 ;;      Temps:          0       0       0       0       0       0       0       0       0       0       0       0       
      +0       0       0       0       0       0       0       0       0       0       0       0       0       0       0       
      +0       0       0       0       0       0
  1933 ;;      Totals:         3       0       0       0       0       0       0       0       0       0       0       0       
      +0       0       0       0       0       0       0       0       0       0       0       0       0       0       0       
      +0       0       0       0       0       0
  1934 ;;Total ram usage:        3 bytes
  1935 ;; Hardware stack levels used:    1
  1936 ;; Hardware stack levels required when called:    4
  1937 ;; This function calls:
  1938 ;;		Nothing
  1939 ;; This function is called by:
  1940 ;;		_UART1_Initialize
  1941 ;; This function uses a non-reentrant model
  1942 ;;
  1943                           
  1944                           	psect	text13
  1945  002FD2                     __ptext13:
  1946                           	opt callstack 0
  1947  002FD2                     _UART1_SetRxInterruptHandler:
  1948                           	opt callstack 24
  1949                           
  1950                           ; BSR set to: 57
  1951                           ;mcc_generated_files/uart1.c: 320:     UART1_RxInterruptHandler = InterruptHandler;
  1952                           
  1953                           ; BSR set to: 57
  1954                           ;incstack = 0
  1955  002FD2  0060  F018  F03B   	movff	UART1_SetRxInterruptHandler@InterruptHandler,_UART1_RxInterruptHandler
  1956  002FD8  0060  F01C  F03C   	movff	UART1_SetRxInterruptHandler@InterruptHandler+1,_UART1_RxInterruptHandler+1
  1957  002FDE  0060  F020  F03D   	movff	UART1_SetRxInterruptHandler@InterruptHandler+2,_UART1_RxInterruptHandler+2
  1958                           
  1959                           ; BSR set to: 57
  1960  002FE4  0012               	return		;funcret
  1961  002FE6                     __end_of_UART1_SetRxInterruptHandler:
  1962                           	opt callstack 0
  1963                           
  1964 ;; *************** function _UART1_SetOverrunErrorHandler *****************
  1965 ;; Defined at:
  1966 ;;		line 309 in file "mcc_generated_files/uart1.c"
  1967 ;; Parameters:    Size  Location     Type
  1968 ;;  interruptHan    3    5[COMRAM] PTR FTN()void 
  1969 ;;		 -> UART1_DefaultOverrunErrorHandler(1), 
  1970 ;; Auto vars:     Size  Location     Type
  1971 ;;		None
  1972 ;; Return value:  Size  Location     Type
  1973 ;;                  1    wreg      void 
  1974 ;; Registers used:
  1975 ;;		wreg, status,2, status,0
  1976 ;; Tracked objects:
  1977 ;;		On entry : 3F/3D
  1978 ;;		On exit  : 3F/3D
  1979 ;;		Unchanged: 3E/0
  1980 ;; Data sizes:     COMRAM   BANK0   BANK1   BANK2   BANK3   BANK4   BANK5   BANK6   BANK7   BANK8   BANK9  BANK10  BANK1
      +1  BANK12  BANK13  BANK14  BANK15  BANK16  BANK17  BANK18  BANK19  BANK20  BANK21  BANK22  BANK23  BANK24  BANK25  BANK2
      +6  BANK27  BANK28  BANK29  BANK30  BANK31
  1981 ;;      Params:         3       0       0       0       0       0       0       0       0       0       0       0       
      +0       0       0       0       0       0       0       0       0       0       0       0       0       0       0       
      +0       0       0       0       0       0
  1982 ;;      Locals:         0       0       0       0       0       0       0       0       0       0       0       0       
      +0       0       0       0       0       0       0       0       0       0       0       0       0       0       0       
      +0       0       0       0       0       0
  1983 ;;      Temps:          0       0       0       0       0       0       0       0       0       0       0       0       
      +0       0       0       0       0       0       0       0       0       0       0       0       0       0       0       
      +0       0       0       0       0       0
  1984 ;;      Totals:         3       0       0       0       0       0       0       0       0       0       0       0       
      +0       0       0       0       0       0       0       0       0       0       0       0       0       0       0       
      +0       0       0       0       0       0
  1985 ;;Total ram usage:        3 bytes
  1986 ;; Hardware stack levels used:    1
  1987 ;; Hardware stack levels required when called:    4
  1988 ;; This function calls:
  1989 ;;		Nothing
  1990 ;; This function is called by:
  1991 ;;		_UART1_Initialize
  1992 ;; This function uses a non-reentrant model
  1993 ;;
  1994                           
  1995                           	psect	text14
  1996  002FE6                     __ptext14:
  1997                           	opt callstack 0
  1998  002FE6                     _UART1_SetOverrunErrorHandler:
  1999                           	opt callstack 24
  2000                           
  2001                           ; BSR set to: 61
  2002                           ;mcc_generated_files/uart1.c: 310:     UART1_OverrunErrorHandler = interruptHandler;
  2003                           
  2004                           ; BSR set to: 57
  2005                           ;incstack = 0
  2006  002FE6  0060  F018  F0EE   	movff	UART1_SetOverrunErrorHandler@interruptHandler,_UART1_OverrunErrorHandler
  2007  002FEC  0060  F01C  F0EF   	movff	UART1_SetOverrunErrorHandler@interruptHandler+1,_UART1_OverrunErrorHandler+1
  2008  002FF2  0060  F020  F0F0   	movff	UART1_SetOverrunErrorHandler@interruptHandler+2,_UART1_OverrunErrorHandler+2
  2009                           
  2010                           ; BSR set to: 61
  2011  002FF8  0012               	return		;funcret
  2012  002FFA                     __end_of_UART1_SetOverrunErrorHandler:
  2013                           	opt callstack 0
  2014                           
  2015 ;; *************** function _UART1_SetFramingErrorHandler *****************
  2016 ;; Defined at:
  2017 ;;		line 305 in file "mcc_generated_files/uart1.c"
  2018 ;; Parameters:    Size  Location     Type
  2019 ;;  interruptHan    3    5[COMRAM] PTR FTN()void 
  2020 ;;		 -> UART1_DefaultFramingErrorHandler(1), 
  2021 ;; Auto vars:     Size  Location     Type
  2022 ;;		None
  2023 ;; Return value:  Size  Location     Type
  2024 ;;                  1    wreg      void 
  2025 ;; Registers used:
  2026 ;;		wreg, status,2, status,0
  2027 ;; Tracked objects:
  2028 ;;		On entry : 3F/3D
  2029 ;;		On exit  : 3F/3D
  2030 ;;		Unchanged: 3E/0
  2031 ;; Data sizes:     COMRAM   BANK0   BANK1   BANK2   BANK3   BANK4   BANK5   BANK6   BANK7   BANK8   BANK9  BANK10  BANK1
      +1  BANK12  BANK13  BANK14  BANK15  BANK16  BANK17  BANK18  BANK19  BANK20  BANK21  BANK22  BANK23  BANK24  BANK25  BANK2
      +6  BANK27  BANK28  BANK29  BANK30  BANK31
  2032 ;;      Params:         3       0       0       0       0       0       0       0       0       0       0       0       
      +0       0       0       0       0       0       0       0       0       0       0       0       0       0       0       
      +0       0       0       0       0       0
  2033 ;;      Locals:         0       0       0       0       0       0       0       0       0       0       0       0       
      +0       0       0       0       0       0       0       0       0       0       0       0       0       0       0       
      +0       0       0       0       0       0
  2034 ;;      Temps:          0       0       0       0       0       0       0       0       0       0       0       0       
      +0       0       0       0       0       0       0       0       0       0       0       0       0       0       0       
      +0       0       0       0       0       0
  2035 ;;      Totals:         3       0       0       0       0       0       0       0       0       0       0       0       
      +0       0       0       0       0       0       0       0       0       0       0       0       0       0       0       
      +0       0       0       0       0       0
  2036 ;;Total ram usage:        3 bytes
  2037 ;; Hardware stack levels used:    1
  2038 ;; Hardware stack levels required when called:    4
  2039 ;; This function calls:
  2040 ;;		Nothing
  2041 ;; This function is called by:
  2042 ;;		_UART1_Initialize
  2043 ;; This function uses a non-reentrant model
  2044 ;;
  2045                           
  2046                           	psect	text15
  2047  002FFA                     __ptext15:
  2048                           	opt callstack 0
  2049  002FFA                     _UART1_SetFramingErrorHandler:
  2050                           	opt callstack 24
  2051                           
  2052                           ; BSR set to: 61
  2053                           ;mcc_generated_files/uart1.c: 306:     UART1_FramingErrorHandler = interruptHandler;
  2054                           
  2055                           ; BSR set to: 61
  2056                           ;incstack = 0
  2057  002FFA  0060  F018  F0F1   	movff	UART1_SetFramingErrorHandler@interruptHandler,_UART1_FramingErrorHandler
  2058  003000  0060  F01C  F0F2   	movff	UART1_SetFramingErrorHandler@interruptHandler+1,_UART1_FramingErrorHandler+1
  2059  003006  0060  F020  F0F3   	movff	UART1_SetFramingErrorHandler@interruptHandler+2,_UART1_FramingErrorHandler+2
  2060                           
  2061                           ; BSR set to: 61
  2062  00300C  0012               	return		;funcret
  2063  00300E                     __end_of_UART1_SetFramingErrorHandler:
  2064                           	opt callstack 0
  2065                           
  2066 ;; *************** function _UART1_SetErrorHandler *****************
  2067 ;; Defined at:
  2068 ;;		line 313 in file "mcc_generated_files/uart1.c"
  2069 ;; Parameters:    Size  Location     Type
  2070 ;;  interruptHan    3    5[COMRAM] PTR FTN()void 
  2071 ;;		 -> UART1_DefaultErrorHandler(1), 
  2072 ;; Auto vars:     Size  Location     Type
  2073 ;;		None
  2074 ;; Return value:  Size  Location     Type
  2075 ;;                  1    wreg      void 
  2076 ;; Registers used:
  2077 ;;		wreg, status,2, status,0
  2078 ;; Tracked objects:
  2079 ;;		On entry : 3F/3D
  2080 ;;		On exit  : 3F/3D
  2081 ;;		Unchanged: 3E/0
  2082 ;; Data sizes:     COMRAM   BANK0   BANK1   BANK2   BANK3   BANK4   BANK5   BANK6   BANK7   BANK8   BANK9  BANK10  BANK1
      +1  BANK12  BANK13  BANK14  BANK15  BANK16  BANK17  BANK18  BANK19  BANK20  BANK21  BANK22  BANK23  BANK24  BANK25  BANK2
      +6  BANK27  BANK28  BANK29  BANK30  BANK31
  2083 ;;      Params:         3       0       0       0       0       0       0       0       0       0       0       0       
      +0       0       0       0       0       0       0       0       0       0       0       0       0       0       0       
      +0       0       0       0       0       0
  2084 ;;      Locals:         0       0       0       0       0       0       0       0       0       0       0       0       
      +0       0       0       0       0       0       0       0       0       0       0       0       0       0       0       
      +0       0       0       0       0       0
  2085 ;;      Temps:          0       0       0       0       0       0       0       0       0       0       0       0       
      +0       0       0       0       0       0       0       0       0       0       0       0       0       0       0       
      +0       0       0       0       0       0
  2086 ;;      Totals:         3       0       0       0       0       0       0       0       0       0       0       0       
      +0       0       0       0       0       0       0       0       0       0       0       0       0       0       0       
      +0       0       0       0       0       0
  2087 ;;Total ram usage:        3 bytes
  2088 ;; Hardware stack levels used:    1
  2089 ;; Hardware stack levels required when called:    4
  2090 ;; This function calls:
  2091 ;;		Nothing
  2092 ;; This function is called by:
  2093 ;;		_UART1_Initialize
  2094 ;; This function uses a non-reentrant model
  2095 ;;
  2096                           
  2097                           	psect	text16
  2098  00300E                     __ptext16:
  2099                           	opt callstack 0
  2100  00300E                     _UART1_SetErrorHandler:
  2101                           	opt callstack 24
  2102                           
  2103                           ; BSR set to: 61
  2104                           ;mcc_generated_files/uart1.c: 314:     UART1_ErrorHandler = interruptHandler;
  2105                           
  2106                           ; BSR set to: 61
  2107                           ;incstack = 0
  2108  00300E  0060  F018  F0EB   	movff	UART1_SetErrorHandler@interruptHandler,_UART1_ErrorHandler
  2109  003014  0060  F01C  F0EC   	movff	UART1_SetErrorHandler@interruptHandler+1,_UART1_ErrorHandler+1
  2110  00301A  0060  F020  F0ED   	movff	UART1_SetErrorHandler@interruptHandler+2,_UART1_ErrorHandler+2
  2111                           
  2112                           ; BSR set to: 61
  2113  003020  0012               	return		;funcret
  2114  003022                     __end_of_UART1_SetErrorHandler:
  2115                           	opt callstack 0
  2116                           
  2117 ;; *************** function _TMR6_Initialize *****************
  2118 ;; Defined at:
  2119 ;;		line 67 in file "mcc_generated_files/tmr6.c"
  2120 ;; Parameters:    Size  Location     Type
  2121 ;;		None
  2122 ;; Auto vars:     Size  Location     Type
  2123 ;;		None
  2124 ;; Return value:  Size  Location     Type
  2125 ;;                  1    wreg      void 
  2126 ;; Registers used:
  2127 ;;		wreg, status,2, status,0, cstack
  2128 ;; Tracked objects:
  2129 ;;		On entry : 3F/39
  2130 ;;		On exit  : 3F/39
  2131 ;;		Unchanged: 0/0
  2132 ;; Data sizes:     COMRAM   BANK0   BANK1   BANK2   BANK3   BANK4   BANK5   BANK6   BANK7   BANK8   BANK9  BANK10  BANK1
      +1  BANK12  BANK13  BANK14  BANK15  BANK16  BANK17  BANK18  BANK19  BANK20  BANK21  BANK22  BANK23  BANK24  BANK25  BANK2
      +6  BANK27  BANK28  BANK29  BANK30  BANK31
  2133 ;;      Params:         0       0       0       0       0       0       0       0       0       0       0       0       
      +0       0       0       0       0       0       0       0       0       0       0       0       0       0       0       
      +0       0       0       0       0       0
  2134 ;;      Locals:         0       0       0       0       0       0       0       0       0       0       0       0       
      +0       0       0       0       0       0       0       0       0       0       0       0       0       0       0       
      +0       0       0       0       0       0
  2135 ;;      Temps:          0       0       0       0       0       0       0       0       0       0       0       0       
      +0       0       0       0       0       0       0       0       0       0       0       0       0       0       0       
      +0       0       0       0       0       0
  2136 ;;      Totals:         0       0       0       0       0       0       0       0       0       0       0       0       
      +0       0       0       0       0       0       0       0       0       0       0       0       0       0       0       
      +0       0       0       0       0       0
  2137 ;;Total ram usage:        0 bytes
  2138 ;; Hardware stack levels used:    1
  2139 ;; Hardware stack levels required when called:    5
  2140 ;; This function calls:
  2141 ;;		_TMR6_SetInterruptHandler
  2142 ;; This function is called by:
  2143 ;;		_SYSTEM_Initialize
  2144 ;; This function uses a non-reentrant model
  2145 ;;
  2146                           
  2147                           	psect	text17
  2148  002C8A                     __ptext17:
  2149                           	opt callstack 0
  2150  002C8A                     _TMR6_Initialize:
  2151                           	opt callstack 24
  2152                           
  2153                           ; BSR set to: 57
  2154                           ;mcc_generated_files/tmr6.c: 72:  T6CLKCON = 0x01;
  2155                           
  2156                           ; BSR set to: 61
  2157                           ;incstack = 0
  2158  002C8A  0E01               	movlw	1
  2159  002C8C  6E96               	movwf	16278,c	;volatile
  2160                           
  2161                           ;mcc_generated_files/tmr6.c: 75:  T6HLT = 0x00;
  2162  002C8E  0E00               	movlw	0
  2163  002C90  6E95               	movwf	16277,c	;volatile
  2164                           
  2165                           ;mcc_generated_files/tmr6.c: 78:  T6RST = 0x00;
  2166  002C92  0E00               	movlw	0
  2167  002C94  6E97               	movwf	16279,c	;volatile
  2168                           
  2169                           ;mcc_generated_files/tmr6.c: 81:  T6PR = 0x03;
  2170  002C96  0E03               	movlw	3
  2171  002C98  6E93               	movwf	16275,c	;volatile
  2172                           
  2173                           ;mcc_generated_files/tmr6.c: 84:  T6TMR = 0x00;
  2174  002C9A  0E00               	movlw	0
  2175  002C9C  6E92               	movwf	16274,c	;volatile
  2176                           
  2177                           ; BSR set to: 57
  2178                           ;mcc_generated_files/tmr6.c: 87:  PIR9bits.TMR6IF = 0;
  2179  002C9E  91A9               	bcf	169,0,b	;volatile
  2180                           
  2181                           ; BSR set to: 57
  2182                           ;mcc_generated_files/tmr6.c: 90:  PIE9bits.TMR6IE = 1;
  2183  002CA0  8199               	bsf	153,0,b	;volatile
  2184                           
  2185                           ; BSR set to: 57
  2186                           ;mcc_generated_files/tmr6.c: 93:  TMR6_SetInterruptHandler(TMR6_DefaultInterruptHandler)
      +                          ;
  2187  002CA2  0EC6               	movlw	low _TMR6_DefaultInterruptHandler
  2188  002CA4  6E06               	movwf	TMR6_SetInterruptHandler@InterruptHandler,c
  2189  002CA6  0E2B               	movlw	high _TMR6_DefaultInterruptHandler
  2190  002CA8  6E07               	movwf	TMR6_SetInterruptHandler@InterruptHandler+1,c
  2191  002CAA  0E00               	movlw	low (_TMR6_DefaultInterruptHandler shr (0+16))
  2192  002CAC  6E08               	movwf	TMR6_SetInterruptHandler@InterruptHandler+2,c
  2193  002CAE  EC11  F018         	call	_TMR6_SetInterruptHandler	;wreg free
  2194                           
  2195                           ; BSR set to: 57
  2196                           ;mcc_generated_files/tmr6.c: 96:  T6CON = 0xFF;
  2197  002CB2  6894               	setf	16276,c	;volatile
  2198                           
  2199                           ; BSR set to: 57
  2200  002CB4  0012               	return		;funcret
  2201  002CB6                     __end_of_TMR6_Initialize:
  2202                           	opt callstack 0
  2203                           
  2204 ;; *************** function _TMR6_SetInterruptHandler *****************
  2205 ;; Defined at:
  2206 ;;		line 179 in file "mcc_generated_files/tmr6.c"
  2207 ;; Parameters:    Size  Location     Type
  2208 ;;  InterruptHan    3    5[COMRAM] PTR FTN()void 
  2209 ;;		 -> TMR6_DefaultInterruptHandler(1), 
  2210 ;; Auto vars:     Size  Location     Type
  2211 ;;		None
  2212 ;; Return value:  Size  Location     Type
  2213 ;;                  1    wreg      void 
  2214 ;; Registers used:
  2215 ;;		wreg, status,2, status,0
  2216 ;; Tracked objects:
  2217 ;;		On entry : 3F/39
  2218 ;;		On exit  : 3F/39
  2219 ;;		Unchanged: 3E/0
  2220 ;; Data sizes:     COMRAM   BANK0   BANK1   BANK2   BANK3   BANK4   BANK5   BANK6   BANK7   BANK8   BANK9  BANK10  BANK1
      +1  BANK12  BANK13  BANK14  BANK15  BANK16  BANK17  BANK18  BANK19  BANK20  BANK21  BANK22  BANK23  BANK24  BANK25  BANK2
      +6  BANK27  BANK28  BANK29  BANK30  BANK31
  2221 ;;      Params:         3       0       0       0       0       0       0       0       0       0       0       0       
      +0       0       0       0       0       0       0       0       0       0       0       0       0       0       0       
      +0       0       0       0       0       0
  2222 ;;      Locals:         0       0       0       0       0       0       0       0       0       0       0       0       
      +0       0       0       0       0       0       0       0       0       0       0       0       0       0       0       
      +0       0       0       0       0       0
  2223 ;;      Temps:          0       0       0       0       0       0       0       0       0       0       0       0       
      +0       0       0       0       0       0       0       0       0       0       0       0       0       0       0       
      +0       0       0       0       0       0
  2224 ;;      Totals:         3       0       0       0       0       0       0       0       0       0       0       0       
      +0       0       0       0       0       0       0       0       0       0       0       0       0       0       0       
      +0       0       0       0       0       0
  2225 ;;Total ram usage:        3 bytes
  2226 ;; Hardware stack levels used:    1
  2227 ;; Hardware stack levels required when called:    4
  2228 ;; This function calls:
  2229 ;;		Nothing
  2230 ;; This function is called by:
  2231 ;;		_TMR6_Initialize
  2232 ;; This function uses a non-reentrant model
  2233 ;;
  2234                           
  2235                           	psect	text18
  2236  003022                     __ptext18:
  2237                           	opt callstack 0
  2238  003022                     _TMR6_SetInterruptHandler:
  2239                           	opt callstack 24
  2240                           
  2241                           ; BSR set to: 57
  2242                           ;mcc_generated_files/tmr6.c: 179: void TMR6_SetInterruptHandler(void (* InterruptHandler
      +                          )(void));mcc_generated_files/tmr6.c: 180: {;mcc_generated_files/tmr6.c: 181:  TMR6_Inter
      +                          ruptHandler = InterruptHandler;
  2243                           
  2244                           ; BSR set to: 57
  2245                           ;incstack = 0
  2246  003022  0060  F018  F0DF   	movff	TMR6_SetInterruptHandler@InterruptHandler,_TMR6_InterruptHandler
  2247  003028  0060  F01C  F0E0   	movff	TMR6_SetInterruptHandler@InterruptHandler+1,_TMR6_InterruptHandler+1
  2248  00302E  0060  F020  F0E1   	movff	TMR6_SetInterruptHandler@InterruptHandler+2,_TMR6_InterruptHandler+2
  2249                           
  2250                           ; BSR set to: 57
  2251  003034  0012               	return		;funcret
  2252  003036                     __end_of_TMR6_SetInterruptHandler:
  2253                           	opt callstack 0
  2254                           
  2255 ;; *************** function _TMR5_Initialize *****************
  2256 ;; Defined at:
  2257 ;;		line 66 in file "mcc_generated_files/tmr5.c"
  2258 ;; Parameters:    Size  Location     Type
  2259 ;;		None
  2260 ;; Auto vars:     Size  Location     Type
  2261 ;;		None
  2262 ;; Return value:  Size  Location     Type
  2263 ;;                  1    wreg      void 
  2264 ;; Registers used:
  2265 ;;		wreg, status,2, status,0, cstack
  2266 ;; Tracked objects:
  2267 ;;		On entry : 3F/3E
  2268 ;;		On exit  : 3F/39
  2269 ;;		Unchanged: 0/0
  2270 ;; Data sizes:     COMRAM   BANK0   BANK1   BANK2   BANK3   BANK4   BANK5   BANK6   BANK7   BANK8   BANK9  BANK10  BANK1
      +1  BANK12  BANK13  BANK14  BANK15  BANK16  BANK17  BANK18  BANK19  BANK20  BANK21  BANK22  BANK23  BANK24  BANK25  BANK2
      +6  BANK27  BANK28  BANK29  BANK30  BANK31
  2271 ;;      Params:         0       0       0       0       0       0       0       0       0       0       0       0       
      +0       0       0       0       0       0       0       0       0       0       0       0       0       0       0       
      +0       0       0       0       0       0
  2272 ;;      Locals:         0       0       0       0       0       0       0       0       0       0       0       0       
      +0       0       0       0       0       0       0       0       0       0       0       0       0       0       0       
      +0       0       0       0       0       0
  2273 ;;      Temps:          2       0       0       0       0       0       0       0       0       0       0       0       
      +0       0       0       0       0       0       0       0       0       0       0       0       0       0       0       
      +0       0       0       0       0       0
  2274 ;;      Totals:         2       0       0       0       0       0       0       0       0       0       0       0       
      +0       0       0       0       0       0       0       0       0       0       0       0       0       0       0       
      +0       0       0       0       0       0
  2275 ;;Total ram usage:        2 bytes
  2276 ;; Hardware stack levels used:    1
  2277 ;; Hardware stack levels required when called:    5
  2278 ;; This function calls:
  2279 ;;		_TMR5_SetInterruptHandler
  2280 ;; This function is called by:
  2281 ;;		_SYSTEM_Initialize
  2282 ;; This function uses a non-reentrant model
  2283 ;;
  2284                           
  2285                           	psect	text19
  2286  002A8E                     __ptext19:
  2287                           	opt callstack 0
  2288  002A8E                     _TMR5_Initialize:
  2289                           	opt callstack 24
  2290                           
  2291                           ; BSR set to: 62
  2292                           ;mcc_generated_files/tmr5.c: 71:     T5GCON = 0x00;
  2293                           
  2294                           ; BSR set to: 57
  2295                           ;incstack = 0
  2296  002A8E  0E00               	movlw	0
  2297  002A90  6E9B               	movwf	16283,c	;volatile
  2298                           
  2299                           ;mcc_generated_files/tmr5.c: 74:     T5GATE = 0x00;
  2300  002A92  0E00               	movlw	0
  2301  002A94  6E9C               	movwf	16284,c	;volatile
  2302                           
  2303                           ;mcc_generated_files/tmr5.c: 77:     T5CLK = 0x01;
  2304  002A96  0E01               	movlw	1
  2305  002A98  6E9D               	movwf	16285,c	;volatile
  2306                           
  2307                           ;mcc_generated_files/tmr5.c: 80:     TMR5H = 0x63;
  2308  002A9A  0E63               	movlw	99
  2309  002A9C  6E99               	movwf	16281,c	;volatile
  2310                           
  2311                           ;mcc_generated_files/tmr5.c: 83:     TMR5L = 0xC0;
  2312  002A9E  0EC0               	movlw	192
  2313  002AA0  6E98               	movwf	16280,c	;volatile
  2314                           
  2315                           ; BSR set to: 62
  2316                           ;mcc_generated_files/tmr5.c: 86:     timer5ReloadVal=(uint16_t)((TMR5H << 8) | TMR5L);
  2317  002AA2  5098               	movf	16280,w,c	;volatile
  2318  002AA4  006F FE64  F009    	movff	16281,??_TMR5_Initialize	;volatile
  2319  002AAA  6A0A               	clrf	(??_TMR5_Initialize+1)& (0+255),c
  2320  002AAC  0060  F024  F00A   	movff	??_TMR5_Initialize,??_TMR5_Initialize+1
  2321  002AB2  6A09               	clrf	??_TMR5_Initialize,c
  2322  002AB4  1009               	iorwf	??_TMR5_Initialize,w,c
  2323  002AB6  6E4A               	movwf	_timer5ReloadVal,c	;volatile
  2324  002AB8  500A               	movf	??_TMR5_Initialize+1,w,c
  2325  002ABA  6E4B               	movwf	_timer5ReloadVal+1,c	;volatile
  2326                           
  2327                           ; BSR set to: 62
  2328                           ;mcc_generated_files/tmr5.c: 89:     PIR8bits.TMR5IF = 0;
  2329  002ABC  0139               	movlb	57	; () banked
  2330  002ABE  9DA8               	bcf	168,6,b	;volatile
  2331                           
  2332                           ; BSR set to: 57
  2333                           ;mcc_generated_files/tmr5.c: 92:     PIE8bits.TMR5IE = 1;
  2334  002AC0  8D98               	bsf	152,6,b	;volatile
  2335                           
  2336                           ; BSR set to: 57
  2337                           ;mcc_generated_files/tmr5.c: 95:     TMR5_SetInterruptHandler(TMR5_DefaultInterruptHandl
      +                          er);
  2338  002AC2  0E28               	movlw	low _TMR5_DefaultInterruptHandler
  2339  002AC4  6E06               	movwf	TMR5_SetInterruptHandler@InterruptHandler,c
  2340  002AC6  0E2F               	movlw	high _TMR5_DefaultInterruptHandler
  2341  002AC8  6E07               	movwf	TMR5_SetInterruptHandler@InterruptHandler+1,c
  2342  002ACA  0E00               	movlw	low (_TMR5_DefaultInterruptHandler shr (0+16))
  2343  002ACC  6E08               	movwf	TMR5_SetInterruptHandler@InterruptHandler+2,c
  2344  002ACE  EC1B  F018         	call	_TMR5_SetInterruptHandler	;wreg free
  2345                           
  2346                           ; BSR set to: 57
  2347                           ;mcc_generated_files/tmr5.c: 98:     T5CON = 0x31;
  2348  002AD2  0E31               	movlw	49
  2349  002AD4  6E9A               	movwf	16282,c	;volatile
  2350                           
  2351                           ; BSR set to: 57
  2352  002AD6  0012               	return		;funcret
  2353  002AD8                     __end_of_TMR5_Initialize:
  2354                           	opt callstack 0
  2355                           
  2356 ;; *************** function _TMR5_SetInterruptHandler *****************
  2357 ;; Defined at:
  2358 ;;		line 194 in file "mcc_generated_files/tmr5.c"
  2359 ;; Parameters:    Size  Location     Type
  2360 ;;  InterruptHan    3    5[COMRAM] PTR FTN()void 
  2361 ;;		 -> TMR5_DefaultInterruptHandler(1), 
  2362 ;; Auto vars:     Size  Location     Type
  2363 ;;		None
  2364 ;; Return value:  Size  Location     Type
  2365 ;;                  1    wreg      void 
  2366 ;; Registers used:
  2367 ;;		wreg, status,2, status,0
  2368 ;; Tracked objects:
  2369 ;;		On entry : 3F/39
  2370 ;;		On exit  : 3F/39
  2371 ;;		Unchanged: 3E/0
  2372 ;; Data sizes:     COMRAM   BANK0   BANK1   BANK2   BANK3   BANK4   BANK5   BANK6   BANK7   BANK8   BANK9  BANK10  BANK1
      +1  BANK12  BANK13  BANK14  BANK15  BANK16  BANK17  BANK18  BANK19  BANK20  BANK21  BANK22  BANK23  BANK24  BANK25  BANK2
      +6  BANK27  BANK28  BANK29  BANK30  BANK31
  2373 ;;      Params:         3       0       0       0       0       0       0       0       0       0       0       0       
      +0       0       0       0       0       0       0       0       0       0       0       0       0       0       0       
      +0       0       0       0       0       0
  2374 ;;      Locals:         0       0       0       0       0       0       0       0       0       0       0       0       
      +0       0       0       0       0       0       0       0       0       0       0       0       0       0       0       
      +0       0       0       0       0       0
  2375 ;;      Temps:          0       0       0       0       0       0       0       0       0       0       0       0       
      +0       0       0       0       0       0       0       0       0       0       0       0       0       0       0       
      +0       0       0       0       0       0
  2376 ;;      Totals:         3       0       0       0       0       0       0       0       0       0       0       0       
      +0       0       0       0       0       0       0       0       0       0       0       0       0       0       0       
      +0       0       0       0       0       0
  2377 ;;Total ram usage:        3 bytes
  2378 ;; Hardware stack levels used:    1
  2379 ;; Hardware stack levels required when called:    4
  2380 ;; This function calls:
  2381 ;;		Nothing
  2382 ;; This function is called by:
  2383 ;;		_TMR5_Initialize
  2384 ;; This function uses a non-reentrant model
  2385 ;;
  2386                           
  2387                           	psect	text20
  2388  003036                     __ptext20:
  2389                           	opt callstack 0
  2390  003036                     _TMR5_SetInterruptHandler:
  2391                           	opt callstack 24
  2392                           
  2393                           ; BSR set to: 57
  2394                           ;mcc_generated_files/tmr5.c: 195:     TMR5_InterruptHandler = InterruptHandler;
  2395                           
  2396                           ; BSR set to: 57
  2397                           ;incstack = 0
  2398  003036  0060  F018  F0DC   	movff	TMR5_SetInterruptHandler@InterruptHandler,_TMR5_InterruptHandler
  2399  00303C  0060  F01C  F0DD   	movff	TMR5_SetInterruptHandler@InterruptHandler+1,_TMR5_InterruptHandler+1
  2400  003042  0060  F020  F0DE   	movff	TMR5_SetInterruptHandler@InterruptHandler+2,_TMR5_InterruptHandler+2
  2401                           
  2402                           ; BSR set to: 57
  2403  003048  0012               	return		;funcret
  2404  00304A                     __end_of_TMR5_SetInterruptHandler:
  2405                           	opt callstack 0
  2406                           
  2407 ;; *************** function _TMR2_Initialize *****************
  2408 ;; Defined at:
  2409 ;;		line 62 in file "mcc_generated_files/tmr2.c"
  2410 ;; Parameters:    Size  Location     Type
  2411 ;;		None
  2412 ;; Auto vars:     Size  Location     Type
  2413 ;;		None
  2414 ;; Return value:  Size  Location     Type
  2415 ;;                  1    wreg      void 
  2416 ;; Registers used:
  2417 ;;		wreg, status,2
  2418 ;; Tracked objects:
  2419 ;;		On entry : 3F/3F
  2420 ;;		On exit  : 3F/39
  2421 ;;		Unchanged: 0/0
  2422 ;; Data sizes:     COMRAM   BANK0   BANK1   BANK2   BANK3   BANK4   BANK5   BANK6   BANK7   BANK8   BANK9  BANK10  BANK1
      +1  BANK12  BANK13  BANK14  BANK15  BANK16  BANK17  BANK18  BANK19  BANK20  BANK21  BANK22  BANK23  BANK24  BANK25  BANK2
      +6  BANK27  BANK28  BANK29  BANK30  BANK31
  2423 ;;      Params:         0       0       0       0       0       0       0       0       0       0       0       0       
      +0       0       0       0       0       0       0       0       0       0       0       0       0       0       0       
      +0       0       0       0       0       0
  2424 ;;      Locals:         0       0       0       0       0       0       0       0       0       0       0       0       
      +0       0       0       0       0       0       0       0       0       0       0       0       0       0       0       
      +0       0       0       0       0       0
  2425 ;;      Temps:          0       0       0       0       0       0       0       0       0       0       0       0       
      +0       0       0       0       0       0       0       0       0       0       0       0       0       0       0       
      +0       0       0       0       0       0
  2426 ;;      Totals:         0       0       0       0       0       0       0       0       0       0       0       0       
      +0       0       0       0       0       0       0       0       0       0       0       0       0       0       0       
      +0       0       0       0       0       0
  2427 ;;Total ram usage:        0 bytes
  2428 ;; Hardware stack levels used:    1
  2429 ;; Hardware stack levels required when called:    4
  2430 ;; This function calls:
  2431 ;;		Nothing
  2432 ;; This function is called by:
  2433 ;;		_SYSTEM_Initialize
  2434 ;; This function uses a non-reentrant model
  2435 ;;
  2436                           
  2437                           	psect	text21
  2438  002E7A                     __ptext21:
  2439                           	opt callstack 0
  2440  002E7A                     _TMR2_Initialize:
  2441                           	opt callstack 25
  2442                           
  2443                           ; BSR set to: 63
  2444                           ;mcc_generated_files/tmr2.c: 67:     T2CLKCON = 0x01;
  2445                           
  2446                           ; BSR set to: 57
  2447                           ;incstack = 0
  2448  002E7A  0E01               	movlw	1
  2449  002E7C  6EAE               	movwf	16302,c	;volatile
  2450                           
  2451                           ;mcc_generated_files/tmr2.c: 70:     T2HLT = 0x00;
  2452  002E7E  0E00               	movlw	0
  2453  002E80  6EAD               	movwf	16301,c	;volatile
  2454                           
  2455                           ;mcc_generated_files/tmr2.c: 73:     T2RST = 0x00;
  2456  002E82  0E00               	movlw	0
  2457  002E84  6EAF               	movwf	16303,c	;volatile
  2458                           
  2459                           ;mcc_generated_files/tmr2.c: 76:     T2PR = 0x63;
  2460  002E86  0E63               	movlw	99
  2461  002E88  6EAB               	movwf	16299,c	;volatile
  2462                           
  2463                           ;mcc_generated_files/tmr2.c: 79:     T2TMR = 0x00;
  2464  002E8A  0E00               	movlw	0
  2465  002E8C  6EAA               	movwf	16298,c	;volatile
  2466                           
  2467                           ; BSR set to: 63
  2468                           ;mcc_generated_files/tmr2.c: 82:     PIR4bits.TMR2IF = 0;
  2469  002E8E  0139               	movlb	57	; () banked
  2470  002E90  95A4               	bcf	164,2,b	;volatile
  2471                           
  2472                           ;mcc_generated_files/tmr2.c: 85:     T2CON = 0xC0;
  2473  002E92  0EC0               	movlw	192
  2474  002E94  6EAC               	movwf	16300,c	;volatile
  2475                           
  2476                           ; BSR set to: 57
  2477  002E96  0012               	return		;funcret
  2478  002E98                     __end_of_TMR2_Initialize:
  2479                           	opt callstack 0
  2480                           
  2481 ;; *************** function _PWM8_Initialize *****************
  2482 ;; Defined at:
  2483 ;;		line 58 in file "mcc_generated_files/pwm8.c"
  2484 ;; Parameters:    Size  Location     Type
  2485 ;;		None
  2486 ;; Auto vars:     Size  Location     Type
  2487 ;;		None
  2488 ;; Return value:  Size  Location     Type
  2489 ;;                  1    wreg      void 
  2490 ;; Registers used:
  2491 ;;		wreg, status,2
  2492 ;; Tracked objects:
  2493 ;;		On entry : 3F/39
  2494 ;;		On exit  : 3F/3F
  2495 ;;		Unchanged: 0/0
  2496 ;; Data sizes:     COMRAM   BANK0   BANK1   BANK2   BANK3   BANK4   BANK5   BANK6   BANK7   BANK8   BANK9  BANK10  BANK1
      +1  BANK12  BANK13  BANK14  BANK15  BANK16  BANK17  BANK18  BANK19  BANK20  BANK21  BANK22  BANK23  BANK24  BANK25  BANK2
      +6  BANK27  BANK28  BANK29  BANK30  BANK31
  2497 ;;      Params:         0       0       0       0       0       0       0       0       0       0       0       0       
      +0       0       0       0       0       0       0       0       0       0       0       0       0       0       0       
      +0       0       0       0       0       0
  2498 ;;      Locals:         0       0       0       0       0       0       0       0       0       0       0       0       
      +0       0       0       0       0       0       0       0       0       0       0       0       0       0       0       
      +0       0       0       0       0       0
  2499 ;;      Temps:          0       0       0       0       0       0       0       0       0       0       0       0       
      +0       0       0       0       0       0       0       0       0       0       0       0       0       0       0       
      +0       0       0       0       0       0
  2500 ;;      Totals:         0       0       0       0       0       0       0       0       0       0       0       0       
      +0       0       0       0       0       0       0       0       0       0       0       0       0       0       0       
      +0       0       0       0       0       0
  2501 ;;Total ram usage:        0 bytes
  2502 ;; Hardware stack levels used:    1
  2503 ;; Hardware stack levels required when called:    4
  2504 ;; This function calls:
  2505 ;;		Nothing
  2506 ;; This function is called by:
  2507 ;;		_SYSTEM_Initialize
  2508 ;; This function uses a non-reentrant model
  2509 ;;
  2510                           
  2511                           	psect	text22
  2512  002F42                     __ptext22:
  2513                           	opt callstack 0
  2514  002F42                     _PWM8_Initialize:
  2515                           	opt callstack 25
  2516                           
  2517                           ; BSR set to: 57
  2518                           ;mcc_generated_files/pwm8.c: 62:     PWM8CON = 0x80;
  2519                           
  2520                           ; BSR set to: 57
  2521                           ;incstack = 0
  2522  002F42  0E80               	movlw	128
  2523  002F44  6E62               	movwf	16226,c	;volatile
  2524                           
  2525                           ;mcc_generated_files/pwm8.c: 65:     PWM8DCH = 0x31;
  2526  002F46  0E31               	movlw	49
  2527  002F48  6E61               	movwf	16225,c	;volatile
  2528                           
  2529                           ;mcc_generated_files/pwm8.c: 68:     PWM8DCL = 0xC0;
  2530  002F4A  0EC0               	movlw	192
  2531  002F4C  6E60               	movwf	16224,c	;volatile
  2532                           
  2533                           ;mcc_generated_files/pwm8.c: 71:     CCPTMRS1bits.P8TSEL = 1;
  2534  002F4E  013F               	movlb	63	; () banked
  2535  002F50  515F               	movf	95,w,b	;volatile
  2536  002F52  0B3F               	andlw	-193
  2537  002F54  0940               	iorlw	64
  2538  002F56  6F5F               	movwf	95,b	;volatile
  2539                           
  2540                           ; BSR set to: 63
  2541  002F58  0012               	return		;funcret
  2542  002F5A                     __end_of_PWM8_Initialize:
  2543                           	opt callstack 0
  2544                           
  2545 ;; *************** function _PMD_Initialize *****************
  2546 ;; Defined at:
  2547 ;;		line 83 in file "mcc_generated_files/mcc.c"
  2548 ;; Parameters:    Size  Location     Type
  2549 ;;		None
  2550 ;; Auto vars:     Size  Location     Type
  2551 ;;		None
  2552 ;; Return value:  Size  Location     Type
  2553 ;;                  1    wreg      void 
  2554 ;; Registers used:
  2555 ;;		wreg, status,2
  2556 ;; Tracked objects:
  2557 ;;		On entry : 3F/39
  2558 ;;		On exit  : 3F/39
  2559 ;;		Unchanged: 0/0
  2560 ;; Data sizes:     COMRAM   BANK0   BANK1   BANK2   BANK3   BANK4   BANK5   BANK6   BANK7   BANK8   BANK9  BANK10  BANK1
      +1  BANK12  BANK13  BANK14  BANK15  BANK16  BANK17  BANK18  BANK19  BANK20  BANK21  BANK22  BANK23  BANK24  BANK25  BANK2
      +6  BANK27  BANK28  BANK29  BANK30  BANK31
  2561 ;;      Params:         0       0       0       0       0       0       0       0       0       0       0       0       
      +0       0       0       0       0       0       0       0       0       0       0       0       0       0       0       
      +0       0       0       0       0       0
  2562 ;;      Locals:         0       0       0       0       0       0       0       0       0       0       0       0       
      +0       0       0       0       0       0       0       0       0       0       0       0       0       0       0       
      +0       0       0       0       0       0
  2563 ;;      Temps:          0       0       0       0       0       0       0       0       0       0       0       0       
      +0       0       0       0       0       0       0       0       0       0       0       0       0       0       0       
      +0       0       0       0       0       0
  2564 ;;      Totals:         0       0       0       0       0       0       0       0       0       0       0       0       
      +0       0       0       0       0       0       0       0       0       0       0       0       0       0       0       
      +0       0       0       0       0       0
  2565 ;;Total ram usage:        0 bytes
  2566 ;; Hardware stack levels used:    1
  2567 ;; Hardware stack levels required when called:    4
  2568 ;; This function calls:
  2569 ;;		Nothing
  2570 ;; This function is called by:
  2571 ;;		_SYSTEM_Initialize
  2572 ;; This function uses a non-reentrant model
  2573 ;;
  2574                           
  2575                           	psect	text23
  2576  002DA8                     __ptext23:
  2577                           	opt callstack 0
  2578  002DA8                     _PMD_Initialize:
  2579                           	opt callstack 25
  2580                           
  2581                           ; BSR set to: 57
  2582                           ;mcc_generated_files/mcc.c: 86:     PMD0 = 0x00;
  2583                           
  2584                           ; BSR set to: 63
  2585                           ;incstack = 0
  2586  002DA8  0E00               	movlw	0
  2587  002DAA  6FC0               	movwf	192,b	;volatile
  2588                           
  2589                           ;mcc_generated_files/mcc.c: 88:     PMD1 = 0x00;
  2590  002DAC  0E00               	movlw	0
  2591  002DAE  6FC1               	movwf	193,b	;volatile
  2592                           
  2593                           ;mcc_generated_files/mcc.c: 90:     PMD2 = 0x00;
  2594  002DB0  0E00               	movlw	0
  2595  002DB2  6FC2               	movwf	194,b	;volatile
  2596                           
  2597                           ;mcc_generated_files/mcc.c: 92:     PMD3 = 0x00;
  2598  002DB4  0E00               	movlw	0
  2599  002DB6  6FC3               	movwf	195,b	;volatile
  2600                           
  2601                           ;mcc_generated_files/mcc.c: 94:     PMD4 = 0x00;
  2602  002DB8  0E00               	movlw	0
  2603  002DBA  6FC4               	movwf	196,b	;volatile
  2604                           
  2605                           ;mcc_generated_files/mcc.c: 96:     PMD5 = 0x00;
  2606  002DBC  0E00               	movlw	0
  2607  002DBE  6FC5               	movwf	197,b	;volatile
  2608                           
  2609                           ;mcc_generated_files/mcc.c: 98:     PMD6 = 0x00;
  2610  002DC0  0E00               	movlw	0
  2611  002DC2  6FC6               	movwf	198,b	;volatile
  2612                           
  2613                           ;mcc_generated_files/mcc.c: 100:     PMD7 = 0x00;
  2614  002DC4  0E00               	movlw	0
  2615  002DC6  6FC7               	movwf	199,b	;volatile
  2616                           
  2617                           ; BSR set to: 57
  2618  002DC8  0012               	return		;funcret
  2619  002DCA                     __end_of_PMD_Initialize:
  2620                           	opt callstack 0
  2621                           
  2622 ;; *************** function _PIN_MANAGER_Initialize *****************
  2623 ;; Defined at:
  2624 ;;		line 55 in file "mcc_generated_files/pin_manager.c"
  2625 ;; Parameters:    Size  Location     Type
  2626 ;;		None
  2627 ;; Auto vars:     Size  Location     Type
  2628 ;;		None
  2629 ;; Return value:  Size  Location     Type
  2630 ;;                  1    wreg      void 
  2631 ;; Registers used:
  2632 ;;		wreg, status,2
  2633 ;; Tracked objects:
  2634 ;;		On entry : 3F/39
  2635 ;;		On exit  : 3F/3A
  2636 ;;		Unchanged: 0/0
  2637 ;; Data sizes:     COMRAM   BANK0   BANK1   BANK2   BANK3   BANK4   BANK5   BANK6   BANK7   BANK8   BANK9  BANK10  BANK1
      +1  BANK12  BANK13  BANK14  BANK15  BANK16  BANK17  BANK18  BANK19  BANK20  BANK21  BANK22  BANK23  BANK24  BANK25  BANK2
      +6  BANK27  BANK28  BANK29  BANK30  BANK31
  2638 ;;      Params:         0       0       0       0       0       0       0       0       0       0       0       0       
      +0       0       0       0       0       0       0       0       0       0       0       0       0       0       0       
      +0       0       0       0       0       0
  2639 ;;      Locals:         0       0       0       0       0       0       0       0       0       0       0       0       
      +0       0       0       0       0       0       0       0       0       0       0       0       0       0       0       
      +0       0       0       0       0       0
  2640 ;;      Temps:          0       0       0       0       0       0       0       0       0       0       0       0       
      +0       0       0       0       0       0       0       0       0       0       0       0       0       0       0       
      +0       0       0       0       0       0
  2641 ;;      Totals:         0       0       0       0       0       0       0       0       0       0       0       0       
      +0       0       0       0       0       0       0       0       0       0       0       0       0       0       0       
      +0       0       0       0       0       0
  2642 ;;Total ram usage:        0 bytes
  2643 ;; Hardware stack levels used:    1
  2644 ;; Hardware stack levels required when called:    4
  2645 ;; This function calls:
  2646 ;;		Nothing
  2647 ;; This function is called by:
  2648 ;;		_SYSTEM_Initialize
  2649 ;; This function uses a non-reentrant model
  2650 ;;
  2651                           
  2652                           	psect	text24
  2653  0026C4                     __ptext24:
  2654                           	opt callstack 0
  2655  0026C4                     _PIN_MANAGER_Initialize:
  2656                           	opt callstack 25
  2657                           
  2658                           ; BSR set to: 57
  2659                           ;mcc_generated_files/pin_manager.c: 60:     LATE = 0x01;
  2660                           
  2661                           ; BSR set to: 57
  2662                           ;incstack = 0
  2663  0026C4  0E01               	movlw	1
  2664  0026C6  6EBE               	movwf	16318,c	;volatile
  2665                           
  2666                           ;mcc_generated_files/pin_manager.c: 61:     LATD = 0x02;
  2667  0026C8  0E02               	movlw	2
  2668  0026CA  6EBD               	movwf	16317,c	;volatile
  2669                           
  2670                           ;mcc_generated_files/pin_manager.c: 62:     LATA = 0x00;
  2671  0026CC  0E00               	movlw	0
  2672  0026CE  6EBA               	movwf	16314,c	;volatile
  2673                           
  2674                           ;mcc_generated_files/pin_manager.c: 63:     LATB = 0x00;
  2675  0026D0  0E00               	movlw	0
  2676  0026D2  6EBB               	movwf	16315,c	;volatile
  2677                           
  2678                           ;mcc_generated_files/pin_manager.c: 64:     LATC = 0x00;
  2679  0026D4  0E00               	movlw	0
  2680  0026D6  6EBC               	movwf	16316,c	;volatile
  2681                           
  2682                           ;mcc_generated_files/pin_manager.c: 69:     TRISE = 0x06;
  2683  0026D8  0E06               	movlw	6
  2684  0026DA  6EC6               	movwf	16326,c	;volatile
  2685                           
  2686                           ; BSR set to: 57
  2687                           ;mcc_generated_files/pin_manager.c: 70:     TRISA = 0xFF;
  2688  0026DC  68C2               	setf	16322,c	;volatile
  2689                           
  2690                           ;mcc_generated_files/pin_manager.c: 71:     TRISB = 0xBF;
  2691  0026DE  0EBF               	movlw	191
  2692  0026E0  6EC3               	movwf	16323,c	;volatile
  2693                           
  2694                           ;mcc_generated_files/pin_manager.c: 72:     TRISC = 0xBF;
  2695  0026E2  0EBF               	movlw	191
  2696  0026E4  6EC4               	movwf	16324,c	;volatile
  2697                           
  2698                           ;mcc_generated_files/pin_manager.c: 73:     TRISD = 0xFD;
  2699  0026E6  0EFD               	movlw	253
  2700  0026E8  6EC5               	movwf	16325,c	;volatile
  2701                           
  2702                           ;mcc_generated_files/pin_manager.c: 78:     ANSELD = 0xFD;
  2703  0026EA  0EFD               	movlw	253
  2704  0026EC  013A               	movlb	58	; () banked
  2705  0026EE  6F70               	movwf	112,b	;volatile
  2706                           
  2707                           ;mcc_generated_files/pin_manager.c: 79:     ANSELC = 0x3F;
  2708  0026F0  0E3F               	movlw	63
  2709  0026F2  6F60               	movwf	96,b	;volatile
  2710                           
  2711                           ;mcc_generated_files/pin_manager.c: 80:     ANSELB = 0x3F;
  2712  0026F4  0E3F               	movlw	63
  2713  0026F6  6F50               	movwf	80,b	;volatile
  2714                           
  2715                           ;mcc_generated_files/pin_manager.c: 81:     ANSELE = 0x06;
  2716  0026F8  0E06               	movlw	6
  2717  0026FA  6F80               	movwf	128,b	;volatile
  2718                           
  2719                           ; BSR set to: 58
  2720                           ;mcc_generated_files/pin_manager.c: 82:     ANSELA = 0xFF;
  2721  0026FC  6940               	setf	64,b	;volatile
  2722                           
  2723                           ;mcc_generated_files/pin_manager.c: 87:     WPUD = 0x00;
  2724  0026FE  0E00               	movlw	0
  2725  002700  6F71               	movwf	113,b	;volatile
  2726                           
  2727                           ;mcc_generated_files/pin_manager.c: 88:     WPUE = 0x00;
  2728  002702  0E00               	movlw	0
  2729  002704  6F81               	movwf	129,b	;volatile
  2730                           
  2731                           ;mcc_generated_files/pin_manager.c: 89:     WPUB = 0x00;
  2732  002706  0E00               	movlw	0
  2733  002708  6F51               	movwf	81,b	;volatile
  2734                           
  2735                           ;mcc_generated_files/pin_manager.c: 90:     WPUA = 0x00;
  2736  00270A  0E00               	movlw	0
  2737  00270C  6F41               	movwf	65,b	;volatile
  2738                           
  2739                           ;mcc_generated_files/pin_manager.c: 91:     WPUC = 0x00;
  2740  00270E  0E00               	movlw	0
  2741  002710  6F61               	movwf	97,b	;volatile
  2742                           
  2743                           ;mcc_generated_files/pin_manager.c: 96:     RB1I2C = 0x00;
  2744  002712  0E00               	movlw	0
  2745  002714  6F5A               	movwf	90,b	;volatile
  2746                           
  2747                           ;mcc_generated_files/pin_manager.c: 97:     RB2I2C = 0x00;
  2748  002716  0E00               	movlw	0
  2749  002718  6F5B               	movwf	91,b	;volatile
  2750                           
  2751                           ;mcc_generated_files/pin_manager.c: 98:     RC3I2C = 0x00;
  2752  00271A  0E00               	movlw	0
  2753  00271C  6F6A               	movwf	106,b	;volatile
  2754                           
  2755                           ;mcc_generated_files/pin_manager.c: 99:     RC4I2C = 0x00;
  2756  00271E  0E00               	movlw	0
  2757  002720  6F6B               	movwf	107,b	;volatile
  2758                           
  2759                           ;mcc_generated_files/pin_manager.c: 100:     RD0I2C = 0x00;
  2760  002722  0E00               	movlw	0
  2761  002724  6F7A               	movwf	122,b	;volatile
  2762                           
  2763                           ;mcc_generated_files/pin_manager.c: 101:     RD1I2C = 0x00;
  2764  002726  0E00               	movlw	0
  2765  002728  6F7B               	movwf	123,b	;volatile
  2766                           
  2767                           ;mcc_generated_files/pin_manager.c: 106:     ODCONE = 0x00;
  2768  00272A  0E00               	movlw	0
  2769  00272C  6F82               	movwf	130,b	;volatile
  2770                           
  2771                           ;mcc_generated_files/pin_manager.c: 107:     ODCONA = 0x00;
  2772  00272E  0E00               	movlw	0
  2773  002730  6F42               	movwf	66,b	;volatile
  2774                           
  2775                           ;mcc_generated_files/pin_manager.c: 108:     ODCONB = 0x00;
  2776  002732  0E00               	movlw	0
  2777  002734  6F52               	movwf	82,b	;volatile
  2778                           
  2779                           ;mcc_generated_files/pin_manager.c: 109:     ODCONC = 0x00;
  2780  002736  0E00               	movlw	0
  2781  002738  6F62               	movwf	98,b	;volatile
  2782                           
  2783                           ;mcc_generated_files/pin_manager.c: 110:     ODCOND = 0x00;
  2784  00273A  0E00               	movlw	0
  2785  00273C  6F72               	movwf	114,b	;volatile
  2786                           
  2787                           ; BSR set to: 58
  2788                           ;mcc_generated_files/pin_manager.c: 115:     SLRCONA = 0xFF;
  2789  00273E  6943               	setf	67,b	;volatile
  2790                           
  2791                           ; BSR set to: 58
  2792                           ;mcc_generated_files/pin_manager.c: 116:     SLRCONB = 0xFF;
  2793  002740  6953               	setf	83,b	;volatile
  2794                           
  2795                           ; BSR set to: 58
  2796                           ;mcc_generated_files/pin_manager.c: 117:     SLRCONC = 0xFF;
  2797  002742  6963               	setf	99,b	;volatile
  2798                           
  2799                           ; BSR set to: 58
  2800                           ;mcc_generated_files/pin_manager.c: 118:     SLRCOND = 0xFF;
  2801  002744  6973               	setf	115,b	;volatile
  2802                           
  2803                           ;mcc_generated_files/pin_manager.c: 119:     SLRCONE = 0x07;
  2804  002746  0E07               	movlw	7
  2805  002748  6F83               	movwf	131,b	;volatile
  2806                           
  2807                           ;mcc_generated_files/pin_manager.c: 128:     U2RXPPS = 0x0F;
  2808  00274A  0E0F               	movlw	15
  2809  00274C  6FE8               	movwf	232,b	;volatile
  2810                           
  2811                           ;mcc_generated_files/pin_manager.c: 129:     RB6PPS = 0x16;
  2812  00274E  0E16               	movlw	22
  2813  002750  6F0E               	movwf	14,b	;volatile
  2814                           
  2815                           ;mcc_generated_files/pin_manager.c: 130:     RD1PPS = 0x10;
  2816  002752  0E10               	movlw	16
  2817  002754  6F19               	movwf	25,b	;volatile
  2818                           
  2819                           ;mcc_generated_files/pin_manager.c: 131:     RC6PPS = 0x13;
  2820  002756  0E13               	movlw	19
  2821  002758  6F16               	movwf	22,b	;volatile
  2822                           
  2823                           ;mcc_generated_files/pin_manager.c: 132:     U1RXPPS = 0x17;
  2824  00275A  0E17               	movlw	23
  2825  00275C  6FE5               	movwf	229,b	;volatile
  2826                           
  2827                           ; BSR set to: 58
  2828  00275E  0012               	return		;funcret
  2829  002760                     __end_of_PIN_MANAGER_Initialize:
  2830                           	opt callstack 0
  2831                           
  2832 ;; *************** function _OSCILLATOR_Initialize *****************
  2833 ;; Defined at:
  2834 ;;		line 65 in file "mcc_generated_files/mcc.c"
  2835 ;; Parameters:    Size  Location     Type
  2836 ;;		None
  2837 ;; Auto vars:     Size  Location     Type
  2838 ;;		None
  2839 ;; Return value:  Size  Location     Type
  2840 ;;                  1    wreg      void 
  2841 ;; Registers used:
  2842 ;;		wreg, status,2
  2843 ;; Tracked objects:
  2844 ;;		On entry : 3F/3A
  2845 ;;		On exit  : 3F/39
  2846 ;;		Unchanged: 0/0
  2847 ;; Data sizes:     COMRAM   BANK0   BANK1   BANK2   BANK3   BANK4   BANK5   BANK6   BANK7   BANK8   BANK9  BANK10  BANK1
      +1  BANK12  BANK13  BANK14  BANK15  BANK16  BANK17  BANK18  BANK19  BANK20  BANK21  BANK22  BANK23  BANK24  BANK25  BANK2
      +6  BANK27  BANK28  BANK29  BANK30  BANK31
  2848 ;;      Params:         0       0       0       0       0       0       0       0       0       0       0       0       
      +0       0       0       0       0       0       0       0       0       0       0       0       0       0       0       
      +0       0       0       0       0       0
  2849 ;;      Locals:         0       0       0       0       0       0       0       0       0       0       0       0       
      +0       0       0       0       0       0       0       0       0       0       0       0       0       0       0       
      +0       0       0       0       0       0
  2850 ;;      Temps:          0       0       0       0       0       0       0       0       0       0       0       0       
      +0       0       0       0       0       0       0       0       0       0       0       0       0       0       0       
      +0       0       0       0       0       0
  2851 ;;      Totals:         0       0       0       0       0       0       0       0       0       0       0       0       
      +0       0       0       0       0       0       0       0       0       0       0       0       0       0       0       
      +0       0       0       0       0       0
  2852 ;;Total ram usage:        0 bytes
  2853 ;; Hardware stack levels used:    1
  2854 ;; Hardware stack levels required when called:    4
  2855 ;; This function calls:
  2856 ;;		Nothing
  2857 ;; This function is called by:
  2858 ;;		_SYSTEM_Initialize
  2859 ;; This function uses a non-reentrant model
  2860 ;;
  2861                           
  2862                           	psect	text25
  2863  002EF0                     __ptext25:
  2864                           	opt callstack 0
  2865  002EF0                     _OSCILLATOR_Initialize:
  2866                           	opt callstack 25
  2867                           
  2868                           ; BSR set to: 58
  2869                           ;mcc_generated_files/mcc.c: 68:     OSCCON1 = 0x20;
  2870                           
  2871                           ; BSR set to: 58
  2872                           ;incstack = 0
  2873  002EF0  0E20               	movlw	32
  2874  002EF2  0139               	movlb	57	; () banked
  2875  002EF4  6FD9               	movwf	217,b	;volatile
  2876                           
  2877                           ;mcc_generated_files/mcc.c: 70:     OSCCON3 = 0x00;
  2878  002EF6  0E00               	movlw	0
  2879  002EF8  6FDB               	movwf	219,b	;volatile
  2880                           
  2881                           ;mcc_generated_files/mcc.c: 72:     OSCEN = 0x00;
  2882  002EFA  0E00               	movlw	0
  2883  002EFC  6FDD               	movwf	221,b	;volatile
  2884                           
  2885                           ;mcc_generated_files/mcc.c: 74:     OSCFRQ = 0x08;
  2886  002EFE  0E08               	movlw	8
  2887  002F00  6FDF               	movwf	223,b	;volatile
  2888                           
  2889                           ;mcc_generated_files/mcc.c: 76:     OSCTUNE = 0x00;
  2890  002F02  0E00               	movlw	0
  2891  002F04  6FDE               	movwf	222,b	;volatile
  2892  002F06                     l64:
  2893                           
  2894                           ; BSR set to: 57
  2895                           ;mcc_generated_files/mcc.c: 78:     while(PLLR == 0)
  2896  002F06  B1DC               	btfsc	220,0,b	;volatile
  2897  002F08  0012               	return	
  2898  002F0A  D7FD               	goto	l64
  2899  002F0C                     __end_of_OSCILLATOR_Initialize:
  2900                           	opt callstack 0
  2901                           
  2902 ;; *************** function _INTERRUPT_Initialize *****************
  2903 ;; Defined at:
  2904 ;;		line 52 in file "mcc_generated_files/interrupt_manager.c"
  2905 ;; Parameters:    Size  Location     Type
  2906 ;;		None
  2907 ;; Auto vars:     Size  Location     Type
  2908 ;;  state           1    5[COMRAM] _Bool 
  2909 ;; Return value:  Size  Location     Type
  2910 ;;                  1    wreg      void 
  2911 ;; Registers used:
  2912 ;;		wreg, status,2
  2913 ;; Tracked objects:
  2914 ;;		On entry : 3F/1
  2915 ;;		On exit  : 3F/39
  2916 ;;		Unchanged: 0/0
  2917 ;; Data sizes:     COMRAM   BANK0   BANK1   BANK2   BANK3   BANK4   BANK5   BANK6   BANK7   BANK8   BANK9  BANK10  BANK1
      +1  BANK12  BANK13  BANK14  BANK15  BANK16  BANK17  BANK18  BANK19  BANK20  BANK21  BANK22  BANK23  BANK24  BANK25  BANK2
      +6  BANK27  BANK28  BANK29  BANK30  BANK31
  2918 ;;      Params:         0       0       0       0       0       0       0       0       0       0       0       0       
      +0       0       0       0       0       0       0       0       0       0       0       0       0       0       0       
      +0       0       0       0       0       0
  2919 ;;      Locals:         1       0       0       0       0       0       0       0       0       0       0       0       
      +0       0       0       0       0       0       0       0       0       0       0       0       0       0       0       
      +0       0       0       0       0       0
  2920 ;;      Temps:          0       0       0       0       0       0       0       0       0       0       0       0       
      +0       0       0       0       0       0       0       0       0       0       0       0       0       0       0       
      +0       0       0       0       0       0
  2921 ;;      Totals:         1       0       0       0       0       0       0       0       0       0       0       0       
      +0       0       0       0       0       0       0       0       0       0       0       0       0       0       0       
      +0       0       0       0       0       0
  2922 ;;Total ram usage:        1 bytes
  2923 ;; Hardware stack levels used:    1
  2924 ;; Hardware stack levels required when called:    4
  2925 ;; This function calls:
  2926 ;;		Nothing
  2927 ;; This function is called by:
  2928 ;;		_SYSTEM_Initialize
  2929 ;; This function uses a non-reentrant model
  2930 ;;
  2931                           
  2932                           	psect	text26
  2933  002AD8                     __ptext26:
  2934                           	opt callstack 0
  2935  002AD8                     _INTERRUPT_Initialize:
  2936                           	opt callstack 25
  2937                           
  2938                           ; BSR set to: 1
  2939                           ;mcc_generated_files/interrupt_manager.c: 54:     INTCON0bits.IPEN = 1;
  2940                           
  2941                           ; BSR set to: 57
  2942                           ;incstack = 0
  2943  002AD8  8AD2               	bsf	16338,5,c	;volatile
  2944                           
  2945                           ; BSR set to: 1
  2946                           ;mcc_generated_files/interrupt_manager.c: 56:     _Bool state = (unsigned char)GIE;
  2947  002ADA  0E00               	movlw	0
  2948  002ADC  BED2               	btfsc	16338,7,c	;volatile
  2949  002ADE  0E01               	movlw	1
  2950  002AE0  6E06               	movwf	INTERRUPT_Initialize@state,c
  2951                           
  2952                           ; BSR set to: 1
  2953                           ;mcc_generated_files/interrupt_manager.c: 57:     GIE = 0;
  2954  002AE2  9ED2               	bcf	16338,7,c	;volatile
  2955                           
  2956                           ;mcc_generated_files/interrupt_manager.c: 58:     IVTLOCK = 0x55;
  2957  002AE4  0E55               	movlw	85
  2958  002AE6  6ED4               	movwf	16340,c	;volatile
  2959                           
  2960                           ;mcc_generated_files/interrupt_manager.c: 59:     IVTLOCK = 0xAA;
  2961  002AE8  0EAA               	movlw	170
  2962  002AEA  6ED4               	movwf	16340,c	;volatile
  2963                           
  2964                           ; BSR set to: 1
  2965                           ;mcc_generated_files/interrupt_manager.c: 60:     IVTLOCKbits.IVTLOCKED = 0x00;
  2966  002AEC  90D4               	bcf	16340,0,c	;volatile
  2967                           
  2968                           ;mcc_generated_files/interrupt_manager.c: 62:     IVTADU = 0;
  2969  002AEE  0E00               	movlw	0
  2970  002AF0  0138               	movlb	56	; () banked
  2971  002AF2  6F9F               	movwf	159,b	;volatile
  2972                           
  2973                           ;mcc_generated_files/interrupt_manager.c: 63:     IVTADH = 0;
  2974  002AF4  0E00               	movlw	0
  2975  002AF6  6F9E               	movwf	158,b	;volatile
  2976                           
  2977                           ;mcc_generated_files/interrupt_manager.c: 64:     IVTADL = 8;
  2978  002AF8  0E08               	movlw	8
  2979  002AFA  6F9D               	movwf	157,b	;volatile
  2980                           
  2981                           ;mcc_generated_files/interrupt_manager.c: 66:     IVTLOCK = 0x55;
  2982  002AFC  0E55               	movlw	85
  2983  002AFE  6ED4               	movwf	16340,c	;volatile
  2984                           
  2985                           ;mcc_generated_files/interrupt_manager.c: 67:     IVTLOCK = 0xAA;
  2986  002B00  0EAA               	movlw	170
  2987  002B02  6ED4               	movwf	16340,c	;volatile
  2988                           
  2989                           ; BSR set to: 56
  2990                           ;mcc_generated_files/interrupt_manager.c: 68:     IVTLOCKbits.IVTLOCKED = 0x01;
  2991  002B04  80D4               	bsf	16340,0,c	;volatile
  2992                           
  2993                           ; BSR set to: 56
  2994                           ;mcc_generated_files/interrupt_manager.c: 70:     GIE = state;
  2995  002B06  B006               	btfsc	INTERRUPT_Initialize@state,0,c
  2996  002B08  D002               	bra	u1975
  2997  002B0A  9ED2               	bcf	16338,7,c	;volatile
  2998  002B0C  D001               	bra	u1976
  2999  002B0E                     u1975:
  3000  002B0E  8ED2               	bsf	16338,7,c	;volatile
  3001  002B10                     u1976:
  3002                           
  3003                           ;mcc_generated_files/interrupt_manager.c: 72:     IPR6bits.U2TXIP = 1;
  3004  002B10  0139               	movlb	57	; () banked
  3005  002B12  8786               	bsf	134,3,b	;volatile
  3006                           
  3007                           ; BSR set to: 57
  3008                           ;mcc_generated_files/interrupt_manager.c: 73:     IPR6bits.U2RXIP = 1;
  3009  002B14  8586               	bsf	134,2,b	;volatile
  3010                           
  3011                           ; BSR set to: 57
  3012                           ;mcc_generated_files/interrupt_manager.c: 74:     IPR3bits.U1TXIP = 1;
  3013  002B16  8983               	bsf	131,4,b	;volatile
  3014                           
  3015                           ; BSR set to: 57
  3016                           ;mcc_generated_files/interrupt_manager.c: 75:     IPR3bits.U1RXIP = 1;
  3017  002B18  8783               	bsf	131,3,b	;volatile
  3018                           
  3019                           ; BSR set to: 57
  3020                           ;mcc_generated_files/interrupt_manager.c: 76:     IPR9bits.TMR6IP = 1;
  3021  002B1A  8189               	bsf	137,0,b	;volatile
  3022                           
  3023                           ; BSR set to: 57
  3024                           ;mcc_generated_files/interrupt_manager.c: 77:     IPR8bits.TMR5IP = 1;
  3025  002B1C  8D88               	bsf	136,6,b	;volatile
  3026                           
  3027                           ; BSR set to: 57
  3028  002B1E  0012               	return		;funcret
  3029  002B20                     __end_of_INTERRUPT_Initialize:
  3030                           	opt callstack 0
  3031                           
  3032 ;; *************** function _ADCC_Initialize *****************
  3033 ;; Defined at:
  3034 ;;		line 62 in file "mcc_generated_files/adcc.c"
  3035 ;; Parameters:    Size  Location     Type
  3036 ;;		None
  3037 ;; Auto vars:     Size  Location     Type
  3038 ;;		None
  3039 ;; Return value:  Size  Location     Type
  3040 ;;                  1    wreg      void 
  3041 ;; Registers used:
  3042 ;;		wreg, status,2
  3043 ;; Tracked objects:
  3044 ;;		On entry : 3F/39
  3045 ;;		On exit  : 3F/3E
  3046 ;;		Unchanged: 0/0
  3047 ;; Data sizes:     COMRAM   BANK0   BANK1   BANK2   BANK3   BANK4   BANK5   BANK6   BANK7   BANK8   BANK9  BANK10  BANK1
      +1  BANK12  BANK13  BANK14  BANK15  BANK16  BANK17  BANK18  BANK19  BANK20  BANK21  BANK22  BANK23  BANK24  BANK25  BANK2
      +6  BANK27  BANK28  BANK29  BANK30  BANK31
  3048 ;;      Params:         0       0       0       0       0       0       0       0       0       0       0       0       
      +0       0       0       0       0       0       0       0       0       0       0       0       0       0       0       
      +0       0       0       0       0       0
  3049 ;;      Locals:         0       0       0       0       0       0       0       0       0       0       0       0       
      +0       0       0       0       0       0       0       0       0       0       0       0       0       0       0       
      +0       0       0       0       0       0
  3050 ;;      Temps:          0       0       0       0       0       0       0       0       0       0       0       0       
      +0       0       0       0       0       0       0       0       0       0       0       0       0       0       0       
      +0       0       0       0       0       0
  3051 ;;      Totals:         0       0       0       0       0       0       0       0       0       0       0       0       
      +0       0       0       0       0       0       0       0       0       0       0       0       0       0       0       
      +0       0       0       0       0       0
  3052 ;;Total ram usage:        0 bytes
  3053 ;; Hardware stack levels used:    1
  3054 ;; Hardware stack levels required when called:    4
  3055 ;; This function calls:
  3056 ;;		Nothing
  3057 ;; This function is called by:
  3058 ;;		_SYSTEM_Initialize
  3059 ;; This function uses a non-reentrant model
  3060 ;;
  3061                           
  3062                           	psect	text27
  3063  0028E8                     __ptext27:
  3064                           	opt callstack 0
  3065  0028E8                     _ADCC_Initialize:
  3066                           	opt callstack 25
  3067                           
  3068                           ; BSR set to: 57
  3069                           ;mcc_generated_files/adcc.c: 66:     ADLTHL = 0x00;
  3070                           
  3071                           ; BSR set to: 57
  3072                           ;incstack = 0
  3073  0028E8  0E00               	movlw	0
  3074  0028EA  013E               	movlb	62	; () banked
  3075  0028EC  6FDE               	movwf	222,b	;volatile
  3076                           
  3077                           ;mcc_generated_files/adcc.c: 68:     ADLTHH = 0x00;
  3078  0028EE  0E00               	movlw	0
  3079  0028F0  6FDF               	movwf	223,b	;volatile
  3080                           
  3081                           ;mcc_generated_files/adcc.c: 70:     ADUTHL = 0x00;
  3082  0028F2  0E00               	movlw	0
  3083  0028F4  6FE0               	movwf	224,b	;volatile
  3084                           
  3085                           ;mcc_generated_files/adcc.c: 72:     ADUTHH = 0x00;
  3086  0028F6  0E00               	movlw	0
  3087  0028F8  6FE1               	movwf	225,b	;volatile
  3088                           
  3089                           ;mcc_generated_files/adcc.c: 74:     ADSTPTL = 0x00;
  3090  0028FA  0E00               	movlw	0
  3091  0028FC  6FE4               	movwf	228,b	;volatile
  3092                           
  3093                           ;mcc_generated_files/adcc.c: 76:     ADSTPTH = 0x00;
  3094  0028FE  0E00               	movlw	0
  3095  002900  6FE5               	movwf	229,b	;volatile
  3096                           
  3097                           ;mcc_generated_files/adcc.c: 78:     ADACCU = 0x00;
  3098  002902  0E00               	movlw	0
  3099  002904  6FEA               	movwf	234,b	;volatile
  3100                           
  3101                           ;mcc_generated_files/adcc.c: 80:     ADRPT = 0x00;
  3102  002906  0E00               	movlw	0
  3103  002908  6FEC               	movwf	236,b	;volatile
  3104                           
  3105                           ;mcc_generated_files/adcc.c: 82:     ADPCH = 0x00;
  3106  00290A  0E00               	movlw	0
  3107  00290C  6FF1               	movwf	241,b	;volatile
  3108                           
  3109                           ;mcc_generated_files/adcc.c: 84:     ADACQL = 0x00;
  3110  00290E  0E00               	movlw	0
  3111  002910  6FF3               	movwf	243,b	;volatile
  3112                           
  3113                           ;mcc_generated_files/adcc.c: 86:     ADACQH = 0x00;
  3114  002912  0E00               	movlw	0
  3115  002914  6FF4               	movwf	244,b	;volatile
  3116                           
  3117                           ;mcc_generated_files/adcc.c: 88:     ADCAP = 0x00;
  3118  002916  0E00               	movlw	0
  3119  002918  6FF5               	movwf	245,b	;volatile
  3120                           
  3121                           ;mcc_generated_files/adcc.c: 90:     ADPREL = 0x00;
  3122  00291A  0E00               	movlw	0
  3123  00291C  6FF6               	movwf	246,b	;volatile
  3124                           
  3125                           ;mcc_generated_files/adcc.c: 92:     ADPREH = 0x00;
  3126  00291E  0E00               	movlw	0
  3127  002920  6FF7               	movwf	247,b	;volatile
  3128                           
  3129                           ;mcc_generated_files/adcc.c: 94:     ADCON1 = 0x00;
  3130  002922  0E00               	movlw	0
  3131  002924  6FF9               	movwf	249,b	;volatile
  3132                           
  3133                           ;mcc_generated_files/adcc.c: 96:     ADCON2 = 0x02;
  3134  002926  0E02               	movlw	2
  3135  002928  6FFA               	movwf	250,b	;volatile
  3136                           
  3137                           ;mcc_generated_files/adcc.c: 98:     ADCON3 = 0x20;
  3138  00292A  0E20               	movlw	32
  3139  00292C  6FFB               	movwf	251,b	;volatile
  3140                           
  3141                           ;mcc_generated_files/adcc.c: 100:     ADSTAT = 0x00;
  3142  00292E  0E00               	movlw	0
  3143  002930  6FFC               	movwf	252,b	;volatile
  3144                           
  3145                           ;mcc_generated_files/adcc.c: 102:     ADREF = 0x00;
  3146  002932  0E00               	movlw	0
  3147  002934  6FFD               	movwf	253,b	;volatile
  3148                           
  3149                           ;mcc_generated_files/adcc.c: 104:     ADACT = 0x00;
  3150  002936  0E00               	movlw	0
  3151  002938  6FFE               	movwf	254,b	;volatile
  3152                           
  3153                           ;mcc_generated_files/adcc.c: 106:     ADCLK = 0x3F;
  3154  00293A  0E3F               	movlw	63
  3155  00293C  6FFF               	movwf	255,b	;volatile
  3156                           
  3157                           ;mcc_generated_files/adcc.c: 108:     ADCON0 = 0xC4;
  3158  00293E  0EC4               	movlw	196
  3159  002940  6FF8               	movwf	248,b	;volatile
  3160                           
  3161                           ; BSR set to: 62
  3162  002942  0012               	return		;funcret
  3163  002944                     __end_of_ADCC_Initialize:
  3164                           	opt callstack 0
  3165                           
  3166 ;; *************** function _Digital232_init *****************
  3167 ;; Defined at:
  3168 ;;		line 5 in file "d232.c"
  3169 ;; Parameters:    Size  Location     Type
  3170 ;;		None
  3171 ;; Auto vars:     Size  Location     Type
  3172 ;;		None
  3173 ;; Return value:  Size  Location     Type
  3174 ;;                  1    wreg      void 
  3175 ;; Registers used:
  3176 ;;		wreg, fsr1l, fsr1h, fsr2l, fsr2h, status,2, status,0, tblptrl, tblptrh, tblptru, prodl, prodh, cstack
  3177 ;; Tracked objects:
  3178 ;;		On entry : 0/0
  3179 ;;		On exit  : 3F/3E
  3180 ;;		Unchanged: 0/0
  3181 ;; Data sizes:     COMRAM   BANK0   BANK1   BANK2   BANK3   BANK4   BANK5   BANK6   BANK7   BANK8   BANK9  BANK10  BANK1
      +1  BANK12  BANK13  BANK14  BANK15  BANK16  BANK17  BANK18  BANK19  BANK20  BANK21  BANK22  BANK23  BANK24  BANK25  BANK2
      +6  BANK27  BANK28  BANK29  BANK30  BANK31
  3182 ;;      Params:         0       0       0       0       0       0       0       0       0       0       0       0       
      +0       0       0       0       0       0       0       0       0       0       0       0       0       0       0       
      +0       0       0       0       0       0
  3183 ;;      Locals:         0       0       0       0       0       0       0       0       0       0       0       0       
      +0       0       0       0       0       0       0       0       0       0       0       0       0       0       0       
      +0       0       0       0       0       0
  3184 ;;      Temps:          0       0       0       0       0       0       0       0       0       0       0       0       
      +0       0       0       0       0       0       0       0       0       0       0       0       0       0       0       
      +0       0       0       0       0       0
  3185 ;;      Totals:         0       0       0       0       0       0       0       0       0       0       0       0       
      +0       0       0       0       0       0       0       0       0       0       0       0       0       0       0       
      +0       0       0       0       0       0
  3186 ;;Total ram usage:        0 bytes
  3187 ;; Hardware stack levels used:    1
  3188 ;; Hardware stack levels required when called:   11
  3189 ;; This function calls:
  3190 ;;		_ADCC_StartConversion
  3191 ;;		_UART2_Read
  3192 ;;		_UART2_is_rx_ready
  3193 ;;		_WaitMs
  3194 ;;		_printf
  3195 ;; This function is called by:
  3196 ;;		_main
  3197 ;; This function uses a non-reentrant model
  3198 ;;
  3199                           
  3200                           	psect	text28
  3201  002498                     __ptext28:
  3202                           	opt callstack 0
  3203  002498                     _Digital232_init:
  3204                           	opt callstack 19
  3205                           
  3206                           ;d232.c: 7:  printf("%s", "XQ\r");
  3207                           
  3208                           ; BSR set to: 62
  3209                           ;incstack = 0
  3210  002498  0E19               	movlw	low STR_1
  3211  00249A  6E32               	movwf	printf@fmt,c
  3212  00249C  0E15               	movlw	low STR_2
  3213  00249E  6E33               	movwf	?_printf+1,c
  3214  0024A0  5033               	movf	?_printf+1,w,c
  3215  0024A2  A4D8               	btfss	status,2,c
  3216  0024A4  0E20               	movlw	high __smallconst
  3217  0024A6  6E34               	movwf	?_printf+2,c
  3218  0024A8  EC86  F017         	call	_printf	;wreg free
  3219                           
  3220                           ; BSR set to: 0
  3221                           ;d232.c: 8:  WaitMs(5);
  3222  0024AC  0E00               	movlw	0
  3223  0024AE  6E0C               	movwf	WaitMs@numMilliseconds+1,c
  3224  0024B0  0E05               	movlw	5
  3225  0024B2  6E0B               	movwf	WaitMs@numMilliseconds,c
  3226  0024B4  EC5B  F016         	call	_WaitMs	;wreg free
  3227                           
  3228                           ;d232.c: 9:  printf("%s", "T2\r");
  3229  0024B8  0E19               	movlw	low STR_1
  3230  0024BA  6E32               	movwf	printf@fmt,c
  3231  0024BC  0E05               	movlw	low STR_4
  3232  0024BE  6E33               	movwf	?_printf+1,c
  3233  0024C0  5033               	movf	?_printf+1,w,c
  3234  0024C2  A4D8               	btfss	status,2,c
  3235  0024C4  0E20               	movlw	high __smallconst
  3236  0024C6  6E34               	movwf	?_printf+2,c
  3237  0024C8  EC86  F017         	call	_printf	;wreg free
  3238                           
  3239                           ;d232.c: 10:  WaitMs(800);
  3240  0024CC  0E03               	movlw	3
  3241  0024CE  6E0C               	movwf	WaitMs@numMilliseconds+1,c
  3242  0024D0  0E20               	movlw	32
  3243  0024D2  6E0B               	movwf	WaitMs@numMilliseconds,c
  3244  0024D4  EC5B  F016         	call	_WaitMs	;wreg free
  3245                           
  3246                           ;d232.c: 11:  printf("%s", "C4\r");
  3247  0024D8  0E19               	movlw	low STR_1
  3248  0024DA  6E32               	movwf	printf@fmt,c
  3249  0024DC  0E09               	movlw	low STR_6
  3250  0024DE  6E33               	movwf	?_printf+1,c
  3251  0024E0  5033               	movf	?_printf+1,w,c
  3252  0024E2  A4D8               	btfss	status,2,c
  3253  0024E4  0E20               	movlw	high __smallconst
  3254  0024E6  6E34               	movwf	?_printf+2,c
  3255  0024E8  EC86  F017         	call	_printf	;wreg free
  3256                           
  3257                           ; BSR set to: 0
  3258                           ;d232.c: 12:  WaitMs(5);
  3259  0024EC  0E00               	movlw	0
  3260  0024EE  6E0C               	movwf	WaitMs@numMilliseconds+1,c
  3261  0024F0  0E05               	movlw	5
  3262  0024F2  6E0B               	movwf	WaitMs@numMilliseconds,c
  3263  0024F4  EC5B  F016         	call	_WaitMs	;wreg free
  3264                           
  3265                           ;d232.c: 13:  printf("%s", "F4\r");
  3266  0024F8  0E19               	movlw	low STR_1
  3267  0024FA  6E32               	movwf	printf@fmt,c
  3268  0024FC  0E0D               	movlw	low STR_8
  3269  0024FE  6E33               	movwf	?_printf+1,c
  3270  002500  5033               	movf	?_printf+1,w,c
  3271  002502  A4D8               	btfss	status,2,c
  3272  002504  0E20               	movlw	high __smallconst
  3273  002506  6E34               	movwf	?_printf+2,c
  3274  002508  EC86  F017         	call	_printf	;wreg free
  3275                           
  3276                           ; BSR set to: 0
  3277                           ;d232.c: 14:  WaitMs(5);
  3278  00250C  0E00               	movlw	0
  3279  00250E  6E0C               	movwf	WaitMs@numMilliseconds+1,c
  3280  002510  0E05               	movlw	5
  3281  002512  6E0B               	movwf	WaitMs@numMilliseconds,c
  3282  002514  EC5B  F016         	call	_WaitMs	;wreg free
  3283                           
  3284                           ;d232.c: 15:  printf("%s", "M4\r");
  3285  002518  0E19               	movlw	low STR_1
  3286  00251A  6E32               	movwf	printf@fmt,c
  3287  00251C  0E11               	movlw	low STR_10
  3288  00251E  6E33               	movwf	?_printf+1,c
  3289  002520  5033               	movf	?_printf+1,w,c
  3290  002522  A4D8               	btfss	status,2,c
  3291  002524  0E20               	movlw	high __smallconst
  3292  002526  6E34               	movwf	?_printf+2,c
  3293  002528  EC86  F017         	call	_printf	;wreg free
  3294                           
  3295                           ;d232.c: 16:  WaitMs(5);
  3296  00252C  0E00               	movlw	0
  3297  00252E  6E0C               	movwf	WaitMs@numMilliseconds+1,c
  3298  002530  0E05               	movlw	5
  3299  002532  6E0B               	movwf	WaitMs@numMilliseconds,c
  3300  002534  EC5B  F016         	call	_WaitMs	;wreg free
  3301                           
  3302                           ;d232.c: 17:  IO.d232 = D232_INIT;
  3303  002538  0E01               	movlw	1
  3304  00253A  0100               	movlb	0	; () banked
  3305  00253C  6FA7               	movwf	(_IO+13)& (0+255),b	;volatile
  3306                           
  3307                           ; BSR set to: 0
  3308                           ;d232.c: 21:  if (UART2_is_rx_ready())
  3309  00253E  EC4F  F018         	call	_UART2_is_rx_ready	;wreg free
  3310  002542  0900               	iorlw	0
  3311  002544  A4D8               	btfss	status,2,c
  3312                           
  3313                           ;d232.c: 22:   UART2_Read();
  3314  002546  ECC8  F015         	call	_UART2_Read	;wreg free
  3315                           
  3316                           ;d232.c: 23:  IO.io = IO_INIT;
  3317  00254A  0E01               	movlw	1
  3318  00254C  0100               	movlb	0	; () banked
  3319  00254E  6FA6               	movwf	(_IO+12)& (0+255),b	;volatile
  3320                           
  3321                           ; BSR set to: 0
  3322                           ;d232.c: 24:  IO.srq = S_IDLE;
  3323  002550  0E00               	movlw	0
  3324  002552  6FA8               	movwf	(_IO+14)& (0+255),b	;volatile
  3325                           
  3326                           ; BSR set to: 0
  3327                           ;d232.c: 25:  IO.srq_value = 0;
  3328  002554  0E00               	movlw	0
  3329  002556  6FA9               	movwf	(_IO+15)& (0+255),b	;volatile
  3330                           
  3331                           ; BSR set to: 0
  3332                           ;d232.c: 26:  IO.button_value = 0;
  3333  002558  0E00               	movlw	0
  3334  00255A  6FAB               	movwf	(_IO+17)& (0+255),b	;volatile
  3335  00255C  0E00               	movlw	0
  3336  00255E  6FAA               	movwf	(_IO+16)& (0+255),b	;volatile
  3337                           
  3338                           ; BSR set to: 0
  3339                           ;d232.c: 27:  ADCC_StartConversion(channel_ANA0);
  3340  002560  0E00               	movlw	0
  3341  002562  EC2F  F018         	call	_ADCC_StartConversion
  3342                           
  3343                           ; BSR set to: 62
  3344  002566  0012               	return		;funcret
  3345  002568                     __end_of_Digital232_init:
  3346                           	opt callstack 0
  3347                           
  3348 ;; *************** function _Digital232_RW *****************
  3349 ;; Defined at:
  3350 ;;		line 30 in file "d232.c"
  3351 ;; Parameters:    Size  Location     Type
  3352 ;;		None
  3353 ;; Auto vars:     Size  Location     Type
  3354 ;;  j               1    3[BANK1 ] unsigned char 
  3355 ;;  i               1    2[BANK1 ] unsigned char 
  3356 ;; Return value:  Size  Location     Type
  3357 ;;                  1    wreg      _Bool 
  3358 ;; Registers used:
  3359 ;;		wreg, fsr1l, fsr1h, fsr2l, fsr2h, status,2, status,0, tblptrl, tblptrh, tblptru, prodl, prodh, cstack
  3360 ;; Tracked objects:
  3361 ;;		On entry : 0/3E
  3362 ;;		On exit  : 0/0
  3363 ;;		Unchanged: 0/0
  3364 ;; Data sizes:     COMRAM   BANK0   BANK1   BANK2   BANK3   BANK4   BANK5   BANK6   BANK7   BANK8   BANK9  BANK10  BANK1
      +1  BANK12  BANK13  BANK14  BANK15  BANK16  BANK17  BANK18  BANK19  BANK20  BANK21  BANK22  BANK23  BANK24  BANK25  BANK2
      +6  BANK27  BANK28  BANK29  BANK30  BANK31
  3365 ;;      Params:         0       0       0       0       0       0       0       0       0       0       0       0       
      +0       0       0       0       0       0       0       0       0       0       0       0       0       0       0       
      +0       0       0       0       0       0
  3366 ;;      Locals:         0       0       2       0       0       0       0       0       0       0       0       0       
      +0       0       0       0       0       0       0       0       0       0       0       0       0       0       0       
      +0       0       0       0       0       0
  3367 ;;      Temps:          0       0       2       0       0       0       0       0       0       0       0       0       
      +0       0       0       0       0       0       0       0       0       0       0       0       0       0       0       
      +0       0       0       0       0       0
  3368 ;;      Totals:         0       0       4       0       0       0       0       0       0       0       0       0       
      +0       0       0       0       0       0       0       0       0       0       0       0       0       0       0       
      +0       0       0       0       0       0
  3369 ;;Total ram usage:        4 bytes
  3370 ;; Hardware stack levels used:    1
  3371 ;; Hardware stack levels required when called:   11
  3372 ;; This function calls:
  3373 ;;		_ADCC_GetConversionResult
  3374 ;;		_ADCC_IsConversionDone
  3375 ;;		_ADCC_StartConversion
  3376 ;;		_StartTimer
  3377 ;;		_TimerDone
  3378 ;;		_UART2_Read
  3379 ;;		_UART2_Write
  3380 ;;		_UART2_is_rx_ready
  3381 ;;		_WaitMs
  3382 ;;		_printf
  3383 ;; This function is called by:
  3384 ;;		_main
  3385 ;; This function uses a non-reentrant model
  3386 ;;
  3387                           
  3388                           	psect	text29
  3389  00201E                     __ptext29:
  3390                           	opt callstack 0
  3391  00201E                     _Digital232_RW:
  3392                           	opt callstack 19
  3393                           
  3394                           ;d232.c: 32:  uint8_t i = 0, j = 0;
  3395                           
  3396                           ; BSR set to: 62
  3397                           ;incstack = 0
  3398  00201E  0E00               	movlw	0
  3399  002020  0101               	movlb	1	; () banked
  3400  002022  6F02               	movwf	Digital232_RW@i& (0+255),b
  3401                           
  3402                           ;d232.c: 36:  IO.srq = S_IDLE;
  3403  002024  0E00               	movlw	0
  3404  002026  0100               	movlb	0	; () banked
  3405  002028  6FA8               	movwf	(_IO+14)& (0+255),b	;volatile
  3406                           
  3407                           ; BSR set to: 0
  3408                           ;d232.c: 37:  if (UART2_is_rx_ready()) {
  3409  00202A  EC4F  F018         	call	_UART2_is_rx_ready	;wreg free
  3410  00202E  0900               	iorlw	0
  3411  002030  B4D8               	btfsc	status,2,c
  3412  002032  D040               	goto	l3849
  3413                           
  3414                           ;d232.c: 38:   j = UART2_Read();
  3415  002034  ECC8  F015         	call	_UART2_Read	;wreg free
  3416  002038  0101               	movlb	1	; () banked
  3417  00203A  6F03               	movwf	Digital232_RW@j& (0+255),b
  3418                           
  3419                           ;d232.c: 42:   switch (IO.srq) {
  3420  00203C  D021               	goto	l3847
  3421  00203E                     l3827:
  3422                           
  3423                           ; BSR set to: 1
  3424                           ;d232.c: 44:    if (j == 'S')
  3425  00203E  0E53               	movlw	83
  3426  002040  1903               	xorwf	Digital232_RW@j& (0+255),w,b
  3427  002042  A4D8               	btfss	status,2,c
  3428  002044  D037               	goto	l3849
  3429                           
  3430                           ; BSR set to: 1
  3431                           ;d232.c: 45:     IO.srq = S_S;
  3432  002046  0E01               	movlw	1
  3433  002048  D018               	goto	L5
  3434  00204A                     l3831:
  3435                           
  3436                           ; BSR set to: 1
  3437                           ;d232.c: 48:    if (j == 'R')
  3438  00204A  0E52               	movlw	82
  3439  00204C  1903               	xorwf	Digital232_RW@j& (0+255),w,b
  3440  00204E  A4D8               	btfss	status,2,c
  3441  002050  D031               	goto	l3849
  3442                           
  3443                           ; BSR set to: 1
  3444                           ;d232.c: 49:     IO.srq = S_R;
  3445  002052  0E02               	movlw	2
  3446  002054  D012               	goto	L5
  3447  002056                     l3835:
  3448                           
  3449                           ; BSR set to: 1
  3450                           ;d232.c: 52:    if (j == 'Q')
  3451  002056  0E51               	movlw	81
  3452  002058  1903               	xorwf	Digital232_RW@j& (0+255),w,b
  3453  00205A  A4D8               	btfss	status,2,c
  3454  00205C  D02B               	goto	l3849
  3455                           
  3456                           ; BSR set to: 1
  3457                           ;d232.c: 53:     IO.srq = S_Q;
  3458  00205E  0E03               	movlw	3
  3459  002060  D00C               	goto	L5
  3460  002062                     l3839:
  3461                           
  3462                           ; BSR set to: 1
  3463                           ;d232.c: 56:    if (j == ' ')
  3464  002062  0E20               	movlw	32
  3465  002064  1903               	xorwf	Digital232_RW@j& (0+255),w,b
  3466  002066  A4D8               	btfss	status,2,c
  3467  002068  D025               	goto	l3849
  3468                           
  3469                           ; BSR set to: 1
  3470                           ;d232.c: 57:     IO.srq = S_NUM;
  3471  00206A  0E04               	movlw	4
  3472  00206C  D006               	goto	L5
  3473  00206E                     l878:
  3474                           
  3475                           ; BSR set to: 1
  3476                           ;d232.c: 60:    IO.srq_value = j;
  3477  00206E  0060  F40C  F0A9   	movff	Digital232_RW@j,_IO+15	;volatile
  3478                           
  3479                           ; BSR set to: 1
  3480                           ;d232.c: 61:    IO.srq = S_UPDATE;
  3481  002074  0E05               	movlw	5
  3482  002076  D001               	goto	L5
  3483  002078                     l3845:
  3484                           
  3485                           ; BSR set to: 1
  3486                           ;d232.c: 64:    IO.srq = S_IDLE;
  3487  002078  0E00               	movlw	0
  3488  00207A                     L5:
  3489  00207A  0100               	movlb	0	; () banked
  3490  00207C  6FA8               	movwf	(_IO+14)& (0+255),b	;volatile
  3491                           
  3492                           ;d232.c: 65:   }
  3493  00207E  D01A               	goto	l3849
  3494  002080                     l3847:
  3495                           
  3496                           ; BSR set to: 1
  3497  002080  0100               	movlb	0	; () banked
  3498  002082  51A8               	movf	(_IO+14)& (0+255),w,b	;volatile
  3499  002084  0101               	movlb	1	; () banked
  3500  002086  6F00               	movwf	??_Digital232_RW& (0+255),b
  3501  002088  6B01               	clrf	(??_Digital232_RW+1)& (0+255),b
  3502                           
  3503                           ; Switch on 2 bytes has been partitioned into a top level switch of size 1, and 1 sub-sw
      +                          itches
  3504                           ; Switch size 1, requested type "simple"
  3505                           ; Number of cases is 1, Range of values is 0 to 0
  3506                           ; switch strategies available:
  3507                           ; Name         Instructions Cycles
  3508                           ; simple_byte            4     3 (average)
  3509                           ;	Chosen strategy is simple_byte
  3510  00208A  5101               	movf	(??_Digital232_RW+1)& (0+255),w,b
  3511  00208C  0A00               	xorlw	0	; case 0
  3512  00208E  A4D8               	btfss	status,2,c
  3513  002090  D7F3               	goto	l3845
  3514                           
  3515                           ; BSR set to: 1
  3516                           ; Switch size 1, requested type "simple"
  3517                           ; Number of cases is 5, Range of values is 0 to 4
  3518                           ; switch strategies available:
  3519                           ; Name         Instructions Cycles
  3520                           ; simple_byte           16     9 (average)
  3521                           ;	Chosen strategy is simple_byte
  3522  002092  5100               	movf	??_Digital232_RW& (0+255),w,b
  3523  002094  0A00               	xorlw	0	; case 0
  3524  002096  B4D8               	btfsc	status,2,c
  3525  002098  D7D2               	goto	l3827
  3526  00209A  0A01               	xorlw	1	; case 1
  3527  00209C  B4D8               	btfsc	status,2,c
  3528  00209E  D7D5               	goto	l3831
  3529  0020A0  0A03               	xorlw	3	; case 2
  3530  0020A2  B4D8               	btfsc	status,2,c
  3531  0020A4  D7D8               	goto	l3835
  3532  0020A6  0A01               	xorlw	1	; case 3
  3533  0020A8  B4D8               	btfsc	status,2,c
  3534  0020AA  D7DB               	goto	l3839
  3535  0020AC  0A07               	xorlw	7	; case 4
  3536  0020AE  B4D8               	btfsc	status,2,c
  3537  0020B0  D7DE               	goto	l878
  3538  0020B2  D7E2               	goto	l3845
  3539  0020B4                     l3849:
  3540                           
  3541                           ;d232.c: 68:  WaitMs(10);
  3542  0020B4  0E00               	movlw	0
  3543  0020B6  6E0C               	movwf	WaitMs@numMilliseconds+1,c
  3544  0020B8  0E0A               	movlw	10
  3545  0020BA  6E0B               	movwf	WaitMs@numMilliseconds,c
  3546  0020BC  EC5B  F016         	call	_WaitMs	;wreg free
  3547                           
  3548                           ;d232.c: 69:  IO.outbytes[0] = 0;
  3549  0020C0  0E00               	movlw	0
  3550  0020C2  0100               	movlb	0	; () banked
  3551  0020C4  6F9F               	movwf	(_IO+5)& (0+255),b	;volatile
  3552                           
  3553                           ; BSR set to: 0
  3554                           ;d232.c: 70:  IO.outbytes[1]++;
  3555  0020C6  2BA0               	incf	(_IO+6)& (0+255),f,b	;volatile
  3556                           
  3557                           ; BSR set to: 0
  3558                           ;d232.c: 71:  IO.outbytes[2] = 255;
  3559  0020C8  69A1               	setf	(_IO+7)& (0+255),b	;volatile
  3560                           
  3561                           ; BSR set to: 0
  3562                           ;d232.c: 72:  IO.outbytes[3] = 0;
  3563  0020CA  0E00               	movlw	0
  3564  0020CC  6FA2               	movwf	(_IO+8)& (0+255),b	;volatile
  3565                           
  3566                           ; BSR set to: 0
  3567                           ;d232.c: 73:  IO.outbytes[4]--;
  3568  0020CE  07A3               	decf	(_IO+9)& (0+255),f,b	;volatile
  3569                           
  3570                           ; BSR set to: 0
  3571                           ;d232.c: 74:  UART2_Write('D');
  3572  0020D0  0E44               	movlw	68
  3573  0020D2  ECAC  F015         	call	_UART2_Write
  3574                           
  3575                           ; BSR set to: 57
  3576                           ;d232.c: 75:  UART2_Write(IO.outbytes[0]);
  3577  0020D6  0100               	movlb	0	; () banked
  3578  0020D8  519F               	movf	(_IO+5)& (0+255),w,b	;volatile
  3579  0020DA  ECAC  F015         	call	_UART2_Write
  3580                           
  3581                           ; BSR set to: 57
  3582                           ;d232.c: 76:  UART2_Write(IO.outbytes[1]);
  3583  0020DE  0100               	movlb	0	; () banked
  3584  0020E0  51A0               	movf	(_IO+6)& (0+255),w,b	;volatile
  3585  0020E2  ECAC  F015         	call	_UART2_Write
  3586                           
  3587                           ; BSR set to: 57
  3588                           ;d232.c: 77:  UART2_Write(IO.outbytes[2]);
  3589  0020E6  0100               	movlb	0	; () banked
  3590  0020E8  51A1               	movf	(_IO+7)& (0+255),w,b	;volatile
  3591  0020EA  ECAC  F015         	call	_UART2_Write
  3592                           
  3593                           ; BSR set to: 57
  3594                           ;d232.c: 78:  UART2_Write(IO.outbytes[3]);
  3595  0020EE  0100               	movlb	0	; () banked
  3596  0020F0  51A2               	movf	(_IO+8)& (0+255),w,b	;volatile
  3597  0020F2  ECAC  F015         	call	_UART2_Write
  3598                           
  3599                           ; BSR set to: 57
  3600                           ;d232.c: 79:  UART2_Write(IO.outbytes[4]);
  3601  0020F6  0100               	movlb	0	; () banked
  3602  0020F8  51A3               	movf	(_IO+9)& (0+255),w,b	;volatile
  3603  0020FA  ECAC  F015         	call	_UART2_Write
  3604                           
  3605                           ; BSR set to: 57
  3606                           ;d232.c: 80:  UART2_Write('\r');
  3607  0020FE  0E0D               	movlw	13
  3608  002100  ECAC  F015         	call	_UART2_Write
  3609                           
  3610                           ; BSR set to: 57
  3611                           ;d232.c: 81:  WaitMs(5);
  3612  002104  0E00               	movlw	0
  3613  002106  6E0C               	movwf	WaitMs@numMilliseconds+1,c
  3614  002108  0E05               	movlw	5
  3615  00210A  6E0B               	movwf	WaitMs@numMilliseconds,c
  3616  00210C  EC5B  F016         	call	_WaitMs	;wreg free
  3617                           
  3618                           ;d232.c: 82:  printf("%s", "R0\r");
  3619  002110  0E19               	movlw	low STR_1
  3620  002112  6E32               	movwf	printf@fmt,c
  3621  002114  0E01               	movlw	low STR_12
  3622  002116  6E33               	movwf	?_printf+1,c
  3623  002118  5033               	movf	?_printf+1,w,c
  3624  00211A  A4D8               	btfss	status,2,c
  3625  00211C  0E20               	movlw	high __smallconst
  3626  00211E  6E34               	movwf	?_printf+2,c
  3627  002120  EC86  F017         	call	_printf	;wreg free
  3628                           
  3629                           ; BSR set to: 0
  3630                           ;d232.c: 83:  IO.output_ok = 1;
  3631  002124  0E01               	movlw	1
  3632  002126  6FA5               	movwf	(_IO+11)& (0+255),b	;volatile
  3633                           
  3634                           ; BSR set to: 0
  3635                           ;d232.c: 84:  IO.io = IO_OUT;
  3636  002128  0E02               	movlw	2
  3637  00212A  6FA6               	movwf	(_IO+12)& (0+255),b	;volatile
  3638                           
  3639                           ; BSR set to: 0
  3640                           ;d232.c: 88:  StartTimer(TMR_RXTO, 250);
  3641  00212C  0E00               	movlw	0
  3642  00212E  6E07               	movwf	StartTimer@count+1,c
  3643  002130  0EFA               	movlw	250
  3644  002132  6E06               	movwf	StartTimer@count,c
  3645  002134  0E02               	movlw	2
  3646  002136  EC2E  F016         	call	_StartTimer
  3647  00213A                     l3885:
  3648                           
  3649                           ;d232.c: 89:  while (!TimerDone(TMR_RXTO) && !UART2_is_rx_ready()) {
  3650  00213A  0E02               	movlw	2
  3651  00213C  EC2D  F017         	call	_TimerDone
  3652  002140  0900               	iorlw	0
  3653  002142  A4D8               	btfss	status,2,c
  3654  002144  D005               	goto	u2150
  3655  002146  EC4F  F018         	call	_UART2_is_rx_ready	;wreg free
  3656  00214A  0900               	iorlw	0
  3657  00214C  B4D8               	btfsc	status,2,c
  3658  00214E  D7F5               	goto	l3885
  3659  002150                     u2150:
  3660                           
  3661                           ;d232.c: 91:  if (TimerDone(TMR_RXTO))
  3662  002150  0E02               	movlw	2
  3663  002152  EC2D  F017         	call	_TimerDone
  3664  002156  0900               	iorlw	0
  3665  002158  A4D8               	btfss	status,2,c
  3666  00215A  0012               	return	
  3667                           
  3668                           ;d232.c: 97:  StartTimer(TMR_RXTO, 250);
  3669  00215C  0E00               	movlw	0
  3670  00215E  6E07               	movwf	StartTimer@count+1,c
  3671  002160  0EFA               	movlw	250
  3672  002162  6E06               	movwf	StartTimer@count,c
  3673  002164  0E02               	movlw	2
  3674  002166  EC2E  F016         	call	_StartTimer
  3675                           
  3676                           ;d232.c: 98:  while (!TimerDone(TMR_RXTO) && (i < 6)) {
  3677  00216A  D011               	goto	l3901
  3678  00216C                     l3895:
  3679                           
  3680                           ; BSR set to: 1
  3681                           ;d232.c: 99:   if (UART2_is_rx_ready()) {
  3682  00216C  EC4F  F018         	call	_UART2_is_rx_ready	;wreg free
  3683  002170  0900               	iorlw	0
  3684  002172  B4D8               	btfsc	status,2,c
  3685  002174  D00C               	goto	l3901
  3686                           
  3687                           ;d232.c: 100:    IO.inbytes[i] = UART2_Read();
  3688  002176  ECC8  F015         	call	_UART2_Read	;wreg free
  3689  00217A  0101               	movlb	1	; () banked
  3690  00217C  6F00               	movwf	??_Digital232_RW& (0+255),b
  3691  00217E  5102               	movf	Digital232_RW@i& (0+255),w,b
  3692  002180  0F9A               	addlw	low _IO
  3693  002182  6ED9               	movwf	fsr2l,c
  3694  002184  6ADA               	clrf	fsr2h,c
  3695  002186  0060  F403  FFDF   	movff	??_Digital232_RW,indf2
  3696                           
  3697                           ; BSR set to: 1
  3698                           ;d232.c: 101:    i++;
  3699  00218C  2B02               	incf	Digital232_RW@i& (0+255),f,b
  3700  00218E                     l3901:
  3701                           
  3702                           ;d232.c: 98:  while (!TimerDone(TMR_RXTO) && (i < 6)) {
  3703  00218E  0E02               	movlw	2
  3704  002190  EC2D  F017         	call	_TimerDone
  3705  002194  0900               	iorlw	0
  3706  002196  A4D8               	btfss	status,2,c
  3707  002198  D004               	goto	u2190
  3708  00219A  0E05               	movlw	5
  3709  00219C  0101               	movlb	1	; () banked
  3710  00219E  6502               	cpfsgt	Digital232_RW@i& (0+255),b
  3711  0021A0  D7E5               	goto	l3895
  3712  0021A2                     u2190:
  3713                           
  3714                           ;d232.c: 104:  if (TimerDone(TMR_RXTO) || i < 6)
  3715  0021A2  0E02               	movlw	2
  3716  0021A4  EC2D  F017         	call	_TimerDone
  3717  0021A8  0900               	iorlw	0
  3718  0021AA  A4D8               	btfss	status,2,c
  3719  0021AC  0012               	return	
  3720  0021AE  0E06               	movlw	6
  3721  0021B0  0101               	movlb	1	; () banked
  3722  0021B2  6102               	cpfslt	Digital232_RW@i& (0+255),b
  3723  0021B4  D001               	goto	l3909
  3724  0021B6  0012               	return	
  3725  0021B8                     l3909:
  3726                           
  3727                           ; BSR set to: 1
  3728                           ;d232.c: 106:  IO.input_ok = 1;
  3729  0021B8  0E01               	movlw	1
  3730  0021BA  0100               	movlb	0	; () banked
  3731  0021BC  6FA4               	movwf	(_IO+10)& (0+255),b	;volatile
  3732                           
  3733                           ;d232.c: 107:  IO.io = IO_IN;
  3734  0021BE  0E03               	movlw	3
  3735  0021C0  6FA6               	movwf	(_IO+12)& (0+255),b	;volatile
  3736                           
  3737                           ;d232.c: 108:  IO.d232 = D232_OUT_IN;
  3738  0021C2  0E02               	movlw	2
  3739  0021C4  6FA7               	movwf	(_IO+13)& (0+255),b	;volatile
  3740                           
  3741                           ; BSR set to: 0
  3742                           ;d232.c: 110:  ADCC_StartConversion(channel_ANA0);
  3743  0021C6  0E00               	movlw	0
  3744  0021C8  EC2F  F018         	call	_ADCC_StartConversion
  3745  0021CC                     l3913:
  3746                           
  3747                           ; BSR set to: 62
  3748  0021CC  EC37  F018         	call	_ADCC_IsConversionDone	;wreg free
  3749  0021D0  0900               	iorlw	0
  3750  0021D2  B4D8               	btfsc	status,2,c
  3751  0021D4  D7FB               	goto	l3913
  3752                           
  3753                           ; BSR set to: 62
  3754                           ;d232.c: 112:  IO.button_value = ADCC_GetConversionResult();
  3755  0021D6  EC25  F018         	call	_ADCC_GetConversionResult	;wreg free
  3756  0021DA  0060  F018  F0AA   	movff	?_ADCC_GetConversionResult,_IO+16	;volatile
  3757  0021E0  0060  F01C  F0AB   	movff	?_ADCC_GetConversionResult+1,_IO+17	;volatile
  3758  0021E6  0012               	return		;funcret
  3759  0021E8                     __end_of_Digital232_RW:
  3760                           	opt callstack 0
  3761                           
  3762 ;; *************** function _printf *****************
  3763 ;; Defined at:
  3764 ;;		line 5 in file "/opt/microchip/xc8/v2.05/pic/sources/c99/common/printf.c"
  3765 ;; Parameters:    Size  Location     Type
  3766 ;;  fmt             1   49[COMRAM] PTR const unsigned char 
  3767 ;;		 -> STR_11(3), STR_9(3), STR_7(3), STR_5(3), 
  3768 ;;		 -> STR_3(3), STR_1(3), 
  3769 ;; Auto vars:     Size  Location     Type
  3770 ;;  ret             2    0        int 
  3771 ;;  ap              1   54[COMRAM] PTR void [1]
  3772 ;;		 -> ?_printf(2), 
  3773 ;; Return value:  Size  Location     Type
  3774 ;;                  2   49[COMRAM] int 
  3775 ;; Registers used:
  3776 ;;		wreg, fsr1l, fsr1h, fsr2l, fsr2h, status,2, status,0, tblptrl, tblptrh, tblptru, cstack
  3777 ;; Tracked objects:
  3778 ;;		On entry : 0/0
  3779 ;;		On exit  : 3F/0
  3780 ;;		Unchanged: 0/0
  3781 ;; Data sizes:     COMRAM   BANK0   BANK1   BANK2   BANK3   BANK4   BANK5   BANK6   BANK7   BANK8   BANK9  BANK10  BANK1
      +1  BANK12  BANK13  BANK14  BANK15  BANK16  BANK17  BANK18  BANK19  BANK20  BANK21  BANK22  BANK23  BANK24  BANK25  BANK2
      +6  BANK27  BANK28  BANK29  BANK30  BANK31
  3782 ;;      Params:         3       0       0       0       0       0       0       0       0       0       0       0       
      +0       0       0       0       0       0       0       0       0       0       0       0       0       0       0       
      +0       0       0       0       0       0
  3783 ;;      Locals:         3       0       0       0       0       0       0       0       0       0       0       0       
      +0       0       0       0       0       0       0       0       0       0       0       0       0       0       0       
      +0       0       0       0       0       0
  3784 ;;      Temps:          0       0       0       0       0       0       0       0       0       0       0       0       
      +0       0       0       0       0       0       0       0       0       0       0       0       0       0       0       
      +0       0       0       0       0       0
  3785 ;;      Totals:         6       0       0       0       0       0       0       0       0       0       0       0       
      +0       0       0       0       0       0       0       0       0       0       0       0       0       0       0       
      +0       0       0       0       0       0
  3786 ;;Total ram usage:        6 bytes
  3787 ;; Hardware stack levels used:    1
  3788 ;; Hardware stack levels required when called:   10
  3789 ;; This function calls:
  3790 ;;		_vfprintf
  3791 ;; This function is called by:
  3792 ;;		_Digital232_init
  3793 ;;		_Digital232_RW
  3794 ;; This function uses a non-reentrant model
  3795 ;;
  3796                           
  3797                           	psect	text30
  3798  002F0C                     __ptext30:
  3799                           	opt callstack 0
  3800  002F0C                     _printf:
  3801                           	opt callstack 19
  3802                           
  3803                           ;incstack = 0
  3804  002F0C  0E33               	movlw	low (?_printf+1)
  3805  002F0E  6E37               	movwf	printf@ap,c
  3806  002F10  0E00               	movlw	0
  3807  002F12  6E2D               	movwf	vfprintf@fp,c
  3808  002F14  0E00               	movlw	0
  3809  002F16  6E2E               	movwf	vfprintf@fp+1,c
  3810  002F18  0060  F0C8  F02F   	movff	printf@fmt,vfprintf@fmt
  3811  002F1E  0E37               	movlw	low printf@ap
  3812  002F20  6E30               	movwf	vfprintf@ap,c
  3813  002F22  ECA2  F014         	call	_vfprintf	;wreg free
  3814                           
  3815                           ; BSR set to: 0
  3816  002F26  0012               	return		;funcret
  3817  002F28                     __end_of_printf:
  3818                           	opt callstack 0
  3819                           
  3820 ;; *************** function _vfprintf *****************
  3821 ;; Defined at:
  3822 ;;		line 1368 in file "/opt/microchip/xc8/v2.05/pic/sources/c99/common/doprnt.c"
  3823 ;; Parameters:    Size  Location     Type
  3824 ;;  fp              2   44[COMRAM] PTR struct _IO_FILE
  3825 ;;		 -> NULL(0), 
  3826 ;;  fmt             1   46[COMRAM] PTR const unsigned char 
  3827 ;;		 -> STR_11(3), STR_9(3), STR_7(3), STR_5(3), 
  3828 ;;		 -> STR_3(3), STR_1(3), 
  3829 ;;  ap              1   47[COMRAM] PTR PTR void 
  3830 ;;		 -> printf@ap(1), 
  3831 ;; Auto vars:     Size  Location     Type
  3832 ;;  cfmt            1   48[COMRAM] PTR unsigned char 
  3833 ;;		 -> STR_11(3), STR_9(3), STR_7(3), STR_5(3), 
  3834 ;;		 -> STR_3(3), STR_1(3), 
  3835 ;; Return value:  Size  Location     Type
  3836 ;;                  2   44[COMRAM] int 
  3837 ;; Registers used:
  3838 ;;		wreg, fsr1l, fsr1h, fsr2l, fsr2h, status,2, status,0, tblptrl, tblptrh, tblptru, cstack
  3839 ;; Tracked objects:
  3840 ;;		On entry : 0/0
  3841 ;;		On exit  : 3F/0
  3842 ;;		Unchanged: 0/0
  3843 ;; Data sizes:     COMRAM   BANK0   BANK1   BANK2   BANK3   BANK4   BANK5   BANK6   BANK7   BANK8   BANK9  BANK10  BANK1
      +1  BANK12  BANK13  BANK14  BANK15  BANK16  BANK17  BANK18  BANK19  BANK20  BANK21  BANK22  BANK23  BANK24  BANK25  BANK2
      +6  BANK27  BANK28  BANK29  BANK30  BANK31
  3844 ;;      Params:         4       0       0       0       0       0       0       0       0       0       0       0       
      +0       0       0       0       0       0       0       0       0       0       0       0       0       0       0       
      +0       0       0       0       0       0
  3845 ;;      Locals:         1       0       0       0       0       0       0       0       0       0       0       0       
      +0       0       0       0       0       0       0       0       0       0       0       0       0       0       0       
      +0       0       0       0       0       0
  3846 ;;      Temps:          0       0       0       0       0       0       0       0       0       0       0       0       
      +0       0       0       0       0       0       0       0       0       0       0       0       0       0       0       
      +0       0       0       0       0       0
  3847 ;;      Totals:         5       0       0       0       0       0       0       0       0       0       0       0       
      +0       0       0       0       0       0       0       0       0       0       0       0       0       0       0       
      +0       0       0       0       0       0
  3848 ;;Total ram usage:        5 bytes
  3849 ;; Hardware stack levels used:    1
  3850 ;; Hardware stack levels required when called:    9
  3851 ;; This function calls:
  3852 ;;		_vfpfcnvrt
  3853 ;; This function is called by:
  3854 ;;		_printf
  3855 ;; This function uses a non-reentrant model
  3856 ;;
  3857                           
  3858                           	psect	text31
  3859  002944                     __ptext31:
  3860                           	opt callstack 0
  3861  002944                     _vfprintf:
  3862                           	opt callstack 19
  3863                           
  3864                           ;/opt/microchip/xc8/v2.05/pic/sources/c99/common/doprnt.c: 1368: int vfprintf(FILE *fp, 
      +                          const char *fmt, va_list ap);/opt/microchip/xc8/v2.05/pic/sources/c99/common/doprnt.c: 1
      +                          369: {;/opt/microchip/xc8/v2.05/pic/sources/c99/common/doprnt.c: 1371:     char *cfmt;;/
      +                          opt/microchip/xc8/v2.05/pic/sources/c99/common/doprnt.c: 1373:     cfmt = (char *)fmt;
  3865                           
  3866                           ; BSR set to: 0
  3867                           ;incstack = 0
  3868  002944  0060  F0BC  F031   	movff	vfprintf@fmt,vfprintf@cfmt
  3869                           
  3870                           ;/opt/microchip/xc8/v2.05/pic/sources/c99/common/doprnt.c: 1374:     nout = 0;
  3871  00294A  0E00               	movlw	0
  3872  00294C  0100               	movlb	0	; () banked
  3873  00294E  6FF5               	movwf	(_nout+1)& (0+255),b
  3874  002950  0E00               	movlw	0
  3875  002952  6FF4               	movwf	_nout& (0+255),b
  3876                           
  3877                           ;/opt/microchip/xc8/v2.05/pic/sources/c99/common/doprnt.c: 1375:     while (*cfmt) {
  3878  002954  D012               	goto	l3541
  3879  002956                     l3539:
  3880                           
  3881                           ; BSR set to: 0
  3882                           ;/opt/microchip/xc8/v2.05/pic/sources/c99/common/doprnt.c: 1376:         nout += vfpfcnv
      +                          rt(fp, &cfmt, ap);
  3883  002956  0060  F0B4  F027   	movff	vfprintf@fp,vfpfcnvrt@fp
  3884  00295C  0060  F0B8  F028   	movff	vfprintf@fp+1,vfpfcnvrt@fp+1
  3885  002962  0E31               	movlw	low vfprintf@cfmt
  3886  002964  6E29               	movwf	vfpfcnvrt@fmt,c
  3887  002966  0060  F0C0  F02A   	movff	vfprintf@ap,vfpfcnvrt@ap
  3888  00296C  ECAE  F011         	call	_vfpfcnvrt	;wreg free
  3889  002970  5027               	movf	?_vfpfcnvrt,w,c
  3890  002972  0100               	movlb	0	; () banked
  3891  002974  27F4               	addwf	_nout& (0+255),f,b
  3892  002976  5028               	movf	?_vfpfcnvrt+1,w,c
  3893  002978  23F5               	addwfc	(_nout+1)& (0+255),f,b
  3894  00297A                     l3541:
  3895                           
  3896                           ; BSR set to: 0
  3897                           ;/opt/microchip/xc8/v2.05/pic/sources/c99/common/doprnt.c: 1375:     while (*cfmt) {
  3898  00297A  0060  F0C7  FFF6   	movff	vfprintf@cfmt,tblptrl
  3899  002980                     	if	1	;There is more than 1 active tblptr byte
  3900  002980  0E20               	movlw	high __smallconst
  3901  002982  6EF7               	movwf	tblptrh,c
  3902  002984                     	endif
  3903  002984                     	if	0	;tblptru may be non-zero
  3904  002984                     	endif
  3905  002984                     	if	1	;Program memory is > 0xFFFF, there are 3 active tblptr bytes
  3906  002984  0E00               	movlw	low (__smallconst shr (0+16))
  3907  002986  6EF8               	movwf	tblptru,c
  3908  002988                     	endif
  3909  002988  0008               	tblrd		*
  3910  00298A  50F5               	movf	tablat,w,c
  3911  00298C  0900               	iorlw	0
  3912  00298E  A4D8               	btfss	status,2,c
  3913  002990  D7E2               	goto	l3539
  3914                           
  3915                           ; BSR set to: 0
  3916                           ;/opt/microchip/xc8/v2.05/pic/sources/c99/common/doprnt.c: 1378:     return nout;
  3917  002992  0060  F3D0  F02D   	movff	_nout,?_vfprintf
  3918  002998  0060  F3D4  F02E   	movff	_nout+1,?_vfprintf+1
  3919                           
  3920                           ; BSR set to: 0
  3921  00299E  0012               	return		;funcret
  3922  0029A0                     __end_of_vfprintf:
  3923                           	opt callstack 0
  3924                           
  3925 ;; *************** function _vfpfcnvrt *****************
  3926 ;; Defined at:
  3927 ;;		line 670 in file "/opt/microchip/xc8/v2.05/pic/sources/c99/common/doprnt.c"
  3928 ;; Parameters:    Size  Location     Type
  3929 ;;  fp              2   38[COMRAM] PTR struct _IO_FILE
  3930 ;;		 -> NULL(0), 
  3931 ;;  fmt             1   40[COMRAM] PTR PTR unsigned char 
  3932 ;;		 -> vfprintf@cfmt(1), 
  3933 ;;  ap              1   41[COMRAM] PTR PTR void 
  3934 ;;		 -> printf@ap(1), 
  3935 ;; Auto vars:     Size  Location     Type
  3936 ;;  llu             8    0        unsigned long long 
  3937 ;;  ll              8    0        long long 
  3938 ;;  f               4    0        long long 
  3939 ;;  vp              3    0        PTR void 
  3940 ;;  ct              3    0        unsigned char [3]
  3941 ;;  cp              2   42[COMRAM] PTR unsigned char 
  3942 ;;		 -> ?_printf(2), STR_12(4), STR_10(4), STR_8(4), 
  3943 ;;		 -> STR_6(4), STR_4(4), STR_2(4), 
  3944 ;;  i               2    0        int 
  3945 ;;  done            2    0        int 
  3946 ;;  c               1    0        unsigned char 
  3947 ;; Return value:  Size  Location     Type
  3948 ;;                  2   38[COMRAM] int 
  3949 ;; Registers used:
  3950 ;;		wreg, fsr1l, fsr1h, fsr2l, fsr2h, status,2, status,0, tblptrl, tblptrh, tblptru, cstack
  3951 ;; Tracked objects:
  3952 ;;		On entry : 0/0
  3953 ;;		On exit  : 0/0
  3954 ;;		Unchanged: 0/0
  3955 ;; Data sizes:     COMRAM   BANK0   BANK1   BANK2   BANK3   BANK4   BANK5   BANK6   BANK7   BANK8   BANK9  BANK10  BANK1
      +1  BANK12  BANK13  BANK14  BANK15  BANK16  BANK17  BANK18  BANK19  BANK20  BANK21  BANK22  BANK23  BANK24  BANK25  BANK2
      +6  BANK27  BANK28  BANK29  BANK30  BANK31
  3956 ;;      Params:         4       0       0       0       0       0       0       0       0       0       0       0       
      +0       0       0       0       0       0       0       0       0       0       0       0       0       0       0       
      +0       0       0       0       0       0
  3957 ;;      Locals:         2       0       0       0       0       0       0       0       0       0       0       0       
      +0       0       0       0       0       0       0       0       0       0       0       0       0       0       0       
      +0       0       0       0       0       0
  3958 ;;      Temps:          0       0       0       0       0       0       0       0       0       0       0       0       
      +0       0       0       0       0       0       0       0       0       0       0       0       0       0       0       
      +0       0       0       0       0       0
  3959 ;;      Totals:         6       0       0       0       0       0       0       0       0       0       0       0       
      +0       0       0       0       0       0       0       0       0       0       0       0       0       0       0       
      +0       0       0       0       0       0
  3960 ;;Total ram usage:        6 bytes
  3961 ;; Hardware stack levels used:    1
  3962 ;; Hardware stack levels required when called:    8
  3963 ;; This function calls:
  3964 ;;		_fputc
  3965 ;;		_stoa
  3966 ;; This function is called by:
  3967 ;;		_vfprintf
  3968 ;; This function uses a non-reentrant model
  3969 ;;
  3970                           
  3971                           	psect	text32
  3972  00235C                     __ptext32:
  3973                           	opt callstack 0
  3974  00235C                     _vfpfcnvrt:
  3975                           	opt callstack 19
  3976                           
  3977                           ;/opt/microchip/xc8/v2.05/pic/sources/c99/common/doprnt.c: 670: static int vfpfcnvrt(FIL
      +                          E *fp, char *fmt[], va_list ap);/opt/microchip/xc8/v2.05/pic/sources/c99/common/doprnt.c
      +                          : 671: {;/opt/microchip/xc8/v2.05/pic/sources/c99/common/doprnt.c: 672:     char c, *cp,
      +                           ct[3];;/opt/microchip/xc8/v2.05/pic/sources/c99/common/doprnt.c: 673:     int done, i;;
      +                          /opt/microchip/xc8/v2.05/pic/sources/c99/common/doprnt.c: 674:     long long ll;;/opt/mi
      +                          crochip/xc8/v2.05/pic/sources/c99/common/doprnt.c: 675:     unsigned long long llu;
  3978                           
  3979                           ; BSR set to: 0
  3980                           ;incstack = 0
  3981  00235C  5029               	movf	vfpfcnvrt@fmt,w,c
  3982  00235E  6ED9               	movwf	fsr2l,c
  3983  002360  6ADA               	clrf	fsr2h,c
  3984  002362  006F FF7F FFF6     	movff	indf2,tblptrl
  3985  002368                     	if	1	;There is more than 1 active tblptr byte
  3986  002368  0E20               	movlw	high __smallconst
  3987  00236A  6EF7               	movwf	tblptrh,c
  3988  00236C                     	endif
  3989  00236C                     	if	0	;tblptru may be non-zero
  3990  00236C                     	endif
  3991  00236C                     	if	1	;Program memory is > 0xFFFF, there are 3 active tblptr bytes
  3992  00236C  0E00               	movlw	low (__smallconst shr (0+16))
  3993  00236E  6EF8               	movwf	tblptru,c
  3994  002370                     	endif
  3995  002370  0008               	tblrd		*
  3996  002372  50F5               	movf	tablat,w,c
  3997  002374  0A25               	xorlw	37
  3998  002376  A4D8               	btfss	status,2,c
  3999  002378  D074               	goto	l3489
  4000                           
  4001                           ;/opt/microchip/xc8/v2.05/pic/sources/c99/common/doprnt.c: 681:         ++*fmt;
  4002  00237A  5029               	movf	vfpfcnvrt@fmt,w,c
  4003  00237C  6ED9               	movwf	fsr2l,c
  4004  00237E  6ADA               	clrf	fsr2h,c
  4005  002380  2ADF               	incf	indf2,f,c
  4006                           
  4007                           ;/opt/microchip/xc8/v2.05/pic/sources/c99/common/doprnt.c: 683:         flags = width = 
      +                          0;
  4008  002382  0E00               	movlw	0
  4009  002384  0100               	movlb	0	; () banked
  4010  002386  6FF7               	movwf	(_width+1)& (0+255),b
  4011  002388  0E00               	movlw	0
  4012  00238A  6FF6               	movwf	_width& (0+255),b
  4013  00238C  0060  F3D8  F046   	movff	_width,_flags
  4014  002392  0060  F3DC  F047   	movff	_width+1,_flags+1
  4015                           
  4016                           ; BSR set to: 0
  4017                           ;/opt/microchip/xc8/v2.05/pic/sources/c99/common/doprnt.c: 684:         prec = -1;
  4018  002398  6844               	setf	_prec,c
  4019  00239A  6845               	setf	_prec+1,c
  4020                           
  4021                           ; BSR set to: 0
  4022                           ;/opt/microchip/xc8/v2.05/pic/sources/c99/common/doprnt.c: 1149:         if (*fmt[0] == 
      +                          's') {
  4023  00239C  5029               	movf	vfpfcnvrt@fmt,w,c
  4024  00239E  6ED9               	movwf	fsr2l,c
  4025  0023A0  6ADA               	clrf	fsr2h,c
  4026  0023A2  006F FF7F FFF6     	movff	indf2,tblptrl
  4027  0023A8                     	if	1	;There is more than 1 active tblptr byte
  4028  0023A8  0E20               	movlw	high __smallconst
  4029  0023AA  6EF7               	movwf	tblptrh,c
  4030  0023AC                     	endif
  4031  0023AC                     	if	0	;tblptru may be non-zero
  4032  0023AC                     	endif
  4033  0023AC                     	if	1	;Program memory is > 0xFFFF, there are 3 active tblptr bytes
  4034  0023AC  0E00               	movlw	low (__smallconst shr (0+16))
  4035  0023AE  6EF8               	movwf	tblptru,c
  4036  0023B0                     	endif
  4037  0023B0  0008               	tblrd		*
  4038  0023B2  50F5               	movf	tablat,w,c
  4039  0023B4  0A73               	xorlw	115
  4040  0023B6  A4D8               	btfss	status,2,c
  4041  0023B8  D027               	goto	l3473
  4042                           
  4043                           ; BSR set to: 0
  4044                           ;/opt/microchip/xc8/v2.05/pic/sources/c99/common/doprnt.c: 1151:             ++*fmt;
  4045  0023BA  5029               	movf	vfpfcnvrt@fmt,w,c
  4046  0023BC  6ED9               	movwf	fsr2l,c
  4047  0023BE  6ADA               	clrf	fsr2h,c
  4048  0023C0  2ADF               	incf	indf2,f,c
  4049                           
  4050                           ; BSR set to: 0
  4051                           ;/opt/microchip/xc8/v2.05/pic/sources/c99/common/doprnt.c: 1152:             cp = (*(cha
      +                          r * *)__va_arg(*(char * **)ap, (char *)0));
  4052  0023C2  502A               	movf	vfpfcnvrt@ap,w,c
  4053  0023C4  6ED9               	movwf	fsr2l,c
  4054  0023C6  6ADA               	clrf	fsr2h,c
  4055  0023C8  0E02               	movlw	2
  4056  0023CA  26DF               	addwf	indf2,f,c
  4057  0023CC  5CDF               	subwf	indf2,w,c
  4058  0023CE  6ED9               	movwf	fsr2l,c
  4059  0023D0  6ADA               	clrf	fsr2h,c
  4060  0023D2  006F FF78  F02B    	movff	postinc2,vfpfcnvrt@cp
  4061  0023D8  006F FF78  F02C    	movff	postinc2,vfpfcnvrt@cp+1
  4062                           
  4063                           ; BSR set to: 0
  4064                           ;/opt/microchip/xc8/v2.05/pic/sources/c99/common/doprnt.c: 1154:             return stoa
      +                          (fp, cp);
  4065  0023DE  0060  F09C  F011   	movff	vfpfcnvrt@fp,stoa@fp
  4066  0023E4  0060  F0A0  F012   	movff	vfpfcnvrt@fp+1,stoa@fp+1
  4067  0023EA  0060  F0AC  F013   	movff	vfpfcnvrt@cp,stoa@s
  4068  0023F0  0060  F0B0  F014   	movff	vfpfcnvrt@cp+1,stoa@s+1
  4069  0023F6  ECF4  F010         	call	_stoa	;wreg free
  4070  0023FA  0060  F044  F027   	movff	?_stoa,?_vfpfcnvrt
  4071  002400  0060  F048  F028   	movff	?_stoa+1,?_vfpfcnvrt+1
  4072  002406  0012               	return	
  4073  002408                     l3473:
  4074                           
  4075                           ; BSR set to: 0
  4076                           ;/opt/microchip/xc8/v2.05/pic/sources/c99/common/doprnt.c: 1350:         if ((*fmt)[0] =
      +                          = '%') {
  4077  002408  5029               	movf	vfpfcnvrt@fmt,w,c
  4078  00240A  6ED9               	movwf	fsr2l,c
  4079  00240C  6ADA               	clrf	fsr2h,c
  4080  00240E  006F FF7F FFF6     	movff	indf2,tblptrl
  4081  002414                     	if	1	;There is more than 1 active tblptr byte
  4082  002414  0E20               	movlw	high __smallconst
  4083  002416  6EF7               	movwf	tblptrh,c
  4084  002418                     	endif
  4085  002418                     	if	0	;tblptru may be non-zero
  4086  002418                     	endif
  4087  002418                     	if	1	;Program memory is > 0xFFFF, there are 3 active tblptr bytes
  4088  002418  0E00               	movlw	low (__smallconst shr (0+16))
  4089  00241A  6EF8               	movwf	tblptru,c
  4090  00241C                     	endif
  4091  00241C  0008               	tblrd		*
  4092  00241E  50F5               	movf	tablat,w,c
  4093  002420  0A25               	xorlw	37
  4094  002422  A4D8               	btfss	status,2,c
  4095  002424  D015               	goto	l3483
  4096                           
  4097                           ; BSR set to: 0
  4098                           ;/opt/microchip/xc8/v2.05/pic/sources/c99/common/doprnt.c: 1351:             ++*fmt;
  4099  002426  5029               	movf	vfpfcnvrt@fmt,w,c
  4100  002428  6ED9               	movwf	fsr2l,c
  4101  00242A  6ADA               	clrf	fsr2h,c
  4102  00242C  2ADF               	incf	indf2,f,c
  4103                           
  4104                           ; BSR set to: 0
  4105                           ;/opt/microchip/xc8/v2.05/pic/sources/c99/common/doprnt.c: 1352:             fputc((int)
      +                          '%', fp);
  4106  00242E  0E00               	movlw	0
  4107  002430  6E09               	movwf	fputc@c+1,c
  4108  002432  0E25               	movlw	37
  4109  002434  6E08               	movwf	fputc@c,c
  4110  002436  0060  F09C  F00A   	movff	vfpfcnvrt@fp,fputc@fp
  4111  00243C  0060  F0A0  F00B   	movff	vfpfcnvrt@fp+1,fputc@fp+1
  4112  002442  EC3E  F014         	call	_fputc	;wreg free
  4113  002446                     l3479:
  4114                           
  4115                           ;/opt/microchip/xc8/v2.05/pic/sources/c99/common/doprnt.c: 1353:             return 1;
  4116  002446  0E00               	movlw	0
  4117  002448  6E28               	movwf	?_vfpfcnvrt+1,c
  4118  00244A  0E01               	movlw	1
  4119  00244C  6E27               	movwf	?_vfpfcnvrt,c
  4120  00244E  0012               	return	
  4121  002450                     l3483:
  4122                           
  4123                           ; BSR set to: 0
  4124                           ;/opt/microchip/xc8/v2.05/pic/sources/c99/common/doprnt.c: 1357:         ++*fmt;
  4125  002450  5029               	movf	vfpfcnvrt@fmt,w,c
  4126  002452  6ED9               	movwf	fsr2l,c
  4127  002454  6ADA               	clrf	fsr2h,c
  4128  002456  2ADF               	incf	indf2,f,c
  4129                           
  4130                           ; BSR set to: 0
  4131                           ;/opt/microchip/xc8/v2.05/pic/sources/c99/common/doprnt.c: 1358:         return 0;
  4132  002458  0E00               	movlw	0
  4133  00245A  6E28               	movwf	?_vfpfcnvrt+1,c
  4134  00245C  0E00               	movlw	0
  4135  00245E  6E27               	movwf	?_vfpfcnvrt,c
  4136  002460  0012               	return	
  4137  002462                     l3489:
  4138                           
  4139                           ;/opt/microchip/xc8/v2.05/pic/sources/c99/common/doprnt.c: 1362:     fputc((int)(*fmt)[0
      +                          ], fp);
  4140  002462  5029               	movf	vfpfcnvrt@fmt,w,c
  4141  002464  6ED9               	movwf	fsr2l,c
  4142  002466  6ADA               	clrf	fsr2h,c
  4143  002468  006F FF7F FFF6     	movff	indf2,tblptrl
  4144  00246E                     	if	1	;There is more than 1 active tblptr byte
  4145  00246E  0E20               	movlw	high __smallconst
  4146  002470  6EF7               	movwf	tblptrh,c
  4147  002472                     	endif
  4148  002472                     	if	0	;tblptru may be non-zero
  4149  002472                     	endif
  4150  002472                     	if	1	;Program memory is > 0xFFFF, there are 3 active tblptr bytes
  4151  002472  0E00               	movlw	low (__smallconst shr (0+16))
  4152  002474  6EF8               	movwf	tblptru,c
  4153  002476                     	endif
  4154  002476  0008               	tblrd		*
  4155  002478  50F5               	movf	tablat,w,c
  4156  00247A  6E08               	movwf	fputc@c,c
  4157  00247C  6A09               	clrf	fputc@c+1,c
  4158  00247E  0060  F09C  F00A   	movff	vfpfcnvrt@fp,fputc@fp
  4159  002484  0060  F0A0  F00B   	movff	vfpfcnvrt@fp+1,fputc@fp+1
  4160  00248A  EC3E  F014         	call	_fputc	;wreg free
  4161                           
  4162                           ;/opt/microchip/xc8/v2.05/pic/sources/c99/common/doprnt.c: 1363:     ++*fmt;
  4163  00248E  5029               	movf	vfpfcnvrt@fmt,w,c
  4164  002490  6ED9               	movwf	fsr2l,c
  4165  002492  6ADA               	clrf	fsr2h,c
  4166  002494  2ADF               	incf	indf2,f,c
  4167  002496  D7D7               	goto	l3479
  4168  002498                     __end_of_vfpfcnvrt:
  4169                           	opt callstack 0
  4170                           
  4171 ;; *************** function _stoa *****************
  4172 ;; Defined at:
  4173 ;;		line 546 in file "/opt/microchip/xc8/v2.05/pic/sources/c99/common/doprnt.c"
  4174 ;; Parameters:    Size  Location     Type
  4175 ;;  fp              2   16[COMRAM] PTR struct _IO_FILE
  4176 ;;		 -> NULL(0), 
  4177 ;;  s               2   18[COMRAM] PTR unsigned char 
  4178 ;;		 -> ?_printf(2), STR_12(4), STR_10(4), STR_8(4), 
  4179 ;;		 -> STR_6(4), STR_4(4), STR_2(4), 
  4180 ;; Auto vars:     Size  Location     Type
  4181 ;;  nuls            7   21[COMRAM] unsigned char [7]
  4182 ;;  l               2   36[COMRAM] int 
  4183 ;;  p               2   34[COMRAM] int 
  4184 ;;  cp              2   32[COMRAM] PTR unsigned char 
  4185 ;;		 -> ?_printf(2), stoa@nuls(7), STR_12(4), STR_10(4), 
  4186 ;;		 -> STR_8(4), STR_6(4), STR_4(4), STR_2(4), 
  4187 ;;  w               2   30[COMRAM] int 
  4188 ;;  i               2   28[COMRAM] int 
  4189 ;; Return value:  Size  Location     Type
  4190 ;;                  2   16[COMRAM] int 
  4191 ;; Registers used:
  4192 ;;		wreg, fsr1l, fsr1h, fsr2l, fsr2h, status,2, status,0, tblptrl, tblptrh, tblptru, cstack
  4193 ;; Tracked objects:
  4194 ;;		On entry : 3F/0
  4195 ;;		On exit  : 0/0
  4196 ;;		Unchanged: 0/0
  4197 ;; Data sizes:     COMRAM   BANK0   BANK1   BANK2   BANK3   BANK4   BANK5   BANK6   BANK7   BANK8   BANK9  BANK10  BANK1
      +1  BANK12  BANK13  BANK14  BANK15  BANK16  BANK17  BANK18  BANK19  BANK20  BANK21  BANK22  BANK23  BANK24  BANK25  BANK2
      +6  BANK27  BANK28  BANK29  BANK30  BANK31
  4198 ;;      Params:         4       0       0       0       0       0       0       0       0       0       0       0       
      +0       0       0       0       0       0       0       0       0       0       0       0       0       0       0       
      +0       0       0       0       0       0
  4199 ;;      Locals:        17       0       0       0       0       0       0       0       0       0       0       0       
      +0       0       0       0       0       0       0       0       0       0       0       0       0       0       0       
      +0       0       0       0       0       0
  4200 ;;      Temps:          1       0       0       0       0       0       0       0       0       0       0       0       
      +0       0       0       0       0       0       0       0       0       0       0       0       0       0       0       
      +0       0       0       0       0       0
  4201 ;;      Totals:        22       0       0       0       0       0       0       0       0       0       0       0       
      +0       0       0       0       0       0       0       0       0       0       0       0       0       0       0       
      +0       0       0       0       0       0
  4202 ;;Total ram usage:       22 bytes
  4203 ;; Hardware stack levels used:    1
  4204 ;; Hardware stack levels required when called:    7
  4205 ;; This function calls:
  4206 ;;		_fputc
  4207 ;;		_strlen
  4208 ;; This function is called by:
  4209 ;;		_vfpfcnvrt
  4210 ;; This function uses a non-reentrant model
  4211 ;;
  4212                           
  4213                           	psect	text33
  4214  0021E8                     __ptext33:
  4215                           	opt callstack 0
  4216  0021E8                     _stoa:
  4217                           	opt callstack 19
  4218                           
  4219                           ; BSR set to: 0
  4220                           ;/opt/microchip/xc8/v2.05/pic/sources/c99/common/doprnt.c: 546: static int stoa(FILE *fp
      +                          , char *s);/opt/microchip/xc8/v2.05/pic/sources/c99/common/doprnt.c: 547: {;/opt/microch
      +                          ip/xc8/v2.05/pic/sources/c99/common/doprnt.c: 548:     char *cp, nuls[] = "(null)";
  4221                           
  4222                           ;incstack = 0
  4223  0021E8  EE20  F0F8         	lfsr	2,stoa@F1131
  4224  0021EC  EE10  F016         	lfsr	1,stoa@nuls
  4225  0021F0  0E06               	movlw	6
  4226  0021F2                     u1821:
  4227  0021F2  006F FF6F FFE3     	movff	plusw2,plusw1
  4228  0021F8  06E8               	decf	wreg,f,c
  4229  0021FA  E2FB               	bc	u1821
  4230                           
  4231                           ; BSR set to: 0
  4232                           ;/opt/microchip/xc8/v2.05/pic/sources/c99/common/doprnt.c: 549:     int i, l, p, w;;/opt
      +                          /microchip/xc8/v2.05/pic/sources/c99/common/doprnt.c: 552:     cp = s;
  4233  0021FC  0060  F04C  F021   	movff	stoa@s,stoa@cp
  4234  002202  0060  F050  F022   	movff	stoa@s+1,stoa@cp+1
  4235                           
  4236                           ; BSR set to: 0
  4237                           ;/opt/microchip/xc8/v2.05/pic/sources/c99/common/doprnt.c: 553:     if (!cp) {
  4238  002208  5021               	movf	stoa@cp,w,c
  4239  00220A  1022               	iorwf	stoa@cp+1,w,c
  4240  00220C  A4D8               	btfss	status,2,c
  4241  00220E  D003               	goto	l3421
  4242                           
  4243                           ; BSR set to: 0
  4244                           ;/opt/microchip/xc8/v2.05/pic/sources/c99/common/doprnt.c: 554:         cp = nuls;
  4245  002210  0E16               	movlw	low stoa@nuls
  4246  002212  6E21               	movwf	stoa@cp,c
  4247  002214  6A22               	clrf	stoa@cp+1,c
  4248  002216                     l3421:
  4249                           
  4250                           ; BSR set to: 0
  4251                           ;/opt/microchip/xc8/v2.05/pic/sources/c99/common/doprnt.c: 558:     l = strlen(cp);
  4252  002216  0060  F084  F006   	movff	stoa@cp,strlen@s
  4253  00221C  0060  F088  F007   	movff	stoa@cp+1,strlen@s+1
  4254  002222  ECF9  F014         	call	_strlen	;wreg free
  4255  002226  0060  F018  F025   	movff	?_strlen,stoa@l
  4256  00222C  0060  F01C  F026   	movff	?_strlen+1,stoa@l+1
  4257                           
  4258                           ;/opt/microchip/xc8/v2.05/pic/sources/c99/common/doprnt.c: 559:     p = prec;
  4259  002232  0060  F110  F023   	movff	_prec,stoa@p
  4260  002238  0060  F114  F024   	movff	_prec+1,stoa@p+1
  4261                           
  4262                           ;/opt/microchip/xc8/v2.05/pic/sources/c99/common/doprnt.c: 560:     l = (!(p < 0) && (p 
      +                          < l)) ? p : l;
  4263  00223E  BE24               	btfsc	stoa@p+1,7,c
  4264  002240  D010               	goto	l1114
  4265  002242  5025               	movf	stoa@l,w,c
  4266  002244  5C23               	subwf	stoa@p,w,c
  4267  002246  5024               	movf	stoa@p+1,w,c
  4268  002248  0A80               	xorlw	128
  4269  00224A  6E15               	movwf	??_stoa& (0+255),c
  4270  00224C  5026               	movf	stoa@l+1,w,c
  4271  00224E  0A80               	xorlw	128
  4272  002250  5815               	subwfb	??_stoa& (0+255),w,c
  4273  002252  B0D8               	btfsc	status,0,c
  4274  002254  D006               	goto	l1114
  4275  002256  0060  F08C  F025   	movff	stoa@p,stoa@l
  4276  00225C  0060  F090  F026   	movff	stoa@p+1,stoa@l+1
  4277  002262                     l1114:
  4278                           
  4279                           ;/opt/microchip/xc8/v2.05/pic/sources/c99/common/doprnt.c: 561:     p = l;
  4280  002262  0060  F094  F023   	movff	stoa@l,stoa@p
  4281  002268  0060  F098  F024   	movff	stoa@l+1,stoa@p+1
  4282                           
  4283                           ;/opt/microchip/xc8/v2.05/pic/sources/c99/common/doprnt.c: 562:     w = width;
  4284  00226E  0060  F3D8  F01F   	movff	_width,stoa@w
  4285  002274  0060  F3DC  F020   	movff	_width+1,stoa@w+1
  4286                           
  4287                           ;/opt/microchip/xc8/v2.05/pic/sources/c99/common/doprnt.c: 565:     if (!(flags & (1 << 
      +                          0))) {
  4288  00227A  A046               	btfss	_flags,0,c
  4289  00227C  D00F               	goto	l3435
  4290  00227E  D018               	goto	u1870
  4291  002280                     l3431:
  4292                           
  4293                           ;/opt/microchip/xc8/v2.05/pic/sources/c99/common/doprnt.c: 567:             fputc(' ', f
      +                          p);
  4294  002280  0E00               	movlw	0
  4295  002282  6E09               	movwf	fputc@c+1,c
  4296  002284  0E20               	movlw	32
  4297  002286  6E08               	movwf	fputc@c,c
  4298  002288  0060  F044  F00A   	movff	stoa@fp,fputc@fp
  4299  00228E  0060  F048  F00B   	movff	stoa@fp+1,fputc@fp+1
  4300  002294  EC3E  F014         	call	_fputc	;wreg free
  4301                           
  4302                           ;/opt/microchip/xc8/v2.05/pic/sources/c99/common/doprnt.c: 568:             ++l;
  4303  002298  4A25               	infsnz	stoa@l,f,c
  4304  00229A  2A26               	incf	stoa@l+1,f,c
  4305  00229C                     l3435:
  4306                           
  4307                           ;/opt/microchip/xc8/v2.05/pic/sources/c99/common/doprnt.c: 566:         while (l < w) {
  4308  00229C  501F               	movf	stoa@w,w,c
  4309  00229E  5C25               	subwf	stoa@l,w,c
  4310  0022A0  5026               	movf	stoa@l+1,w,c
  4311  0022A2  0A80               	xorlw	128
  4312  0022A4  6E15               	movwf	??_stoa& (0+255),c
  4313  0022A6  5020               	movf	stoa@w+1,w,c
  4314  0022A8  0A80               	xorlw	128
  4315  0022AA  5815               	subwfb	??_stoa& (0+255),w,c
  4316  0022AC  A0D8               	btfss	status,0,c
  4317  0022AE  D7E8               	goto	l3431
  4318  0022B0                     u1870:
  4319                           
  4320                           ;/opt/microchip/xc8/v2.05/pic/sources/c99/common/doprnt.c: 573:     i = 0;
  4321  0022B0  0E00               	movlw	0
  4322  0022B2  6E1E               	movwf	stoa@i+1,c
  4323  0022B4  0E00               	movlw	0
  4324  0022B6  6E1D               	movwf	stoa@i,c
  4325                           
  4326                           ;/opt/microchip/xc8/v2.05/pic/sources/c99/common/doprnt.c: 574:     while (i < p) {
  4327  0022B8  D025               	goto	l3445
  4328  0022BA                     l3439:
  4329                           
  4330                           ;/opt/microchip/xc8/v2.05/pic/sources/c99/common/doprnt.c: 575:         fputc(*cp, fp);
  4331  0022BA  0060  F087  FFF6   	movff	stoa@cp,tblptrl
  4332  0022C0  0060  F08B  FFF7   	movff	stoa@cp+1,tblptrh
  4333  0022C6  0E00               	movlw	low (__smallconst shr (0+16))
  4334  0022C8  6EF8               	movwf	tblptru,c
  4335  0022CA  0E1F               	movlw	(high __ramtop+-1)
  4336  0022CC  64F7               	cpfsgt	tblptrh,c
  4337  0022CE  D003               	bra	u1887
  4338  0022D0  0008               	tblrd		*
  4339  0022D2  50F5               	movf	tablat,w,c
  4340  0022D4  D007               	bra	u1880
  4341  0022D6                     u1887:
  4342  0022D6  006F FFDB FFE1     	movff	tblptrl,fsr1l
  4343  0022DC  006F FFDF FFE2     	movff	tblptrh,fsr1h
  4344  0022E2  50E7               	movf	indf1,w,c
  4345  0022E4                     u1880:
  4346  0022E4  6E15               	movwf	??_stoa& (0+255),c
  4347  0022E6  5015               	movf	??_stoa,w,c
  4348  0022E8  6E08               	movwf	fputc@c,c
  4349  0022EA  6A09               	clrf	fputc@c+1,c
  4350  0022EC  0060  F044  F00A   	movff	stoa@fp,fputc@fp
  4351  0022F2  0060  F048  F00B   	movff	stoa@fp+1,fputc@fp+1
  4352  0022F8  EC3E  F014         	call	_fputc	;wreg free
  4353                           
  4354                           ;/opt/microchip/xc8/v2.05/pic/sources/c99/common/doprnt.c: 576:         ++cp;
  4355  0022FC  4A21               	infsnz	stoa@cp,f,c
  4356  0022FE  2A22               	incf	stoa@cp+1,f,c
  4357                           
  4358                           ;/opt/microchip/xc8/v2.05/pic/sources/c99/common/doprnt.c: 577:         ++i;
  4359  002300  4A1D               	infsnz	stoa@i,f,c
  4360  002302  2A1E               	incf	stoa@i+1,f,c
  4361  002304                     l3445:
  4362                           
  4363                           ;/opt/microchip/xc8/v2.05/pic/sources/c99/common/doprnt.c: 574:     while (i < p) {
  4364  002304  5023               	movf	stoa@p,w,c
  4365  002306  5C1D               	subwf	stoa@i,w,c
  4366  002308  501E               	movf	stoa@i+1,w,c
  4367  00230A  0A80               	xorlw	128
  4368  00230C  6E15               	movwf	??_stoa& (0+255),c
  4369  00230E  5024               	movf	stoa@p+1,w,c
  4370  002310  0A80               	xorlw	128
  4371  002312  5815               	subwfb	??_stoa& (0+255),w,c
  4372  002314  A0D8               	btfss	status,0,c
  4373  002316  D7D1               	goto	l3439
  4374                           
  4375                           ;/opt/microchip/xc8/v2.05/pic/sources/c99/common/doprnt.c: 581:     if (flags & (1 << 0)
      +                          ) {
  4376  002318  B046               	btfsc	_flags,0,c
  4377  00231A  D00F               	goto	l3453
  4378  00231C  D018               	goto	u1910
  4379  00231E                     l3449:
  4380                           
  4381                           ;/opt/microchip/xc8/v2.05/pic/sources/c99/common/doprnt.c: 583:             fputc(' ', f
      +                          p);
  4382  00231E  0E00               	movlw	0
  4383  002320  6E09               	movwf	fputc@c+1,c
  4384  002322  0E20               	movlw	32
  4385  002324  6E08               	movwf	fputc@c,c
  4386  002326  0060  F044  F00A   	movff	stoa@fp,fputc@fp
  4387  00232C  0060  F048  F00B   	movff	stoa@fp+1,fputc@fp+1
  4388  002332  EC3E  F014         	call	_fputc	;wreg free
  4389                           
  4390                           ;/opt/microchip/xc8/v2.05/pic/sources/c99/common/doprnt.c: 584:             ++l;
  4391  002336  4A25               	infsnz	stoa@l,f,c
  4392  002338  2A26               	incf	stoa@l+1,f,c
  4393  00233A                     l3453:
  4394                           
  4395                           ;/opt/microchip/xc8/v2.05/pic/sources/c99/common/doprnt.c: 582:         while (l < w) {
  4396  00233A  501F               	movf	stoa@w,w,c
  4397  00233C  5C25               	subwf	stoa@l,w,c
  4398  00233E  5026               	movf	stoa@l+1,w,c
  4399  002340  0A80               	xorlw	128
  4400  002342  6E15               	movwf	??_stoa& (0+255),c
  4401  002344  5020               	movf	stoa@w+1,w,c
  4402  002346  0A80               	xorlw	128
  4403  002348  5815               	subwfb	??_stoa& (0+255),w,c
  4404  00234A  A0D8               	btfss	status,0,c
  4405  00234C  D7E8               	goto	l3449
  4406  00234E                     u1910:
  4407                           
  4408                           ;/opt/microchip/xc8/v2.05/pic/sources/c99/common/doprnt.c: 588:     return l;
  4409                           
  4410                           ;/opt/microchip/xc8/v2.05/pic/sources/c99/common/doprnt.c: 586:     }
  4411  00234E  0060  F094  F011   	movff	stoa@l,?_stoa
  4412  002354  0060  F098  F012   	movff	stoa@l+1,?_stoa+1
  4413  00235A  0012               	return		;funcret
  4414  00235C                     __end_of_stoa:
  4415                           	opt callstack 0
  4416                           
  4417 ;; *************** function _strlen *****************
  4418 ;; Defined at:
  4419 ;;		line 12 in file "/opt/microchip/xc8/v2.05/pic/sources/c99/common/strlen.c"
  4420 ;; Parameters:    Size  Location     Type
  4421 ;;  s               2    5[COMRAM] PTR const unsigned char 
  4422 ;;		 -> ?_printf(2), stoa@nuls(7), STR_12(4), STR_10(4), 
  4423 ;;		 -> STR_8(4), STR_6(4), STR_4(4), STR_2(4), 
  4424 ;; Auto vars:     Size  Location     Type
  4425 ;;  a               2    7[COMRAM] PTR const unsigned char 
  4426 ;;		 -> ?_printf(2), stoa@nuls(7), STR_12(4), STR_10(4), 
  4427 ;;		 -> STR_8(4), STR_6(4), STR_4(4), STR_2(4), 
  4428 ;; Return value:  Size  Location     Type
  4429 ;;                  2    5[COMRAM] unsigned int 
  4430 ;; Registers used:
  4431 ;;		wreg, fsr1l, fsr1h, status,2, status,0, tblptrl, tblptrh, tblptru
  4432 ;; Tracked objects:
  4433 ;;		On entry : 3F/0
  4434 ;;		On exit  : 0/0
  4435 ;;		Unchanged: 0/0
  4436 ;; Data sizes:     COMRAM   BANK0   BANK1   BANK2   BANK3   BANK4   BANK5   BANK6   BANK7   BANK8   BANK9  BANK10  BANK1
      +1  BANK12  BANK13  BANK14  BANK15  BANK16  BANK17  BANK18  BANK19  BANK20  BANK21  BANK22  BANK23  BANK24  BANK25  BANK2
      +6  BANK27  BANK28  BANK29  BANK30  BANK31
  4437 ;;      Params:         2       0       0       0       0       0       0       0       0       0       0       0       
      +0       0       0       0       0       0       0       0       0       0       0       0       0       0       0       
      +0       0       0       0       0       0
  4438 ;;      Locals:         2       0       0       0       0       0       0       0       0       0       0       0       
      +0       0       0       0       0       0       0       0       0       0       0       0       0       0       0       
      +0       0       0       0       0       0
  4439 ;;      Temps:          0       0       0       0       0       0       0       0       0       0       0       0       
      +0       0       0       0       0       0       0       0       0       0       0       0       0       0       0       
      +0       0       0       0       0       0
  4440 ;;      Totals:         4       0       0       0       0       0       0       0       0       0       0       0       
      +0       0       0       0       0       0       0       0       0       0       0       0       0       0       0       
      +0       0       0       0       0       0
  4441 ;;Total ram usage:        4 bytes
  4442 ;; Hardware stack levels used:    1
  4443 ;; Hardware stack levels required when called:    4
  4444 ;; This function calls:
  4445 ;;		Nothing
  4446 ;; This function is called by:
  4447 ;;		_stoa
  4448 ;; This function uses a non-reentrant model
  4449 ;;
  4450                           
  4451                           	psect	text34
  4452  0029F2                     __ptext34:
  4453                           	opt callstack 0
  4454  0029F2                     _strlen:
  4455                           	opt callstack 21
  4456                           
  4457                           ; BSR set to: 0
  4458                           
  4459                           ;incstack = 0
  4460  0029F2  0060  F018  F008   	movff	strlen@s,strlen@a
  4461  0029F8  0060  F01C  F009   	movff	strlen@s+1,strlen@a+1
  4462  0029FE  D002               	goto	l3407
  4463  002A00                     l3405:
  4464  002A00  4A06               	infsnz	strlen@s,f,c
  4465  002A02  2A07               	incf	strlen@s+1,f,c
  4466  002A04                     l3407:
  4467  002A04  0060  F01B  FFF6   	movff	strlen@s,tblptrl
  4468  002A0A  0060  F01F  FFF7   	movff	strlen@s+1,tblptrh
  4469  002A10  0E00               	movlw	low (__smallconst shr (0+16))
  4470  002A12  6EF8               	movwf	tblptru,c
  4471  002A14  0E1F               	movlw	(high __ramtop+-1)
  4472  002A16  64F7               	cpfsgt	tblptrh,c
  4473  002A18  D003               	bra	u1807
  4474  002A1A  0008               	tblrd		*
  4475  002A1C  50F5               	movf	tablat,w,c
  4476  002A1E  D007               	bra	u1800
  4477  002A20                     u1807:
  4478  002A20  006F FFDB FFE1     	movff	tblptrl,fsr1l
  4479  002A26  006F FFDF FFE2     	movff	tblptrh,fsr1h
  4480  002A2C  50E7               	movf	indf1,w,c
  4481  002A2E                     u1800:
  4482  002A2E  0900               	iorlw	0
  4483  002A30  A4D8               	btfss	status,2,c
  4484  002A32  D7E6               	goto	l3405
  4485  002A34  5008               	movf	strlen@a,w,c
  4486  002A36  5C06               	subwf	strlen@s,w,c
  4487  002A38  6E06               	movwf	?_strlen,c
  4488  002A3A  5009               	movf	strlen@a+1,w,c
  4489  002A3C  5807               	subwfb	strlen@s+1,w,c
  4490  002A3E  6E07               	movwf	?_strlen+1,c
  4491  002A40  0012               	return		;funcret
  4492  002A42                     __end_of_strlen:
  4493                           	opt callstack 0
  4494                           
  4495 ;; *************** function _fputc *****************
  4496 ;; Defined at:
  4497 ;;		line 8 in file "/opt/microchip/xc8/v2.05/pic/sources/c99/common/nf_fputc.c"
  4498 ;; Parameters:    Size  Location     Type
  4499 ;;  c               2    7[COMRAM] int 
  4500 ;;  fp              2    9[COMRAM] PTR struct _IO_FILE
  4501 ;;		 -> NULL(0), 
  4502 ;; Auto vars:     Size  Location     Type
  4503 ;;		None
  4504 ;; Return value:  Size  Location     Type
  4505 ;;                  2    7[COMRAM] int 
  4506 ;; Registers used:
  4507 ;;		wreg, fsr1l, fsr1h, fsr2l, fsr2h, status,2, status,0, cstack
  4508 ;; Tracked objects:
  4509 ;;		On entry : 0/0
  4510 ;;		On exit  : 0/0
  4511 ;;		Unchanged: 0/0
  4512 ;; Data sizes:     COMRAM   BANK0   BANK1   BANK2   BANK3   BANK4   BANK5   BANK6   BANK7   BANK8   BANK9  BANK10  BANK1
      +1  BANK12  BANK13  BANK14  BANK15  BANK16  BANK17  BANK18  BANK19  BANK20  BANK21  BANK22  BANK23  BANK24  BANK25  BANK2
      +6  BANK27  BANK28  BANK29  BANK30  BANK31
  4513 ;;      Params:         4       0       0       0       0       0       0       0       0       0       0       0       
      +0       0       0       0       0       0       0       0       0       0       0       0       0       0       0       
      +0       0       0       0       0       0
  4514 ;;      Locals:         0       0       0       0       0       0       0       0       0       0       0       0       
      +0       0       0       0       0       0       0       0       0       0       0       0       0       0       0       
      +0       0       0       0       0       0
  4515 ;;      Temps:          5       0       0       0       0       0       0       0       0       0       0       0       
      +0       0       0       0       0       0       0       0       0       0       0       0       0       0       0       
      +0       0       0       0       0       0
  4516 ;;      Totals:         9       0       0       0       0       0       0       0       0       0       0       0       
      +0       0       0       0       0       0       0       0       0       0       0       0       0       0       0       
      +0       0       0       0       0       0
  4517 ;;Total ram usage:        9 bytes
  4518 ;; Hardware stack levels used:    1
  4519 ;; Hardware stack levels required when called:    6
  4520 ;; This function calls:
  4521 ;;		_putch
  4522 ;; This function is called by:
  4523 ;;		_stoa
  4524 ;;		_vfpfcnvrt
  4525 ;; This function uses a non-reentrant model
  4526 ;;
  4527                           
  4528                           	psect	text35
  4529  00287C                     __ptext35:
  4530                           	opt callstack 0
  4531  00287C                     _fputc:
  4532                           	opt callstack 19
  4533                           
  4534                           ;incstack = 0
  4535  00287C  500A               	movf	fputc@fp,w,c
  4536  00287E  100B               	iorwf	fputc@fp+1,w,c
  4537  002880  B4D8               	btfsc	status,2,c
  4538  002882  D004               	goto	u1770
  4539  002884  500A               	movf	fputc@fp,w,c
  4540  002886  100B               	iorwf	fputc@fp+1,w,c
  4541  002888  A4D8               	btfss	status,2,c
  4542  00288A  D004               	goto	l3395
  4543  00288C                     u1770:
  4544  00288C  5008               	movf	fputc@c,w,c
  4545  00288E  EC3E  F018         	call	_putch
  4546  002892  0012               	return	
  4547  002894                     l3395:
  4548  002894  EE20 F004          	lfsr	2,4
  4549  002898  500A               	movf	fputc@fp,w,c
  4550  00289A  26D9               	addwf	fsr2l,f,c
  4551  00289C  500B               	movf	fputc@fp+1,w,c
  4552  00289E  22DA               	addwfc	fsr2h,f,c
  4553  0028A0  50DE               	movf	postinc2,w,c
  4554  0028A2  10DE               	iorwf	postinc2,w,c
  4555  0028A4  B4D8               	btfsc	status,2,c
  4556  0028A6  D016               	goto	u1790
  4557  0028A8  EE20 F004          	lfsr	2,4
  4558  0028AC  500A               	movf	fputc@fp,w,c
  4559  0028AE  26D9               	addwf	fsr2l,f,c
  4560  0028B0  500B               	movf	fputc@fp+1,w,c
  4561  0028B2  22DA               	addwfc	fsr2h,f,c
  4562  0028B4  EE10 F002          	lfsr	1,2
  4563  0028B8  500A               	movf	fputc@fp,w,c
  4564  0028BA  26E1               	addwf	fsr1l,f,c
  4565  0028BC  500B               	movf	fputc@fp+1,w,c
  4566  0028BE  22E2               	addwfc	fsr1h,f,c
  4567  0028C0  50DE               	movf	postinc2,w,c
  4568  0028C2  5CE6               	subwf	postinc1,w,c
  4569  0028C4  50E6               	movf	postinc1,w,c
  4570  0028C6  0A80               	xorlw	128
  4571  0028C8  6E10               	movwf	(??_fputc+4)& (0+255),c
  4572  0028CA  50DE               	movf	postinc2,w,c
  4573  0028CC  0A80               	xorlw	128
  4574  0028CE  5810               	subwfb	(??_fputc+4)& (0+255),w,c
  4575  0028D0  B0D8               	btfsc	status,0,c
  4576  0028D2  0012               	return	
  4577  0028D4                     u1790:
  4578  0028D4  EE20 F002          	lfsr	2,2
  4579  0028D8  500A               	movf	fputc@fp,w,c
  4580  0028DA  26D9               	addwf	fsr2l,f,c
  4581  0028DC  500B               	movf	fputc@fp+1,w,c
  4582  0028DE  22DA               	addwfc	fsr2h,f,c
  4583  0028E0  2ADE               	incf	postinc2,f,c
  4584  0028E2  0E00               	movlw	0
  4585  0028E4  22DD               	addwfc	postdec2,f,c
  4586  0028E6  0012               	return		;funcret
  4587  0028E8                     __end_of_fputc:
  4588                           	opt callstack 0
  4589                           
  4590 ;; *************** function _putch *****************
  4591 ;; Defined at:
  4592 ;;		line 221 in file "mcc_generated_files/uart2.c"
  4593 ;; Parameters:    Size  Location     Type
  4594 ;;  txData          1    wreg     unsigned char 
  4595 ;; Auto vars:     Size  Location     Type
  4596 ;;  txData          1    6[COMRAM] unsigned char 
  4597 ;; Return value:  Size  Location     Type
  4598 ;;                  1    wreg      void 
  4599 ;; Registers used:
  4600 ;;		wreg, fsr2l, fsr2h, status,2, status,0, cstack
  4601 ;; Tracked objects:
  4602 ;;		On entry : 0/0
  4603 ;;		On exit  : 3F/39
  4604 ;;		Unchanged: 0/0
  4605 ;; Data sizes:     COMRAM   BANK0   BANK1   BANK2   BANK3   BANK4   BANK5   BANK6   BANK7   BANK8   BANK9  BANK10  BANK1
      +1  BANK12  BANK13  BANK14  BANK15  BANK16  BANK17  BANK18  BANK19  BANK20  BANK21  BANK22  BANK23  BANK24  BANK25  BANK2
      +6  BANK27  BANK28  BANK29  BANK30  BANK31
  4606 ;;      Params:         0       0       0       0       0       0       0       0       0       0       0       0       
      +0       0       0       0       0       0       0       0       0       0       0       0       0       0       0       
      +0       0       0       0       0       0
  4607 ;;      Locals:         1       0       0       0       0       0       0       0       0       0       0       0       
      +0       0       0       0       0       0       0       0       0       0       0       0       0       0       0       
      +0       0       0       0       0       0
  4608 ;;      Temps:          0       0       0       0       0       0       0       0       0       0       0       0       
      +0       0       0       0       0       0       0       0       0       0       0       0       0       0       0       
      +0       0       0       0       0       0
  4609 ;;      Totals:         1       0       0       0       0       0       0       0       0       0       0       0       
      +0       0       0       0       0       0       0       0       0       0       0       0       0       0       0       
      +0       0       0       0       0       0
  4610 ;;Total ram usage:        1 bytes
  4611 ;; Hardware stack levels used:    1
  4612 ;; Hardware stack levels required when called:    5
  4613 ;; This function calls:
  4614 ;;		_UART2_Write
  4615 ;; This function is called by:
  4616 ;;		_fputc
  4617 ;; This function uses a non-reentrant model
  4618 ;;
  4619                           
  4620                           	psect	text36
  4621  00307C                     __ptext36:
  4622                           	opt callstack 0
  4623  00307C                     _putch:
  4624                           	opt callstack 19
  4625                           
  4626                           ;incstack = 0
  4627                           ;putch@txData stored from wreg
  4628  00307C  6E07               	movwf	putch@txData,c
  4629                           
  4630                           ;mcc_generated_files/uart2.c: 221: void putch(char txData);mcc_generated_files/uart2.c: 
      +                          222: {;mcc_generated_files/uart2.c: 223:     UART2_Write(txData);
  4631  00307E  5007               	movf	putch@txData,w,c
  4632  003080  ECAC  F015         	call	_UART2_Write
  4633                           
  4634                           ; BSR set to: 57
  4635  003084  0012               	return		;funcret
  4636  003086                     __end_of_putch:
  4637                           	opt callstack 0
  4638                           
  4639 ;; *************** function _UART2_Write *****************
  4640 ;; Defined at:
  4641 ;;		line 193 in file "mcc_generated_files/uart2.c"
  4642 ;; Parameters:    Size  Location     Type
  4643 ;;  txData          1    wreg     unsigned char 
  4644 ;; Auto vars:     Size  Location     Type
  4645 ;;  txData          1    5[COMRAM] unsigned char 
  4646 ;; Return value:  Size  Location     Type
  4647 ;;                  1    wreg      void 
  4648 ;; Registers used:
  4649 ;;		wreg, fsr2l, fsr2h, status,2, status,0
  4650 ;; Tracked objects:
  4651 ;;		On entry : 0/0
  4652 ;;		On exit  : 3F/39
  4653 ;;		Unchanged: 0/0
  4654 ;; Data sizes:     COMRAM   BANK0   BANK1   BANK2   BANK3   BANK4   BANK5   BANK6   BANK7   BANK8   BANK9  BANK10  BANK1
      +1  BANK12  BANK13  BANK14  BANK15  BANK16  BANK17  BANK18  BANK19  BANK20  BANK21  BANK22  BANK23  BANK24  BANK25  BANK2
      +6  BANK27  BANK28  BANK29  BANK30  BANK31
  4655 ;;      Params:         0       0       0       0       0       0       0       0       0       0       0       0       
      +0       0       0       0       0       0       0       0       0       0       0       0       0       0       0       
      +0       0       0       0       0       0
  4656 ;;      Locals:         1       0       0       0       0       0       0       0       0       0       0       0       
      +0       0       0       0       0       0       0       0       0       0       0       0       0       0       0       
      +0       0       0       0       0       0
  4657 ;;      Temps:          0       0       0       0       0       0       0       0       0       0       0       0       
      +0       0       0       0       0       0       0       0       0       0       0       0       0       0       0       
      +0       0       0       0       0       0
  4658 ;;      Totals:         1       0       0       0       0       0       0       0       0       0       0       0       
      +0       0       0       0       0       0       0       0       0       0       0       0       0       0       0       
      +0       0       0       0       0       0
  4659 ;;Total ram usage:        1 bytes
  4660 ;; Hardware stack levels used:    1
  4661 ;; Hardware stack levels required when called:    4
  4662 ;; This function calls:
  4663 ;;		Nothing
  4664 ;; This function is called by:
  4665 ;;		_putch
  4666 ;;		_Digital232_RW
  4667 ;; This function uses a non-reentrant model
  4668 ;;
  4669                           
  4670                           	psect	text37
  4671  002B58                     __ptext37:
  4672                           	opt callstack 0
  4673  002B58                     _UART2_Write:
  4674                           	opt callstack 19
  4675                           
  4676                           ; BSR set to: 57
  4677                           ;incstack = 0
  4678                           ;UART2_Write@txData stored from wreg
  4679  002B58  6E06               	movwf	UART2_Write@txData,c
  4680  002B5A                     
  4681                           ;mcc_generated_files/uart2.c: 195:     while(0 == uart2TxBufferRemaining)
  4682                           
  4683                           ;mcc_generated_files/uart2.c: 193: void UART2_Write(uint8_t txData);mcc_generated_files/
      +                          uart2.c: 194: {;mcc_generated_files/uart2.c: 195:     while(0 == uart2TxBufferRemaining)
  4684  002B5A  5050               	movf	_uart2TxBufferRemaining,w,c	;volatile
  4685  002B5C  B4D8               	btfsc	status,2,c
  4686  002B5E  D7FD               	goto	l3369
  4687                           
  4688                           ;mcc_generated_files/uart2.c: 199:     if(0 == PIE6bits.U2TXIE)
  4689  002B60  0139               	movlb	57	; () banked
  4690  002B62  B796               	btfsc	150,3,b	;volatile
  4691  002B64  D004               	goto	l482
  4692                           
  4693                           ; BSR set to: 57
  4694                           ;mcc_generated_files/uart2.c: 200:     {;mcc_generated_files/uart2.c: 201:         U2TXB
      +                           = txData;
  4695  002B66  0060  F01B  FDD2   	movff	UART2_Write@txData,15826	;volatile
  4696                           
  4697                           ;mcc_generated_files/uart2.c: 202:     }
  4698  002B6C  D00F               	goto	l3385
  4699  002B6E                     l482:
  4700                           
  4701                           ; BSR set to: 57
  4702                           ;mcc_generated_files/uart2.c: 204:     {;mcc_generated_files/uart2.c: 205:         PIE6b
      +                          its.U2TXIE = 0;
  4703  002B6E  9796               	bcf	150,3,b	;volatile
  4704                           
  4705                           ; BSR set to: 57
  4706                           ;mcc_generated_files/uart2.c: 206:         uart2TxBuffer[uart2TxHead++] = txData;
  4707  002B70  5052               	movf	_uart2TxHead,w,c
  4708  002B72  0FBC               	addlw	low _uart2TxBuffer
  4709  002B74  6ED9               	movwf	fsr2l,c
  4710  002B76  6ADA               	clrf	fsr2h,c
  4711  002B78  0060  F01B  FFDF   	movff	UART2_Write@txData,indf2
  4712                           
  4713                           ; BSR set to: 57
  4714  002B7E  2A52               	incf	_uart2TxHead,f,c	;volatile
  4715                           
  4716                           ; BSR set to: 57
  4717                           ;mcc_generated_files/uart2.c: 207:         if(sizeof(uart2TxBuffer) <= uart2TxHead)
  4718  002B80  0E07               	movlw	7
  4719  002B82  6452               	cpfsgt	_uart2TxHead,c
  4720  002B84  D002               	goto	l3383
  4721                           
  4722                           ; BSR set to: 57
  4723                           ;mcc_generated_files/uart2.c: 208:         {;mcc_generated_files/uart2.c: 209:          
      +                             uart2TxHead = 0;
  4724  002B86  0E00               	movlw	0
  4725  002B88  6E52               	movwf	_uart2TxHead,c	;volatile
  4726  002B8A                     l3383:
  4727                           
  4728                           ; BSR set to: 57
  4729                           ;mcc_generated_files/uart2.c: 211:         uart2TxBufferRemaining--;
  4730  002B8A  0650               	decf	_uart2TxBufferRemaining,f,c	;volatile
  4731  002B8C                     l3385:
  4732                           
  4733                           ; BSR set to: 57
  4734                           ;mcc_generated_files/uart2.c: 213:     PIE6bits.U2TXIE = 1;
  4735  002B8C  8796               	bsf	150,3,b	;volatile
  4736                           
  4737                           ; BSR set to: 57
  4738  002B8E  0012               	return		;funcret
  4739  002B90                     __end_of_UART2_Write:
  4740                           	opt callstack 0
  4741                           
  4742 ;; *************** function _WaitMs *****************
  4743 ;; Defined at:
  4744 ;;		line 31 in file "timers.c"
  4745 ;; Parameters:    Size  Location     Type
  4746 ;;  numMilliseco    2   10[COMRAM] const unsigned short 
  4747 ;; Auto vars:     Size  Location     Type
  4748 ;;		None
  4749 ;; Return value:  Size  Location     Type
  4750 ;;                  1    wreg      void 
  4751 ;; Registers used:
  4752 ;;		wreg, fsr2l, fsr2h, status,2, status,0, prodl, prodh, cstack
  4753 ;; Tracked objects:
  4754 ;;		On entry : 0/0
  4755 ;;		On exit  : 0/0
  4756 ;;		Unchanged: 0/0
  4757 ;; Data sizes:     COMRAM   BANK0   BANK1   BANK2   BANK3   BANK4   BANK5   BANK6   BANK7   BANK8   BANK9  BANK10  BANK1
      +1  BANK12  BANK13  BANK14  BANK15  BANK16  BANK17  BANK18  BANK19  BANK20  BANK21  BANK22  BANK23  BANK24  BANK25  BANK2
      +6  BANK27  BANK28  BANK29  BANK30  BANK31
  4758 ;;      Params:         2       0       0       0       0       0       0       0       0       0       0       0       
      +0       0       0       0       0       0       0       0       0       0       0       0       0       0       0       
      +0       0       0       0       0       0
  4759 ;;      Locals:         0       0       0       0       0       0       0       0       0       0       0       0       
      +0       0       0       0       0       0       0       0       0       0       0       0       0       0       0       
      +0       0       0       0       0       0
  4760 ;;      Temps:          0       0       0       0       0       0       0       0       0       0       0       0       
      +0       0       0       0       0       0       0       0       0       0       0       0       0       0       0       
      +0       0       0       0       0       0
  4761 ;;      Totals:         2       0       0       0       0       0       0       0       0       0       0       0       
      +0       0       0       0       0       0       0       0       0       0       0       0       0       0       0       
      +0       0       0       0       0       0
  4762 ;;Total ram usage:        2 bytes
  4763 ;; Hardware stack levels used:    1
  4764 ;; Hardware stack levels required when called:    5
  4765 ;; This function calls:
  4766 ;;		_StartTimer
  4767 ;;		_TimerDone
  4768 ;; This function is called by:
  4769 ;;		_Digital232_init
  4770 ;;		_Digital232_RW
  4771 ;; This function uses a non-reentrant model
  4772 ;;
  4773                           
  4774                           	psect	text38
  4775  002CB6                     __ptext38:
  4776                           	opt callstack 0
  4777  002CB6                     _WaitMs:
  4778                           	opt callstack 24
  4779                           
  4780                           ;timers.c: 31: void WaitMs(const uint16_t numMilliseconds);timers.c: 32: {;timers.c: 33:
      +                            StartTimer(TMR_INTERNAL, numMilliseconds);
  4781                           
  4782                           ; BSR set to: 57
  4783                           ;incstack = 0
  4784  002CB6  0060  F02C  F006   	movff	WaitMs@numMilliseconds,StartTimer@count
  4785  002CBC  0060  F030  F007   	movff	WaitMs@numMilliseconds+1,StartTimer@count+1
  4786  002CC2  0E00               	movlw	0
  4787  002CC4  EC2E  F016         	call	_StartTimer
  4788                           
  4789                           ;timers.c: 34:  while (!TimerDone(TMR_INTERNAL)) {
  4790  002CC8  D005               	goto	l3739
  4791  002CCA                     l913:
  4792                           
  4793                           ;timers.c: 35:   __nop();
  4794  002CCA  F000               	nop	
  4795                           
  4796                           ;timers.c: 36:   __nop();
  4797  002CCC  F000               	nop	
  4798                           
  4799                           ;timers.c: 37:   __nop();
  4800  002CCE  F000               	nop	
  4801                           
  4802                           ;timers.c: 38:   __nop();
  4803  002CD0  F000               	nop	
  4804  002CD2  0004               	clrwdt		;# 
  4805  002CD4                     l3739:
  4806                           
  4807                           ;timers.c: 34:  while (!TimerDone(TMR_INTERNAL)) {
  4808  002CD4  0E00               	movlw	0
  4809  002CD6  EC2D  F017         	call	_TimerDone
  4810  002CDA  0900               	iorlw	0
  4811  002CDC  A4D8               	btfss	status,2,c
  4812  002CDE  0012               	return	
  4813  002CE0  D7F4               	goto	l913
  4814  002CE2                     __end_of_WaitMs:
  4815                           	opt callstack 0
  4816                           
  4817 ;; *************** function _TimerDone *****************
  4818 ;; Defined at:
  4819 ;;		line 19 in file "timers.c"
  4820 ;; Parameters:    Size  Location     Type
  4821 ;;  timer           1    wreg     const unsigned char 
  4822 ;; Auto vars:     Size  Location     Type
  4823 ;;  timer           1    7[COMRAM] const unsigned char 
  4824 ;; Return value:  Size  Location     Type
  4825 ;;                  1    wreg      _Bool 
  4826 ;; Registers used:
  4827 ;;		wreg, fsr2l, fsr2h, status,2, status,0, prodl, prodh
  4828 ;; Tracked objects:
  4829 ;;		On entry : 0/3E
  4830 ;;		On exit  : 0/0
  4831 ;;		Unchanged: 0/0
  4832 ;; Data sizes:     COMRAM   BANK0   BANK1   BANK2   BANK3   BANK4   BANK5   BANK6   BANK7   BANK8   BANK9  BANK10  BANK1
      +1  BANK12  BANK13  BANK14  BANK15  BANK16  BANK17  BANK18  BANK19  BANK20  BANK21  BANK22  BANK23  BANK24  BANK25  BANK2
      +6  BANK27  BANK28  BANK29  BANK30  BANK31
  4833 ;;      Params:         0       0       0       0       0       0       0       0       0       0       0       0       
      +0       0       0       0       0       0       0       0       0       0       0       0       0       0       0       
      +0       0       0       0       0       0
  4834 ;;      Locals:         1       0       0       0       0       0       0       0       0       0       0       0       
      +0       0       0       0       0       0       0       0       0       0       0       0       0       0       0       
      +0       0       0       0       0       0
  4835 ;;      Temps:          2       0       0       0       0       0       0       0       0       0       0       0       
      +0       0       0       0       0       0       0       0       0       0       0       0       0       0       0       
      +0       0       0       0       0       0
  4836 ;;      Totals:         3       0       0       0       0       0       0       0       0       0       0       0       
      +0       0       0       0       0       0       0       0       0       0       0       0       0       0       0       
      +0       0       0       0       0       0
  4837 ;;Total ram usage:        3 bytes
  4838 ;; Hardware stack levels used:    1
  4839 ;; Hardware stack levels required when called:    4
  4840 ;; This function calls:
  4841 ;;		Nothing
  4842 ;; This function is called by:
  4843 ;;		_work_sw
  4844 ;;		_Digital232_RW
  4845 ;;		_WaitMs
  4846 ;; This function uses a non-reentrant model
  4847 ;;
  4848                           
  4849                           	psect	text39
  4850  002E5A                     __ptext39:
  4851                           	opt callstack 0
  4852  002E5A                     _TimerDone:
  4853                           	opt callstack 25
  4854                           
  4855                           ;incstack = 0
  4856                           ;TimerDone@timer stored from wreg
  4857  002E5A  6E08               	movwf	TimerDone@timer,c
  4858  002E5C  0004               	clrwdt		;# 
  4859                           
  4860                           ;timers.c: 22:  if (tickCount[timer] == 0) {
  4861  002E5E  5008               	movf	TimerDone@timer,w,c
  4862  002E60  0D02               	mullw	2
  4863  002E62  50F3               	movf	prodl,w,c
  4864  002E64  0F80               	addlw	low _tickCount
  4865  002E66  6ED9               	movwf	fsr2l,c
  4866  002E68  6ADA               	clrf	fsr2h,c
  4867  002E6A  50DE               	movf	postinc2,w,c
  4868  002E6C  10DE               	iorwf	postinc2,w,c
  4869  002E6E  A4D8               	btfss	status,2,c
  4870  002E70  D002               	goto	l3529
  4871                           
  4872                           ;timers.c: 23:   return 1;
  4873  002E72  0E01               	movlw	1
  4874  002E74  0012               	return	
  4875  002E76                     l3529:
  4876                           
  4877                           ;timers.c: 25:  return 0;
  4878  002E76  0E00               	movlw	0
  4879  002E78  0012               	return		;funcret
  4880  002E7A                     __end_of_TimerDone:
  4881                           	opt callstack 0
  4882                           
  4883 ;; *************** function _StartTimer *****************
  4884 ;; Defined at:
  4885 ;;		line 11 in file "timers.c"
  4886 ;; Parameters:    Size  Location     Type
  4887 ;;  timer           1    wreg     const unsigned char 
  4888 ;;  count           2    5[COMRAM] const unsigned short 
  4889 ;; Auto vars:     Size  Location     Type
  4890 ;;  timer           1    9[COMRAM] const unsigned char 
  4891 ;; Return value:  Size  Location     Type
  4892 ;;                  1    wreg      void 
  4893 ;; Registers used:
  4894 ;;		wreg, fsr2l, fsr2h, status,2, status,0, prodl, prodh
  4895 ;; Tracked objects:
  4896 ;;		On entry : 0/0
  4897 ;;		On exit  : 0/0
  4898 ;;		Unchanged: 0/0
  4899 ;; Data sizes:     COMRAM   BANK0   BANK1   BANK2   BANK3   BANK4   BANK5   BANK6   BANK7   BANK8   BANK9  BANK10  BANK1
      +1  BANK12  BANK13  BANK14  BANK15  BANK16  BANK17  BANK18  BANK19  BANK20  BANK21  BANK22  BANK23  BANK24  BANK25  BANK2
      +6  BANK27  BANK28  BANK29  BANK30  BANK31
  4900 ;;      Params:         2       0       0       0       0       0       0       0       0       0       0       0       
      +0       0       0       0       0       0       0       0       0       0       0       0       0       0       0       
      +0       0       0       0       0       0
  4901 ;;      Locals:         1       0       0       0       0       0       0       0       0       0       0       0       
      +0       0       0       0       0       0       0       0       0       0       0       0       0       0       0       
      +0       0       0       0       0       0
  4902 ;;      Temps:          2       0       0       0       0       0       0       0       0       0       0       0       
      +0       0       0       0       0       0       0       0       0       0       0       0       0       0       0       
      +0       0       0       0       0       0
  4903 ;;      Totals:         5       0       0       0       0       0       0       0       0       0       0       0       
      +0       0       0       0       0       0       0       0       0       0       0       0       0       0       0       
      +0       0       0       0       0       0
  4904 ;;Total ram usage:        5 bytes
  4905 ;; Hardware stack levels used:    1
  4906 ;; Hardware stack levels required when called:    4
  4907 ;; This function calls:
  4908 ;;		Nothing
  4909 ;; This function is called by:
  4910 ;;		_work_sw
  4911 ;;		_main
  4912 ;;		_Digital232_RW
  4913 ;;		_WaitMs
  4914 ;; This function uses a non-reentrant model
  4915 ;;
  4916                           
  4917                           	psect	text40
  4918  002C5C                     __ptext40:
  4919                           	opt callstack 0
  4920  002C5C                     _StartTimer:
  4921                           	opt callstack 25
  4922                           
  4923                           ;incstack = 0
  4924                           ;StartTimer@timer stored from wreg
  4925  002C5C  6E0A               	movwf	StartTimer@timer,c
  4926                           
  4927                           ;timers.c: 11: __attribute__((inline)) void StartTimer(const uint8_t timer, const uint16
      +                          _t count);timers.c: 12: {;timers.c: 13:  tickCount[timer] = count << 1;
  4928  002C5E  0060  F018  F008   	movff	StartTimer@count,??_StartTimer
  4929  002C64  0060  F01C  F009   	movff	StartTimer@count+1,??_StartTimer+1
  4930  002C6A  90D8               	bcf	status,0,c
  4931  002C6C  3608               	rlcf	??_StartTimer,f,c
  4932  002C6E  3609               	rlcf	??_StartTimer+1,f,c
  4933  002C70  500A               	movf	StartTimer@timer,w,c
  4934  002C72  0D02               	mullw	2
  4935  002C74  50F3               	movf	prodl,w,c
  4936  002C76  0F80               	addlw	low _tickCount
  4937  002C78  6ED9               	movwf	fsr2l,c
  4938  002C7A  6ADA               	clrf	fsr2h,c
  4939  002C7C  0060  F023  FFDE   	movff	??_StartTimer,postinc2
  4940  002C82  0060  F027  FFDD   	movff	??_StartTimer+1,postdec2
  4941  002C88  0012               	return		;funcret
  4942  002C8A                     __end_of_StartTimer:
  4943                           	opt callstack 0
  4944                           
  4945 ;; *************** function _UART2_is_rx_ready *****************
  4946 ;; Defined at:
  4947 ;;		line 152 in file "mcc_generated_files/uart2.c"
  4948 ;; Parameters:    Size  Location     Type
  4949 ;;		None
  4950 ;; Auto vars:     Size  Location     Type
  4951 ;;		None
  4952 ;; Return value:  Size  Location     Type
  4953 ;;                  1    wreg      unsigned char 
  4954 ;; Registers used:
  4955 ;;		wreg, status,2
  4956 ;; Tracked objects:
  4957 ;;		On entry : 0/0
  4958 ;;		On exit  : 0/0
  4959 ;;		Unchanged: 0/0
  4960 ;; Data sizes:     COMRAM   BANK0   BANK1   BANK2   BANK3   BANK4   BANK5   BANK6   BANK7   BANK8   BANK9  BANK10  BANK1
      +1  BANK12  BANK13  BANK14  BANK15  BANK16  BANK17  BANK18  BANK19  BANK20  BANK21  BANK22  BANK23  BANK24  BANK25  BANK2
      +6  BANK27  BANK28  BANK29  BANK30  BANK31
  4961 ;;      Params:         0       0       0       0       0       0       0       0       0       0       0       0       
      +0       0       0       0       0       0       0       0       0       0       0       0       0       0       0       
      +0       0       0       0       0       0
  4962 ;;      Locals:         0       0       0       0       0       0       0       0       0       0       0       0       
      +0       0       0       0       0       0       0       0       0       0       0       0       0       0       0       
      +0       0       0       0       0       0
  4963 ;;      Temps:          0       0       0       0       0       0       0       0       0       0       0       0       
      +0       0       0       0       0       0       0       0       0       0       0       0       0       0       0       
      +0       0       0       0       0       0
  4964 ;;      Totals:         0       0       0       0       0       0       0       0       0       0       0       0       
      +0       0       0       0       0       0       0       0       0       0       0       0       0       0       0       
      +0       0       0       0       0       0
  4965 ;;Total ram usage:        0 bytes
  4966 ;; Hardware stack levels used:    1
  4967 ;; Hardware stack levels required when called:    4
  4968 ;; This function calls:
  4969 ;;		Nothing
  4970 ;; This function is called by:
  4971 ;;		_Digital232_init
  4972 ;;		_Digital232_RW
  4973 ;; This function uses a non-reentrant model
  4974 ;;
  4975                           
  4976                           	psect	text41
  4977  00309E                     __ptext41:
  4978                           	opt callstack 0
  4979  00309E                     _UART2_is_rx_ready:
  4980                           	opt callstack 25
  4981                           
  4982                           ;mcc_generated_files/uart2.c: 154:     return uart2RxCount;
  4983                           
  4984                           ;incstack = 0
  4985  00309E  504D               	movf	_uart2RxCount,w,c	;volatile
  4986  0030A0  0012               	return		;funcret
  4987  0030A2                     __end_of_UART2_is_rx_ready:
  4988                           	opt callstack 0
  4989                           
  4990 ;; *************** function _UART2_Read *****************
  4991 ;; Defined at:
  4992 ;;		line 171 in file "mcc_generated_files/uart2.c"
  4993 ;; Parameters:    Size  Location     Type
  4994 ;;		None
  4995 ;; Auto vars:     Size  Location     Type
  4996 ;;  readValue       1    5[COMRAM] unsigned char 
  4997 ;; Return value:  Size  Location     Type
  4998 ;;                  1    wreg      unsigned char 
  4999 ;; Registers used:
  5000 ;;		wreg, fsr2l, fsr2h, status,2, status,0
  5001 ;; Tracked objects:
  5002 ;;		On entry : 0/0
  5003 ;;		On exit  : 3F/39
  5004 ;;		Unchanged: 0/0
  5005 ;; Data sizes:     COMRAM   BANK0   BANK1   BANK2   BANK3   BANK4   BANK5   BANK6   BANK7   BANK8   BANK9  BANK10  BANK1
      +1  BANK12  BANK13  BANK14  BANK15  BANK16  BANK17  BANK18  BANK19  BANK20  BANK21  BANK22  BANK23  BANK24  BANK25  BANK2
      +6  BANK27  BANK28  BANK29  BANK30  BANK31
  5006 ;;      Params:         0       0       0       0       0       0       0       0       0       0       0       0       
      +0       0       0       0       0       0       0       0       0       0       0       0       0       0       0       
      +0       0       0       0       0       0
  5007 ;;      Locals:         1       0       0       0       0       0       0       0       0       0       0       0       
      +0       0       0       0       0       0       0       0       0       0       0       0       0       0       0       
      +0       0       0       0       0       0
  5008 ;;      Temps:          0       0       0       0       0       0       0       0       0       0       0       0       
      +0       0       0       0       0       0       0       0       0       0       0       0       0       0       0       
      +0       0       0       0       0       0
  5009 ;;      Totals:         1       0       0       0       0       0       0       0       0       0       0       0       
      +0       0       0       0       0       0       0       0       0       0       0       0       0       0       0       
      +0       0       0       0       0       0
  5010 ;;Total ram usage:        1 bytes
  5011 ;; Hardware stack levels used:    1
  5012 ;; Hardware stack levels required when called:    4
  5013 ;; This function calls:
  5014 ;;		Nothing
  5015 ;; This function is called by:
  5016 ;;		_Digital232_init
  5017 ;;		_Digital232_RW
  5018 ;; This function uses a non-reentrant model
  5019 ;;
  5020                           
  5021                           	psect	text42
  5022  002B90                     __ptext42:
  5023                           	opt callstack 0
  5024  002B90                     _UART2_Read:
  5025                           	opt callstack 25
  5026                           
  5027                           ;mcc_generated_files/uart2.c: 175:     while(0 == uart2RxCount)
  5028                           
  5029                           ;mcc_generated_files/uart2.c: 175:     while(0 == uart2RxCount)
  5030                           
  5031                           ;incstack = 0
  5032  002B90  504D               	movf	_uart2RxCount,w,c	;volatile
  5033  002B92  B4D8               	btfsc	status,2,c
  5034  002B94  D7FD               	goto	_UART2_Read
  5035                           
  5036                           ;mcc_generated_files/uart2.c: 179:     uart2RxLastError = uart2RxStatusBuffer[uart2RxTai
      +                          l];
  5037  002B96  504E               	movf	_uart2RxTail,w,c
  5038  002B98  0FAC               	addlw	low _uart2RxStatusBuffer
  5039  002B9A  6ED9               	movwf	fsr2l,c
  5040  002B9C  6ADA               	clrf	fsr2h,c
  5041  002B9E  50DF               	movf	indf2,w,c
  5042  002BA0  6E4C               	movwf	_uart2RxLastError,c	;volatile
  5043                           
  5044                           ;mcc_generated_files/uart2.c: 181:     readValue = uart2RxBuffer[uart2RxTail++];
  5045  002BA2  504E               	movf	_uart2RxTail,w,c
  5046  002BA4  0FB4               	addlw	low _uart2RxBuffer
  5047  002BA6  6ED9               	movwf	fsr2l,c
  5048  002BA8  6ADA               	clrf	fsr2h,c
  5049  002BAA  50DF               	movf	indf2,w,c
  5050  002BAC  6E06               	movwf	UART2_Read@readValue,c
  5051  002BAE  2A4E               	incf	_uart2RxTail,f,c	;volatile
  5052                           
  5053                           ;mcc_generated_files/uart2.c: 182:     if(sizeof(uart2RxBuffer) <= uart2RxTail)
  5054  002BB0  0E07               	movlw	7
  5055  002BB2  644E               	cpfsgt	_uart2RxTail,c
  5056  002BB4  D002               	goto	l3721
  5057                           
  5058                           ;mcc_generated_files/uart2.c: 183:     {;mcc_generated_files/uart2.c: 184:         uart2
      +                          RxTail = 0;
  5059  002BB6  0E00               	movlw	0
  5060  002BB8  6E4E               	movwf	_uart2RxTail,c	;volatile
  5061  002BBA                     l3721:
  5062                           
  5063                           ;mcc_generated_files/uart2.c: 186:     PIE6bits.U2RXIE = 0;
  5064  002BBA  0139               	movlb	57	; () banked
  5065  002BBC  9596               	bcf	150,2,b	;volatile
  5066                           
  5067                           ; BSR set to: 57
  5068                           ;mcc_generated_files/uart2.c: 187:     uart2RxCount--;
  5069  002BBE  064D               	decf	_uart2RxCount,f,c	;volatile
  5070                           
  5071                           ; BSR set to: 57
  5072                           ;mcc_generated_files/uart2.c: 188:     PIE6bits.U2RXIE = 1;
  5073  002BC0  8596               	bsf	150,2,b	;volatile
  5074                           
  5075                           ; BSR set to: 57
  5076                           ;mcc_generated_files/uart2.c: 190:     return readValue;
  5077  002BC2  5006               	movf	UART2_Read@readValue,w,c
  5078                           
  5079                           ; BSR set to: 57
  5080  002BC4  0012               	return		;funcret
  5081  002BC6                     __end_of_UART2_Read:
  5082                           	opt callstack 0
  5083                           
  5084 ;; *************** function _ADCC_StartConversion *****************
  5085 ;; Defined at:
  5086 ;;		line 113 in file "mcc_generated_files/adcc.c"
  5087 ;; Parameters:    Size  Location     Type
  5088 ;;  channel         1    wreg     enum E15770
  5089 ;; Auto vars:     Size  Location     Type
  5090 ;;  channel         1    5[COMRAM] enum E15770
  5091 ;; Return value:  Size  Location     Type
  5092 ;;                  1    wreg      void 
  5093 ;; Registers used:
  5094 ;;		wreg
  5095 ;; Tracked objects:
  5096 ;;		On entry : 3F/0
  5097 ;;		On exit  : 3F/3E
  5098 ;;		Unchanged: 0/0
  5099 ;; Data sizes:     COMRAM   BANK0   BANK1   BANK2   BANK3   BANK4   BANK5   BANK6   BANK7   BANK8   BANK9  BANK10  BANK1
      +1  BANK12  BANK13  BANK14  BANK15  BANK16  BANK17  BANK18  BANK19  BANK20  BANK21  BANK22  BANK23  BANK24  BANK25  BANK2
      +6  BANK27  BANK28  BANK29  BANK30  BANK31
  5100 ;;      Params:         0       0       0       0       0       0       0       0       0       0       0       0       
      +0       0       0       0       0       0       0       0       0       0       0       0       0       0       0       
      +0       0       0       0       0       0
  5101 ;;      Locals:         1       0       0       0       0       0       0       0       0       0       0       0       
      +0       0       0       0       0       0       0       0       0       0       0       0       0       0       0       
      +0       0       0       0       0       0
  5102 ;;      Temps:          0       0       0       0       0       0       0       0       0       0       0       0       
      +0       0       0       0       0       0       0       0       0       0       0       0       0       0       0       
      +0       0       0       0       0       0
  5103 ;;      Totals:         1       0       0       0       0       0       0       0       0       0       0       0       
      +0       0       0       0       0       0       0       0       0       0       0       0       0       0       0       
      +0       0       0       0       0       0
  5104 ;;Total ram usage:        1 bytes
  5105 ;; Hardware stack levels used:    1
  5106 ;; Hardware stack levels required when called:    4
  5107 ;; This function calls:
  5108 ;;		Nothing
  5109 ;; This function is called by:
  5110 ;;		_Digital232_init
  5111 ;;		_Digital232_RW
  5112 ;; This function uses a non-reentrant model
  5113 ;;
  5114                           
  5115                           	psect	text43
  5116  00305E                     __ptext43:
  5117                           	opt callstack 0
  5118  00305E                     _ADCC_StartConversion:
  5119                           	opt callstack 25
  5120                           
  5121                           ; BSR set to: 57
  5122                           ;incstack = 0
  5123                           ;ADCC_StartConversion@channel stored from wreg
  5124  00305E  6E06               	movwf	ADCC_StartConversion@channel,c
  5125                           
  5126                           ;mcc_generated_files/adcc.c: 113: void ADCC_StartConversion(adcc_channel_t channel);mcc_
      +                          generated_files/adcc.c: 114: {;mcc_generated_files/adcc.c: 116:     ADPCH = channel;
  5127  003060  0060  F01B  FEF1   	movff	ADCC_StartConversion@channel,16113	;volatile
  5128                           
  5129                           ;mcc_generated_files/adcc.c: 119:     ADCON0bits.ADON = 1;
  5130  003066  013E               	movlb	62	; () banked
  5131  003068  8FF8               	bsf	248,7,b	;volatile
  5132                           
  5133                           ; BSR set to: 62
  5134                           ;mcc_generated_files/adcc.c: 122:     ADCON0bits.ADGO = 1;
  5135  00306A  81F8               	bsf	248,0,b	;volatile
  5136                           
  5137                           ; BSR set to: 62
  5138  00306C  0012               	return		;funcret
  5139  00306E                     __end_of_ADCC_StartConversion:
  5140                           	opt callstack 0
  5141                           
  5142 ;; *************** function _ADCC_IsConversionDone *****************
  5143 ;; Defined at:
  5144 ;;		line 125 in file "mcc_generated_files/adcc.c"
  5145 ;; Parameters:    Size  Location     Type
  5146 ;;		None
  5147 ;; Auto vars:     Size  Location     Type
  5148 ;;		None
  5149 ;; Return value:  Size  Location     Type
  5150 ;;                  1    wreg      _Bool 
  5151 ;; Registers used:
  5152 ;;		wreg
  5153 ;; Tracked objects:
  5154 ;;		On entry : 0/3E
  5155 ;;		On exit  : 3F/3E
  5156 ;;		Unchanged: 0/0
  5157 ;; Data sizes:     COMRAM   BANK0   BANK1   BANK2   BANK3   BANK4   BANK5   BANK6   BANK7   BANK8   BANK9  BANK10  BANK1
      +1  BANK12  BANK13  BANK14  BANK15  BANK16  BANK17  BANK18  BANK19  BANK20  BANK21  BANK22  BANK23  BANK24  BANK25  BANK2
      +6  BANK27  BANK28  BANK29  BANK30  BANK31
  5158 ;;      Params:         0       0       0       0       0       0       0       0       0       0       0       0       
      +0       0       0       0       0       0       0       0       0       0       0       0       0       0       0       
      +0       0       0       0       0       0
  5159 ;;      Locals:         0       0       0       0       0       0       0       0       0       0       0       0       
      +0       0       0       0       0       0       0       0       0       0       0       0       0       0       0       
      +0       0       0       0       0       0
  5160 ;;      Temps:          0       0       0       0       0       0       0       0       0       0       0       0       
      +0       0       0       0       0       0       0       0       0       0       0       0       0       0       0       
      +0       0       0       0       0       0
  5161 ;;      Totals:         0       0       0       0       0       0       0       0       0       0       0       0       
      +0       0       0       0       0       0       0       0       0       0       0       0       0       0       0       
      +0       0       0       0       0       0
  5162 ;;Total ram usage:        0 bytes
  5163 ;; Hardware stack levels used:    1
  5164 ;; Hardware stack levels required when called:    4
  5165 ;; This function calls:
  5166 ;;		Nothing
  5167 ;; This function is called by:
  5168 ;;		_Digital232_RW
  5169 ;; This function uses a non-reentrant model
  5170 ;;
  5171                           
  5172                           	psect	text44
  5173  00306E                     __ptext44:
  5174                           	opt callstack 0
  5175  00306E                     _ADCC_IsConversionDone:
  5176                           	opt callstack 25
  5177                           
  5178                           ;mcc_generated_files/adcc.c: 128:     return ((unsigned char)(!ADCON0bits.ADGO));
  5179                           
  5180                           ; BSR set to: 62
  5181                           ;incstack = 0
  5182  00306E  013E               	movlb	62	; () banked
  5183  003070  B1F8               	btfsc	248,0,b	;volatile
  5184  003072  D002               	goto	u2020
  5185  003074  0E01               	movlw	1
  5186  003076  0012               	return	
  5187  003078                     u2020:
  5188  003078  0E00               	movlw	0
  5189                           
  5190                           ; BSR set to: 62
  5191  00307A  0012               	return		;funcret
  5192  00307C                     __end_of_ADCC_IsConversionDone:
  5193                           	opt callstack 0
  5194                           
  5195 ;; *************** function _ADCC_GetConversionResult *****************
  5196 ;; Defined at:
  5197 ;;		line 131 in file "mcc_generated_files/adcc.c"
  5198 ;; Parameters:    Size  Location     Type
  5199 ;;		None
  5200 ;; Auto vars:     Size  Location     Type
  5201 ;;		None
  5202 ;; Return value:  Size  Location     Type
  5203 ;;                  2    5[COMRAM] unsigned short 
  5204 ;; Registers used:
  5205 ;;		wreg, status,2, status,0
  5206 ;; Tracked objects:
  5207 ;;		On entry : 3F/3E
  5208 ;;		On exit  : 3F/3E
  5209 ;;		Unchanged: 0/0
  5210 ;; Data sizes:     COMRAM   BANK0   BANK1   BANK2   BANK3   BANK4   BANK5   BANK6   BANK7   BANK8   BANK9  BANK10  BANK1
      +1  BANK12  BANK13  BANK14  BANK15  BANK16  BANK17  BANK18  BANK19  BANK20  BANK21  BANK22  BANK23  BANK24  BANK25  BANK2
      +6  BANK27  BANK28  BANK29  BANK30  BANK31
  5211 ;;      Params:         2       0       0       0       0       0       0       0       0       0       0       0       
      +0       0       0       0       0       0       0       0       0       0       0       0       0       0       0       
      +0       0       0       0       0       0
  5212 ;;      Locals:         0       0       0       0       0       0       0       0       0       0       0       0       
      +0       0       0       0       0       0       0       0       0       0       0       0       0       0       0       
      +0       0       0       0       0       0
  5213 ;;      Temps:          2       0       0       0       0       0       0       0       0       0       0       0       
      +0       0       0       0       0       0       0       0       0       0       0       0       0       0       0       
      +0       0       0       0       0       0
  5214 ;;      Totals:         4       0       0       0       0       0       0       0       0       0       0       0       
      +0       0       0       0       0       0       0       0       0       0       0       0       0       0       0       
      +0       0       0       0       0       0
  5215 ;;Total ram usage:        4 bytes
  5216 ;; Hardware stack levels used:    1
  5217 ;; Hardware stack levels required when called:    4
  5218 ;; This function calls:
  5219 ;;		Nothing
  5220 ;; This function is called by:
  5221 ;;		_Digital232_RW
  5222 ;; This function uses a non-reentrant model
  5223 ;;
  5224                           
  5225                           	psect	text45
  5226  00304A                     __ptext45:
  5227                           	opt callstack 0
  5228  00304A                     _ADCC_GetConversionResult:
  5229                           	opt callstack 25
  5230                           
  5231                           ; BSR set to: 62
  5232                           ;mcc_generated_files/adcc.c: 134:     return ((adc_result_t)((ADRESH << 8) + ADRESL));
  5233                           
  5234                           ; BSR set to: 62
  5235                           ;incstack = 0
  5236  00304A  51F0               	movf	240,w,b	;volatile
  5237  00304C  6E09               	movwf	(??_ADCC_GetConversionResult+1)& (0+255),c
  5238  00304E  6A08               	clrf	??_ADCC_GetConversionResult& (0+255),c
  5239  003050  51EF               	movf	239,w,b	;volatile
  5240  003052  2408               	addwf	??_ADCC_GetConversionResult,w,c
  5241  003054  6E06               	movwf	?_ADCC_GetConversionResult,c
  5242  003056  0E00               	movlw	0
  5243  003058  2009               	addwfc	??_ADCC_GetConversionResult+1,w,c
  5244  00305A  6E07               	movwf	?_ADCC_GetConversionResult+1,c
  5245                           
  5246                           ; BSR set to: 62
  5247  00305C  0012               	return		;funcret
  5248  00305E                     __end_of_ADCC_GetConversionResult:
  5249                           	opt callstack 0
  5250                           
  5251 ;; *************** function _Default_ISR *****************
  5252 ;; Defined at:
  5253 ;;		line 80 in file "mcc_generated_files/interrupt_manager.c"
  5254 ;; Parameters:    Size  Location     Type
  5255 ;;		None
  5256 ;; Auto vars:     Size  Location     Type
  5257 ;;		None
  5258 ;; Return value:  Size  Location     Type
  5259 ;;                  1    wreg      void 
  5260 ;; Registers used:
  5261 ;;		None
  5262 ;; Tracked objects:
  5263 ;;		On entry : 0/0
  5264 ;;		On exit  : 0/0
  5265 ;;		Unchanged: 0/0
  5266 ;; Data sizes:     COMRAM   BANK0   BANK1   BANK2   BANK3   BANK4   BANK5   BANK6   BANK7   BANK8   BANK9  BANK10  BANK1
      +1  BANK12  BANK13  BANK14  BANK15  BANK16  BANK17  BANK18  BANK19  BANK20  BANK21  BANK22  BANK23  BANK24  BANK25  BANK2
      +6  BANK27  BANK28  BANK29  BANK30  BANK31
  5267 ;;      Params:         0       0       0       0       0       0       0       0       0       0       0       0       
      +0       0       0       0       0       0       0       0       0       0       0       0       0       0       0       
      +0       0       0       0       0       0
  5268 ;;      Locals:         0       0       0       0       0       0       0       0       0       0       0       0       
      +0       0       0       0       0       0       0       0       0       0       0       0       0       0       0       
      +0       0       0       0       0       0
  5269 ;;      Temps:          0       0       0       0       0       0       0       0       0       0       0       0       
      +0       0       0       0       0       0       0       0       0       0       0       0       0       0       0       
      +0       0       0       0       0       0
  5270 ;;      Totals:         0       0       0       0       0       0       0       0       0       0       0       0       
      +0       0       0       0       0       0       0       0       0       0       0       0       0       0       0       
      +0       0       0       0       0       0
  5271 ;;Total ram usage:        0 bytes
  5272 ;; Hardware stack levels used:    1
  5273 ;; This function calls:
  5274 ;;		Nothing
  5275 ;; This function is called by:
  5276 ;;		Interrupt level 2
  5277 ;; This function uses a non-reentrant model
  5278 ;;
  5279                           
  5280                           	psect	text46
  5281  0030A4                     __ptext46:
  5282                           	opt callstack 0
  5283  0030A4                     _Default_ISR:
  5284                           	opt callstack 22
  5285                           
  5286                           ; BSR set to: 62
  5287                           ;incstack = 0
  5288  0030A4  0011               	retfie		f
  5289  0030A6                     __end_of_Default_ISR:
  5290                           	opt callstack 0
  5291                           
  5292 ;; *************** function _UART1_tx_vect_isr *****************
  5293 ;; Defined at:
  5294 ;;		line 225 in file "mcc_generated_files/uart1.c"
  5295 ;; Parameters:    Size  Location     Type
  5296 ;;		None
  5297 ;; Auto vars:     Size  Location     Type
  5298 ;;		None
  5299 ;; Return value:  Size  Location     Type
  5300 ;;                  1    wreg      void 
  5301 ;; Registers used:
  5302 ;;		wreg, fsr2l, fsr2h, status,2, status,0, pclath, tosl, cstack
  5303 ;; Tracked objects:
  5304 ;;		On entry : 0/0
  5305 ;;		On exit  : 0/0
  5306 ;;		Unchanged: 0/0
  5307 ;; Data sizes:     COMRAM   BANK0   BANK1   BANK2   BANK3   BANK4   BANK5   BANK6   BANK7   BANK8   BANK9  BANK10  BANK1
      +1  BANK12  BANK13  BANK14  BANK15  BANK16  BANK17  BANK18  BANK19  BANK20  BANK21  BANK22  BANK23  BANK24  BANK25  BANK2
      +6  BANK27  BANK28  BANK29  BANK30  BANK31
  5308 ;;      Params:         0       0       0       0       0       0       0       0       0       0       0       0       
      +0       0       0       0       0       0       0       0       0       0       0       0       0       0       0       
      +0       0       0       0       0       0
  5309 ;;      Locals:         0       0       0       0       0       0       0       0       0       0       0       0       
      +0       0       0       0       0       0       0       0       0       0       0       0       0       0       0       
      +0       0       0       0       0       0
  5310 ;;      Temps:          0       0       0       0       0       0       0       0       0       0       0       0       
      +0       0       0       0       0       0       0       0       0       0       0       0       0       0       0       
      +0       0       0       0       0       0
  5311 ;;      Totals:         0       0       0       0       0       0       0       0       0       0       0       0       
      +0       0       0       0       0       0       0       0       0       0       0       0       0       0       0       
      +0       0       0       0       0       0
  5312 ;;Total ram usage:        0 bytes
  5313 ;; Hardware stack levels used:    1
  5314 ;; Hardware stack levels required when called:    1
  5315 ;; This function calls:
  5316 ;;		Absolute function
  5317 ;;		_UART1_Transmit_ISR
  5318 ;; This function is called by:
  5319 ;;		Interrupt level 2
  5320 ;; This function uses a non-reentrant model
  5321 ;;
  5322                           
  5323                           	psect	text47
  5324  002DCC                     __ptext47:
  5325                           	opt callstack 0
  5326  002DCC                     _UART1_tx_vect_isr:
  5327                           	opt callstack 21
  5328                           
  5329                           ;mcc_generated_files/uart1.c: 227:     if(UART1_TxInterruptHandler)
  5330                           
  5331                           ;incstack = 0
  5332  002DCC  5038               	movf	_UART1_TxInterruptHandler,w,c
  5333  002DCE  1039               	iorwf	_UART1_TxInterruptHandler+1,w,c
  5334  002DD0  103A               	iorwf	_UART1_TxInterruptHandler+2,w,c
  5335  002DD2  B4D8               	btfsc	status,2,c
  5336  002DD4  0011               	retfie		f
  5337                           
  5338                           ;mcc_generated_files/uart1.c: 228:     {;mcc_generated_files/uart1.c: 229:         UART1
      +                          _TxInterruptHandler();
  5339  002DD6  D801               	call	i2u162_48
  5340  002DD8  0011               	retfie		f
  5341  002DDA                     i2u162_48:
  5342  002DDA  0005               	push	
  5343  002DDC  6EFA               	movwf	pclath,c
  5344  002DDE  5038               	movf	_UART1_TxInterruptHandler,w,c
  5345  002DE0  6EFD               	movwf	tosl,c
  5346  002DE2  5039               	movf	_UART1_TxInterruptHandler+1,w,c
  5347  002DE4  6EFE               	movwf	tosh,c
  5348  002DE6  503A               	movf	_UART1_TxInterruptHandler+2,w,c
  5349  002DE8  6EFF               	movwf	tosu,c
  5350  002DEA  50FA               	movf	pclath,w,c
  5351  002DEC  0012               	return		;indir
  5352  002DEE                     __end_of_UART1_tx_vect_isr:
  5353                           	opt callstack 0
  5354                           
  5355 ;; *************** function _UART1_Transmit_ISR *****************
  5356 ;; Defined at:
  5357 ;;		line 243 in file "mcc_generated_files/uart1.c"
  5358 ;; Parameters:    Size  Location     Type
  5359 ;;		None
  5360 ;; Auto vars:     Size  Location     Type
  5361 ;;		None
  5362 ;; Return value:  Size  Location     Type
  5363 ;;                  1    wreg      void 
  5364 ;; Registers used:
  5365 ;;		wreg, fsr2l, fsr2h, status,2, status,0
  5366 ;; Tracked objects:
  5367 ;;		On entry : 0/0
  5368 ;;		On exit  : 3B/39
  5369 ;;		Unchanged: 0/0
  5370 ;; Data sizes:     COMRAM   BANK0   BANK1   BANK2   BANK3   BANK4   BANK5   BANK6   BANK7   BANK8   BANK9  BANK10  BANK1
      +1  BANK12  BANK13  BANK14  BANK15  BANK16  BANK17  BANK18  BANK19  BANK20  BANK21  BANK22  BANK23  BANK24  BANK25  BANK2
      +6  BANK27  BANK28  BANK29  BANK30  BANK31
  5371 ;;      Params:         0       0       0       0       0       0       0       0       0       0       0       0       
      +0       0       0       0       0       0       0       0       0       0       0       0       0       0       0       
      +0       0       0       0       0       0
  5372 ;;      Locals:         0       0       0       0       0       0       0       0       0       0       0       0       
      +0       0       0       0       0       0       0       0       0       0       0       0       0       0       0       
      +0       0       0       0       0       0
  5373 ;;      Temps:          0       0       0       0       0       0       0       0       0       0       0       0       
      +0       0       0       0       0       0       0       0       0       0       0       0       0       0       0       
      +0       0       0       0       0       0
  5374 ;;      Totals:         0       0       0       0       0       0       0       0       0       0       0       0       
      +0       0       0       0       0       0       0       0       0       0       0       0       0       0       0       
      +0       0       0       0       0       0
  5375 ;;Total ram usage:        0 bytes
  5376 ;; Hardware stack levels used:    1
  5377 ;; This function calls:
  5378 ;;		Nothing
  5379 ;; This function is called by:
  5380 ;;		_UART1_Initialize
  5381 ;;		_UART1_tx_vect_isr
  5382 ;; This function uses a non-reentrant model
  5383 ;;
  5384                           
  5385                           	psect	text48
  5386  002CE2                     __ptext48:
  5387                           	opt callstack 0
  5388  002CE2                     _UART1_Transmit_ISR:
  5389                           	opt callstack 21
  5390                           
  5391                           ;mcc_generated_files/uart1.c: 246:     if(sizeof(uart1TxBuffer) > uart1TxBufferRemaining
      +                          )
  5392                           
  5393                           ;incstack = 0
  5394  002CE2  0E08               	movlw	8
  5395  002CE4  6057               	cpfslt	_uart1TxBufferRemaining,c
  5396  002CE6  D00F               	goto	i2l332
  5397                           
  5398                           ;mcc_generated_files/uart1.c: 247:     {;mcc_generated_files/uart1.c: 248:         U1TXB
      +                           = uart1TxBuffer[uart1TxTail++];
  5399  002CE8  5058               	movf	_uart1TxTail,w,c
  5400  002CEA  0FD4               	addlw	low _uart1TxBuffer
  5401  002CEC  6ED9               	movwf	fsr2l,c
  5402  002CEE  6ADA               	clrf	fsr2h,c
  5403  002CF0  50DF               	movf	indf2,w,c
  5404  002CF2  013D               	movlb	61	; () banked
  5405  002CF4  6FEA               	movwf	234,b	;volatile
  5406                           
  5407                           ; BSR set to: 61
  5408  002CF6  2A58               	incf	_uart1TxTail,f,c	;volatile
  5409                           
  5410                           ; BSR set to: 61
  5411                           ;mcc_generated_files/uart1.c: 249:        if(sizeof(uart1TxBuffer) <= uart1TxTail)
  5412  002CF8  0E07               	movlw	7
  5413  002CFA  6458               	cpfsgt	_uart1TxTail,c
  5414  002CFC  D002               	goto	i2l3063
  5415                           
  5416                           ; BSR set to: 61
  5417                           ;mcc_generated_files/uart1.c: 250:         {;mcc_generated_files/uart1.c: 251:          
      +                             uart1TxTail = 0;
  5418  002CFE  0E00               	movlw	0
  5419  002D00  6E58               	movwf	_uart1TxTail,c	;volatile
  5420  002D02                     i2l3063:
  5421                           
  5422                           ; BSR set to: 61
  5423                           ;mcc_generated_files/uart1.c: 253:         uart1TxBufferRemaining++;
  5424  002D02  2A57               	incf	_uart1TxBufferRemaining,f,c	;volatile
  5425                           
  5426                           ;mcc_generated_files/uart1.c: 254:     }
  5427  002D04  0012               	return	
  5428  002D06                     i2l332:
  5429                           
  5430                           ;mcc_generated_files/uart1.c: 256:     {;mcc_generated_files/uart1.c: 257:         PIE3b
      +                          its.U1TXIE = 0;
  5431  002D06  0139               	movlb	57	; () banked
  5432  002D08  9993               	bcf	147,4,b	;volatile
  5433  002D0A  0012               	return		;funcret
  5434  002D0C                     __end_of_UART1_Transmit_ISR:
  5435                           	opt callstack 0
  5436                           
  5437 ;; *************** function _UART1_rx_vect_isr *****************
  5438 ;; Defined at:
  5439 ;;		line 233 in file "mcc_generated_files/uart1.c"
  5440 ;; Parameters:    Size  Location     Type
  5441 ;;		None
  5442 ;; Auto vars:     Size  Location     Type
  5443 ;;		None
  5444 ;; Return value:  Size  Location     Type
  5445 ;;                  1    wreg      void 
  5446 ;; Registers used:
  5447 ;;		wreg, fsr2l, fsr2h, status,2, status,0, pclath, tosl, cstack
  5448 ;; Tracked objects:
  5449 ;;		On entry : 0/0
  5450 ;;		On exit  : 0/0
  5451 ;;		Unchanged: 0/0
  5452 ;; Data sizes:     COMRAM   BANK0   BANK1   BANK2   BANK3   BANK4   BANK5   BANK6   BANK7   BANK8   BANK9  BANK10  BANK1
      +1  BANK12  BANK13  BANK14  BANK15  BANK16  BANK17  BANK18  BANK19  BANK20  BANK21  BANK22  BANK23  BANK24  BANK25  BANK2
      +6  BANK27  BANK28  BANK29  BANK30  BANK31
  5453 ;;      Params:         0       0       0       0       0       0       0       0       0       0       0       0       
      +0       0       0       0       0       0       0       0       0       0       0       0       0       0       0       
      +0       0       0       0       0       0
  5454 ;;      Locals:         0       0       0       0       0       0       0       0       0       0       0       0       
      +0       0       0       0       0       0       0       0       0       0       0       0       0       0       0       
      +0       0       0       0       0       0
  5455 ;;      Temps:          0       0       0       0       0       0       0       0       0       0       0       0       
      +0       0       0       0       0       0       0       0       0       0       0       0       0       0       0       
      +0       0       0       0       0       0
  5456 ;;      Totals:         0       0       0       0       0       0       0       0       0       0       0       0       
      +0       0       0       0       0       0       0       0       0       0       0       0       0       0       0       
      +0       0       0       0       0       0
  5457 ;;Total ram usage:        0 bytes
  5458 ;; Hardware stack levels used:    1
  5459 ;; Hardware stack levels required when called:    3
  5460 ;; This function calls:
  5461 ;;		Absolute function
  5462 ;;		_UART1_Receive_ISR
  5463 ;; This function is called by:
  5464 ;;		Interrupt level 2
  5465 ;; This function uses a non-reentrant model
  5466 ;;
  5467                           
  5468                           	psect	text49
  5469  002DF0                     __ptext49:
  5470                           	opt callstack 0
  5471  002DF0                     _UART1_rx_vect_isr:
  5472                           	opt callstack 19
  5473                           
  5474                           ;mcc_generated_files/uart1.c: 235:     if(UART1_RxInterruptHandler)
  5475                           
  5476                           ;incstack = 0
  5477  002DF0  503B               	movf	_UART1_RxInterruptHandler,w,c
  5478  002DF2  103C               	iorwf	_UART1_RxInterruptHandler+1,w,c
  5479  002DF4  103D               	iorwf	_UART1_RxInterruptHandler+2,w,c
  5480  002DF6  B4D8               	btfsc	status,2,c
  5481  002DF8  0011               	retfie		f
  5482                           
  5483                           ;mcc_generated_files/uart1.c: 236:     {;mcc_generated_files/uart1.c: 237:         UART1
      +                          _RxInterruptHandler();
  5484  002DFA  D801               	call	i2u164_48
  5485  002DFC  0011               	retfie		f
  5486  002DFE                     i2u164_48:
  5487  002DFE  0005               	push	
  5488  002E00  6EFA               	movwf	pclath,c
  5489  002E02  503B               	movf	_UART1_RxInterruptHandler,w,c
  5490  002E04  6EFD               	movwf	tosl,c
  5491  002E06  503C               	movf	_UART1_RxInterruptHandler+1,w,c
  5492  002E08  6EFE               	movwf	tosh,c
  5493  002E0A  503D               	movf	_UART1_RxInterruptHandler+2,w,c
  5494  002E0C  6EFF               	movwf	tosu,c
  5495  002E0E  50FA               	movf	pclath,w,c
  5496  002E10  0012               	return		;indir
  5497  002E12                     __end_of_UART1_rx_vect_isr:
  5498                           	opt callstack 0
  5499                           
  5500 ;; *************** function _UART1_Receive_ISR *****************
  5501 ;; Defined at:
  5502 ;;		line 263 in file "mcc_generated_files/uart1.c"
  5503 ;; Parameters:    Size  Location     Type
  5504 ;;		None
  5505 ;; Auto vars:     Size  Location     Type
  5506 ;;		None
  5507 ;; Return value:  Size  Location     Type
  5508 ;;                  1    wreg      void 
  5509 ;; Registers used:
  5510 ;;		wreg, fsr2l, fsr2h, status,2, status,0, pclath, tosl, cstack
  5511 ;; Tracked objects:
  5512 ;;		On entry : 0/0
  5513 ;;		On exit  : 0/0
  5514 ;;		Unchanged: 0/0
  5515 ;; Data sizes:     COMRAM   BANK0   BANK1   BANK2   BANK3   BANK4   BANK5   BANK6   BANK7   BANK8   BANK9  BANK10  BANK1
      +1  BANK12  BANK13  BANK14  BANK15  BANK16  BANK17  BANK18  BANK19  BANK20  BANK21  BANK22  BANK23  BANK24  BANK25  BANK2
      +6  BANK27  BANK28  BANK29  BANK30  BANK31
  5516 ;;      Params:         0       0       0       0       0       0       0       0       0       0       0       0       
      +0       0       0       0       0       0       0       0       0       0       0       0       0       0       0       
      +0       0       0       0       0       0
  5517 ;;      Locals:         0       0       0       0       0       0       0       0       0       0       0       0       
      +0       0       0       0       0       0       0       0       0       0       0       0       0       0       0       
      +0       0       0       0       0       0
  5518 ;;      Temps:          0       0       0       0       0       0       0       0       0       0       0       0       
      +0       0       0       0       0       0       0       0       0       0       0       0       0       0       0       
      +0       0       0       0       0       0
  5519 ;;      Totals:         0       0       0       0       0       0       0       0       0       0       0       0       
      +0       0       0       0       0       0       0       0       0       0       0       0       0       0       0       
      +0       0       0       0       0       0
  5520 ;;Total ram usage:        0 bytes
  5521 ;; Hardware stack levels used:    1
  5522 ;; Hardware stack levels required when called:    2
  5523 ;; This function calls:
  5524 ;;		Absolute function
  5525 ;;		_UART1_DefaultErrorHandler
  5526 ;;		_UART1_DefaultFramingErrorHandler
  5527 ;;		_UART1_DefaultOverrunErrorHandler
  5528 ;;		_UART1_RxDataHandler
  5529 ;; This function is called by:
  5530 ;;		_UART1_Initialize
  5531 ;;		_UART1_rx_vect_isr
  5532 ;; This function uses a non-reentrant model
  5533 ;;
  5534                           
  5535                           	psect	text50
  5536  002760                     __ptext50:
  5537                           	opt callstack 0
  5538  002760                     _UART1_Receive_ISR:
  5539                           	opt callstack 19
  5540                           
  5541                           ;mcc_generated_files/uart1.c: 266:     uart1RxStatusBuffer[uart1RxHead].status = 0;
  5542                           
  5543                           ;incstack = 0
  5544  002760  5056               	movf	_uart1RxHead,w,c
  5545  002762  0FC4               	addlw	low _uart1RxStatusBuffer
  5546  002764  6ED9               	movwf	fsr2l,c
  5547  002766  6ADA               	clrf	fsr2h,c
  5548  002768  0E00               	movlw	0
  5549  00276A  6EDF               	movwf	indf2,c
  5550                           
  5551                           ;mcc_generated_files/uart1.c: 268:     if(U1ERRIRbits.FERIF){
  5552  00276C  013D               	movlb	61	; () banked
  5553  00276E  A7F9               	btfss	249,3,b	;volatile
  5554  002770  D012               	goto	i2u127_49
  5555                           
  5556                           ; BSR set to: 61
  5557                           ;mcc_generated_files/uart1.c: 269:         uart1RxStatusBuffer[uart1RxHead].ferr = 1;
  5558  002772  5056               	movf	_uart1RxHead,w,c
  5559  002774  0FC4               	addlw	low _uart1RxStatusBuffer
  5560  002776  6ED9               	movwf	fsr2l,c
  5561  002778  6ADA               	clrf	fsr2h,c
  5562  00277A  0100               	movlb	0	; () banked
  5563  00277C  82DF               	bsf	indf2,1,c
  5564                           
  5565                           ; BSR set to: 0
  5566                           ;mcc_generated_files/uart1.c: 270:         UART1_FramingErrorHandler();
  5567  00277E  D801               	call	i2u127_48
  5568  002780  D00A               	goto	i2u127_49
  5569  002782                     i2u127_48:
  5570  002782  0005               	push	
  5571  002784  6EFA               	movwf	pclath,c
  5572  002786  51F1               	movf	_UART1_FramingErrorHandler& (0+255),w,b
  5573  002788  6EFD               	movwf	tosl,c
  5574  00278A  51F2               	movf	(_UART1_FramingErrorHandler+1)& (0+255),w,b
  5575  00278C  6EFE               	movwf	tosh,c
  5576  00278E  51F3               	movf	(_UART1_FramingErrorHandler+2)& (0+255),w,b
  5577  002790  6EFF               	movwf	tosu,c
  5578  002792  50FA               	movf	pclath,w,c
  5579  002794  0012               	return		;indir
  5580  002796                     i2u127_49:
  5581                           
  5582                           ;mcc_generated_files/uart1.c: 273:     if(U1ERRIRbits.RXFOIF){
  5583  002796  013D               	movlb	61	; () banked
  5584  002798  A3F9               	btfss	249,1,b	;volatile
  5585  00279A  D012               	goto	i2u129_49
  5586                           
  5587                           ; BSR set to: 61
  5588                           ;mcc_generated_files/uart1.c: 274:         uart1RxStatusBuffer[uart1RxHead].oerr = 1;
  5589  00279C  5056               	movf	_uart1RxHead,w,c
  5590  00279E  0FC4               	addlw	low _uart1RxStatusBuffer
  5591  0027A0  6ED9               	movwf	fsr2l,c
  5592  0027A2  6ADA               	clrf	fsr2h,c
  5593  0027A4  0100               	movlb	0	; () banked
  5594  0027A6  84DF               	bsf	indf2,2,c
  5595                           
  5596                           ; BSR set to: 0
  5597                           ;mcc_generated_files/uart1.c: 275:         UART1_OverrunErrorHandler();
  5598  0027A8  D801               	call	i2u129_48
  5599  0027AA  D00A               	goto	i2u129_49
  5600  0027AC                     i2u129_48:
  5601  0027AC  0005               	push	
  5602  0027AE  6EFA               	movwf	pclath,c
  5603  0027B0  51EE               	movf	_UART1_OverrunErrorHandler& (0+255),w,b
  5604  0027B2  6EFD               	movwf	tosl,c
  5605  0027B4  51EF               	movf	(_UART1_OverrunErrorHandler+1)& (0+255),w,b
  5606  0027B6  6EFE               	movwf	tosh,c
  5607  0027B8  51F0               	movf	(_UART1_OverrunErrorHandler+2)& (0+255),w,b
  5608  0027BA  6EFF               	movwf	tosu,c
  5609  0027BC  50FA               	movf	pclath,w,c
  5610  0027BE  0012               	return		;indir
  5611  0027C0                     i2u129_49:
  5612                           
  5613                           ;mcc_generated_files/uart1.c: 278:     if(uart1RxStatusBuffer[uart1RxHead].status){
  5614  0027C0  5056               	movf	_uart1RxHead,w,c
  5615  0027C2  0FC4               	addlw	low _uart1RxStatusBuffer
  5616  0027C4  6ED9               	movwf	fsr2l,c
  5617  0027C6  6ADA               	clrf	fsr2h,c
  5618  0027C8  50DF               	movf	indf2,w,c
  5619  0027CA  B4D8               	btfsc	status,2,c
  5620  0027CC  D00D               	goto	i2l3083
  5621                           
  5622                           ;mcc_generated_files/uart1.c: 279:         UART1_ErrorHandler();
  5623  0027CE  D801               	call	i2u131_48
  5624  0027D0  0012               	return	
  5625  0027D2                     i2u131_48:
  5626  0027D2  0005               	push	
  5627  0027D4  6EFA               	movwf	pclath,c
  5628  0027D6  0100               	movlb	0	; () banked
  5629  0027D8  51EB               	movf	_UART1_ErrorHandler& (0+255),w,b
  5630  0027DA  6EFD               	movwf	tosl,c
  5631  0027DC  51EC               	movf	(_UART1_ErrorHandler+1)& (0+255),w,b
  5632  0027DE  6EFE               	movwf	tosh,c
  5633  0027E0  51ED               	movf	(_UART1_ErrorHandler+2)& (0+255),w,b
  5634  0027E2  6EFF               	movwf	tosu,c
  5635  0027E4  50FA               	movf	pclath,w,c
  5636  0027E6  0012               	return		;indir
  5637  0027E8                     i2l3083:
  5638                           
  5639                           ;mcc_generated_files/uart1.c: 281:         UART1_RxDataHandler();
  5640  0027E8  EC4C  F017         	call	_UART1_RxDataHandler	;wreg free
  5641  0027EC  0012               	return		;funcret
  5642  0027EE                     __end_of_UART1_Receive_ISR:
  5643                           	opt callstack 0
  5644                           
  5645 ;; *************** function _UART1_DefaultOverrunErrorHandler *****************
  5646 ;; Defined at:
  5647 ;;		line 299 in file "mcc_generated_files/uart1.c"
  5648 ;; Parameters:    Size  Location     Type
  5649 ;;		None
  5650 ;; Auto vars:     Size  Location     Type
  5651 ;;		None
  5652 ;; Return value:  Size  Location     Type
  5653 ;;                  1    wreg      void 
  5654 ;; Registers used:
  5655 ;;		None
  5656 ;; Tracked objects:
  5657 ;;		On entry : 3F/0
  5658 ;;		On exit  : 3F/0
  5659 ;;		Unchanged: 3F/0
  5660 ;; Data sizes:     COMRAM   BANK0   BANK1   BANK2   BANK3   BANK4   BANK5   BANK6   BANK7   BANK8   BANK9  BANK10  BANK1
      +1  BANK12  BANK13  BANK14  BANK15  BANK16  BANK17  BANK18  BANK19  BANK20  BANK21  BANK22  BANK23  BANK24  BANK25  BANK2
      +6  BANK27  BANK28  BANK29  BANK30  BANK31
  5661 ;;      Params:         0       0       0       0       0       0       0       0       0       0       0       0       
      +0       0       0       0       0       0       0       0       0       0       0       0       0       0       0       
      +0       0       0       0       0       0
  5662 ;;      Locals:         0       0       0       0       0       0       0       0       0       0       0       0       
      +0       0       0       0       0       0       0       0       0       0       0       0       0       0       0       
      +0       0       0       0       0       0
  5663 ;;      Temps:          0       0       0       0       0       0       0       0       0       0       0       0       
      +0       0       0       0       0       0       0       0       0       0       0       0       0       0       0       
      +0       0       0       0       0       0
  5664 ;;      Totals:         0       0       0       0       0       0       0       0       0       0       0       0       
      +0       0       0       0       0       0       0       0       0       0       0       0       0       0       0       
      +0       0       0       0       0       0
  5665 ;;Total ram usage:        0 bytes
  5666 ;; Hardware stack levels used:    1
  5667 ;; This function calls:
  5668 ;;		Nothing
  5669 ;; This function is called by:
  5670 ;;		_UART1_Initialize
  5671 ;;		_UART1_Receive_ISR
  5672 ;; This function uses a non-reentrant model
  5673 ;;
  5674                           
  5675                           	psect	text51
  5676  0030A6                     __ptext51:
  5677                           	opt callstack 0
  5678  0030A6                     _UART1_DefaultOverrunErrorHandler:
  5679                           	opt callstack 20
  5680                           
  5681                           ; BSR set to: 0
  5682                           
  5683                           ;incstack = 0
  5684  0030A6  0012               	return		;funcret
  5685  0030A8                     __end_of_UART1_DefaultOverrunErrorHandler:
  5686                           	opt callstack 0
  5687                           
  5688 ;; *************** function _UART1_DefaultFramingErrorHandler *****************
  5689 ;; Defined at:
  5690 ;;		line 297 in file "mcc_generated_files/uart1.c"
  5691 ;; Parameters:    Size  Location     Type
  5692 ;;		None
  5693 ;; Auto vars:     Size  Location     Type
  5694 ;;		None
  5695 ;; Return value:  Size  Location     Type
  5696 ;;                  1    wreg      void 
  5697 ;; Registers used:
  5698 ;;		None
  5699 ;; Tracked objects:
  5700 ;;		On entry : 3F/0
  5701 ;;		On exit  : 3F/0
  5702 ;;		Unchanged: 3F/0
  5703 ;; Data sizes:     COMRAM   BANK0   BANK1   BANK2   BANK3   BANK4   BANK5   BANK6   BANK7   BANK8   BANK9  BANK10  BANK1
      +1  BANK12  BANK13  BANK14  BANK15  BANK16  BANK17  BANK18  BANK19  BANK20  BANK21  BANK22  BANK23  BANK24  BANK25  BANK2
      +6  BANK27  BANK28  BANK29  BANK30  BANK31
  5704 ;;      Params:         0       0       0       0       0       0       0       0       0       0       0       0       
      +0       0       0       0       0       0       0       0       0       0       0       0       0       0       0       
      +0       0       0       0       0       0
  5705 ;;      Locals:         0       0       0       0       0       0       0       0       0       0       0       0       
      +0       0       0       0       0       0       0       0       0       0       0       0       0       0       0       
      +0       0       0       0       0       0
  5706 ;;      Temps:          0       0       0       0       0       0       0       0       0       0       0       0       
      +0       0       0       0       0       0       0       0       0       0       0       0       0       0       0       
      +0       0       0       0       0       0
  5707 ;;      Totals:         0       0       0       0       0       0       0       0       0       0       0       0       
      +0       0       0       0       0       0       0       0       0       0       0       0       0       0       0       
      +0       0       0       0       0       0
  5708 ;;Total ram usage:        0 bytes
  5709 ;; Hardware stack levels used:    1
  5710 ;; This function calls:
  5711 ;;		Nothing
  5712 ;; This function is called by:
  5713 ;;		_UART1_Initialize
  5714 ;;		_UART1_Receive_ISR
  5715 ;; This function uses a non-reentrant model
  5716 ;;
  5717                           
  5718                           	psect	text52
  5719  0030A8                     __ptext52:
  5720                           	opt callstack 0
  5721  0030A8                     _UART1_DefaultFramingErrorHandler:
  5722                           	opt callstack 20
  5723                           
  5724                           ; BSR set to: 0
  5725                           
  5726                           ; BSR set to: 0
  5727                           ;incstack = 0
  5728  0030A8  0012               	return		;funcret
  5729  0030AA                     __end_of_UART1_DefaultFramingErrorHandler:
  5730                           	opt callstack 0
  5731                           
  5732 ;; *************** function _UART1_DefaultErrorHandler *****************
  5733 ;; Defined at:
  5734 ;;		line 301 in file "mcc_generated_files/uart1.c"
  5735 ;; Parameters:    Size  Location     Type
  5736 ;;		None
  5737 ;; Auto vars:     Size  Location     Type
  5738 ;;		None
  5739 ;; Return value:  Size  Location     Type
  5740 ;;                  1    wreg      void 
  5741 ;; Registers used:
  5742 ;;		wreg, fsr2l, fsr2h, status,2, status,0, cstack
  5743 ;; Tracked objects:
  5744 ;;		On entry : 3F/0
  5745 ;;		On exit  : 0/0
  5746 ;;		Unchanged: 0/0
  5747 ;; Data sizes:     COMRAM   BANK0   BANK1   BANK2   BANK3   BANK4   BANK5   BANK6   BANK7   BANK8   BANK9  BANK10  BANK1
      +1  BANK12  BANK13  BANK14  BANK15  BANK16  BANK17  BANK18  BANK19  BANK20  BANK21  BANK22  BANK23  BANK24  BANK25  BANK2
      +6  BANK27  BANK28  BANK29  BANK30  BANK31
  5748 ;;      Params:         0       0       0       0       0       0       0       0       0       0       0       0       
      +0       0       0       0       0       0       0       0       0       0       0       0       0       0       0       
      +0       0       0       0       0       0
  5749 ;;      Locals:         0       0       0       0       0       0       0       0       0       0       0       0       
      +0       0       0       0       0       0       0       0       0       0       0       0       0       0       0       
      +0       0       0       0       0       0
  5750 ;;      Temps:          0       0       0       0       0       0       0       0       0       0       0       0       
      +0       0       0       0       0       0       0       0       0       0       0       0       0       0       0       
      +0       0       0       0       0       0
  5751 ;;      Totals:         0       0       0       0       0       0       0       0       0       0       0       0       
      +0       0       0       0       0       0       0       0       0       0       0       0       0       0       0       
      +0       0       0       0       0       0
  5752 ;;Total ram usage:        0 bytes
  5753 ;; Hardware stack levels used:    1
  5754 ;; Hardware stack levels required when called:    1
  5755 ;; This function calls:
  5756 ;;		_UART1_RxDataHandler
  5757 ;; This function is called by:
  5758 ;;		_UART1_Initialize
  5759 ;;		_UART1_Receive_ISR
  5760 ;; This function uses a non-reentrant model
  5761 ;;
  5762                           
  5763                           	psect	text53
  5764  00308E                     __ptext53:
  5765                           	opt callstack 0
  5766  00308E                     _UART1_DefaultErrorHandler:
  5767                           	opt callstack 19
  5768                           
  5769                           ; BSR set to: 0
  5770                           ;mcc_generated_files/uart1.c: 302:     UART1_RxDataHandler();
  5771                           
  5772                           ; BSR set to: 0
  5773                           ;incstack = 0
  5774  00308E  EC4C  F017         	call	_UART1_RxDataHandler	;wreg free
  5775  003092  0012               	return		;funcret
  5776  003094                     __end_of_UART1_DefaultErrorHandler:
  5777                           	opt callstack 0
  5778                           
  5779 ;; *************** function _UART1_RxDataHandler *****************
  5780 ;; Defined at:
  5781 ;;		line 287 in file "mcc_generated_files/uart1.c"
  5782 ;; Parameters:    Size  Location     Type
  5783 ;;		None
  5784 ;; Auto vars:     Size  Location     Type
  5785 ;;		None
  5786 ;; Return value:  Size  Location     Type
  5787 ;;                  1    wreg      void 
  5788 ;; Registers used:
  5789 ;;		wreg, fsr2l, fsr2h, status,2, status,0
  5790 ;; Tracked objects:
  5791 ;;		On entry : 0/3D
  5792 ;;		On exit  : 0/0
  5793 ;;		Unchanged: 0/0
  5794 ;; Data sizes:     COMRAM   BANK0   BANK1   BANK2   BANK3   BANK4   BANK5   BANK6   BANK7   BANK8   BANK9  BANK10  BANK1
      +1  BANK12  BANK13  BANK14  BANK15  BANK16  BANK17  BANK18  BANK19  BANK20  BANK21  BANK22  BANK23  BANK24  BANK25  BANK2
      +6  BANK27  BANK28  BANK29  BANK30  BANK31
  5795 ;;      Params:         0       0       0       0       0       0       0       0       0       0       0       0       
      +0       0       0       0       0       0       0       0       0       0       0       0       0       0       0       
      +0       0       0       0       0       0
  5796 ;;      Locals:         0       0       0       0       0       0       0       0       0       0       0       0       
      +0       0       0       0       0       0       0       0       0       0       0       0       0       0       0       
      +0       0       0       0       0       0
  5797 ;;      Temps:          0       0       0       0       0       0       0       0       0       0       0       0       
      +0       0       0       0       0       0       0       0       0       0       0       0       0       0       0       
      +0       0       0       0       0       0
  5798 ;;      Totals:         0       0       0       0       0       0       0       0       0       0       0       0       
      +0       0       0       0       0       0       0       0       0       0       0       0       0       0       0       
      +0       0       0       0       0       0
  5799 ;;Total ram usage:        0 bytes
  5800 ;; Hardware stack levels used:    1
  5801 ;; This function calls:
  5802 ;;		Nothing
  5803 ;; This function is called by:
  5804 ;;		_UART1_Receive_ISR
  5805 ;;		_UART1_DefaultErrorHandler
  5806 ;; This function uses a non-reentrant model
  5807 ;;
  5808                           
  5809                           	psect	text54
  5810  002E98                     __ptext54:
  5811                           	opt callstack 0
  5812  002E98                     _UART1_RxDataHandler:
  5813                           	opt callstack 20
  5814                           
  5815                           ;mcc_generated_files/uart1.c: 289:     uart1RxBuffer[uart1RxHead++] = U1RXB;
  5816                           
  5817                           ;incstack = 0
  5818  002E98  5056               	movf	_uart1RxHead,w,c
  5819  002E9A  0FCC               	addlw	low _uart1RxBuffer
  5820  002E9C  6ED9               	movwf	fsr2l,c
  5821  002E9E  6ADA               	clrf	fsr2h,c
  5822  002EA0  006F F7A3 FFDF     	movff	15848,indf2	;volatile
  5823  002EA6  2A56               	incf	_uart1RxHead,f,c	;volatile
  5824                           
  5825                           ;mcc_generated_files/uart1.c: 290:     if(sizeof(uart1RxBuffer) <= uart1RxHead)
  5826  002EA8  0E07               	movlw	7
  5827  002EAA  6456               	cpfsgt	_uart1RxHead,c
  5828  002EAC  D002               	goto	i2l2755
  5829                           
  5830                           ;mcc_generated_files/uart1.c: 291:     {;mcc_generated_files/uart1.c: 292:         uart1
      +                          RxHead = 0;
  5831  002EAE  0E00               	movlw	0
  5832  002EB0  6E56               	movwf	_uart1RxHead,c	;volatile
  5833  002EB2                     i2l2755:
  5834                           
  5835                           ;mcc_generated_files/uart1.c: 294:     uart1RxCount++;
  5836  002EB2  2A54               	incf	_uart1RxCount,f,c	;volatile
  5837  002EB4  0012               	return		;funcret
  5838  002EB6                     __end_of_UART1_RxDataHandler:
  5839                           	opt callstack 0
  5840                           
  5841 ;; *************** function _UART2_tx_vect_isr *****************
  5842 ;; Defined at:
  5843 ;;		line 226 in file "mcc_generated_files/uart2.c"
  5844 ;; Parameters:    Size  Location     Type
  5845 ;;		None
  5846 ;; Auto vars:     Size  Location     Type
  5847 ;;		None
  5848 ;; Return value:  Size  Location     Type
  5849 ;;                  1    wreg      void 
  5850 ;; Registers used:
  5851 ;;		wreg, fsr2l, fsr2h, status,2, status,0, pclath, tosl, cstack
  5852 ;; Tracked objects:
  5853 ;;		On entry : 0/0
  5854 ;;		On exit  : 0/0
  5855 ;;		Unchanged: 0/0
  5856 ;; Data sizes:     COMRAM   BANK0   BANK1   BANK2   BANK3   BANK4   BANK5   BANK6   BANK7   BANK8   BANK9  BANK10  BANK1
      +1  BANK12  BANK13  BANK14  BANK15  BANK16  BANK17  BANK18  BANK19  BANK20  BANK21  BANK22  BANK23  BANK24  BANK25  BANK2
      +6  BANK27  BANK28  BANK29  BANK30  BANK31
  5857 ;;      Params:         0       0       0       0       0       0       0       0       0       0       0       0       
      +0       0       0       0       0       0       0       0       0       0       0       0       0       0       0       
      +0       0       0       0       0       0
  5858 ;;      Locals:         0       0       0       0       0       0       0       0       0       0       0       0       
      +0       0       0       0       0       0       0       0       0       0       0       0       0       0       0       
      +0       0       0       0       0       0
  5859 ;;      Temps:          0       0       0       0       0       0       0       0       0       0       0       0       
      +0       0       0       0       0       0       0       0       0       0       0       0       0       0       0       
      +0       0       0       0       0       0
  5860 ;;      Totals:         0       0       0       0       0       0       0       0       0       0       0       0       
      +0       0       0       0       0       0       0       0       0       0       0       0       0       0       0       
      +0       0       0       0       0       0
  5861 ;;Total ram usage:        0 bytes
  5862 ;; Hardware stack levels used:    1
  5863 ;; Hardware stack levels required when called:    1
  5864 ;; This function calls:
  5865 ;;		Absolute function
  5866 ;;		_UART2_Transmit_ISR
  5867 ;; This function is called by:
  5868 ;;		Interrupt level 2
  5869 ;; This function uses a non-reentrant model
  5870 ;;
  5871                           
  5872                           	psect	text55
  5873  002E14                     __ptext55:
  5874                           	opt callstack 0
  5875  002E14                     _UART2_tx_vect_isr:
  5876                           	opt callstack 21
  5877                           
  5878                           ;mcc_generated_files/uart2.c: 228:     if(UART2_TxInterruptHandler)
  5879                           
  5880                           ;incstack = 0
  5881  002E14  503E               	movf	_UART2_TxInterruptHandler,w,c
  5882  002E16  103F               	iorwf	_UART2_TxInterruptHandler+1,w,c
  5883  002E18  1040               	iorwf	_UART2_TxInterruptHandler+2,w,c
  5884  002E1A  B4D8               	btfsc	status,2,c
  5885  002E1C  0011               	retfie		f
  5886                           
  5887                           ;mcc_generated_files/uart2.c: 229:     {;mcc_generated_files/uart2.c: 230:         UART2
      +                          _TxInterruptHandler();
  5888  002E1E  D801               	call	i2u166_48
  5889  002E20  0011               	retfie		f
  5890  002E22                     i2u166_48:
  5891  002E22  0005               	push	
  5892  002E24  6EFA               	movwf	pclath,c
  5893  002E26  503E               	movf	_UART2_TxInterruptHandler,w,c
  5894  002E28  6EFD               	movwf	tosl,c
  5895  002E2A  503F               	movf	_UART2_TxInterruptHandler+1,w,c
  5896  002E2C  6EFE               	movwf	tosh,c
  5897  002E2E  5040               	movf	_UART2_TxInterruptHandler+2,w,c
  5898  002E30  6EFF               	movwf	tosu,c
  5899  002E32  50FA               	movf	pclath,w,c
  5900  002E34  0012               	return		;indir
  5901  002E36                     __end_of_UART2_tx_vect_isr:
  5902                           	opt callstack 0
  5903                           
  5904 ;; *************** function _UART2_Transmit_ISR *****************
  5905 ;; Defined at:
  5906 ;;		line 244 in file "mcc_generated_files/uart2.c"
  5907 ;; Parameters:    Size  Location     Type
  5908 ;;		None
  5909 ;; Auto vars:     Size  Location     Type
  5910 ;;		None
  5911 ;; Return value:  Size  Location     Type
  5912 ;;                  1    wreg      void 
  5913 ;; Registers used:
  5914 ;;		wreg, fsr2l, fsr2h, status,2, status,0
  5915 ;; Tracked objects:
  5916 ;;		On entry : 0/0
  5917 ;;		On exit  : 3B/39
  5918 ;;		Unchanged: 0/0
  5919 ;; Data sizes:     COMRAM   BANK0   BANK1   BANK2   BANK3   BANK4   BANK5   BANK6   BANK7   BANK8   BANK9  BANK10  BANK1
      +1  BANK12  BANK13  BANK14  BANK15  BANK16  BANK17  BANK18  BANK19  BANK20  BANK21  BANK22  BANK23  BANK24  BANK25  BANK2
      +6  BANK27  BANK28  BANK29  BANK30  BANK31
  5920 ;;      Params:         0       0       0       0       0       0       0       0       0       0       0       0       
      +0       0       0       0       0       0       0       0       0       0       0       0       0       0       0       
      +0       0       0       0       0       0
  5921 ;;      Locals:         0       0       0       0       0       0       0       0       0       0       0       0       
      +0       0       0       0       0       0       0       0       0       0       0       0       0       0       0       
      +0       0       0       0       0       0
  5922 ;;      Temps:          0       0       0       0       0       0       0       0       0       0       0       0       
      +0       0       0       0       0       0       0       0       0       0       0       0       0       0       0       
      +0       0       0       0       0       0
  5923 ;;      Totals:         0       0       0       0       0       0       0       0       0       0       0       0       
      +0       0       0       0       0       0       0       0       0       0       0       0       0       0       0       
      +0       0       0       0       0       0
  5924 ;;Total ram usage:        0 bytes
  5925 ;; Hardware stack levels used:    1
  5926 ;; This function calls:
  5927 ;;		Nothing
  5928 ;; This function is called by:
  5929 ;;		_UART2_Initialize
  5930 ;;		_UART2_tx_vect_isr
  5931 ;; This function uses a non-reentrant model
  5932 ;;
  5933                           
  5934                           	psect	text56
  5935  002D0C                     __ptext56:
  5936                           	opt callstack 0
  5937  002D0C                     _UART2_Transmit_ISR:
  5938                           	opt callstack 21
  5939                           
  5940                           ;mcc_generated_files/uart2.c: 247:     if(sizeof(uart2TxBuffer) > uart2TxBufferRemaining
      +                          )
  5941                           
  5942                           ;incstack = 0
  5943  002D0C  0E08               	movlw	8
  5944  002D0E  6050               	cpfslt	_uart2TxBufferRemaining,c
  5945  002D10  D00F               	goto	i2l506
  5946                           
  5947                           ;mcc_generated_files/uart2.c: 248:     {;mcc_generated_files/uart2.c: 249:         U2TXB
      +                           = uart2TxBuffer[uart2TxTail++];
  5948  002D12  5051               	movf	_uart2TxTail,w,c
  5949  002D14  0FBC               	addlw	low _uart2TxBuffer
  5950  002D16  6ED9               	movwf	fsr2l,c
  5951  002D18  6ADA               	clrf	fsr2h,c
  5952  002D1A  50DF               	movf	indf2,w,c
  5953  002D1C  013D               	movlb	61	; () banked
  5954  002D1E  6FD2               	movwf	210,b	;volatile
  5955                           
  5956                           ; BSR set to: 61
  5957  002D20  2A51               	incf	_uart2TxTail,f,c	;volatile
  5958                           
  5959                           ; BSR set to: 61
  5960                           ;mcc_generated_files/uart2.c: 250:        if(sizeof(uart2TxBuffer) <= uart2TxTail)
  5961  002D22  0E07               	movlw	7
  5962  002D24  6451               	cpfsgt	_uart2TxTail,c
  5963  002D26  D002               	goto	i2l3095
  5964                           
  5965                           ; BSR set to: 61
  5966                           ;mcc_generated_files/uart2.c: 251:         {;mcc_generated_files/uart2.c: 252:          
      +                             uart2TxTail = 0;
  5967  002D28  0E00               	movlw	0
  5968  002D2A  6E51               	movwf	_uart2TxTail,c	;volatile
  5969  002D2C                     i2l3095:
  5970                           
  5971                           ; BSR set to: 61
  5972                           ;mcc_generated_files/uart2.c: 254:         uart2TxBufferRemaining++;
  5973  002D2C  2A50               	incf	_uart2TxBufferRemaining,f,c	;volatile
  5974                           
  5975                           ;mcc_generated_files/uart2.c: 255:     }
  5976  002D2E  0012               	return	
  5977  002D30                     i2l506:
  5978                           
  5979                           ;mcc_generated_files/uart2.c: 257:     {;mcc_generated_files/uart2.c: 258:         PIE6b
      +                          its.U2TXIE = 0;
  5980  002D30  0139               	movlb	57	; () banked
  5981  002D32  9796               	bcf	150,3,b	;volatile
  5982  002D34  0012               	return		;funcret
  5983  002D36                     __end_of_UART2_Transmit_ISR:
  5984                           	opt callstack 0
  5985                           
  5986 ;; *************** function _UART2_rx_vect_isr *****************
  5987 ;; Defined at:
  5988 ;;		line 234 in file "mcc_generated_files/uart2.c"
  5989 ;; Parameters:    Size  Location     Type
  5990 ;;		None
  5991 ;; Auto vars:     Size  Location     Type
  5992 ;;		None
  5993 ;; Return value:  Size  Location     Type
  5994 ;;                  1    wreg      void 
  5995 ;; Registers used:
  5996 ;;		wreg, fsr2l, fsr2h, status,2, status,0, pclath, tosl, cstack
  5997 ;; Tracked objects:
  5998 ;;		On entry : 0/0
  5999 ;;		On exit  : 0/0
  6000 ;;		Unchanged: 0/0
  6001 ;; Data sizes:     COMRAM   BANK0   BANK1   BANK2   BANK3   BANK4   BANK5   BANK6   BANK7   BANK8   BANK9  BANK10  BANK1
      +1  BANK12  BANK13  BANK14  BANK15  BANK16  BANK17  BANK18  BANK19  BANK20  BANK21  BANK22  BANK23  BANK24  BANK25  BANK2
      +6  BANK27  BANK28  BANK29  BANK30  BANK31
  6002 ;;      Params:         0       0       0       0       0       0       0       0       0       0       0       0       
      +0       0       0       0       0       0       0       0       0       0       0       0       0       0       0       
      +0       0       0       0       0       0
  6003 ;;      Locals:         0       0       0       0       0       0       0       0       0       0       0       0       
      +0       0       0       0       0       0       0       0       0       0       0       0       0       0       0       
      +0       0       0       0       0       0
  6004 ;;      Temps:          0       0       0       0       0       0       0       0       0       0       0       0       
      +0       0       0       0       0       0       0       0       0       0       0       0       0       0       0       
      +0       0       0       0       0       0
  6005 ;;      Totals:         0       0       0       0       0       0       0       0       0       0       0       0       
      +0       0       0       0       0       0       0       0       0       0       0       0       0       0       0       
      +0       0       0       0       0       0
  6006 ;;Total ram usage:        0 bytes
  6007 ;; Hardware stack levels used:    1
  6008 ;; Hardware stack levels required when called:    3
  6009 ;; This function calls:
  6010 ;;		Absolute function
  6011 ;;		_UART2_Receive_ISR
  6012 ;; This function is called by:
  6013 ;;		Interrupt level 2
  6014 ;; This function uses a non-reentrant model
  6015 ;;
  6016                           
  6017                           	psect	text57
  6018  002E38                     __ptext57:
  6019                           	opt callstack 0
  6020  002E38                     _UART2_rx_vect_isr:
  6021                           	opt callstack 19
  6022                           
  6023                           ;mcc_generated_files/uart2.c: 236:     if(UART2_RxInterruptHandler)
  6024                           
  6025                           ;incstack = 0
  6026  002E38  5041               	movf	_UART2_RxInterruptHandler,w,c
  6027  002E3A  1042               	iorwf	_UART2_RxInterruptHandler+1,w,c
  6028  002E3C  1043               	iorwf	_UART2_RxInterruptHandler+2,w,c
  6029  002E3E  B4D8               	btfsc	status,2,c
  6030  002E40  0011               	retfie		f
  6031                           
  6032                           ;mcc_generated_files/uart2.c: 237:     {;mcc_generated_files/uart2.c: 238:         UART2
      +                          _RxInterruptHandler();
  6033  002E42  D801               	call	i2u168_48
  6034  002E44  0011               	retfie		f
  6035  002E46                     i2u168_48:
  6036  002E46  0005               	push	
  6037  002E48  6EFA               	movwf	pclath,c
  6038  002E4A  5041               	movf	_UART2_RxInterruptHandler,w,c
  6039  002E4C  6EFD               	movwf	tosl,c
  6040  002E4E  5042               	movf	_UART2_RxInterruptHandler+1,w,c
  6041  002E50  6EFE               	movwf	tosh,c
  6042  002E52  5043               	movf	_UART2_RxInterruptHandler+2,w,c
  6043  002E54  6EFF               	movwf	tosu,c
  6044  002E56  50FA               	movf	pclath,w,c
  6045  002E58  0012               	return		;indir
  6046  002E5A                     __end_of_UART2_rx_vect_isr:
  6047                           	opt callstack 0
  6048                           
  6049 ;; *************** function _UART2_Receive_ISR *****************
  6050 ;; Defined at:
  6051 ;;		line 264 in file "mcc_generated_files/uart2.c"
  6052 ;; Parameters:    Size  Location     Type
  6053 ;;		None
  6054 ;; Auto vars:     Size  Location     Type
  6055 ;;		None
  6056 ;; Return value:  Size  Location     Type
  6057 ;;                  1    wreg      void 
  6058 ;; Registers used:
  6059 ;;		wreg, fsr2l, fsr2h, status,2, status,0, pclath, tosl, cstack
  6060 ;; Tracked objects:
  6061 ;;		On entry : 0/0
  6062 ;;		On exit  : 0/0
  6063 ;;		Unchanged: 0/0
  6064 ;; Data sizes:     COMRAM   BANK0   BANK1   BANK2   BANK3   BANK4   BANK5   BANK6   BANK7   BANK8   BANK9  BANK10  BANK1
      +1  BANK12  BANK13  BANK14  BANK15  BANK16  BANK17  BANK18  BANK19  BANK20  BANK21  BANK22  BANK23  BANK24  BANK25  BANK2
      +6  BANK27  BANK28  BANK29  BANK30  BANK31
  6065 ;;      Params:         0       0       0       0       0       0       0       0       0       0       0       0       
      +0       0       0       0       0       0       0       0       0       0       0       0       0       0       0       
      +0       0       0       0       0       0
  6066 ;;      Locals:         0       0       0       0       0       0       0       0       0       0       0       0       
      +0       0       0       0       0       0       0       0       0       0       0       0       0       0       0       
      +0       0       0       0       0       0
  6067 ;;      Temps:          0       0       0       0       0       0       0       0       0       0       0       0       
      +0       0       0       0       0       0       0       0       0       0       0       0       0       0       0       
      +0       0       0       0       0       0
  6068 ;;      Totals:         0       0       0       0       0       0       0       0       0       0       0       0       
      +0       0       0       0       0       0       0       0       0       0       0       0       0       0       0       
      +0       0       0       0       0       0
  6069 ;;Total ram usage:        0 bytes
  6070 ;; Hardware stack levels used:    1
  6071 ;; Hardware stack levels required when called:    2
  6072 ;; This function calls:
  6073 ;;		Absolute function
  6074 ;;		_UART2_DefaultErrorHandler
  6075 ;;		_UART2_DefaultFramingErrorHandler
  6076 ;;		_UART2_DefaultOverrunErrorHandler
  6077 ;;		_UART2_RxDataHandler
  6078 ;; This function is called by:
  6079 ;;		_UART2_Initialize
  6080 ;;		_UART2_rx_vect_isr
  6081 ;; This function uses a non-reentrant model
  6082 ;;
  6083                           
  6084                           	psect	text58
  6085  0027EE                     __ptext58:
  6086                           	opt callstack 0
  6087  0027EE                     _UART2_Receive_ISR:
  6088                           	opt callstack 19
  6089                           
  6090                           ;mcc_generated_files/uart2.c: 267:     uart2RxStatusBuffer[uart2RxHead].status = 0;
  6091                           
  6092                           ;incstack = 0
  6093  0027EE  504F               	movf	_uart2RxHead,w,c
  6094  0027F0  0FAC               	addlw	low _uart2RxStatusBuffer
  6095  0027F2  6ED9               	movwf	fsr2l,c
  6096  0027F4  6ADA               	clrf	fsr2h,c
  6097  0027F6  0E00               	movlw	0
  6098  0027F8  6EDF               	movwf	indf2,c
  6099                           
  6100                           ;mcc_generated_files/uart2.c: 269:     if(U2ERRIRbits.FERIF){
  6101  0027FA  013D               	movlb	61	; () banked
  6102  0027FC  A7E1               	btfss	225,3,b	;volatile
  6103  0027FE  D012               	goto	i2u135_49
  6104                           
  6105                           ; BSR set to: 61
  6106                           ;mcc_generated_files/uart2.c: 270:         uart2RxStatusBuffer[uart2RxHead].ferr = 1;
  6107  002800  504F               	movf	_uart2RxHead,w,c
  6108  002802  0FAC               	addlw	low _uart2RxStatusBuffer
  6109  002804  6ED9               	movwf	fsr2l,c
  6110  002806  6ADA               	clrf	fsr2h,c
  6111  002808  0100               	movlb	0	; () banked
  6112  00280A  82DF               	bsf	indf2,1,c
  6113                           
  6114                           ; BSR set to: 0
  6115                           ;mcc_generated_files/uart2.c: 271:         UART2_FramingErrorHandler();
  6116  00280C  D801               	call	i2u135_48
  6117  00280E  D00A               	goto	i2u135_49
  6118  002810                     i2u135_48:
  6119  002810  0005               	push	
  6120  002812  6EFA               	movwf	pclath,c
  6121  002814  51E8               	movf	_UART2_FramingErrorHandler& (0+255),w,b
  6122  002816  6EFD               	movwf	tosl,c
  6123  002818  51E9               	movf	(_UART2_FramingErrorHandler+1)& (0+255),w,b
  6124  00281A  6EFE               	movwf	tosh,c
  6125  00281C  51EA               	movf	(_UART2_FramingErrorHandler+2)& (0+255),w,b
  6126  00281E  6EFF               	movwf	tosu,c
  6127  002820  50FA               	movf	pclath,w,c
  6128  002822  0012               	return		;indir
  6129  002824                     i2u135_49:
  6130                           
  6131                           ;mcc_generated_files/uart2.c: 274:     if(U2ERRIRbits.RXFOIF){
  6132  002824  013D               	movlb	61	; () banked
  6133  002826  A3E1               	btfss	225,1,b	;volatile
  6134  002828  D012               	goto	i2u137_49
  6135                           
  6136                           ; BSR set to: 61
  6137                           ;mcc_generated_files/uart2.c: 275:         uart2RxStatusBuffer[uart2RxHead].oerr = 1;
  6138  00282A  504F               	movf	_uart2RxHead,w,c
  6139  00282C  0FAC               	addlw	low _uart2RxStatusBuffer
  6140  00282E  6ED9               	movwf	fsr2l,c
  6141  002830  6ADA               	clrf	fsr2h,c
  6142  002832  0100               	movlb	0	; () banked
  6143  002834  84DF               	bsf	indf2,2,c
  6144                           
  6145                           ; BSR set to: 0
  6146                           ;mcc_generated_files/uart2.c: 276:         UART2_OverrunErrorHandler();
  6147  002836  D801               	call	i2u137_48
  6148  002838  D00A               	goto	i2u137_49
  6149  00283A                     i2u137_48:
  6150  00283A  0005               	push	
  6151  00283C  6EFA               	movwf	pclath,c
  6152  00283E  51E5               	movf	_UART2_OverrunErrorHandler& (0+255),w,b
  6153  002840  6EFD               	movwf	tosl,c
  6154  002842  51E6               	movf	(_UART2_OverrunErrorHandler+1)& (0+255),w,b
  6155  002844  6EFE               	movwf	tosh,c
  6156  002846  51E7               	movf	(_UART2_OverrunErrorHandler+2)& (0+255),w,b
  6157  002848  6EFF               	movwf	tosu,c
  6158  00284A  50FA               	movf	pclath,w,c
  6159  00284C  0012               	return		;indir
  6160  00284E                     i2u137_49:
  6161                           
  6162                           ;mcc_generated_files/uart2.c: 279:     if(uart2RxStatusBuffer[uart2RxHead].status){
  6163  00284E  504F               	movf	_uart2RxHead,w,c
  6164  002850  0FAC               	addlw	low _uart2RxStatusBuffer
  6165  002852  6ED9               	movwf	fsr2l,c
  6166  002854  6ADA               	clrf	fsr2h,c
  6167  002856  50DF               	movf	indf2,w,c
  6168  002858  B4D8               	btfsc	status,2,c
  6169  00285A  D00D               	goto	i2l3115
  6170                           
  6171                           ;mcc_generated_files/uart2.c: 280:         UART2_ErrorHandler();
  6172  00285C  D801               	call	i2u139_48
  6173  00285E  0012               	return	
  6174  002860                     i2u139_48:
  6175  002860  0005               	push	
  6176  002862  6EFA               	movwf	pclath,c
  6177  002864  0100               	movlb	0	; () banked
  6178  002866  51E2               	movf	_UART2_ErrorHandler& (0+255),w,b
  6179  002868  6EFD               	movwf	tosl,c
  6180  00286A  51E3               	movf	(_UART2_ErrorHandler+1)& (0+255),w,b
  6181  00286C  6EFE               	movwf	tosh,c
  6182  00286E  51E4               	movf	(_UART2_ErrorHandler+2)& (0+255),w,b
  6183  002870  6EFF               	movwf	tosu,c
  6184  002872  50FA               	movf	pclath,w,c
  6185  002874  0012               	return		;indir
  6186  002876                     i2l3115:
  6187                           
  6188                           ;mcc_generated_files/uart2.c: 282:         UART2_RxDataHandler();
  6189  002876  EC5B  F017         	call	_UART2_RxDataHandler	;wreg free
  6190  00287A  0012               	return		;funcret
  6191  00287C                     __end_of_UART2_Receive_ISR:
  6192                           	opt callstack 0
  6193                           
  6194 ;; *************** function _UART2_DefaultOverrunErrorHandler *****************
  6195 ;; Defined at:
  6196 ;;		line 300 in file "mcc_generated_files/uart2.c"
  6197 ;; Parameters:    Size  Location     Type
  6198 ;;		None
  6199 ;; Auto vars:     Size  Location     Type
  6200 ;;		None
  6201 ;; Return value:  Size  Location     Type
  6202 ;;                  1    wreg      void 
  6203 ;; Registers used:
  6204 ;;		None
  6205 ;; Tracked objects:
  6206 ;;		On entry : 3F/0
  6207 ;;		On exit  : 3F/0
  6208 ;;		Unchanged: 3F/0
  6209 ;; Data sizes:     COMRAM   BANK0   BANK1   BANK2   BANK3   BANK4   BANK5   BANK6   BANK7   BANK8   BANK9  BANK10  BANK1
      +1  BANK12  BANK13  BANK14  BANK15  BANK16  BANK17  BANK18  BANK19  BANK20  BANK21  BANK22  BANK23  BANK24  BANK25  BANK2
      +6  BANK27  BANK28  BANK29  BANK30  BANK31
  6210 ;;      Params:         0       0       0       0       0       0       0       0       0       0       0       0       
      +0       0       0       0       0       0       0       0       0       0       0       0       0       0       0       
      +0       0       0       0       0       0
  6211 ;;      Locals:         0       0       0       0       0       0       0       0       0       0       0       0       
      +0       0       0       0       0       0       0       0       0       0       0       0       0       0       0       
      +0       0       0       0       0       0
  6212 ;;      Temps:          0       0       0       0       0       0       0       0       0       0       0       0       
      +0       0       0       0       0       0       0       0       0       0       0       0       0       0       0       
      +0       0       0       0       0       0
  6213 ;;      Totals:         0       0       0       0       0       0       0       0       0       0       0       0       
      +0       0       0       0       0       0       0       0       0       0       0       0       0       0       0       
      +0       0       0       0       0       0
  6214 ;;Total ram usage:        0 bytes
  6215 ;; Hardware stack levels used:    1
  6216 ;; This function calls:
  6217 ;;		Nothing
  6218 ;; This function is called by:
  6219 ;;		_UART2_Initialize
  6220 ;;		_UART2_Receive_ISR
  6221 ;; This function uses a non-reentrant model
  6222 ;;
  6223                           
  6224                           	psect	text59
  6225  0030AA                     __ptext59:
  6226                           	opt callstack 0
  6227  0030AA                     _UART2_DefaultOverrunErrorHandler:
  6228                           	opt callstack 20
  6229                           
  6230                           ; BSR set to: 0
  6231                           
  6232                           ;incstack = 0
  6233  0030AA  0012               	return		;funcret
  6234  0030AC                     __end_of_UART2_DefaultOverrunErrorHandler:
  6235                           	opt callstack 0
  6236                           
  6237 ;; *************** function _UART2_DefaultFramingErrorHandler *****************
  6238 ;; Defined at:
  6239 ;;		line 298 in file "mcc_generated_files/uart2.c"
  6240 ;; Parameters:    Size  Location     Type
  6241 ;;		None
  6242 ;; Auto vars:     Size  Location     Type
  6243 ;;		None
  6244 ;; Return value:  Size  Location     Type
  6245 ;;                  1    wreg      void 
  6246 ;; Registers used:
  6247 ;;		None
  6248 ;; Tracked objects:
  6249 ;;		On entry : 3F/0
  6250 ;;		On exit  : 3F/0
  6251 ;;		Unchanged: 3F/0
  6252 ;; Data sizes:     COMRAM   BANK0   BANK1   BANK2   BANK3   BANK4   BANK5   BANK6   BANK7   BANK8   BANK9  BANK10  BANK1
      +1  BANK12  BANK13  BANK14  BANK15  BANK16  BANK17  BANK18  BANK19  BANK20  BANK21  BANK22  BANK23  BANK24  BANK25  BANK2
      +6  BANK27  BANK28  BANK29  BANK30  BANK31
  6253 ;;      Params:         0       0       0       0       0       0       0       0       0       0       0       0       
      +0       0       0       0       0       0       0       0       0       0       0       0       0       0       0       
      +0       0       0       0       0       0
  6254 ;;      Locals:         0       0       0       0       0       0       0       0       0       0       0       0       
      +0       0       0       0       0       0       0       0       0       0       0       0       0       0       0       
      +0       0       0       0       0       0
  6255 ;;      Temps:          0       0       0       0       0       0       0       0       0       0       0       0       
      +0       0       0       0       0       0       0       0       0       0       0       0       0       0       0       
      +0       0       0       0       0       0
  6256 ;;      Totals:         0       0       0       0       0       0       0       0       0       0       0       0       
      +0       0       0       0       0       0       0       0       0       0       0       0       0       0       0       
      +0       0       0       0       0       0
  6257 ;;Total ram usage:        0 bytes
  6258 ;; Hardware stack levels used:    1
  6259 ;; This function calls:
  6260 ;;		Nothing
  6261 ;; This function is called by:
  6262 ;;		_UART2_Initialize
  6263 ;;		_UART2_Receive_ISR
  6264 ;; This function uses a non-reentrant model
  6265 ;;
  6266                           
  6267                           	psect	text60
  6268  0030AC                     __ptext60:
  6269                           	opt callstack 0
  6270  0030AC                     _UART2_DefaultFramingErrorHandler:
  6271                           	opt callstack 20
  6272                           
  6273                           ; BSR set to: 0
  6274                           
  6275                           ; BSR set to: 0
  6276                           ;incstack = 0
  6277  0030AC  0012               	return		;funcret
  6278  0030AE                     __end_of_UART2_DefaultFramingErrorHandler:
  6279                           	opt callstack 0
  6280                           
  6281 ;; *************** function _UART2_DefaultErrorHandler *****************
  6282 ;; Defined at:
  6283 ;;		line 302 in file "mcc_generated_files/uart2.c"
  6284 ;; Parameters:    Size  Location     Type
  6285 ;;		None
  6286 ;; Auto vars:     Size  Location     Type
  6287 ;;		None
  6288 ;; Return value:  Size  Location     Type
  6289 ;;                  1    wreg      void 
  6290 ;; Registers used:
  6291 ;;		wreg, fsr2l, fsr2h, status,2, status,0, cstack
  6292 ;; Tracked objects:
  6293 ;;		On entry : 3F/0
  6294 ;;		On exit  : 0/0
  6295 ;;		Unchanged: 0/0
  6296 ;; Data sizes:     COMRAM   BANK0   BANK1   BANK2   BANK3   BANK4   BANK5   BANK6   BANK7   BANK8   BANK9  BANK10  BANK1
      +1  BANK12  BANK13  BANK14  BANK15  BANK16  BANK17  BANK18  BANK19  BANK20  BANK21  BANK22  BANK23  BANK24  BANK25  BANK2
      +6  BANK27  BANK28  BANK29  BANK30  BANK31
  6297 ;;      Params:         0       0       0       0       0       0       0       0       0       0       0       0       
      +0       0       0       0       0       0       0       0       0       0       0       0       0       0       0       
      +0       0       0       0       0       0
  6298 ;;      Locals:         0       0       0       0       0       0       0       0       0       0       0       0       
      +0       0       0       0       0       0       0       0       0       0       0       0       0       0       0       
      +0       0       0       0       0       0
  6299 ;;      Temps:          0       0       0       0       0       0       0       0       0       0       0       0       
      +0       0       0       0       0       0       0       0       0       0       0       0       0       0       0       
      +0       0       0       0       0       0
  6300 ;;      Totals:         0       0       0       0       0       0       0       0       0       0       0       0       
      +0       0       0       0       0       0       0       0       0       0       0       0       0       0       0       
      +0       0       0       0       0       0
  6301 ;;Total ram usage:        0 bytes
  6302 ;; Hardware stack levels used:    1
  6303 ;; Hardware stack levels required when called:    1
  6304 ;; This function calls:
  6305 ;;		_UART2_RxDataHandler
  6306 ;; This function is called by:
  6307 ;;		_UART2_Initialize
  6308 ;;		_UART2_Receive_ISR
  6309 ;; This function uses a non-reentrant model
  6310 ;;
  6311                           
  6312                           	psect	text61
  6313  003094                     __ptext61:
  6314                           	opt callstack 0
  6315  003094                     _UART2_DefaultErrorHandler:
  6316                           	opt callstack 19
  6317                           
  6318                           ; BSR set to: 0
  6319                           ;mcc_generated_files/uart2.c: 303:     UART2_RxDataHandler();
  6320                           
  6321                           ; BSR set to: 0
  6322                           ;incstack = 0
  6323  003094  EC5B  F017         	call	_UART2_RxDataHandler	;wreg free
  6324  003098  0012               	return		;funcret
  6325  00309A                     __end_of_UART2_DefaultErrorHandler:
  6326                           	opt callstack 0
  6327                           
  6328 ;; *************** function _UART2_RxDataHandler *****************
  6329 ;; Defined at:
  6330 ;;		line 288 in file "mcc_generated_files/uart2.c"
  6331 ;; Parameters:    Size  Location     Type
  6332 ;;		None
  6333 ;; Auto vars:     Size  Location     Type
  6334 ;;		None
  6335 ;; Return value:  Size  Location     Type
  6336 ;;                  1    wreg      void 
  6337 ;; Registers used:
  6338 ;;		wreg, fsr2l, fsr2h, status,2, status,0
  6339 ;; Tracked objects:
  6340 ;;		On entry : 0/3D
  6341 ;;		On exit  : 0/0
  6342 ;;		Unchanged: 0/0
  6343 ;; Data sizes:     COMRAM   BANK0   BANK1   BANK2   BANK3   BANK4   BANK5   BANK6   BANK7   BANK8   BANK9  BANK10  BANK1
      +1  BANK12  BANK13  BANK14  BANK15  BANK16  BANK17  BANK18  BANK19  BANK20  BANK21  BANK22  BANK23  BANK24  BANK25  BANK2
      +6  BANK27  BANK28  BANK29  BANK30  BANK31
  6344 ;;      Params:         0       0       0       0       0       0       0       0       0       0       0       0       
      +0       0       0       0       0       0       0       0       0       0       0       0       0       0       0       
      +0       0       0       0       0       0
  6345 ;;      Locals:         0       0       0       0       0       0       0       0       0       0       0       0       
      +0       0       0       0       0       0       0       0       0       0       0       0       0       0       0       
      +0       0       0       0       0       0
  6346 ;;      Temps:          0       0       0       0       0       0       0       0       0       0       0       0       
      +0       0       0       0       0       0       0       0       0       0       0       0       0       0       0       
      +0       0       0       0       0       0
  6347 ;;      Totals:         0       0       0       0       0       0       0       0       0       0       0       0       
      +0       0       0       0       0       0       0       0       0       0       0       0       0       0       0       
      +0       0       0       0       0       0
  6348 ;;Total ram usage:        0 bytes
  6349 ;; Hardware stack levels used:    1
  6350 ;; This function calls:
  6351 ;;		Nothing
  6352 ;; This function is called by:
  6353 ;;		_UART2_Receive_ISR
  6354 ;;		_UART2_DefaultErrorHandler
  6355 ;; This function uses a non-reentrant model
  6356 ;;
  6357                           
  6358                           	psect	text62
  6359  002EB6                     __ptext62:
  6360                           	opt callstack 0
  6361  002EB6                     _UART2_RxDataHandler:
  6362                           	opt callstack 20
  6363                           
  6364                           ;mcc_generated_files/uart2.c: 290:     uart2RxBuffer[uart2RxHead++] = U2RXB;
  6365                           
  6366                           ;incstack = 0
  6367  002EB6  504F               	movf	_uart2RxHead,w,c
  6368  002EB8  0FB4               	addlw	low _uart2RxBuffer
  6369  002EBA  6ED9               	movwf	fsr2l,c
  6370  002EBC  6ADA               	clrf	fsr2h,c
  6371  002EBE  006F F743 FFDF     	movff	15824,indf2	;volatile
  6372  002EC4  2A4F               	incf	_uart2RxHead,f,c	;volatile
  6373                           
  6374                           ;mcc_generated_files/uart2.c: 291:     if(sizeof(uart2RxBuffer) <= uart2RxHead)
  6375  002EC6  0E07               	movlw	7
  6376  002EC8  644F               	cpfsgt	_uart2RxHead,c
  6377  002ECA  D002               	goto	i2l2775
  6378                           
  6379                           ;mcc_generated_files/uart2.c: 292:     {;mcc_generated_files/uart2.c: 293:         uart2
      +                          RxHead = 0;
  6380  002ECC  0E00               	movlw	0
  6381  002ECE  6E4F               	movwf	_uart2RxHead,c	;volatile
  6382  002ED0                     i2l2775:
  6383                           
  6384                           ;mcc_generated_files/uart2.c: 295:     uart2RxCount++;
  6385  002ED0  2A4D               	incf	_uart2RxCount,f,c	;volatile
  6386  002ED2  0012               	return		;funcret
  6387  002ED4                     __end_of_UART2_RxDataHandler:
  6388                           	opt callstack 0
  6389                           
  6390 ;; *************** function _TMR6_ISR *****************
  6391 ;; Defined at:
  6392 ;;		line 168 in file "mcc_generated_files/tmr6.c"
  6393 ;; Parameters:    Size  Location     Type
  6394 ;;		None
  6395 ;; Auto vars:     Size  Location     Type
  6396 ;;		None
  6397 ;; Return value:  Size  Location     Type
  6398 ;;                  1    wreg      void 
  6399 ;; Registers used:
  6400 ;;		wreg, fsr2l, fsr2h, status,2, status,0, pclath, tosl, prodl, prodh, cstack
  6401 ;; Tracked objects:
  6402 ;;		On entry : 0/0
  6403 ;;		On exit  : 0/0
  6404 ;;		Unchanged: 0/0
  6405 ;; Data sizes:     COMRAM   BANK0   BANK1   BANK2   BANK3   BANK4   BANK5   BANK6   BANK7   BANK8   BANK9  BANK10  BANK1
      +1  BANK12  BANK13  BANK14  BANK15  BANK16  BANK17  BANK18  BANK19  BANK20  BANK21  BANK22  BANK23  BANK24  BANK25  BANK2
      +6  BANK27  BANK28  BANK29  BANK30  BANK31
  6406 ;;      Params:         0       0       0       0       0       0       0       0       0       0       0       0       
      +0       0       0       0       0       0       0       0       0       0       0       0       0       0       0       
      +0       0       0       0       0       0
  6407 ;;      Locals:         0       0       0       0       0       0       0       0       0       0       0       0       
      +0       0       0       0       0       0       0       0       0       0       0       0       0       0       0       
      +0       0       0       0       0       0
  6408 ;;      Temps:          0       0       0       0       0       0       0       0       0       0       0       0       
      +0       0       0       0       0       0       0       0       0       0       0       0       0       0       0       
      +0       0       0       0       0       0
  6409 ;;      Totals:         0       0       0       0       0       0       0       0       0       0       0       0       
      +0       0       0       0       0       0       0       0       0       0       0       0       0       0       0       
      +0       0       0       0       0       0
  6410 ;;Total ram usage:        0 bytes
  6411 ;; Hardware stack levels used:    1
  6412 ;; Hardware stack levels required when called:    1
  6413 ;; This function calls:
  6414 ;;		Absolute function
  6415 ;;		_TMR6_DefaultInterruptHandler
  6416 ;; This function is called by:
  6417 ;;		Interrupt level 2
  6418 ;; This function uses a non-reentrant model
  6419 ;;
  6420                           
  6421                           	psect	text63
  6422  002D38                     __ptext63:
  6423                           	opt callstack 0
  6424  002D38                     _TMR6_ISR:
  6425                           	opt callstack 21
  6426                           
  6427                           ;mcc_generated_files/tmr6.c: 172:  PIR9bits.TMR6IF = 0;
  6428                           
  6429                           ;incstack = 0
  6430  002D38  0139               	movlb	57	; () banked
  6431  002D3A  91A9               	bcf	169,0,b	;volatile
  6432                           
  6433                           ; BSR set to: 57
  6434                           ;mcc_generated_files/tmr6.c: 174:  if (TMR6_InterruptHandler) {
  6435  002D3C  0100               	movlb	0	; () banked
  6436  002D3E  51DF               	movf	_TMR6_InterruptHandler& (0+255),w,b
  6437  002D40  11E0               	iorwf	(_TMR6_InterruptHandler+1)& (0+255),w,b
  6438  002D42  11E1               	iorwf	(_TMR6_InterruptHandler+2)& (0+255),w,b
  6439  002D44  B4D8               	btfsc	status,2,c
  6440  002D46  0011               	retfie		f
  6441                           
  6442                           ; BSR set to: 0
  6443                           ;mcc_generated_files/tmr6.c: 175:   TMR6_InterruptHandler();
  6444  002D48  D801               	call	i2u170_48
  6445  002D4A  0011               	retfie		f
  6446  002D4C                     i2u170_48:
  6447  002D4C  0005               	push	
  6448  002D4E  6EFA               	movwf	pclath,c
  6449  002D50  51DF               	movf	_TMR6_InterruptHandler& (0+255),w,b
  6450  002D52  6EFD               	movwf	tosl,c
  6451  002D54  51E0               	movf	(_TMR6_InterruptHandler+1)& (0+255),w,b
  6452  002D56  6EFE               	movwf	tosh,c
  6453  002D58  51E1               	movf	(_TMR6_InterruptHandler+2)& (0+255),w,b
  6454  002D5A  6EFF               	movwf	tosu,c
  6455  002D5C  50FA               	movf	pclath,w,c
  6456  002D5E  0012               	return		;indir
  6457  002D60                     __end_of_TMR6_ISR:
  6458                           	opt callstack 0
  6459                           
  6460 ;; *************** function _TMR6_DefaultInterruptHandler *****************
  6461 ;; Defined at:
  6462 ;;		line 184 in file "mcc_generated_files/tmr6.c"
  6463 ;; Parameters:    Size  Location     Type
  6464 ;;		None
  6465 ;; Auto vars:     Size  Location     Type
  6466 ;;  i               1    2[COMRAM] unsigned char 
  6467 ;; Return value:  Size  Location     Type
  6468 ;;                  1    wreg      void 
  6469 ;; Registers used:
  6470 ;;		wreg, fsr2l, fsr2h, status,2, status,0, prodl, prodh
  6471 ;; Tracked objects:
  6472 ;;		On entry : 3F/0
  6473 ;;		On exit  : 3F/0
  6474 ;;		Unchanged: 3F/0
  6475 ;; Data sizes:     COMRAM   BANK0   BANK1   BANK2   BANK3   BANK4   BANK5   BANK6   BANK7   BANK8   BANK9  BANK10  BANK1
      +1  BANK12  BANK13  BANK14  BANK15  BANK16  BANK17  BANK18  BANK19  BANK20  BANK21  BANK22  BANK23  BANK24  BANK25  BANK2
      +6  BANK27  BANK28  BANK29  BANK30  BANK31
  6476 ;;      Params:         0       0       0       0       0       0       0       0       0       0       0       0       
      +0       0       0       0       0       0       0       0       0       0       0       0       0       0       0       
      +0       0       0       0       0       0
  6477 ;;      Locals:         1       0       0       0       0       0       0       0       0       0       0       0       
      +0       0       0       0       0       0       0       0       0       0       0       0       0       0       0       
      +0       0       0       0       0       0
  6478 ;;      Temps:          2       0       0       0       0       0       0       0       0       0       0       0       
      +0       0       0       0       0       0       0       0       0       0       0       0       0       0       0       
      +0       0       0       0       0       0
  6479 ;;      Totals:         3       0       0       0       0       0       0       0       0       0       0       0       
      +0       0       0       0       0       0       0       0       0       0       0       0       0       0       0       
      +0       0       0       0       0       0
  6480 ;;Total ram usage:        3 bytes
  6481 ;; Hardware stack levels used:    1
  6482 ;; This function calls:
  6483 ;;		Nothing
  6484 ;; This function is called by:
  6485 ;;		_TMR6_Initialize
  6486 ;;		_TMR6_ISR
  6487 ;; This function uses a non-reentrant model
  6488 ;;
  6489                           
  6490                           	psect	text64
  6491  002BC6                     __ptext64:
  6492                           	opt callstack 0
  6493  002BC6                     _TMR6_DefaultInterruptHandler:
  6494                           	opt callstack 21
  6495                           
  6496                           ; BSR set to: 0
  6497                           ;mcc_generated_files/tmr6.c: 186:  uint8_t i;;mcc_generated_files/tmr6.c: 190:  for (i =
      +                           0; i < TMR_COUNT; i++) {
  6498                           
  6499                           ;incstack = 0
  6500  002BC6  0E00               	movlw	0
  6501  002BC8  6E03               	movwf	TMR6_DefaultInterruptHandler@i,c
  6502  002BCA                     i2l3123:
  6503                           
  6504                           ; BSR set to: 0
  6505                           ;mcc_generated_files/tmr6.c: 191:   if (tickCount[i] != 0) {
  6506  002BCA  5003               	movf	TMR6_DefaultInterruptHandler@i,w,c
  6507  002BCC  0D02               	mullw	2
  6508  002BCE  50F3               	movf	prodl,w,c
  6509  002BD0  0F80               	addlw	low _tickCount
  6510  002BD2  6ED9               	movwf	fsr2l,c
  6511  002BD4  6ADA               	clrf	fsr2h,c
  6512  002BD6  50DE               	movf	postinc2,w,c
  6513  002BD8  10DE               	iorwf	postinc2,w,c
  6514  002BDA  B4D8               	btfsc	status,2,c
  6515  002BDC  D009               	goto	i2l3127
  6516                           
  6517                           ; BSR set to: 0
  6518                           ;mcc_generated_files/tmr6.c: 192:    tickCount[i]--;
  6519  002BDE  5003               	movf	TMR6_DefaultInterruptHandler@i,w,c
  6520  002BE0  0D02               	mullw	2
  6521  002BE2  50F3               	movf	prodl,w,c
  6522  002BE4  0F80               	addlw	low _tickCount
  6523  002BE6  6ED9               	movwf	fsr2l,c
  6524  002BE8  6ADA               	clrf	fsr2h,c
  6525  002BEA  06DE               	decf	postinc2,f,c
  6526  002BEC  0E00               	movlw	0
  6527  002BEE  5ADD               	subwfb	postdec2,f,c
  6528  002BF0                     i2l3127:
  6529                           
  6530                           ; BSR set to: 0
  6531                           ;mcc_generated_files/tmr6.c: 194:  }
  6532  002BF0  2A03               	incf	TMR6_DefaultInterruptHandler@i,f,c
  6533                           
  6534                           ; BSR set to: 0
  6535  002BF2  0E0C               	movlw	12
  6536  002BF4  6403               	cpfsgt	TMR6_DefaultInterruptHandler@i,c
  6537  002BF6  D7E9               	goto	i2l3123
  6538  002BF8  0012               	return	
  6539  002BFA                     __end_of_TMR6_DefaultInterruptHandler:
  6540                           	opt callstack 0
  6541                           
  6542 ;; *************** function _TMR5_ISR *****************
  6543 ;; Defined at:
  6544 ;;		line 166 in file "mcc_generated_files/tmr5.c"
  6545 ;; Parameters:    Size  Location     Type
  6546 ;;		None
  6547 ;; Auto vars:     Size  Location     Type
  6548 ;;		None
  6549 ;; Return value:  Size  Location     Type
  6550 ;;                  1    wreg      void 
  6551 ;; Registers used:
  6552 ;;		wreg, status,2, status,0, pclath, tosl, cstack
  6553 ;; Tracked objects:
  6554 ;;		On entry : 0/0
  6555 ;;		On exit  : 0/0
  6556 ;;		Unchanged: 0/0
  6557 ;; Data sizes:     COMRAM   BANK0   BANK1   BANK2   BANK3   BANK4   BANK5   BANK6   BANK7   BANK8   BANK9  BANK10  BANK1
      +1  BANK12  BANK13  BANK14  BANK15  BANK16  BANK17  BANK18  BANK19  BANK20  BANK21  BANK22  BANK23  BANK24  BANK25  BANK2
      +6  BANK27  BANK28  BANK29  BANK30  BANK31
  6558 ;;      Params:         0       0       0       0       0       0       0       0       0       0       0       0       
      +0       0       0       0       0       0       0       0       0       0       0       0       0       0       0       
      +0       0       0       0       0       0
  6559 ;;      Locals:         0       0       0       0       0       0       0       0       0       0       0       0       
      +0       0       0       0       0       0       0       0       0       0       0       0       0       0       0       
      +0       0       0       0       0       0
  6560 ;;      Temps:          0       0       0       0       0       0       0       0       0       0       0       0       
      +0       0       0       0       0       0       0       0       0       0       0       0       0       0       0       
      +0       0       0       0       0       0
  6561 ;;      Totals:         0       0       0       0       0       0       0       0       0       0       0       0       
      +0       0       0       0       0       0       0       0       0       0       0       0       0       0       0       
      +0       0       0       0       0       0
  6562 ;;Total ram usage:        0 bytes
  6563 ;; Hardware stack levels used:    1
  6564 ;; Hardware stack levels required when called:    2
  6565 ;; This function calls:
  6566 ;;		_TMR5_CallBack
  6567 ;;		_TMR5_WriteTimer
  6568 ;; This function is called by:
  6569 ;;		Interrupt level 2
  6570 ;; This function uses a non-reentrant model
  6571 ;;
  6572                           
  6573                           	psect	text65
  6574  002BFC                     __ptext65:
  6575                           	opt callstack 0
  6576  002BFC                     _TMR5_ISR:
  6577                           	opt callstack 20
  6578                           
  6579                           ;mcc_generated_files/tmr5.c: 168:     static volatile unsigned int CountCallBack = 0;;mc
      +                          c_generated_files/tmr5.c: 171:     PIR8bits.TMR5IF = 0;
  6580                           
  6581                           ; BSR set to: 0
  6582                           ;incstack = 0
  6583  002BFC  0139               	movlb	57	; () banked
  6584  002BFE  9DA8               	bcf	168,6,b	;volatile
  6585                           
  6586                           ; BSR set to: 57
  6587                           ;mcc_generated_files/tmr5.c: 172:     TMR5_WriteTimer(timer5ReloadVal);
  6588  002C00  0060  F128  F004   	movff	_timer5ReloadVal,TMR5_WriteTimer@timerVal	;volatile
  6589  002C06  0060  F12C  F005   	movff	_timer5ReloadVal+1,TMR5_WriteTimer@timerVal+1	;volatile
  6590  002C0C  ECB0  F016         	call	_TMR5_WriteTimer	;wreg free
  6591                           
  6592                           ; BSR set to: 57
  6593                           ;mcc_generated_files/tmr5.c: 175:     if (++CountCallBack >= 50)
  6594  002C10  4A48               	infsnz	TMR5_ISR@CountCallBack,f,c	;volatile
  6595  002C12  2A49               	incf	TMR5_ISR@CountCallBack+1,f,c	;volatile
  6596  002C14  5049               	movf	TMR5_ISR@CountCallBack+1,w,c	;volatile
  6597  002C16  E104               	bnz	i2u171_40
  6598  002C18  0E32               	movlw	50
  6599  002C1A  5C48               	subwf	TMR5_ISR@CountCallBack,w,c	;volatile
  6600  002C1C  A0D8               	btfss	status,0,c
  6601  002C1E  0011               	retfie		f
  6602  002C20                     i2u171_40:
  6603                           
  6604                           ; BSR set to: 57
  6605                           ;mcc_generated_files/tmr5.c: 176:     {;mcc_generated_files/tmr5.c: 178:         TMR5_Ca
      +                          llBack();
  6606  002C20  ECC2  F016         	call	_TMR5_CallBack	;wreg free
  6607                           
  6608                           ;mcc_generated_files/tmr5.c: 181:         CountCallBack = 0;
  6609  002C24  0E00               	movlw	0
  6610  002C26  6E49               	movwf	TMR5_ISR@CountCallBack+1,c	;volatile
  6611  002C28  0E00               	movlw	0
  6612  002C2A  6E48               	movwf	TMR5_ISR@CountCallBack,c	;volatile
  6613  002C2C  0011               	retfie		f
  6614  002C2E                     __end_of_TMR5_ISR:
  6615                           	opt callstack 0
  6616                           
  6617 ;; *************** function _TMR5_WriteTimer *****************
  6618 ;; Defined at:
  6619 ;;		line 129 in file "mcc_generated_files/tmr5.c"
  6620 ;; Parameters:    Size  Location     Type
  6621 ;;  timerVal        2    3[COMRAM] unsigned short 
  6622 ;; Auto vars:     Size  Location     Type
  6623 ;;		None
  6624 ;; Return value:  Size  Location     Type
  6625 ;;                  1    wreg      void 
  6626 ;; Registers used:
  6627 ;;		None
  6628 ;; Tracked objects:
  6629 ;;		On entry : 3F/39
  6630 ;;		On exit  : 3F/39
  6631 ;;		Unchanged: 3E/0
  6632 ;; Data sizes:     COMRAM   BANK0   BANK1   BANK2   BANK3   BANK4   BANK5   BANK6   BANK7   BANK8   BANK9  BANK10  BANK1
      +1  BANK12  BANK13  BANK14  BANK15  BANK16  BANK17  BANK18  BANK19  BANK20  BANK21  BANK22  BANK23  BANK24  BANK25  BANK2
      +6  BANK27  BANK28  BANK29  BANK30  BANK31
  6633 ;;      Params:         2       0       0       0       0       0       0       0       0       0       0       0       
      +0       0       0       0       0       0       0       0       0       0       0       0       0       0       0       
      +0       0       0       0       0       0
  6634 ;;      Locals:         0       0       0       0       0       0       0       0       0       0       0       0       
      +0       0       0       0       0       0       0       0       0       0       0       0       0       0       0       
      +0       0       0       0       0       0
  6635 ;;      Temps:          0       0       0       0       0       0       0       0       0       0       0       0       
      +0       0       0       0       0       0       0       0       0       0       0       0       0       0       0       
      +0       0       0       0       0       0
  6636 ;;      Totals:         2       0       0       0       0       0       0       0       0       0       0       0       
      +0       0       0       0       0       0       0       0       0       0       0       0       0       0       0       
      +0       0       0       0       0       0
  6637 ;;Total ram usage:        2 bytes
  6638 ;; Hardware stack levels used:    1
  6639 ;; This function calls:
  6640 ;;		Nothing
  6641 ;; This function is called by:
  6642 ;;		_TMR5_ISR
  6643 ;; This function uses a non-reentrant model
  6644 ;;
  6645                           
  6646                           	psect	text66
  6647  002D60                     __ptext66:
  6648                           	opt callstack 0
  6649  002D60                     _TMR5_WriteTimer:
  6650                           	opt callstack 21
  6651                           
  6652                           ; BSR set to: 57
  6653                           ;mcc_generated_files/tmr5.c: 129: void TMR5_WriteTimer(uint16_t timerVal);mcc_generated_
      +                          files/tmr5.c: 130: {;mcc_generated_files/tmr5.c: 131:     if (T5CONbits.NOT_SYNC == 1)
  6654                           
  6655                           ;incstack = 0
  6656  002D60  A49A               	btfss	16282,2,c	;volatile
  6657  002D62  D009               	goto	i2l764
  6658                           
  6659                           ; BSR set to: 57
  6660                           ;mcc_generated_files/tmr5.c: 132:     {;mcc_generated_files/tmr5.c: 134:         T5CONbi
      +                          ts.TMR5ON = 0;
  6661  002D64  909A               	bcf	16282,0,c	;volatile
  6662                           
  6663                           ;mcc_generated_files/tmr5.c: 137:         TMR5H = (timerVal >> 8);
  6664  002D66  0060  F017  FF99   	movff	TMR5_WriteTimer@timerVal+1,16281	;volatile
  6665                           
  6666                           ;mcc_generated_files/tmr5.c: 138:         TMR5L = timerVal;
  6667  002D6C  0060  F013  FF98   	movff	TMR5_WriteTimer@timerVal,16280	;volatile
  6668                           
  6669                           ;mcc_generated_files/tmr5.c: 141:         T5CONbits.TMR5ON =1;
  6670  002D72  809A               	bsf	16282,0,c	;volatile
  6671                           
  6672                           ;mcc_generated_files/tmr5.c: 142:     }
  6673  002D74  0012               	return	
  6674  002D76                     i2l764:
  6675                           
  6676                           ; BSR set to: 57
  6677                           ;mcc_generated_files/tmr5.c: 144:     {;mcc_generated_files/tmr5.c: 146:         TMR5H =
      +                           (timerVal >> 8);
  6678  002D76  0060  F017  FF99   	movff	TMR5_WriteTimer@timerVal+1,16281	;volatile
  6679                           
  6680                           ;mcc_generated_files/tmr5.c: 147:         TMR5L = timerVal;
  6681  002D7C  0060  F013  FF98   	movff	TMR5_WriteTimer@timerVal,16280	;volatile
  6682                           
  6683                           ; BSR set to: 57
  6684  002D82  0012               	return		;funcret
  6685  002D84                     __end_of_TMR5_WriteTimer:
  6686                           	opt callstack 0
  6687                           
  6688 ;; *************** function _TMR5_CallBack *****************
  6689 ;; Defined at:
  6690 ;;		line 185 in file "mcc_generated_files/tmr5.c"
  6691 ;; Parameters:    Size  Location     Type
  6692 ;;		None
  6693 ;; Auto vars:     Size  Location     Type
  6694 ;;		None
  6695 ;; Return value:  Size  Location     Type
  6696 ;;                  1    wreg      void 
  6697 ;; Registers used:
  6698 ;;		wreg, status,2, status,0, pclath, tosl, cstack
  6699 ;; Tracked objects:
  6700 ;;		On entry : 3F/39
  6701 ;;		On exit  : 0/0
  6702 ;;		Unchanged: 0/0
  6703 ;; Data sizes:     COMRAM   BANK0   BANK1   BANK2   BANK3   BANK4   BANK5   BANK6   BANK7   BANK8   BANK9  BANK10  BANK1
      +1  BANK12  BANK13  BANK14  BANK15  BANK16  BANK17  BANK18  BANK19  BANK20  BANK21  BANK22  BANK23  BANK24  BANK25  BANK2
      +6  BANK27  BANK28  BANK29  BANK30  BANK31
  6704 ;;      Params:         0       0       0       0       0       0       0       0       0       0       0       0       
      +0       0       0       0       0       0       0       0       0       0       0       0       0       0       0       
      +0       0       0       0       0       0
  6705 ;;      Locals:         0       0       0       0       0       0       0       0       0       0       0       0       
      +0       0       0       0       0       0       0       0       0       0       0       0       0       0       0       
      +0       0       0       0       0       0
  6706 ;;      Temps:          0       0       0       0       0       0       0       0       0       0       0       0       
      +0       0       0       0       0       0       0       0       0       0       0       0       0       0       0       
      +0       0       0       0       0       0
  6707 ;;      Totals:         0       0       0       0       0       0       0       0       0       0       0       0       
      +0       0       0       0       0       0       0       0       0       0       0       0       0       0       0       
      +0       0       0       0       0       0
  6708 ;;Total ram usage:        0 bytes
  6709 ;; Hardware stack levels used:    1
  6710 ;; Hardware stack levels required when called:    1
  6711 ;; This function calls:
  6712 ;;		Absolute function
  6713 ;;		_TMR5_DefaultInterruptHandler
  6714 ;; This function is called by:
  6715 ;;		_TMR5_ISR
  6716 ;; This function uses a non-reentrant model
  6717 ;;
  6718                           
  6719                           	psect	text67
  6720  002D84                     __ptext67:
  6721                           	opt callstack 0
  6722  002D84                     _TMR5_CallBack:
  6723                           	opt callstack 20
  6724                           
  6725                           ; BSR set to: 57
  6726                           ;mcc_generated_files/tmr5.c: 188:     if(TMR5_InterruptHandler)
  6727                           
  6728                           ; BSR set to: 57
  6729                           ;incstack = 0
  6730  002D84  0100               	movlb	0	; () banked
  6731  002D86  51DC               	movf	_TMR5_InterruptHandler& (0+255),w,b
  6732  002D88  11DD               	iorwf	(_TMR5_InterruptHandler+1)& (0+255),w,b
  6733  002D8A  11DE               	iorwf	(_TMR5_InterruptHandler+2)& (0+255),w,b
  6734  002D8C  B4D8               	btfsc	status,2,c
  6735  002D8E  0012               	return	
  6736                           
  6737                           ; BSR set to: 0
  6738                           ;mcc_generated_files/tmr5.c: 189:     {;mcc_generated_files/tmr5.c: 190:         TMR5_In
      +                          terruptHandler();
  6739  002D90  D801               	call	i2u144_48
  6740  002D92  0012               	return	
  6741  002D94                     i2u144_48:
  6742  002D94  0005               	push	
  6743  002D96  6EFA               	movwf	pclath,c
  6744  002D98  51DC               	movf	_TMR5_InterruptHandler& (0+255),w,b
  6745  002D9A  6EFD               	movwf	tosl,c
  6746  002D9C  51DD               	movf	(_TMR5_InterruptHandler+1)& (0+255),w,b
  6747  002D9E  6EFE               	movwf	tosh,c
  6748  002DA0  51DE               	movf	(_TMR5_InterruptHandler+2)& (0+255),w,b
  6749  002DA2  6EFF               	movwf	tosu,c
  6750  002DA4  50FA               	movf	pclath,w,c
  6751  002DA6  0012               	return		;indir
  6752  002DA8                     __end_of_TMR5_CallBack:
  6753                           	opt callstack 0
  6754                           
  6755 ;; *************** function _TMR5_DefaultInterruptHandler *****************
  6756 ;; Defined at:
  6757 ;;		line 198 in file "mcc_generated_files/tmr5.c"
  6758 ;; Parameters:    Size  Location     Type
  6759 ;;		None
  6760 ;; Auto vars:     Size  Location     Type
  6761 ;;		None
  6762 ;; Return value:  Size  Location     Type
  6763 ;;                  1    wreg      void 
  6764 ;; Registers used:
  6765 ;;		wreg, status,2, status,0
  6766 ;; Tracked objects:
  6767 ;;		On entry : 3F/0
  6768 ;;		On exit  : 3F/0
  6769 ;;		Unchanged: 3F/0
  6770 ;; Data sizes:     COMRAM   BANK0   BANK1   BANK2   BANK3   BANK4   BANK5   BANK6   BANK7   BANK8   BANK9  BANK10  BANK1
      +1  BANK12  BANK13  BANK14  BANK15  BANK16  BANK17  BANK18  BANK19  BANK20  BANK21  BANK22  BANK23  BANK24  BANK25  BANK2
      +6  BANK27  BANK28  BANK29  BANK30  BANK31
  6771 ;;      Params:         0       0       0       0       0       0       0       0       0       0       0       0       
      +0       0       0       0       0       0       0       0       0       0       0       0       0       0       0       
      +0       0       0       0       0       0
  6772 ;;      Locals:         0       0       0       0       0       0       0       0       0       0       0       0       
      +0       0       0       0       0       0       0       0       0       0       0       0       0       0       0       
      +0       0       0       0       0       0
  6773 ;;      Temps:          1       0       0       0       0       0       0       0       0       0       0       0       
      +0       0       0       0       0       0       0       0       0       0       0       0       0       0       0       
      +0       0       0       0       0       0
  6774 ;;      Totals:         1       0       0       0       0       0       0       0       0       0       0       0       
      +0       0       0       0       0       0       0       0       0       0       0       0       0       0       0       
      +0       0       0       0       0       0
  6775 ;;Total ram usage:        1 bytes
  6776 ;; Hardware stack levels used:    1
  6777 ;; This function calls:
  6778 ;;		Nothing
  6779 ;; This function is called by:
  6780 ;;		_TMR5_Initialize
  6781 ;;		_TMR5_CallBack
  6782 ;; This function uses a non-reentrant model
  6783 ;;
  6784                           
  6785                           	psect	text68
  6786  002F28                     __ptext68:
  6787                           	opt callstack 0
  6788  002F28                     _TMR5_DefaultInterruptHandler:
  6789                           	opt callstack 20
  6790                           
  6791                           ; BSR set to: 0
  6792                           ;mcc_generated_files/tmr5.c: 201:   LATEbits.LATE0 = (uint8_t) ~LATEbits.LATE0;
  6793                           
  6794                           ;incstack = 0
  6795  002F28  A0BE               	btfss	16318,0,c	;volatile
  6796  002F2A  D002               	goto	i2u117_40
  6797  002F2C  0E01               	movlw	1
  6798  002F2E  D001               	goto	i2u117_46
  6799  002F30                     i2u117_40:
  6800  002F30  0E00               	movlw	0
  6801  002F32                     i2u117_46:
  6802  002F32  0AFF               	xorlw	255
  6803  002F34  6E04               	movwf	??_TMR5_DefaultInterruptHandler& (0+255),c
  6804  002F36  50BE               	movf	16318,w,c	;volatile
  6805  002F38  1804               	xorwf	??_TMR5_DefaultInterruptHandler,w,c
  6806  002F3A  0BFE               	andlw	-2
  6807  002F3C  1804               	xorwf	??_TMR5_DefaultInterruptHandler,w,c
  6808  002F3E  6EBE               	movwf	16318,c	;volatile
  6809                           
  6810                           ; BSR set to: 0
  6811  002F40  0012               	return		;funcret
  6812  002F42                     __end_of_TMR5_DefaultInterruptHandler:
  6813                           	opt callstack 0
  6814                           
  6815                           ;
  6816                           ; Interrupt Vector Table @ 0x8
  6817                           ;
  6818                           
  6819                           	psect	ivt0x8
  6820  000008                     __pivt0x8:
  6821                           	opt callstack 0
  6822  000008                     ivt0x8_base:
  6823                           	opt callstack 0
  6824                           
  6825                           ; Vector 0 : SWINT
  6826  000008  0C29               	dw	_Default_ISR shr (0+2)
  6827                           
  6828                           ; Vector 1 : HLVD
  6829  00000A  0C29               	dw	_Default_ISR shr (0+2)
  6830                           
  6831                           ; Vector 2 : OSF
  6832  00000C  0C29               	dw	_Default_ISR shr (0+2)
  6833                           
  6834                           ; Vector 3 : CSW
  6835  00000E  0C29               	dw	_Default_ISR shr (0+2)
  6836                           
  6837                           ; Vector 4 : NVM
  6838  000010  0C29               	dw	_Default_ISR shr (0+2)
  6839                           
  6840                           ; Vector 5 : SCAN
  6841  000012  0C29               	dw	_Default_ISR shr (0+2)
  6842                           
  6843                           ; Vector 6 : CRC
  6844  000014  0C29               	dw	_Default_ISR shr (0+2)
  6845                           
  6846                           ; Vector 7 : IOC
  6847  000016  0C29               	dw	_Default_ISR shr (0+2)
  6848                           
  6849                           ; Vector 8 : INT0
  6850  000018  0C29               	dw	_Default_ISR shr (0+2)
  6851                           
  6852                           ; Vector 9 : ZCD
  6853  00001A  0C29               	dw	_Default_ISR shr (0+2)
  6854                           
  6855                           ; Vector 10 : AD
  6856  00001C  0C29               	dw	_Default_ISR shr (0+2)
  6857                           
  6858                           ; Vector 11 : ADT
  6859  00001E  0C29               	dw	_Default_ISR shr (0+2)
  6860                           
  6861                           ; Vector 12 : CMP1
  6862  000020  0C29               	dw	_Default_ISR shr (0+2)
  6863                           
  6864                           ; Vector 13 : SMT1
  6865  000022  0C29               	dw	_Default_ISR shr (0+2)
  6866                           
  6867                           ; Vector 14 : SMT1PRA
  6868  000024  0C29               	dw	_Default_ISR shr (0+2)
  6869                           
  6870                           ; Vector 15 : SMT1PRW
  6871  000026  0C29               	dw	_Default_ISR shr (0+2)
  6872                           
  6873                           ; Vector 16 : DMA1SCNT
  6874  000028  0C29               	dw	_Default_ISR shr (0+2)
  6875                           
  6876                           ; Vector 17 : DMA1DCNT
  6877  00002A  0C29               	dw	_Default_ISR shr (0+2)
  6878                           
  6879                           ; Vector 18 : DMA1OR
  6880  00002C  0C29               	dw	_Default_ISR shr (0+2)
  6881                           
  6882                           ; Vector 19 : DMA1A
  6883  00002E  0C29               	dw	_Default_ISR shr (0+2)
  6884                           
  6885                           ; Vector 20 : SPI1RX
  6886  000030  0C29               	dw	_Default_ISR shr (0+2)
  6887                           
  6888                           ; Vector 21 : SPI1TX
  6889  000032  0C29               	dw	_Default_ISR shr (0+2)
  6890                           
  6891                           ; Vector 22 : SPI1
  6892  000034  0C29               	dw	_Default_ISR shr (0+2)
  6893                           
  6894                           ; Vector 23 : I2C1RX
  6895  000036  0C29               	dw	_Default_ISR shr (0+2)
  6896                           
  6897                           ; Vector 24 : I2C1TX
  6898  000038  0C29               	dw	_Default_ISR shr (0+2)
  6899                           
  6900                           ; Vector 25 : I2C1
  6901  00003A  0C29               	dw	_Default_ISR shr (0+2)
  6902                           
  6903                           ; Vector 26 : I2C1E
  6904  00003C  0C29               	dw	_Default_ISR shr (0+2)
  6905                           
  6906                           ; Vector 27 : U1RX
  6907  00003E  0B7C               	dw	_UART1_rx_vect_isr shr (0+2)
  6908                           
  6909                           ; Vector 28 : U1TX
  6910  000040  0B73               	dw	_UART1_tx_vect_isr shr (0+2)
  6911                           
  6912                           ; Vector 29 : U1E
  6913  000042  0C29               	dw	_Default_ISR shr (0+2)
  6914                           
  6915                           ; Vector 30 : U1
  6916  000044  0C29               	dw	_Default_ISR shr (0+2)
  6917                           
  6918                           ; Vector 31 : TMR0
  6919  000046  0C29               	dw	_Default_ISR shr (0+2)
  6920                           
  6921                           ; Vector 32 : TMR1
  6922  000048  0C29               	dw	_Default_ISR shr (0+2)
  6923                           
  6924                           ; Vector 33 : TMR1G
  6925  00004A  0C29               	dw	_Default_ISR shr (0+2)
  6926                           
  6927                           ; Vector 34 : TMR2
  6928  00004C  0C29               	dw	_Default_ISR shr (0+2)
  6929                           
  6930                           ; Vector 35 : CCP1
  6931  00004E  0C29               	dw	_Default_ISR shr (0+2)
  6932                           
  6933                           ; Vector 36 : Undefined
  6934  000050  002B               	dw	ivt0x8_undefint shr (0+2)
  6935                           
  6936                           ; Vector 37 : NCO1
  6937  000052  0C29               	dw	_Default_ISR shr (0+2)
  6938                           
  6939                           ; Vector 38 : CWG1
  6940  000054  0C29               	dw	_Default_ISR shr (0+2)
  6941                           
  6942                           ; Vector 39 : CLC1
  6943  000056  0C29               	dw	_Default_ISR shr (0+2)
  6944                           
  6945                           ; Vector 40 : INT1
  6946  000058  0C29               	dw	_Default_ISR shr (0+2)
  6947                           
  6948                           ; Vector 41 : CMP2
  6949  00005A  0C29               	dw	_Default_ISR shr (0+2)
  6950                           
  6951                           ; Vector 42 : DMA2SCNT
  6952  00005C  0C29               	dw	_Default_ISR shr (0+2)
  6953                           
  6954                           ; Vector 43 : DMA2DCNT
  6955  00005E  0C29               	dw	_Default_ISR shr (0+2)
  6956                           
  6957                           ; Vector 44 : DMA2OR
  6958  000060  0C29               	dw	_Default_ISR shr (0+2)
  6959                           
  6960                           ; Vector 45 : DMA2A
  6961  000062  0C29               	dw	_Default_ISR shr (0+2)
  6962                           
  6963                           ; Vector 46 : I2C2RX
  6964  000064  0C29               	dw	_Default_ISR shr (0+2)
  6965                           
  6966                           ; Vector 47 : I2C2TX
  6967  000066  0C29               	dw	_Default_ISR shr (0+2)
  6968                           
  6969                           ; Vector 48 : I2C2
  6970  000068  0C29               	dw	_Default_ISR shr (0+2)
  6971                           
  6972                           ; Vector 49 : I2C2E
  6973  00006A  0C29               	dw	_Default_ISR shr (0+2)
  6974                           
  6975                           ; Vector 50 : U2RX
  6976  00006C  0B8E               	dw	_UART2_rx_vect_isr shr (0+2)
  6977                           
  6978                           ; Vector 51 : U2TX
  6979  00006E  0B85               	dw	_UART2_tx_vect_isr shr (0+2)
  6980                           
  6981                           ; Vector 52 : U2E
  6982  000070  0C29               	dw	_Default_ISR shr (0+2)
  6983                           
  6984                           ; Vector 53 : U2
  6985  000072  0C29               	dw	_Default_ISR shr (0+2)
  6986                           
  6987                           ; Vector 54 : TMR3
  6988  000074  0C29               	dw	_Default_ISR shr (0+2)
  6989                           
  6990                           ; Vector 55 : TMR3G
  6991  000076  0C29               	dw	_Default_ISR shr (0+2)
  6992                           
  6993                           ; Vector 56 : TMR4
  6994  000078  0C29               	dw	_Default_ISR shr (0+2)
  6995                           
  6996                           ; Vector 57 : CCP2
  6997  00007A  0C29               	dw	_Default_ISR shr (0+2)
  6998                           
  6999                           ; Vector 58 : Undefined
  7000  00007C  002B               	dw	ivt0x8_undefint shr (0+2)
  7001                           
  7002                           ; Vector 59 : CWG2
  7003  00007E  0C29               	dw	_Default_ISR shr (0+2)
  7004                           
  7005                           ; Vector 60 : CLC2
  7006  000080  0C29               	dw	_Default_ISR shr (0+2)
  7007                           
  7008                           ; Vector 61 : INT2
  7009  000082  0C29               	dw	_Default_ISR shr (0+2)
  7010                           
  7011                           ; Vector 62 : Undefined
  7012  000084  002B               	dw	ivt0x8_undefint shr (0+2)
  7013                           
  7014                           ; Vector 63 : Undefined
  7015  000086  002B               	dw	ivt0x8_undefint shr (0+2)
  7016                           
  7017                           ; Vector 64 : Undefined
  7018  000088  002B               	dw	ivt0x8_undefint shr (0+2)
  7019                           
  7020                           ; Vector 65 : Undefined
  7021  00008A  002B               	dw	ivt0x8_undefint shr (0+2)
  7022                           
  7023                           ; Vector 66 : Undefined
  7024  00008C  002B               	dw	ivt0x8_undefint shr (0+2)
  7025                           
  7026                           ; Vector 67 : Undefined
  7027  00008E  002B               	dw	ivt0x8_undefint shr (0+2)
  7028                           
  7029                           ; Vector 68 : Undefined
  7030  000090  002B               	dw	ivt0x8_undefint shr (0+2)
  7031                           
  7032                           ; Vector 69 : Undefined
  7033  000092  002B               	dw	ivt0x8_undefint shr (0+2)
  7034                           
  7035                           ; Vector 70 : TMR5
  7036  000094  0AFF               	dw	_TMR5_ISR shr (0+2)
  7037                           
  7038                           ; Vector 71 : TMR5G
  7039  000096  0C29               	dw	_Default_ISR shr (0+2)
  7040                           
  7041                           ; Vector 72 : TMR6
  7042  000098  0B4E               	dw	_TMR6_ISR shr (0+2)
  7043                           
  7044                           ; Vector 73 : CCP3
  7045  00009A  0C29               	dw	_Default_ISR shr (0+2)
  7046                           
  7047                           ; Vector 74 : CWG3
  7048  00009C  0C29               	dw	_Default_ISR shr (0+2)
  7049                           
  7050                           ; Vector 75 : CLC3
  7051  00009E  0C29               	dw	_Default_ISR shr (0+2)
  7052                           
  7053                           ; Vector 76 : Undefined
  7054  0000A0  002B               	dw	ivt0x8_undefint shr (0+2)
  7055                           
  7056                           ; Vector 77 : Undefined
  7057  0000A2  002B               	dw	ivt0x8_undefint shr (0+2)
  7058                           
  7059                           ; Vector 78 : Undefined
  7060  0000A4  002B               	dw	ivt0x8_undefint shr (0+2)
  7061                           
  7062                           ; Vector 79 : Undefined
  7063  0000A6  002B               	dw	ivt0x8_undefint shr (0+2)
  7064                           
  7065                           ; Vector 80 : CCP4
  7066  0000A8  0C29               	dw	_Default_ISR shr (0+2)
  7067                           
  7068                           ; Vector 81 : CLC4
  7069  0000AA  0C29               	dw	_Default_ISR shr (0+2)
  7070  0000AC                     ivt0x8_undefint:
  7071                           	opt callstack 0
  7072  0000AC  00FF               	reset	
  7073                           
  7074                           	psect	text69
  7075  000000                     __ptext69:
  7076                           	opt callstack 0
  7077                           
  7078                           	psect	rparam
  7079  0000                     tosu	equ	0x3FFF
  7080                           tosh	equ	0x3FFE
  7081                           tosl	equ	0x3FFD
  7082                           stkptr	equ	0x3FFC
  7083                           pclatu	equ	0x3FFB
  7084                           pclath	equ	0x3FFA
  7085                           pcl	equ	0x3FF9
  7086                           tblptru	equ	0x3FF8
  7087                           tblptrh	equ	0x3FF7
  7088                           tblptrl	equ	0x3FF6
  7089                           tablat	equ	0x3FF5
  7090                           prodh	equ	0x3FF4
  7091                           prodl	equ	0x3FF3
  7092                           indf0	equ	0x3FEF
  7093                           postinc0	equ	0x3FEE
  7094                           postdec0	equ	0x3FED
  7095                           preinc0	equ	0x3FEC
  7096                           plusw0	equ	0x3FEB
  7097                           fsr0h	equ	0x3FEA
  7098                           fsr0l	equ	0x3FE9
  7099                           wreg	equ	0x3FE8
  7100                           indf1	equ	0x3FE7
  7101                           postinc1	equ	0x3FE6
  7102                           postdec1	equ	0x3FE5
  7103                           preinc1	equ	0x3FE4
  7104                           plusw1	equ	0x3FE3
  7105                           fsr1h	equ	0x3FE2
  7106                           fsr1l	equ	0x3FE1
  7107                           bsr	equ	0x3FE0
  7108                           indf2	equ	0x3FDF
  7109                           postinc2	equ	0x3FDE
  7110                           postdec2	equ	0x3FDD
  7111                           preinc2	equ	0x3FDC
  7112                           plusw2	equ	0x3FDB
  7113                           fsr2h	equ	0x3FDA
  7114                           fsr2l	equ	0x3FD9
  7115                           status	equ	0x3FD8


Data Sizes:
    Strings     27
    Constant    0
    Data        7
    BSS         186
    Persistent  0
    Stack       0

Auto Spaces:
    Space          Size  Autos    Used
    COMRAM           95     55      89
    BANK0           160      0     159
    BANK1           256      6       6
    BANK2           256      0       0
    BANK3           256      0       0
    BANK4           256      0       0
    BANK5           256      0       0
    BANK6           256      0       0
    BANK7           256      0       0
    BANK8           256      0       0
    BANK9           256      0       0
    BANK10          256      0       0
    BANK11          256      0       0
    BANK12          256      0       0
    BANK13          256      0       0
    BANK14          256      0       0
    BANK15          256      0       0
    BANK16          256      0       0
    BANK17          256      0       0
    BANK18          256      0       0
    BANK19          256      0       0
    BANK20          256      0       0
    BANK21          256      0       0
    BANK22          256      0       0
    BANK23          256      0       0
    BANK24          256      0       0
    BANK25          256      0       0
    BANK26          256      0       0
    BANK27          256      0       0
    BANK28          256      0       0
    BANK29          256      0       0
    BANK30          256      0       0
    BANK31          256      0       0

Pointer List with Targets:

    strlen@s	PTR const unsigned char  size(2) Largest target is 7
		 -> ?_printf(COMRAM[2]), stoa@nuls(COMRAM[7]), STR_12(CODE[4]), STR_10(CODE[4]), 
		 -> STR_8(CODE[4]), STR_6(CODE[4]), STR_4(CODE[4]), STR_2(CODE[4]), 

    strlen@a	PTR const unsigned char  size(2) Largest target is 7
		 -> ?_printf(COMRAM[2]), stoa@nuls(COMRAM[7]), STR_12(CODE[4]), STR_10(CODE[4]), 
		 -> STR_8(CODE[4]), STR_6(CODE[4]), STR_4(CODE[4]), STR_2(CODE[4]), 

    printf@fmt	PTR const unsigned char  size(1) Largest target is 3
		 -> STR_11(CODE[3]), STR_9(CODE[3]), STR_7(CODE[3]), STR_5(CODE[3]), 
		 -> STR_3(CODE[3]), STR_1(CODE[3]), 

    printf@ap	PTR void [1] size(1) Largest target is 2
		 -> ?_printf(COMRAM[2]), 

    S2803_IO_FILE$buffer	PTR unsigned char  size(2) Largest target is 0

    fputc@fp.buffer	PTR unsigned char  size(2) Largest target is 0

    fputc@fp	PTR struct _IO_FILE size(2) Largest target is 0
		 -> NULL(NULL[0]), 

    vfprintf@ap	PTR PTR void  size(1) Largest target is 1
		 -> printf@ap(COMRAM[1]), 

    vfprintf@fp	PTR struct _IO_FILE size(2) Largest target is 0
		 -> NULL(NULL[0]), 

    vfprintf@fmt	PTR const unsigned char  size(1) Largest target is 3
		 -> STR_11(CODE[3]), STR_9(CODE[3]), STR_7(CODE[3]), STR_5(CODE[3]), 
		 -> STR_3(CODE[3]), STR_1(CODE[3]), 

    vfprintf@cfmt	PTR unsigned char  size(1) Largest target is 3
		 -> STR_11(CODE[3]), STR_9(CODE[3]), STR_7(CODE[3]), STR_5(CODE[3]), 
		 -> STR_3(CODE[3]), STR_1(CODE[3]), 

    vfpfcnvrt@fp	PTR struct _IO_FILE size(2) Largest target is 0
		 -> NULL(NULL[0]), 

    vfpfcnvrt@ap	PTR PTR void  size(1) Largest target is 1
		 -> printf@ap(COMRAM[1]), 

    vfpfcnvrt@cp	PTR unsigned char  size(2) Largest target is 2
		 -> ?_printf(COMRAM[2]), STR_12(CODE[4]), STR_10(CODE[4]), STR_8(CODE[4]), 
		 -> STR_6(CODE[4]), STR_4(CODE[4]), STR_2(CODE[4]), 

    vfpfcnvrt@fmt	PTR PTR unsigned char  size(1) Largest target is 1
		 -> vfprintf@cfmt(COMRAM[1]), 

    stoa@fp	PTR struct _IO_FILE size(2) Largest target is 0
		 -> NULL(NULL[0]), 

    stoa@s	PTR unsigned char  size(2) Largest target is 2
		 -> ?_printf(COMRAM[2]), STR_12(CODE[4]), STR_10(CODE[4]), STR_8(CODE[4]), 
		 -> STR_6(CODE[4]), STR_4(CODE[4]), STR_2(CODE[4]), 

    stoa@cp	PTR unsigned char  size(2) Largest target is 7
		 -> ?_printf(COMRAM[2]), stoa@nuls(COMRAM[7]), STR_12(CODE[4]), STR_10(CODE[4]), 
		 -> STR_8(CODE[4]), STR_6(CODE[4]), STR_4(CODE[4]), STR_2(CODE[4]), 

    TMR5_SetInterruptHandler@InterruptHandler	PTR FTN()void  size(3) Largest target is 1
		 -> TMR5_DefaultInterruptHandler(), 

    TMR5_InterruptHandler	PTR FTN()void  size(3) Largest target is 1
		 -> TMR5_DefaultInterruptHandler(), Absolute function(), 

    TMR6_SetInterruptHandler@InterruptHandler	PTR FTN()void  size(3) Largest target is 1
		 -> TMR6_DefaultInterruptHandler(), 

    TMR6_InterruptHandler	PTR FTN()void  size(3) Largest target is 1
		 -> TMR6_DefaultInterruptHandler(), Absolute function(), 

    UART2_SetTxInterruptHandler@InterruptHandler	PTR FTN()void  size(3) Largest target is 1
		 -> UART2_Transmit_ISR(), 

    UART2_SetRxInterruptHandler@InterruptHandler	PTR FTN()void  size(3) Largest target is 1
		 -> UART2_Receive_ISR(), 

    UART2_SetErrorHandler@interruptHandler	PTR FTN()void  size(3) Largest target is 1
		 -> UART2_DefaultErrorHandler(), 

    UART2_SetOverrunErrorHandler@interruptHandler	PTR FTN()void  size(3) Largest target is 1
		 -> UART2_DefaultOverrunErrorHandler(), 

    UART2_SetFramingErrorHandler@interruptHandler	PTR FTN()void  size(3) Largest target is 1
		 -> UART2_DefaultFramingErrorHandler(), 

    UART2_ErrorHandler	PTR FTN()void  size(3) Largest target is 1
		 -> UART2_DefaultErrorHandler(), Absolute function(), 

    UART2_OverrunErrorHandler	PTR FTN()void  size(3) Largest target is 1
		 -> UART2_DefaultOverrunErrorHandler(), Absolute function(), 

    UART2_FramingErrorHandler	PTR FTN()void  size(3) Largest target is 1
		 -> UART2_DefaultFramingErrorHandler(), Absolute function(), 

    UART2_RxInterruptHandler	PTR FTN()void  size(3) Largest target is 1
		 -> UART2_Receive_ISR(), Absolute function(), 

    UART2_TxInterruptHandler	PTR FTN()void  size(3) Largest target is 1
		 -> UART2_Transmit_ISR(), Absolute function(), 

    UART1_SetTxInterruptHandler@InterruptHandler	PTR FTN()void  size(3) Largest target is 1
		 -> UART1_Transmit_ISR(), 

    UART1_SetRxInterruptHandler@InterruptHandler	PTR FTN()void  size(3) Largest target is 1
		 -> UART1_Receive_ISR(), 

    UART1_SetErrorHandler@interruptHandler	PTR FTN()void  size(3) Largest target is 1
		 -> UART1_DefaultErrorHandler(), 

    UART1_SetOverrunErrorHandler@interruptHandler	PTR FTN()void  size(3) Largest target is 1
		 -> UART1_DefaultOverrunErrorHandler(), 

    UART1_SetFramingErrorHandler@interruptHandler	PTR FTN()void  size(3) Largest target is 1
		 -> UART1_DefaultFramingErrorHandler(), 

    UART1_ErrorHandler	PTR FTN()void  size(3) Largest target is 1
		 -> Absolute function(), UART1_DefaultErrorHandler(), 

    UART1_OverrunErrorHandler	PTR FTN()void  size(3) Largest target is 1
		 -> Absolute function(), UART1_DefaultOverrunErrorHandler(), 

    UART1_FramingErrorHandler	PTR FTN()void  size(3) Largest target is 1
		 -> Absolute function(), UART1_DefaultFramingErrorHandler(), 

    UART1_RxInterruptHandler	PTR FTN()void  size(3) Largest target is 1
		 -> Absolute function(), UART1_Receive_ISR(), 

    UART1_TxInterruptHandler	PTR FTN()void  size(3) Largest target is 1
		 -> Absolute function(), UART1_Transmit_ISR(), 


Critical Paths under _main in COMRAM

    _work_sw->_StartTimer
    _SYSTEM_Initialize->_TMR5_Initialize
    _UART2_Initialize->_UART2_SetErrorHandler
    _UART2_Initialize->_UART2_SetFramingErrorHandler
    _UART2_Initialize->_UART2_SetOverrunErrorHandler
    _UART2_Initialize->_UART2_SetRxInterruptHandler
    _UART2_Initialize->_UART2_SetTxInterruptHandler
    _UART1_Initialize->_UART1_SetErrorHandler
    _UART1_Initialize->_UART1_SetFramingErrorHandler
    _UART1_Initialize->_UART1_SetOverrunErrorHandler
    _UART1_Initialize->_UART1_SetRxInterruptHandler
    _UART1_Initialize->_UART1_SetTxInterruptHandler
    _TMR6_Initialize->_TMR6_SetInterruptHandler
    _TMR5_Initialize->_TMR5_SetInterruptHandler
    _Digital232_init->_printf
    _Digital232_RW->_printf
    _printf->_vfprintf
    _vfprintf->_vfpfcnvrt
    _vfpfcnvrt->_stoa
    _stoa->_fputc
    _fputc->_putch
    _putch->_UART2_Write
    _WaitMs->_StartTimer

Critical Paths under _Default_ISR in COMRAM

    None.

Critical Paths under _UART1_tx_vect_isr in COMRAM

    None.

Critical Paths under _UART1_rx_vect_isr in COMRAM

    None.

Critical Paths under _UART2_tx_vect_isr in COMRAM

    None.

Critical Paths under _UART2_rx_vect_isr in COMRAM

    None.

Critical Paths under _TMR6_ISR in COMRAM

    _TMR6_ISR->_TMR6_DefaultInterruptHandler

Critical Paths under _TMR5_ISR in COMRAM

    _TMR5_ISR->_TMR5_WriteTimer
    _TMR5_CallBack->_TMR5_DefaultInterruptHandler

Critical Paths under _main in BANK0

    None.

Critical Paths under _Default_ISR in BANK0

    None.

Critical Paths under _UART1_tx_vect_isr in BANK0

    None.

Critical Paths under _UART1_rx_vect_isr in BANK0

    None.

Critical Paths under _UART2_tx_vect_isr in BANK0

    None.

Critical Paths under _UART2_rx_vect_isr in BANK0

    None.

Critical Paths under _TMR6_ISR in BANK0

    None.

Critical Paths under _TMR5_ISR in BANK0

    None.

Critical Paths under _main in BANK1

    _main->_Digital232_RW

Critical Paths under _Default_ISR in BANK1

    None.

Critical Paths under _UART1_tx_vect_isr in BANK1

    None.

Critical Paths under _UART1_rx_vect_isr in BANK1

    None.

Critical Paths under _UART2_tx_vect_isr in BANK1

    None.

Critical Paths under _UART2_rx_vect_isr in BANK1

    None.

Critical Paths under _TMR6_ISR in BANK1

    None.

Critical Paths under _TMR5_ISR in BANK1

    None.

Critical Paths under _main in BANK2

    None.

Critical Paths under _Default_ISR in BANK2

    None.

Critical Paths under _UART1_tx_vect_isr in BANK2

    None.

Critical Paths under _UART1_rx_vect_isr in BANK2

    None.

Critical Paths under _UART2_tx_vect_isr in BANK2

    None.

Critical Paths under _UART2_rx_vect_isr in BANK2

    None.

Critical Paths under _TMR6_ISR in BANK2

    None.

Critical Paths under _TMR5_ISR in BANK2

    None.

Critical Paths under _main in BANK3

    None.

Critical Paths under _Default_ISR in BANK3

    None.

Critical Paths under _UART1_tx_vect_isr in BANK3

    None.

Critical Paths under _UART1_rx_vect_isr in BANK3

    None.

Critical Paths under _UART2_tx_vect_isr in BANK3

    None.

Critical Paths under _UART2_rx_vect_isr in BANK3

    None.

Critical Paths under _TMR6_ISR in BANK3

    None.

Critical Paths under _TMR5_ISR in BANK3

    None.

Critical Paths under _main in BANK4

    None.

Critical Paths under _Default_ISR in BANK4

    None.

Critical Paths under _UART1_tx_vect_isr in BANK4

    None.

Critical Paths under _UART1_rx_vect_isr in BANK4

    None.

Critical Paths under _UART2_tx_vect_isr in BANK4

    None.

Critical Paths under _UART2_rx_vect_isr in BANK4

    None.

Critical Paths under _TMR6_ISR in BANK4

    None.

Critical Paths under _TMR5_ISR in BANK4

    None.

Critical Paths under _main in BANK5

    None.

Critical Paths under _Default_ISR in BANK5

    None.

Critical Paths under _UART1_tx_vect_isr in BANK5

    None.

Critical Paths under _UART1_rx_vect_isr in BANK5

    None.

Critical Paths under _UART2_tx_vect_isr in BANK5

    None.

Critical Paths under _UART2_rx_vect_isr in BANK5

    None.

Critical Paths under _TMR6_ISR in BANK5

    None.

Critical Paths under _TMR5_ISR in BANK5

    None.

Critical Paths under _main in BANK6

    None.

Critical Paths under _Default_ISR in BANK6

    None.

Critical Paths under _UART1_tx_vect_isr in BANK6

    None.

Critical Paths under _UART1_rx_vect_isr in BANK6

    None.

Critical Paths under _UART2_tx_vect_isr in BANK6

    None.

Critical Paths under _UART2_rx_vect_isr in BANK6

    None.

Critical Paths under _TMR6_ISR in BANK6

    None.

Critical Paths under _TMR5_ISR in BANK6

    None.

Critical Paths under _main in BANK7

    None.

Critical Paths under _Default_ISR in BANK7

    None.

Critical Paths under _UART1_tx_vect_isr in BANK7

    None.

Critical Paths under _UART1_rx_vect_isr in BANK7

    None.

Critical Paths under _UART2_tx_vect_isr in BANK7

    None.

Critical Paths under _UART2_rx_vect_isr in BANK7

    None.

Critical Paths under _TMR6_ISR in BANK7

    None.

Critical Paths under _TMR5_ISR in BANK7

    None.

Critical Paths under _main in BANK8

    None.

Critical Paths under _Default_ISR in BANK8

    None.

Critical Paths under _UART1_tx_vect_isr in BANK8

    None.

Critical Paths under _UART1_rx_vect_isr in BANK8

    None.

Critical Paths under _UART2_tx_vect_isr in BANK8

    None.

Critical Paths under _UART2_rx_vect_isr in BANK8

    None.

Critical Paths under _TMR6_ISR in BANK8

    None.

Critical Paths under _TMR5_ISR in BANK8

    None.

Critical Paths under _main in BANK9

    None.

Critical Paths under _Default_ISR in BANK9

    None.

Critical Paths under _UART1_tx_vect_isr in BANK9

    None.

Critical Paths under _UART1_rx_vect_isr in BANK9

    None.

Critical Paths under _UART2_tx_vect_isr in BANK9

    None.

Critical Paths under _UART2_rx_vect_isr in BANK9

    None.

Critical Paths under _TMR6_ISR in BANK9

    None.

Critical Paths under _TMR5_ISR in BANK9

    None.

Critical Paths under _main in BANK10

    None.

Critical Paths under _Default_ISR in BANK10

    None.

Critical Paths under _UART1_tx_vect_isr in BANK10

    None.

Critical Paths under _UART1_rx_vect_isr in BANK10

    None.

Critical Paths under _UART2_tx_vect_isr in BANK10

    None.

Critical Paths under _UART2_rx_vect_isr in BANK10

    None.

Critical Paths under _TMR6_ISR in BANK10

    None.

Critical Paths under _TMR5_ISR in BANK10

    None.

Critical Paths under _main in BANK11

    None.

Critical Paths under _Default_ISR in BANK11

    None.

Critical Paths under _UART1_tx_vect_isr in BANK11

    None.

Critical Paths under _UART1_rx_vect_isr in BANK11

    None.

Critical Paths under _UART2_tx_vect_isr in BANK11

    None.

Critical Paths under _UART2_rx_vect_isr in BANK11

    None.

Critical Paths under _TMR6_ISR in BANK11

    None.

Critical Paths under _TMR5_ISR in BANK11

    None.

Critical Paths under _main in BANK12

    None.

Critical Paths under _Default_ISR in BANK12

    None.

Critical Paths under _UART1_tx_vect_isr in BANK12

    None.

Critical Paths under _UART1_rx_vect_isr in BANK12

    None.

Critical Paths under _UART2_tx_vect_isr in BANK12

    None.

Critical Paths under _UART2_rx_vect_isr in BANK12

    None.

Critical Paths under _TMR6_ISR in BANK12

    None.

Critical Paths under _TMR5_ISR in BANK12

    None.

Critical Paths under _main in BANK13

    None.

Critical Paths under _Default_ISR in BANK13

    None.

Critical Paths under _UART1_tx_vect_isr in BANK13

    None.

Critical Paths under _UART1_rx_vect_isr in BANK13

    None.

Critical Paths under _UART2_tx_vect_isr in BANK13

    None.

Critical Paths under _UART2_rx_vect_isr in BANK13

    None.

Critical Paths under _TMR6_ISR in BANK13

    None.

Critical Paths under _TMR5_ISR in BANK13

    None.

Critical Paths under _main in BANK14

    None.

Critical Paths under _Default_ISR in BANK14

    None.

Critical Paths under _UART1_tx_vect_isr in BANK14

    None.

Critical Paths under _UART1_rx_vect_isr in BANK14

    None.

Critical Paths under _UART2_tx_vect_isr in BANK14

    None.

Critical Paths under _UART2_rx_vect_isr in BANK14

    None.

Critical Paths under _TMR6_ISR in BANK14

    None.

Critical Paths under _TMR5_ISR in BANK14

    None.

Critical Paths under _main in BANK15

    None.

Critical Paths under _Default_ISR in BANK15

    None.

Critical Paths under _UART1_tx_vect_isr in BANK15

    None.

Critical Paths under _UART1_rx_vect_isr in BANK15

    None.

Critical Paths under _UART2_tx_vect_isr in BANK15

    None.

Critical Paths under _UART2_rx_vect_isr in BANK15

    None.

Critical Paths under _TMR6_ISR in BANK15

    None.

Critical Paths under _TMR5_ISR in BANK15

    None.

Critical Paths under _main in BANK16

    None.

Critical Paths under _Default_ISR in BANK16

    None.

Critical Paths under _UART1_tx_vect_isr in BANK16

    None.

Critical Paths under _UART1_rx_vect_isr in BANK16

    None.

Critical Paths under _UART2_tx_vect_isr in BANK16

    None.

Critical Paths under _UART2_rx_vect_isr in BANK16

    None.

Critical Paths under _TMR6_ISR in BANK16

    None.

Critical Paths under _TMR5_ISR in BANK16

    None.

Critical Paths under _main in BANK17

    None.

Critical Paths under _Default_ISR in BANK17

    None.

Critical Paths under _UART1_tx_vect_isr in BANK17

    None.

Critical Paths under _UART1_rx_vect_isr in BANK17

    None.

Critical Paths under _UART2_tx_vect_isr in BANK17

    None.

Critical Paths under _UART2_rx_vect_isr in BANK17

    None.

Critical Paths under _TMR6_ISR in BANK17

    None.

Critical Paths under _TMR5_ISR in BANK17

    None.

Critical Paths under _main in BANK18

    None.

Critical Paths under _Default_ISR in BANK18

    None.

Critical Paths under _UART1_tx_vect_isr in BANK18

    None.

Critical Paths under _UART1_rx_vect_isr in BANK18

    None.

Critical Paths under _UART2_tx_vect_isr in BANK18

    None.

Critical Paths under _UART2_rx_vect_isr in BANK18

    None.

Critical Paths under _TMR6_ISR in BANK18

    None.

Critical Paths under _TMR5_ISR in BANK18

    None.

Critical Paths under _main in BANK19

    None.

Critical Paths under _Default_ISR in BANK19

    None.

Critical Paths under _UART1_tx_vect_isr in BANK19

    None.

Critical Paths under _UART1_rx_vect_isr in BANK19

    None.

Critical Paths under _UART2_tx_vect_isr in BANK19

    None.

Critical Paths under _UART2_rx_vect_isr in BANK19

    None.

Critical Paths under _TMR6_ISR in BANK19

    None.

Critical Paths under _TMR5_ISR in BANK19

    None.

Critical Paths under _main in BANK20

    None.

Critical Paths under _Default_ISR in BANK20

    None.

Critical Paths under _UART1_tx_vect_isr in BANK20

    None.

Critical Paths under _UART1_rx_vect_isr in BANK20

    None.

Critical Paths under _UART2_tx_vect_isr in BANK20

    None.

Critical Paths under _UART2_rx_vect_isr in BANK20

    None.

Critical Paths under _TMR6_ISR in BANK20

    None.

Critical Paths under _TMR5_ISR in BANK20

    None.

Critical Paths under _main in BANK21

    None.

Critical Paths under _Default_ISR in BANK21

    None.

Critical Paths under _UART1_tx_vect_isr in BANK21

    None.

Critical Paths under _UART1_rx_vect_isr in BANK21

    None.

Critical Paths under _UART2_tx_vect_isr in BANK21

    None.

Critical Paths under _UART2_rx_vect_isr in BANK21

    None.

Critical Paths under _TMR6_ISR in BANK21

    None.

Critical Paths under _TMR5_ISR in BANK21

    None.

Critical Paths under _main in BANK22

    None.

Critical Paths under _Default_ISR in BANK22

    None.

Critical Paths under _UART1_tx_vect_isr in BANK22

    None.

Critical Paths under _UART1_rx_vect_isr in BANK22

    None.

Critical Paths under _UART2_tx_vect_isr in BANK22

    None.

Critical Paths under _UART2_rx_vect_isr in BANK22

    None.

Critical Paths under _TMR6_ISR in BANK22

    None.

Critical Paths under _TMR5_ISR in BANK22

    None.

Critical Paths under _main in BANK23

    None.

Critical Paths under _Default_ISR in BANK23

    None.

Critical Paths under _UART1_tx_vect_isr in BANK23

    None.

Critical Paths under _UART1_rx_vect_isr in BANK23

    None.

Critical Paths under _UART2_tx_vect_isr in BANK23

    None.

Critical Paths under _UART2_rx_vect_isr in BANK23

    None.

Critical Paths under _TMR6_ISR in BANK23

    None.

Critical Paths under _TMR5_ISR in BANK23

    None.

Critical Paths under _main in BANK24

    None.

Critical Paths under _Default_ISR in BANK24

    None.

Critical Paths under _UART1_tx_vect_isr in BANK24

    None.

Critical Paths under _UART1_rx_vect_isr in BANK24

    None.

Critical Paths under _UART2_tx_vect_isr in BANK24

    None.

Critical Paths under _UART2_rx_vect_isr in BANK24

    None.

Critical Paths under _TMR6_ISR in BANK24

    None.

Critical Paths under _TMR5_ISR in BANK24

    None.

Critical Paths under _main in BANK25

    None.

Critical Paths under _Default_ISR in BANK25

    None.

Critical Paths under _UART1_tx_vect_isr in BANK25

    None.

Critical Paths under _UART1_rx_vect_isr in BANK25

    None.

Critical Paths under _UART2_tx_vect_isr in BANK25

    None.

Critical Paths under _UART2_rx_vect_isr in BANK25

    None.

Critical Paths under _TMR6_ISR in BANK25

    None.

Critical Paths under _TMR5_ISR in BANK25

    None.

Critical Paths under _main in BANK26

    None.

Critical Paths under _Default_ISR in BANK26

    None.

Critical Paths under _UART1_tx_vect_isr in BANK26

    None.

Critical Paths under _UART1_rx_vect_isr in BANK26

    None.

Critical Paths under _UART2_tx_vect_isr in BANK26

    None.

Critical Paths under _UART2_rx_vect_isr in BANK26

    None.

Critical Paths under _TMR6_ISR in BANK26

    None.

Critical Paths under _TMR5_ISR in BANK26

    None.

Critical Paths under _main in BANK27

    None.

Critical Paths under _Default_ISR in BANK27

    None.

Critical Paths under _UART1_tx_vect_isr in BANK27

    None.

Critical Paths under _UART1_rx_vect_isr in BANK27

    None.

Critical Paths under _UART2_tx_vect_isr in BANK27

    None.

Critical Paths under _UART2_rx_vect_isr in BANK27

    None.

Critical Paths under _TMR6_ISR in BANK27

    None.

Critical Paths under _TMR5_ISR in BANK27

    None.

Critical Paths under _main in BANK28

    None.

Critical Paths under _Default_ISR in BANK28

    None.

Critical Paths under _UART1_tx_vect_isr in BANK28

    None.

Critical Paths under _UART1_rx_vect_isr in BANK28

    None.

Critical Paths under _UART2_tx_vect_isr in BANK28

    None.

Critical Paths under _UART2_rx_vect_isr in BANK28

    None.

Critical Paths under _TMR6_ISR in BANK28

    None.

Critical Paths under _TMR5_ISR in BANK28

    None.

Critical Paths under _main in BANK29

    None.

Critical Paths under _Default_ISR in BANK29

    None.

Critical Paths under _UART1_tx_vect_isr in BANK29

    None.

Critical Paths under _UART1_rx_vect_isr in BANK29

    None.

Critical Paths under _UART2_tx_vect_isr in BANK29

    None.

Critical Paths under _UART2_rx_vect_isr in BANK29

    None.

Critical Paths under _TMR6_ISR in BANK29

    None.

Critical Paths under _TMR5_ISR in BANK29

    None.

Critical Paths under _main in BANK30

    None.

Critical Paths under _Default_ISR in BANK30

    None.

Critical Paths under _UART1_tx_vect_isr in BANK30

    None.

Critical Paths under _UART1_rx_vect_isr in BANK30

    None.

Critical Paths under _UART2_tx_vect_isr in BANK30

    None.

Critical Paths under _UART2_rx_vect_isr in BANK30

    None.

Critical Paths under _TMR6_ISR in BANK30

    None.

Critical Paths under _TMR5_ISR in BANK30

    None.

Critical Paths under _main in BANK31

    None.

Critical Paths under _Default_ISR in BANK31

    None.

Critical Paths under _UART1_tx_vect_isr in BANK31

    None.

Critical Paths under _UART1_rx_vect_isr in BANK31

    None.

Critical Paths under _UART2_tx_vect_isr in BANK31

    None.

Critical Paths under _UART2_rx_vect_isr in BANK31

    None.

Critical Paths under _TMR6_ISR in BANK31

    None.

Critical Paths under _TMR5_ISR in BANK31

    None.

Call Graph Tables:

 ---------------------------------------------------------------------------------
 (Depth) Function   	        Calls       Base Space   Used Autos Params    Refs
 ---------------------------------------------------------------------------------
 (0) _main                                                 2     2      0   17920
                                              4 BANK1      2     2      0
                      _Digital232_RW
                    _Digital232_init
                  _SYSTEM_Initialize
                         _StartTimer
                        _UART1_Write
                  _UART1_is_tx_ready
                            _work_sw
 ---------------------------------------------------------------------------------
 (1) _work_sw                                              0     0      0     543
                         _StartTimer
                          _TimerDone
 ---------------------------------------------------------------------------------
 (1) _UART1_is_tx_ready                                    0     0      0       0
 ---------------------------------------------------------------------------------
 (1) _UART1_Write                                          1     1      0      62
                                              5 COMRAM     1     1      0
 ---------------------------------------------------------------------------------
 (1) _SYSTEM_Initialize                                    0     0      0    1486
                    _ADCC_Initialize
               _INTERRUPT_Initialize
              _OSCILLATOR_Initialize
             _PIN_MANAGER_Initialize
                     _PMD_Initialize
                    _PWM8_Initialize
                    _TMR2_Initialize
                    _TMR5_Initialize
                    _TMR6_Initialize
                   _UART1_Initialize
                   _UART2_Initialize
 ---------------------------------------------------------------------------------
 (2) _UART2_Initialize                                     0     0      0     605
              _UART2_SetErrorHandler
       _UART2_SetFramingErrorHandler
       _UART2_SetOverrunErrorHandler
        _UART2_SetRxInterruptHandler
        _UART2_SetTxInterruptHandler
 ---------------------------------------------------------------------------------
 (3) _UART2_SetTxInterruptHandler                          3     0      3     121
                                              5 COMRAM     3     0      3
 ---------------------------------------------------------------------------------
 (3) _UART2_SetRxInterruptHandler                          3     0      3     121
                                              5 COMRAM     3     0      3
 ---------------------------------------------------------------------------------
 (3) _UART2_SetOverrunErrorHandler                         3     0      3     121
                                              5 COMRAM     3     0      3
 ---------------------------------------------------------------------------------
 (3) _UART2_SetFramingErrorHandler                         3     0      3     121
                                              5 COMRAM     3     0      3
 ---------------------------------------------------------------------------------
 (3) _UART2_SetErrorHandler                                3     0      3     121
                                              5 COMRAM     3     0      3
 ---------------------------------------------------------------------------------
 (2) _UART1_Initialize                                     0     0      0     605
              _UART1_SetErrorHandler
       _UART1_SetFramingErrorHandler
       _UART1_SetOverrunErrorHandler
        _UART1_SetRxInterruptHandler
        _UART1_SetTxInterruptHandler
 ---------------------------------------------------------------------------------
 (3) _UART1_SetTxInterruptHandler                          3     0      3     121
                                              5 COMRAM     3     0      3
 ---------------------------------------------------------------------------------
 (3) _UART1_SetRxInterruptHandler                          3     0      3     121
                                              5 COMRAM     3     0      3
 ---------------------------------------------------------------------------------
 (3) _UART1_SetOverrunErrorHandler                         3     0      3     121
                                              5 COMRAM     3     0      3
 ---------------------------------------------------------------------------------
 (3) _UART1_SetFramingErrorHandler                         3     0      3     121
                                              5 COMRAM     3     0      3
 ---------------------------------------------------------------------------------
 (3) _UART1_SetErrorHandler                                3     0      3     121
                                              5 COMRAM     3     0      3
 ---------------------------------------------------------------------------------
 (2) _TMR6_Initialize                                      0     0      0     121
           _TMR6_SetInterruptHandler
 ---------------------------------------------------------------------------------
 (3) _TMR6_SetInterruptHandler                             3     0      3     121
                                              5 COMRAM     3     0      3
 ---------------------------------------------------------------------------------
 (2) _TMR5_Initialize                                      2     2      0     121
                                              8 COMRAM     2     2      0
           _TMR5_SetInterruptHandler
 ---------------------------------------------------------------------------------
 (3) _TMR5_SetInterruptHandler                             3     0      3     121
                                              5 COMRAM     3     0      3
 ---------------------------------------------------------------------------------
 (2) _TMR2_Initialize                                      0     0      0       0
 ---------------------------------------------------------------------------------
 (2) _PWM8_Initialize                                      0     0      0       0
 ---------------------------------------------------------------------------------
 (2) _PMD_Initialize                                       0     0      0       0
 ---------------------------------------------------------------------------------
 (2) _PIN_MANAGER_Initialize                               0     0      0       0
 ---------------------------------------------------------------------------------
 (2) _OSCILLATOR_Initialize                                0     0      0       0
 ---------------------------------------------------------------------------------
 (2) _INTERRUPT_Initialize                                 1     1      0      34
                                              5 COMRAM     1     1      0
 ---------------------------------------------------------------------------------
 (2) _ADCC_Initialize                                      0     0      0       0
 ---------------------------------------------------------------------------------
 (1) _Digital232_init                                      0     0      0    7206
               _ADCC_StartConversion
                         _UART2_Read
                  _UART2_is_rx_ready
                             _WaitMs
                             _printf
 ---------------------------------------------------------------------------------
 (1) _Digital232_RW                                        4     4      0    8071
                                              0 BANK1      4     4      0
           _ADCC_GetConversionResult
              _ADCC_IsConversionDone
               _ADCC_StartConversion
                         _StartTimer
                          _TimerDone
                         _UART2_Read
                        _UART2_Write
                  _UART2_is_rx_ready
                             _WaitMs
                             _printf
 ---------------------------------------------------------------------------------
 (2) _printf                                               6     3      3    5934
                                             49 COMRAM     6     3      3
                           _vfprintf
 ---------------------------------------------------------------------------------
 (3) _vfprintf                                             5     1      4    5313
                                             44 COMRAM     5     1      4
                          _vfpfcnvrt
 ---------------------------------------------------------------------------------
 (4) _vfpfcnvrt                                           37    33      4    4843
                                             38 COMRAM     6     2      4
                              _fputc
                               _stoa
 ---------------------------------------------------------------------------------
 (5) _stoa                                                22    18      4    2639
                                             16 COMRAM    22    18      4
                              _fputc
                             _strlen
 ---------------------------------------------------------------------------------
 (6) _strlen                                               4     2      2     290
                                              5 COMRAM     4     2      2
 ---------------------------------------------------------------------------------
 (6) _fputc                                                9     5      4    1497
                                              7 COMRAM     9     5      4
                              _putch
 ---------------------------------------------------------------------------------
 (7) _putch                                                1     1      0      93
                                              6 COMRAM     1     1      0
                        _UART2_Write
 ---------------------------------------------------------------------------------
 (8) _UART2_Write                                          1     1      0      62
                                              5 COMRAM     1     1      0
 ---------------------------------------------------------------------------------
 (2) _WaitMs                                               2     0      2    1204
                                             10 COMRAM     2     0      2
                         _StartTimer
                          _TimerDone
 ---------------------------------------------------------------------------------
 (2) _TimerDone                                            3     3      0      31
                                              5 COMRAM     3     3      0
 ---------------------------------------------------------------------------------
 (2) _StartTimer                                           5     3      2     512
                                              5 COMRAM     5     3      2
 ---------------------------------------------------------------------------------
 (2) _UART2_is_rx_ready                                    0     0      0       0
 ---------------------------------------------------------------------------------
 (2) _UART2_Read                                           1     1      0      37
                                              5 COMRAM     1     1      0
 ---------------------------------------------------------------------------------
 (2) _ADCC_StartConversion                                 1     1      0      31
                                              5 COMRAM     1     1      0
 ---------------------------------------------------------------------------------
 (2) _ADCC_IsConversionDone                                0     0      0       0
 ---------------------------------------------------------------------------------
 (2) _ADCC_GetConversionResult                             4     2      2       0
                                              5 COMRAM     4     2      2
 ---------------------------------------------------------------------------------
 Estimated maximum stack depth 8
 ---------------------------------------------------------------------------------
 (Depth) Function   	        Calls       Base Space   Used Autos Params    Refs
 ---------------------------------------------------------------------------------
 (9) _Default_ISR                                          0     0      0       0
 ---------------------------------------------------------------------------------
 Estimated maximum stack depth 9
 ---------------------------------------------------------------------------------
 (Depth) Function   	        Calls       Base Space   Used Autos Params    Refs
 ---------------------------------------------------------------------------------
 (9) _UART1_tx_vect_isr                                    0     0      0       0
                   Absolute function *
                 _UART1_Transmit_ISR *
 ---------------------------------------------------------------------------------
 (10) _UART1_Transmit_ISR                                  0     0      0       0
 ---------------------------------------------------------------------------------
 (11) Absolute function(Fake)                              0     0      0       0
 ---------------------------------------------------------------------------------
 Estimated maximum stack depth 11
 ---------------------------------------------------------------------------------
 (Depth) Function   	        Calls       Base Space   Used Autos Params    Refs
 ---------------------------------------------------------------------------------
 (9) _UART1_rx_vect_isr                                    0     0      0       0
                   Absolute function *
                  _UART1_Receive_ISR *
 ---------------------------------------------------------------------------------
 (10) _UART1_Receive_ISR                                   0     0      0       0
                   Absolute function *
          _UART1_DefaultErrorHandler *
   _UART1_DefaultFramingErrorHandler *
   _UART1_DefaultOverrunErrorHandler *
                _UART1_RxDataHandler
 ---------------------------------------------------------------------------------
 (11) _UART1_DefaultOverrunErrorHandler                    0     0      0       0
 ---------------------------------------------------------------------------------
 (11) _UART1_DefaultFramingErrorHandler                    0     0      0       0
 ---------------------------------------------------------------------------------
 (11) _UART1_DefaultErrorHandler                           0     0      0       0
                _UART1_RxDataHandler
 ---------------------------------------------------------------------------------
 (11) _UART1_RxDataHandler                                 0     0      0       0
 ---------------------------------------------------------------------------------
 (11) Absolute function(Fake)                              0     0      0       0
 ---------------------------------------------------------------------------------
 Estimated maximum stack depth 11
 ---------------------------------------------------------------------------------
 (Depth) Function   	        Calls       Base Space   Used Autos Params    Refs
 ---------------------------------------------------------------------------------
 (9) _UART2_tx_vect_isr                                    0     0      0       0
                   Absolute function *
                 _UART2_Transmit_ISR *
 ---------------------------------------------------------------------------------
 (10) _UART2_Transmit_ISR                                  0     0      0       0
 ---------------------------------------------------------------------------------
 (11) Absolute function(Fake)                              0     0      0       0
 ---------------------------------------------------------------------------------
 Estimated maximum stack depth 11
 ---------------------------------------------------------------------------------
 (Depth) Function   	        Calls       Base Space   Used Autos Params    Refs
 ---------------------------------------------------------------------------------
 (9) _UART2_rx_vect_isr                                    0     0      0       0
                   Absolute function *
                  _UART2_Receive_ISR *
 ---------------------------------------------------------------------------------
 (10) _UART2_Receive_ISR                                   0     0      0       0
                   Absolute function *
          _UART2_DefaultErrorHandler *
   _UART2_DefaultFramingErrorHandler *
   _UART2_DefaultOverrunErrorHandler *
                _UART2_RxDataHandler
 ---------------------------------------------------------------------------------
 (11) _UART2_DefaultOverrunErrorHandler                    0     0      0       0
 ---------------------------------------------------------------------------------
 (11) _UART2_DefaultFramingErrorHandler                    0     0      0       0
 ---------------------------------------------------------------------------------
 (11) _UART2_DefaultErrorHandler                           0     0      0       0
                _UART2_RxDataHandler
 ---------------------------------------------------------------------------------
 (11) _UART2_RxDataHandler                                 0     0      0       0
 ---------------------------------------------------------------------------------
 (11) Absolute function(Fake)                              0     0      0       0
 ---------------------------------------------------------------------------------
 Estimated maximum stack depth 11
 ---------------------------------------------------------------------------------
 (Depth) Function   	        Calls       Base Space   Used Autos Params    Refs
 ---------------------------------------------------------------------------------
 (9) _TMR6_ISR                                             0     0      0      90
                   Absolute function *
       _TMR6_DefaultInterruptHandler *
 ---------------------------------------------------------------------------------
 (10) _TMR6_DefaultInterruptHandler                        3     3      0      90
                                              0 COMRAM     3     3      0
 ---------------------------------------------------------------------------------
 (11) Absolute function(Fake)                              0     0      0       0
 ---------------------------------------------------------------------------------
 Estimated maximum stack depth 11
 ---------------------------------------------------------------------------------
 (Depth) Function   	        Calls       Base Space   Used Autos Params    Refs
 ---------------------------------------------------------------------------------
 (9) _TMR5_ISR                                             0     0      0     229
                      _TMR5_CallBack
                    _TMR5_WriteTimer
 ---------------------------------------------------------------------------------
 (10) _TMR5_WriteTimer                                     2     0      2     229
                                              3 COMRAM     2     0      2
 ---------------------------------------------------------------------------------
 (10) _TMR5_CallBack                                       0     0      0       0
                   Absolute function *
       _TMR5_DefaultInterruptHandler *
 ---------------------------------------------------------------------------------
 (11) _TMR5_DefaultInterruptHandler                        1     1      0       0
                                              3 COMRAM     1     1      0
 ---------------------------------------------------------------------------------
 (11) Absolute function(Fake)                              0     0      0       0
 ---------------------------------------------------------------------------------
 Estimated maximum stack depth 11
 ---------------------------------------------------------------------------------

 Call Graph Graphs:

 _main (ROOT)
   _Digital232_RW
     _ADCC_GetConversionResult
     _ADCC_IsConversionDone
     _ADCC_StartConversion
     _StartTimer
     _TimerDone
     _UART2_Read
     _UART2_Write
     _UART2_is_rx_ready
     _WaitMs
       _StartTimer
       _TimerDone
     _printf
       _vfprintf
         _vfpfcnvrt
           _fputc
             _putch
               _UART2_Write
           _stoa
             _fputc
               _putch
                 _UART2_Write
             _strlen
   _Digital232_init
     _ADCC_StartConversion
     _UART2_Read
     _UART2_is_rx_ready
     _WaitMs
       _StartTimer
       _TimerDone
     _printf
       _vfprintf
         _vfpfcnvrt
           _fputc
             _putch
               _UART2_Write
           _stoa
             _fputc
               _putch
                 _UART2_Write
             _strlen
   _SYSTEM_Initialize
     _ADCC_Initialize
     _INTERRUPT_Initialize
     _OSCILLATOR_Initialize
     _PIN_MANAGER_Initialize
     _PMD_Initialize
     _PWM8_Initialize
     _TMR2_Initialize
     _TMR5_Initialize
       _TMR5_SetInterruptHandler
     _TMR6_Initialize
       _TMR6_SetInterruptHandler
     _UART1_Initialize
       _UART1_SetErrorHandler
       _UART1_SetFramingErrorHandler
       _UART1_SetOverrunErrorHandler
       _UART1_SetRxInterruptHandler
       _UART1_SetTxInterruptHandler
     _UART2_Initialize
       _UART2_SetErrorHandler
       _UART2_SetFramingErrorHandler
       _UART2_SetOverrunErrorHandler
       _UART2_SetRxInterruptHandler
       _UART2_SetTxInterruptHandler
   _StartTimer
   _UART1_Write
   _UART1_is_tx_ready
   _work_sw
     _StartTimer
     _TimerDone

 _Default_ISR (ROOT)

 _UART1_tx_vect_isr (ROOT)
   Absolute function(Fake) *
   _UART1_Transmit_ISR *

 _UART1_rx_vect_isr (ROOT)
   Absolute function(Fake) *
   _UART1_Receive_ISR *
     Absolute function(Fake) *
     _UART1_DefaultErrorHandler *
       _UART1_RxDataHandler
     _UART1_DefaultFramingErrorHandler *
     _UART1_DefaultOverrunErrorHandler *
     _UART1_RxDataHandler *

 _UART2_tx_vect_isr (ROOT)
   Absolute function(Fake) *
   _UART2_Transmit_ISR *

 _UART2_rx_vect_isr (ROOT)
   Absolute function(Fake) *
   _UART2_Receive_ISR *
     Absolute function(Fake) *
     _UART2_DefaultErrorHandler *
       _UART2_RxDataHandler
     _UART2_DefaultFramingErrorHandler *
     _UART2_DefaultOverrunErrorHandler *
     _UART2_RxDataHandler *

 _TMR6_ISR (ROOT)
   Absolute function(Fake) *
   _TMR6_DefaultInterruptHandler *

 _TMR5_ISR (ROOT)
   _TMR5_CallBack
     Absolute function(Fake) *
     _TMR5_DefaultInterruptHandler *
   _TMR5_WriteTimer

 Address spaces:
Name               Size   Autos  Total    Cost      Usage
BIGRAM            1FFF      0       0      69        0.0%
EEDATA             400      0       0       0        0.0%
BITBANK31          100      0       0      67        0.0%
BANK31             100      0       0      68        0.0%
BITBANK30          100      0       0      65        0.0%
BANK30             100      0       0      66        0.0%
BITBANK29          100      0       0      63        0.0%
BANK29             100      0       0      64        0.0%
BITBANK28          100      0       0      61        0.0%
BANK28             100      0       0      62        0.0%
BITBANK27          100      0       0      59        0.0%
BANK27             100      0       0      60        0.0%
BITBANK26          100      0       0      56        0.0%
BANK26             100      0       0      57        0.0%
BITBANK25          100      0       0      54        0.0%
BANK25             100      0       0      55        0.0%
BITBANK24          100      0       0      52        0.0%
BANK24             100      0       0      53        0.0%
BITBANK23          100      0       0      50        0.0%
BANK23             100      0       0      51        0.0%
BITBANK22          100      0       0      48        0.0%
BANK22             100      0       0      49        0.0%
BITBANK21          100      0       0      46        0.0%
BANK21             100      0       0      47        0.0%
BITBANK20          100      0       0      44        0.0%
BANK20             100      0       0      45        0.0%
BITBANK19          100      0       0      42        0.0%
BANK19             100      0       0      43        0.0%
BITBANK18          100      0       0      40        0.0%
BANK18             100      0       0      41        0.0%
BITBANK17          100      0       0      38        0.0%
BANK17             100      0       0      39        0.0%
BITBANK16          100      0       0      36        0.0%
BANK16             100      0       0      37        0.0%
BITBANK15          100      0       0      34        0.0%
BANK15             100      0       0      35        0.0%
BITBANK14          100      0       0      32        0.0%
BANK14             100      0       0      33        0.0%
BITBANK13          100      0       0      30        0.0%
BANK13             100      0       0      31        0.0%
BITBANK12          100      0       0      28        0.0%
BANK12             100      0       0      29        0.0%
BITBANK11          100      0       0      26        0.0%
BANK11             100      0       0      27        0.0%
BITBANK10          100      0       0      24        0.0%
BANK10             100      0       0      25        0.0%
BITBANK9           100      0       0      22        0.0%
BANK9              100      0       0      23        0.0%
BITBANK8           100      0       0      20        0.0%
BANK8              100      0       0      21        0.0%
BITBANK7           100      0       0      18        0.0%
BANK7              100      0       0      19        0.0%
BITBANK6           100      0       0      16        0.0%
BANK6              100      0       0      17        0.0%
BITBANK5           100      0       0      14        0.0%
BANK5              100      0       0      15        0.0%
BITBANK4           100      0       0      12        0.0%
BANK4              100      0       0      13        0.0%
BITBANK3           100      0       0      10        0.0%
BANK3              100      0       0      11        0.0%
BITBANK2           100      0       0       8        0.0%
BANK2              100      0       0       9        0.0%
BITBANK1           100      0       0       6        0.0%
BANK1              100      6       6       7        2.3%
BITBANK0            A0      0       0       4        0.0%
BANK0               A0      0      9F       5       99.4%
BITCOMRAM           5F      0       0       0        0.0%
COMRAM              5F     37      59       1       93.7%
BITSFR_8             0      0       0     200        0.0%
SFR_8                0      0       0     200        0.0%
BITSFR_7             0      0       0     200        0.0%
SFR_7                0      0       0     200        0.0%
BITSFR_6             0      0       0     200        0.0%
SFR_6                0      0       0     200        0.0%
BITSFR_5             0      0       0     200        0.0%
SFR_5                0      0       0     200        0.0%
BITSFR_4             0      0       0     200        0.0%
SFR_4                0      0       0     200        0.0%
BITSFR_3             0      0       0     200        0.0%
SFR_3                0      0       0     200        0.0%
BITSFR_2             0      0       0     200        0.0%
SFR_2                0      0       0     200        0.0%
BITSFR_1             0      0       0     200        0.0%
SFR_1                0      0       0     200        0.0%
BITSFR               0      0       0     200        0.0%
SFR                  0      0       0     200        0.0%
STACK                0      0       0       2        0.0%
NULL                 0      0       0       0        0.0%
ABS                  0      0      FE      58        0.0%
DATA                 0      0      FE       3        0.0%
CODE                 0      0       0       0        0.0%


Microchip Technology PIC18 Macro Assembler V2.05 build -831301201 
Symbol Table                                                                                   Sat Aug 17 03:25:04 2019

            __end_of_TMR5_SetInterruptHandler 304A                     __end_of_UART2_is_rx_ready 30A2  
                                 __CFG_CP$OFF 000000                                            l64 2F06  
                                          _IO 009A                             ??_TMR5_WriteTimer 0006  
                                 __CFG_LVP$ON 000000                                           l314 2B36  
                                         l482 2B6E                                           l913 2CCA  
                                         l878 206E                                           _GIE 01FE97  
                     __size_of_PMD_Initialize 0022                               _TMR2_Initialize 2E7A  
                                         tosl 003FFD                                           wreg 003FE8  
                          _UART1_Transmit_ISR 2CE2                                 __CFG_BBEN$OFF 000000  
                                __CFG_ZCD$OFF 000000                                          l1114 2262  
                                        l3405 2A00                                          l3421 2216  
                                        l3407 2A04                                          l3431 2280  
                                        l3435 229C                                          l3453 233A  
                                        l3445 2304                                          l3541 297A  
                        _ADCC_StartConversion 305E                                          l3383 2B8A  
                                        l3439 22BA                                          l3721 2BBA  
                                        l3529 2E76                                          l3385 2B8C  
                                        l3369 2B5A                                          l3449 231E  
                                        l3473 2408                                          l3395 2894  
                                        l3483 2450                                          l3539 2956  
                                        l3901 218E                                          l3479 2446  
                                        l3831 204A                                          l3489 2462  
                                        l3913 21CC                                          l3739 2CD4  
                                        l3835 2056                                          l3827 203E  
                                        l3909 21B8                                          l3845 2078  
                                        l3839 2062                                          l3847 2080  
                                        l3783 2B52                                          l3951 29E8  
                                        l3849 20B4                                          l3785 2B54  
                                        l3769 2B22                                          l3945 29D2  
                                        l3885 213A                                          l3895 216C  
                                        STR_1 2019                                          STR_2 2015  
                                        STR_3 2019                                          STR_4 2005  
                                        STR_5 2019                                          STR_6 2009  
                                        STR_7 2019                                          STR_8 200D  
                                        STR_9 2019                                          u2020 3078  
                                        _LATA 003FBA                                          u2150 2150  
                                        _LATB 003FBB                                          _LATC 003FBC  
                                        _LATD 003FBD                                          _LATE 003FBE  
                                        u2190 21A2                                          u1800 2A2E  
                                        _T2PR 003FAB                                          u1821 21F2  
                                        u1910 234E                                          u1807 2A20  
                                        u1770 288C                                          u1790 28D4  
                                        u1870 22B0                                          u1880 22E4  
                                        _T6PR 003F93                                          _PMD0 0039C0  
                                        _PMD1 0039C1                                          _PMD2 0039C2  
                                        u1887 22D6                                          u1975 2B0E  
                                        _PMD3 0039C3                                          u1976 2B10  
                                        _PMD4 0039C4                                          _PMD5 0039C5  
                                        _PMD6 0039C6                                          _PMD7 0039C7  
                                        _PLLR 01CEE0                                          _WPUA 003A41  
                                        _WPUB 003A51                                          _WPUC 003A61  
                                        _WPUD 003A71                                          _WPUE 003A81  
                               __CFG_FCMEN$ON 000000                           ?_UART1_Transmit_ISR 0001  
                                        _dbuf 0060                                          _main 29A0  
                                        _prec 0044                                          _nout 00F4  
                       __end_of_Digital232_RW 21E8                                          fsr1h 003FE2  
                                        fsr2h 003FDA                                          indf1 003FE7  
                                        indf2 003FDF                                          fsr1l 003FE1  
                                        fsr2l 003FD9                                          _stoa 21E8  
                                        prodl 003FF3                                          start 00AE  
                             _timer5ReloadVal 004A                 ??_UART1_SetTxInterruptHandler 0009  
               ??_UART2_SetRxInterruptHandler 0009                                 __CFG_CSWEN$ON 000000  
                           _UART1_rx_vect_isr 2DF0                                  ___param_bank 000000  
                                 ?_UART2_Read 0001                            ?_UART1_rx_vect_isr 0001  
                  __size_of_UART1_is_tx_ready 0004                __size_of_OSCILLATOR_Initialize 001C  
                        ??_UART1_Transmit_ISR 0001                 __end_of_OSCILLATOR_Initialize 2F0C  
                                       _ADCAP 003EF5                                         _ADACT 003EFE  
                                       ?_main 0001                                         _ADCLK 003EFF  
                                       _ADPCH 003EF1                                         _ADREF 003EFD  
                                       STR_10 2011                                         STR_11 2019  
                                       STR_12 2001                                 __CFG_WDTE$OFF 000000  
                                       _ADRPT 003EEC                                         ?_stoa 0011  
                                       _U1P1H 003DED                                         _U1P2H 003DEF  
                                       _U1P1L 003DEC                                         _U1P3H 003DF1  
                                       _T2CON 003FAC                                         _U1P2L 003DEE  
                                       _U1P3L 003DF0                                         _U2P1L 003DD4  
                                       _U2P2L 003DD6                                         _U2P3L 003DD8  
                                       _T5CLK 003F9D                                         _T2HLT 003FAD  
                                       _T5CON 003F9A                                         _T6CON 003F94  
                              __CFG_DEBUG$OFF 000000                                         _T6HLT 003F95  
                                       _T2TMR 003FAA                                         _U1UIR 003DF8  
                                       _T2RST 003FAF                                         _U1RXB 003DE8  
                                       _U2UIR 003DE0                                         _U1TXB 003DEA  
                                       _U2RXB 003DD0                                         _U2TXB 003DD2  
                                       i2l332 2D06                                         i2l506 2D30  
                                       _T6TMR 003F92                                         _T6RST 003F97  
                         ??_UART1_rx_vect_isr 0001                                         i2l764 2D76  
                                       _OSCEN 0039DD                                  vfpfcnvrt@fmt 0029  
                                       _TMR5H 003F99                                         _TMR5L 003F98  
                                       _TRISA 003FC2                                         _TRISB 003FC3  
                                       _TRISC 003FC4                                         _TRISD 003FC5  
                                       _TRISE 003FC6                                   _Default_ISR 30A4  
                     ??_ADCC_IsConversionDone 0006             __size_of_TMR6_SetInterruptHandler 0014  
                   ?_TMR6_SetInterruptHandler 0006                             _UART1_tx_vect_isr 2DCC  
                               __CFG_WRTB$OFF 000000                                 __CFG_WRTC$OFF 000000  
                               __CFG_WRTD$OFF 000000                              __end_of_TMR5_ISR 2C2E  
                            __end_of_TMR6_ISR 2D60                                         _flags 0046  
                             _Digital232_init 2498                         ?_ADCC_StartConversion 0001  
                                       _fputc 287C                            __CFG_MCLRE$EXTMCLR 000000  
                          ?_UART1_tx_vect_isr 0001                                         _width 00F6  
                                       _putch 307C                                         main@x 0105  
                                       pclath 003FFA                                         tablat 003FF5  
                                       plusw1 003FE3                                         plusw2 003FDB  
                                       stoa@i 001D                                         stoa@l 0025  
                                       stoa@p 0023                                         stoa@s 0013  
                                       stoa@w 001F                                         status 003FD8  
         __end_of_UART1_SetRxInterruptHandler 2FE6                   _UART1_SetRxInterruptHandler 2FD2  
                             __end_of_work_sw 2EF0      __end_of_UART1_DefaultFramingErrorHandler 30AA  
   __size_of_UART1_DefaultFramingErrorHandler 0002            ??_UART1_DefaultFramingErrorHandler 0001  
           ?_UART1_DefaultFramingErrorHandler 0001              _UART1_DefaultFramingErrorHandler 30A8  
                         ??_UART1_tx_vect_isr 0001                     __end_of_UART1_rx_vect_isr 2E12  
              ??_TMR6_DefaultInterruptHandler 0001                               _TMR5_Initialize 2A8E  
              ??_UART2_SetOverrunErrorHandler 0009                               __initialization 2A42  
                           _UART2_rx_vect_isr 2E38                                  __end_of_main 29F2  
                                __end_of_stoa 235C                    __size_of_UART2_is_rx_ready 0004  
                              __CFG_SAFEN$OFF 000000                   ??_UART1_DefaultErrorHandler 0001  
                          ?_UART2_rx_vect_isr 0001                       __end_of_TMR2_Initialize 2E98  
                                ?_UART1_Write 0001                                  ?_UART2_Write 0001  
                                      ??_main 0038                                __CFG_PR1WAY$ON 000000  
                    _TMR5_SetInterruptHandler 3036                                        ??_stoa 0015  
                               __activetblptr 000003          __size_of_UART1_SetTxInterruptHandler 0014  
                         ??_UART2_rx_vect_isr 0001                     __end_of_UART1_tx_vect_isr 2DEE  
        __size_of_UART2_SetRxInterruptHandler 0014                                __CFG_MVECEN$ON 000000  
                             _TMR6_Initialize 2C8A                               _PWM8_Initialize 2F42  
                 __end_of_UART2_RxDataHandler 2ED4                              _UART1_Initialize 2568  
                           _UART2_tx_vect_isr 2E14                            _UART2_Transmit_ISR 2D0C  
                                      _ADACCU 003EEA                                        _ADACQH 003EF4  
                                      _ADACQL 003EF3                                        _ADCON0 003EF8  
                                      _ADCON1 003EF9                                        _ADCON2 003EFA  
                                      _ADCON3 003EFB                                        ?_fputc 0008  
                                      _ADLTHH 003EDF                                        _ADLTHL 003EDE  
                                      _ADRESH 003EF0                                        _ADRESL 003EEF  
                                      _ADPREH 003EF7                                        _ADPREL 003EF6  
                                      _ADSTAT 003EFC                                        _ADUTHH 003EE1  
                                      _ADUTHL 003EE0                                        _ANSELA 003A40  
                                      ?_putch 0001                                        _ANSELB 003A50  
                                      _ANSELC 003A60                                        _ANSELD 003A70  
                                      _ANSELE 003A80                            ?_UART2_tx_vect_isr 0001  
                              TimerDone@timer 0008                                        _RB1I2C 003A5A  
                                      _RB2I2C 003A5B                                        _RD0I2C 003A7A  
                                      _U1CON0 003DF2                                        _U1CON1 003DF3  
                                      _U1CON2 003DF4                                        _RC3I2C 003A6A  
                                      _RD1I2C 003A7B                                        _RC4I2C 003A6B  
                                      _U1BRGH 003DF6                                        _U1FIFO 003DF7  
                                      _U2CON0 003DDA                                        _U2CON1 003DDB  
                                      _U1BRGL 003DF5                                        _U2CON2 003DDC  
                                      _U2BRGH 003DDE                                        _U2FIFO 003DDF  
                                      _U2BRGL 003DDD                                        _T5GATE 003F9C  
                         __size_of_UART2_Read 0036                                        _T5GCON 003F9B  
                                      _RD1PPS 003A19                                        _RB6PPS 003A0E  
                                      _ODCONA 003A42                                        _ODCONB 003A52  
                                      _ODCONC 003A62                                        _RC6PPS 003A16  
                                      _ODCOND 003A72                                        _ODCONE 003A82  
                              __CFG_WDTCCS$SC 000000                                        i2l3123 2BCA  
                                      i2l3115 2876                                        i2l3127 2BF0  
                                      i2l3063 2D02                                        i2l3083 27E8  
                                      i2l3095 2D2C                                        i2l2755 2EB2  
                                      i2l2775 2ED0                                        _IVTADH 00389E  
                                      _IVTADL 00389D                                        _IVTADU 00389F  
                                      _OSCFRQ 0039DF                           ?_UART2_Transmit_ISR 0001  
                       _UART1_SetErrorHandler 300E                    ??_ADCC_GetConversionResult 0008  
                         ??_UART2_tx_vect_isr 0001                     __end_of_UART2_rx_vect_isr 2E5A  
                              __CFG_XINST$OFF 000000                              _UART2_Initialize 261C  
                                      _WaitMs 2CB6                                  _CCPTMRS1bits 003F5F  
                   _UART2_OverrunErrorHandler 00E5                                  vfprintf@cfmt 0031  
                         _uart2RxStatusBuffer 00AC            __size_of_UART2_DefaultErrorHandler 0006  
                              __CFG_STVREN$ON 000000                    ?_UART2_DefaultErrorHandler 0001  
                                      clear_0 2A6A                                        clear_1 2A76  
                         UART2_Read@readValue 0006                          ??_UART2_Transmit_ISR 0001  
                                      _printf 2F0C                                        _strlen 29F2  
                          __size_of_TimerDone 0020                       __end_of_Digital232_init 2568  
                             _ADCC_Initialize 28E8                                        fputc@c 0008  
                              _PMD_Initialize 2DA8                     __end_of_UART2_tx_vect_isr 2E36  
                                __mediumconst 0000                                        tblptrh 003FF7  
                                      tblptrl 003FF6                                        tblptru 003FF8  
                      ??_ADCC_StartConversion 0006                                        stoa@cp 0021  
                                      stoa@fp 0011                              __end_of_vfprintf 29A0  
                                  _StartTimer 2C5C      TMR5_SetInterruptHandler@InterruptHandler 0006  
    TMR6_SetInterruptHandler@InterruptHandler 0006   UART2_SetTxInterruptHandler@InterruptHandler 0006  
 UART2_SetRxInterruptHandler@InterruptHandler 0006   UART1_SetTxInterruptHandler@InterruptHandler 0006  
 UART1_SetRxInterruptHandler@InterruptHandler 0006          __end_of_UART1_SetOverrunErrorHandler 2FFA  
       __size_of_UART1_SetOverrunErrorHandler 0014                  _UART1_SetOverrunErrorHandler 2FE6  
                   _UART1_DefaultErrorHandler 308E                                     ??_work_sw 000B  
               __size_of_INTERRUPT_Initialize 0048                  __size_of_UART1_RxDataHandler 001E  
                     __end_of_TMR5_Initialize 2AD8                             _SYSTEM_Initialize 2C2E  
                                  __accesstop 0060                       __end_of__initialization 2A88  
                          ?_SYSTEM_Initialize 0001                                 ___rparam_used 000001  
                  __size_of_UART1_rx_vect_isr 0022                               _TMR5_WriteTimer 2D60  
                              __pcstackCOMRAM 0001                         _UART2_SetErrorHandler 2FAA  
                                __pidataBANK0 3086                           ??_SYSTEM_Initialize 000B  
                                   ?_TMR5_ISR 0001                                     ?_TMR6_ISR 0001  
                              ivt0x8_undefint 00AC                                 __end_of_fputc 28E8  
           __end_of_UART2_DefaultErrorHandler 309A                         __end_of_TMR5_CallBack 2DA8  
                               __end_of_putch 3086                              ?_TMR2_Initialize 0001  
                     __end_of_PWM8_Initialize 2F5A                       __end_of_TMR6_Initialize 2CB6  
                      __end_of_PMD_Initialize 2DCA                    __size_of_UART1_tx_vect_isr 0022  
                   _UART1_FramingErrorHandler 00F1                   ADCC_StartConversion@channel 0006  
                    _UART2_RxInterruptHandler 0041                                       ??_fputc 000C  
                   __end_of_SYSTEM_Initialize 2C5C                               __CFG_IVT1WAY$ON 000000  
                                     ??_putch 0007                                    __pbssBANK0 0060  
               ?_UART1_SetOverrunErrorHandler 0006                        ?_UART1_SetErrorHandler 0006  
                           __end_of_TimerDone 2E7A                  ?_UART2_SetTxInterruptHandler 0006  
                  __size_of_UART2_rx_vect_isr 0022                                       IVTBASEH 003FD6  
                                     IVTBASEL 003FD5                                       IVTBASEU 003FD7  
                                     ?_WaitMs 000B                                  ??_UART2_Read 0006  
                             __CFG_PPS1WAY$ON 000000              __end_of_TMR6_SetInterruptHandler 3036  
        __end_of_UART2_SetFramingErrorHandler 2FAA         __size_of_UART2_SetFramingErrorHandler 0014  
                _UART2_SetFramingErrorHandler 2F96                       __end_of_ADCC_Initialize 2944  
                                  ??_TMR5_ISR 0006                                    ??_TMR6_ISR 0004  
                                     _ADSTPTH 003EE5                                       _ADSTPTL 003EE4  
                                     ?_printf 0032                               ?_PMD_Initialize 0001  
                           _UART1_Receive_ISR 2760                                       ?_strlen 0006  
                             StartTimer@count 0006                                       _U1ERRIE 003DFA  
                                     _U1ERRIR 003DF9                                       _U2ERRIE 003DE2  
                                     _U2ERRIR 003DE1                               StartTimer@timer 000A  
                            ?_Digital232_init 0001                           __CFG_PWRTS$PWRT_OFF 000000  
                                ?_Default_ISR 0001                          __size_of_UART1_Write 0038  
                          ?_UART1_Receive_ISR 0001                    __size_of_UART2_tx_vect_isr 0022  
                        __size_of_UART2_Write 0038                                       _U1RXPPS 003AE5  
                                     _U2RXPPS 003AE8                                       _OSCCON1 0039D9  
                                     _OSCCON3 0039DB                                       _IVTLOCK 003FD4  
                          __size_of_vfpfcnvrt 013C                                       _OSCTUNE 0039DE  
                                     _PWM8DCH 003F61                                       _PWM8DCL 003F60  
                                     _PWM8CON 003F62                                       _SLRCONA 003A43  
                                     _SLRCONB 003A53                                       _SLRCONC 003A63  
                                     _SLRCOND 003A73                                       _SLRCONE 003A83  
              __size_of_ADCC_IsConversionDone 000E                                   ?_StartTimer 0006  
               __end_of_ADCC_IsConversionDone 307C                           ??_UART1_Receive_ISR 0001  
                     __end_of_TMR5_WriteTimer 2D84                            __end_of_UART2_Read 2BC6  
                            ?_TMR5_Initialize 0001                     INTERRUPT_Initialize@state 0006  
                                     __Hparam 0000                        ?_UART2_SetErrorHandler 0006  
                                     __Lparam 0000                      __end_of_UART1_Initialize 261C  
               ??_UART2_SetTxInterruptHandler 0009                    ??_TMR5_SetInterruptHandler 0009  
                             __size_of_WaitMs 002C                     __end_of_UART1_Receive_ISR 27EE  
                                   ?_vfprintf 002D                                  __psmallconst 2000  
               ?_UART2_SetFramingErrorHandler 0006                                       __pcinit 2A42  
                            ?_PWM8_Initialize 0001                              ?_TMR6_Initialize 0001  
                                     __ramtop 2000                   __size_of_UART1_Transmit_ISR 002A  
                                     __ptext0 29A0                                       __ptext1 2ED4  
                                     __ptext2 309A                                       __ptext3 2B20  
                                     __ptext4 2C2E                                       __ptext5 261C  
                                     __ptext6 2F5A                                       __ptext7 2F6E  
                                     __ptext8 2F82                                       __ptext9 2F96  
                           _UART2_Receive_ISR 27EE                               __size_of_printf 001C  
                             __CFG_WRTAPP$OFF 000000                               __size_of_strlen 0050  
    __end_of_UART2_DefaultOverrunErrorHandler 30AC     __size_of_UART2_DefaultOverrunErrorHandler 0002  
          ??_UART2_DefaultOverrunErrorHandler 0001             ?_UART2_DefaultOverrunErrorHandler 0001  
            _UART2_DefaultOverrunErrorHandler 30AA                         _OSCILLATOR_Initialize 2EF0  
                      __size_of_Digital232_RW 01CA                            ?_UART2_Receive_ISR 0001  
                    ??_PIN_MANAGER_Initialize 0006                               __CFG_WRTSAF$OFF 000000  
                                   _T5CONbits 003F9A                      __end_of_UART2_Initialize 26C4  
                  __size_of_SYSTEM_Initialize 002E                          end_of_initialization 2A88  
                                     _work_sw 2ED4                           ??_UART2_Receive_ISR 0001  
                                     fputc@fp 000A           __end_of_UART1_SetTxInterruptHandler 2FD2  
                 _UART1_SetTxInterruptHandler 2FBE           __end_of_UART2_SetRxInterruptHandler 2F82  
                 _UART2_SetRxInterruptHandler 2F6E                ??_UART1_SetOverrunErrorHandler 0009  
                           __end_of_vfpfcnvrt 2498                                       postdec1 003FE5  
                                     postdec2 003FDD                                       postinc0 003FEE  
                                     postinc1 003FE6                                       postinc2 003FDE  
                            ?_ADCC_Initialize 0001                   ??_UART2_DefaultErrorHandler 0001  
                         __size_of_StartTimer 002E                                    ??_vfprintf 0031  
                   __end_of_UART2_Receive_ISR 287C                             UART1_Write@txData 0006  
                         _UART1_RxDataHandler 2E98                         __CFG_WDTCPS$WDTCPS_31 000000  
                                     strlen@a 0008                                       strlen@s 0006  
                    _TMR6_SetInterruptHandler 3022                         _TMR5_InterruptHandler 00DC  
        __size_of_UART2_SetTxInterruptHandler 0014                         WaitMs@numMilliseconds 000B  
                            __CFG_FEXTOSC$ECH 000000                          ?_UART1_RxDataHandler 0001  
                            ?_TMR5_WriteTimer 0004                       TMR5_WriteTimer@timerVal 0004  
                __size_of_UART2_RxDataHandler 001E                                 _Digital232_RW 201E  
                              __end_of_WaitMs 2CE2                  __end_of_INTERRUPT_Initialize 2B20  
                  __size_of_UART1_Receive_ISR 008E                                   vfpfcnvrt@ap 002A  
                                 vfpfcnvrt@cp 002B                                   vfpfcnvrt@fp 0027  
                           __size_of_TMR5_ISR 0032                             __size_of_TMR6_ISR 0028  
                 __size_of_UART2_Transmit_ISR 002A                        ?_OSCILLATOR_Initialize 0001  
           __size_of_ADCC_GetConversionResult 0014                     ?_ADCC_GetConversionResult 0006  
                              __end_of_printf 2F28                                __end_of_strlen 2A42  
              ??_UART2_SetFramingErrorHandler 0009                           start_initialization 2A42  
        __end_of_TMR5_DefaultInterruptHandler 2F42         __size_of_TMR5_DefaultInterruptHandler 001A  
                _TMR5_DefaultInterruptHandler 2F28               __size_of_PIN_MANAGER_Initialize 009C  
                        __size_of_Default_ISR 0002                       ??_UART1_SetErrorHandler 0009  
                   _UART2_DefaultErrorHandler 3094                         ??_UART1_RxDataHandler 0001  
               __size_of_ADCC_StartConversion 0010                                   putch@txData 0007  
                                  ivt0x8_base 0008                                 _uart1RxBuffer 00CC  
                               _uart1TxBuffer 00D4                                 _uart2RxBuffer 00B4  
                              ?_Digital232_RW 0001                                 _uart2TxBuffer 00BC  
                            __CFG_LPBOREN$OFF 000000                                      ??_WaitMs 000D  
                                 vfprintf@fmt 002F                              ??_PMD_Initialize 0006  
                                   _TimerDone 2E5A                                   __pdataBANK0 00F8  
                  __size_of_UART2_Receive_ISR 008E                             UART2_Write@txData 0006  
                                    ??_printf 0035                                      ??_strlen 0008  
                                 __pbssCOMRAM 0038                            _UART1_ErrorHandler 00EB  
                   _UART2_FramingErrorHandler 00E8                                 __pcstackBANK1 0100  
                    __size_of_TMR2_Initialize 001E                                  ??_StartTimer 0008  
                    _UART1_RxInterruptHandler 003B                      _UART2_TxInterruptHandler 003E  
               ?_TMR5_DefaultInterruptHandler 0001                                Digital232_RW@i 0102  
                              Digital232_RW@j 0103                        __size_of_TMR5_CallBack 0024  
                     ??_UART2_SetErrorHandler 0009                  ?_UART1_SetRxInterruptHandler 0006  
                       _TMR6_InterruptHandler 00DF                        _PIN_MANAGER_Initialize 26C4  
                           ?_UART1_Initialize 0001          __end_of_UART1_SetFramingErrorHandler 300E  
       __size_of_UART1_SetFramingErrorHandler 0014                  _UART1_SetFramingErrorHandler 2FFA  
                                  ?_TimerDone 0001                            ??_UART1_Initialize 0009  
                          __end_of_StartTimer 2C8A                              _uart1RxLastError 0053  
                               ??_UART1_Write 0006                                 ??_UART2_Write 0006  
                           __size_of_vfprintf 005C                        __CFG_BBSIZE$BBSIZE_512 000000  
                                 __smallconst 2000      __end_of_UART1_DefaultOverrunErrorHandler 30A8  
   __size_of_UART1_DefaultOverrunErrorHandler 0002            ??_UART1_DefaultOverrunErrorHandler 0001  
           ?_UART1_DefaultOverrunErrorHandler 0001              _UART1_DefaultOverrunErrorHandler 30A6  
                           ?_UART2_Initialize 0001                                __size_of_fputc 006C  
                                    _T2CLKCON 003FAE                                   _U1ERRIRbits 003DF9  
                                    ?_work_sw 0001                            ??_UART2_Initialize 0009  
                              __size_of_putch 000A                      __size_of_Digital232_init 00D0  
                        _INTERRUPT_Initialize 2AD8                                      _T6CLKCON 003F96  
                             ??_Digital232_RW 0100                              _uart2RxLastError 004C  
                       _ADCC_IsConversionDone 306E                                   _U2ERRIRbits 003DE1  
       UART2_SetErrorHandler@interruptHandler 0006         UART1_SetErrorHandler@interruptHandler 0006  
                                    _LATEbits 003FBE                                      _IPR3bits 003983  
                                    _PIE3bits 003993                                     _tickCount 0080  
                                    _IPR6bits 003986                                      _IPR8bits 003988  
                                    _PIE6bits 003996                                      _IPR9bits 003989  
                                    _PIE8bits 003998                           __CFG_BORV$VBOR_2P45 000000  
                                    _PIE9bits 003999                 ??_UART1_SetRxInterruptHandler 0009  
                                    i2u131_48 27D2                                      i2u117_40 2F30  
                                    i2u117_46 2F32                                      i2u135_48 2810  
                                    i2u127_48 2782                                      i2u135_49 2824  
                                    i2u127_49 2796                                      i2u144_48 2D94  
                                    i2u137_48 283A                                      i2u129_48 27AC  
                                    i2u137_49 284E                                      i2u129_49 27C0  
                                    i2u171_40 2C20                                      i2u170_48 2D4C  
                                    i2u162_48 2DDA                                      i2u139_48 2860  
                                    i2u164_48 2DFE                                      i2u166_48 2E22  
                                    i2u168_48 2E46                                      _PIR4bits 0039A4  
                                    _PIR8bits 0039A8                                      _PIR9bits 0039A9  
                  ??_TMR6_SetInterruptHandler 0009                      __size_of_TMR5_Initialize 004A  
                  __end_of_UART1_Transmit_ISR 2D0C                                      _TMR5_ISR 2BFC  
                                    _TMR6_ISR 2D38                 ?_UART1_SetFramingErrorHandler 0006  
                                   _vfpfcnvrt 235C                                 _TMR5_CallBack 2D84  
                         _UART2_RxDataHandler 2EB6                                    _ADCON0bits 003EF8  
           __size_of_TMR5_SetInterruptHandler 0014                     ?_TMR5_SetInterruptHandler 0006  
                         __end_of_UART1_Write 2B58                            _UART2_ErrorHandler 00E2  
                         __end_of_UART2_Write 2B90                      __size_of_PWM8_Initialize 0018  
                    __size_of_TMR6_Initialize 002C                                   _INTCON0bits 003FD2  
                                   copy_data0 2A56                         ?_INTERRUPT_Initialize 0001  
                        ?_UART2_RxDataHandler 0001                        _uart1TxBufferRemaining 0057  
                           ??_TMR2_Initialize 0006                ??_TMR5_DefaultInterruptHandler 0004  
         __end_of_UART2_SetTxInterruptHandler 2F6E                   _UART2_SetTxInterruptHandler 2F5A  
                                _uart1RxCount 0054                                  _uart2RxCount 004D  
                                    __Hrparam 0000              __end_of_ADCC_GetConversionResult 305E  
                     __CFG_RSTOSC$EXTOSC_4PLL 000000                                    vfprintf@ap 0030  
                                    __Lrparam 0000                                    vfprintf@fp 002D  
                          __CFG_BOREN$SBORDIS 000000                                   ??_TimerDone 0006  
                     ??_OSCILLATOR_Initialize 0006                                ?_TMR5_CallBack 0001  
                                  ?_vfpfcnvrt 0027          __size_of_UART1_SetRxInterruptHandler 0014  
                    __size_of_ADCC_Initialize 005C                                      __pivt0x8 0008  
                                    __ptext10 2FAA                                      __ptext11 2568  
                                    __ptext20 3036                                      __ptext12 2FBE  
                                    __ptext21 2E7A                                      __ptext13 2FD2  
                                    __ptext30 2F0C                                      __ptext22 2F42  
                                    __ptext14 2FE6                                      __ptext31 2944  
                                    __ptext23 2DA8                                      __ptext15 2FFA  
                                    __ptext40 2C5C                                      __ptext32 235C  
                                    __ptext24 26C4                                      __ptext16 300E  
                                    __ptext41 309E                                      __ptext33 21E8  
                                    __ptext25 2EF0                                      __ptext17 2C8A  
                                    __ptext50 2760                                      __ptext42 2B90  
                                    __ptext34 29F2                                      __ptext26 2AD8  
                                    __ptext18 3022                                      __ptext51 30A6  
                                    __ptext43 305E                                      __ptext35 287C  
                                    __ptext27 28E8                                      __ptext19 2A8E  
                                    __ptext60 30AC                                      __ptext52 30A8  
                                    __ptext44 306E                                      __ptext36 307C  
                                    __ptext28 2498                                      __ptext61 3094  
                                    __ptext53 308E                                      __ptext45 304A  
                                    __ptext37 2B58                                      __ptext29 201E  
                                    __ptext62 2EB6                                      __ptext54 2E98  
                                    __ptext46 30A4                                      __ptext38 2CB6  
                                    __ptext63 2D38                                      __ptext55 2E14  
                                    __ptext47 2DCC                                      __ptext39 2E5A  
                                    __ptext64 2BC6                                      __ptext56 2D0C  
                                    __ptext48 2CE2                                      __ptext65 2BFC  
                                    __ptext57 2E38                                      __ptext49 2DF0  
                                    __ptext66 2D60                                      __ptext58 27EE  
                                    __ptext67 2D84                                      __ptext59 30AA  
                                    __ptext68 2F28                                      __ptext69 0000  
                      ?_ADCC_IsConversionDone 0001                __size_of_UART1_SetErrorHandler 0014  
               TMR6_DefaultInterruptHandler@i 0003                 __end_of_UART1_SetErrorHandler 3022  
                       ??_UART2_RxDataHandler 0001                              __size_of_work_sw 001C  
                               __size_of_main 0052                                 __size_of_stoa 0174  
    __end_of_UART2_DefaultFramingErrorHandler 30AE     __size_of_UART2_DefaultFramingErrorHandler 0002  
          ??_UART2_DefaultFramingErrorHandler 0001             ?_UART2_DefaultFramingErrorHandler 0001  
            _UART2_DefaultFramingErrorHandler 30AC                          __CFG_WDTCWS$WDTCWS_7 000000  
                                 _IVTLOCKbits 003FD4                             ??_Digital232_init 0038  
                    __size_of_TMR5_WriteTimer 0024                     _UART1_OverrunErrorHandler 00EE  
                                   stoa@F1131 00F8  UART2_SetOverrunErrorHandler@interruptHandler 0006  
UART1_SetOverrunErrorHandler@interruptHandler 0006            __size_of_UART1_DefaultErrorHandler 0006  
                __end_of_ADCC_StartConversion 306E                    ?_UART1_DefaultErrorHandler 0001  
                  __end_of_UART2_Transmit_ISR 2D36                                      _vfprintf 2944  
                                   printf@fmt 0032                                   _UART1_Write 2B20  
                                 _UART2_Write 2B58                             _UART1_is_tx_ready 309A  
                           ??_TMR5_Initialize 0009                                 ??_Default_ISR 0001  
              ??_UART1_SetFramingErrorHandler 0009                            ?_UART1_is_tx_ready 0001  
                 __end_of_UART1_RxDataHandler 2EB6                                   _uart1RxHead 0056  
                                 _uart1TxHead 0059                                   _uart2RxHead 004F  
                                 _uart1RxTail 0055                                   _uart2TxHead 0052  
                                 _uart1TxTail 0058                                   _uart2RxTail 004E  
                                 _uart2TxTail 0051                        ??_INTERRUPT_Initialize 0006  
        __end_of_TMR6_DefaultInterruptHandler 2BFA         __size_of_TMR6_DefaultInterruptHandler 0034  
                _TMR6_DefaultInterruptHandler 2BC6                           ??_UART1_is_tx_ready 0006  
        __end_of_UART2_SetOverrunErrorHandler 2F96         __size_of_UART2_SetOverrunErrorHandler 0014  
                _UART2_SetOverrunErrorHandler 2F82                                      intlevel2 0000  
                     ?_PIN_MANAGER_Initialize 0001                             ??_TMR6_Initialize 0009  
                           ??_PWM8_Initialize 0006                             __CFG_CLKOUTEN$OFF 000000  
              __size_of_UART2_SetErrorHandler 0014                 __end_of_UART2_SetErrorHandler 2FBE  
                         _uart1RxStatusBuffer 00C4                               ??_TMR5_CallBack 0005  
                                    printf@ap 0037                                    _UART2_Read 2B90  
UART2_SetFramingErrorHandler@interruptHandler 0006  UART1_SetFramingErrorHandler@interruptHandler 0006  
                   __end_of_UART1_is_tx_ready 309E                      _ADCC_GetConversionResult 304A  
           __end_of_UART1_DefaultErrorHandler 3094                                   ??_vfpfcnvrt 002B  
                                    stoa@nuls 0016                             _UART2_is_rx_ready 309E  
                      _uart2TxBufferRemaining 0050                            ?_UART2_is_rx_ready 0001  
                       TMR5_ISR@CountCallBack 0048                     __size_of_UART1_Initialize 00B4  
                    _UART1_TxInterruptHandler 0038                           ??_UART2_is_rx_ready 0006  
                         __end_of_Default_ISR 30A6                __end_of_PIN_MANAGER_Initialize 2760  
                           ??_ADCC_Initialize 0006                 ?_TMR6_DefaultInterruptHandler 0001  
               ?_UART2_SetOverrunErrorHandler 0006                  ?_UART1_SetTxInterruptHandler 0006  
                ?_UART2_SetRxInterruptHandler 0006                     __size_of_UART2_Initialize 00A8  
