

Microchip MPLAB XC8 Assembler V2.05 build -831301201 
                                                                                               Wed Aug 14 00:06:09 2019

Microchip MPLAB XC8 C Compiler v2.05 (Free license) build 20181220022703 Og1 
     1                           	processor	18F47K42
     2                           	fnconf	rparam,??,?,0
     3                           	opt	pw 120
     4                           	opt	flic
     5                           	psect	cinit,global,reloc=2,class=CODE,delta=1
     6                           	psect	bssCOMRAM,global,class=COMRAM,space=1,delta=1,noexec
     7                           	psect	bssBANK0,global,class=BANK0,space=1,delta=1,lowdata,noexec
     8                           	psect	cstackCOMRAM,global,class=COMRAM,space=1,delta=1,noexec
     9                           	psect	text0,global,reloc=2,class=CODE,delta=1
    10                           	psect	text1,global,reloc=2,class=CODE,delta=1
    11                           	psect	text2,global,reloc=2,class=CODE,delta=1
    12                           	psect	text3,global,reloc=2,class=CODE,delta=1
    13                           	psect	text4,global,reloc=2,class=CODE,delta=1
    14                           	psect	text5,global,reloc=2,class=CODE,delta=1
    15                           	psect	text6,global,reloc=2,class=CODE,delta=1
    16                           	psect	text7,global,reloc=2,class=CODE,delta=1
    17                           	psect	text8,global,reloc=2,class=CODE,delta=1
    18                           	psect	text9,global,reloc=2,class=CODE,delta=1
    19                           	psect	text10,global,reloc=2,class=CODE,delta=1
    20                           	psect	text11,global,reloc=2,class=CODE,delta=1
    21                           	psect	text12,global,reloc=2,class=CODE,delta=1
    22                           	psect	text13,global,reloc=2,class=CODE,delta=1
    23                           	psect	text14,global,reloc=2,class=CODE,delta=1
    24                           	psect	text15,global,reloc=2,class=CODE,delta=1
    25                           	psect	text16,global,reloc=2,class=CODE,delta=1
    26                           	psect	text17,global,reloc=2,class=CODE,delta=1
    27                           	psect	text18,global,reloc=2,class=CODE,delta=1
    28                           	psect	text19,global,reloc=2,class=CODE,delta=1
    29                           	psect	text20,global,reloc=2,class=CODE,delta=1
    30                           	psect	text21,global,reloc=2,class=CODE,delta=1
    31                           	psect	text22,global,reloc=2,class=CODE,delta=1
    32                           	psect	text23,global,reloc=2,class=CODE,delta=1
    33                           	psect	text24,global,reloc=2,class=CODE,delta=1
    34                           	psect	text25,global,reloc=2,class=CODE,delta=1
    35                           	psect	text26,global,reloc=2,class=CODE,delta=1
    36                           	psect	text27,global,reloc=2,class=CODE,delta=1
    37                           	psect	text28,global,reloc=4,class=CODE,delta=1
    38                           	psect	text29,global,reloc=4,class=CODE,delta=1
    39                           	psect	text30,global,reloc=2,class=CODE,delta=1
    40                           	psect	text31,global,reloc=4,class=CODE,delta=1
    41                           	psect	text32,global,reloc=2,class=CODE,delta=1
    42                           	psect	text33,global,reloc=2,class=CODE,delta=1
    43                           	psect	text34,global,reloc=2,class=CODE,delta=1
    44                           	psect	text35,global,reloc=2,class=CODE,delta=1
    45                           	psect	text36,global,reloc=2,class=CODE,delta=1
    46                           	psect	text37,global,reloc=4,class=CODE,delta=1
    47                           	psect	text38,global,reloc=2,class=CODE,delta=1
    48                           	psect	text39,global,reloc=4,class=CODE,delta=1
    49                           	psect	text40,global,reloc=2,class=CODE,delta=1
    50                           	psect	text41,global,reloc=2,class=CODE,delta=1
    51                           	psect	text42,global,reloc=2,class=CODE,delta=1
    52                           	psect	text43,global,reloc=2,class=CODE,delta=1
    53                           	psect	text44,global,reloc=2,class=CODE,delta=1
    54                           	psect	text45,global,reloc=4,class=CODE,delta=1
    55                           	psect	text46,global,reloc=2,class=CODE,delta=1
    56                           	psect	text47,global,reloc=4,class=CODE,delta=1
    57                           	psect	text48,global,reloc=2,class=CODE,delta=1
    58                           	psect	text49,global,reloc=2,class=CODE,delta=1
    59                           	psect	text50,global,reloc=2,class=CODE,delta=1
    60                           	psect	ivt0x8,global,reloc=2,class=CODE,delta=1,noexec,keep,optim=
    61                           	psect	intsave_regs,global,class=BIGRAM,space=1,delta=1,noexec
    62                           	psect	text51,global,reloc=2,class=CODE,delta=1
    63                           	psect	rparam,global,class=COMRAM,space=1,delta=1,noexec
    64  0000                     
    65                           ; Version 2.05
    66                           ; Generated 20/12/2018 GMT
    67                           ; 
    68                           ; Copyright © 2018, Microchip Technology Inc. and its subsidiaries ("Microchip")
    69                           ; All rights reserved.
    70                           ; 
    71                           ; This software is developed by Microchip Technology Inc. and its subsidiaries ("Microch
      +                          ip").
    72                           ; 
    73                           ; Redistribution and use in source and binary forms, with or without modification, are
    74                           ; permitted provided that the following conditions are met:
    75                           ; 
    76                           ;     1. Redistributions of source code must retain the above copyright notice, this lis
      +                          t of
    77                           ;        conditions and the following disclaimer.
    78                           ; 
    79                           ;     2. Redistributions in binary form must reproduce the above copyright notice, this 
      +                          list
    80                           ;        of conditions and the following disclaimer in the documentation and/or other
    81                           ;        materials provided with the distribution.
    82                           ; 
    83                           ;     3. Microchip's name may not be used to endorse or promote products derived from th
      +                          is
    84                           ;        software without specific prior written permission.
    85                           ; 
    86                           ; THIS SOFTWARE IS PROVIDED BY MICROCHIP "AS IS" AND ANY EXPRESS OR IMPLIED WARRANTIES,
    87                           ; INCLUDING, BUT NOT LIMITED TO, THE IMPLIED WARRANTIES OF MERCHANTABILITY AND FITNESS F
      +                          OR
    88                           ; PURPOSE ARE DISCLAIMED.  IN NO EVENT SHALL MICROCHIP BE LIABLE FOR ANY DIRECT, INDIREC
      +                          T,
    89                           ; INCIDENTAL, SPECIAL, EXEMPLARY, OR CONSEQUENTIAL DAMAGES (INCLUDING BUT NOT LIMITED TO
    90                           ; PROCUREMENT OF SUBSTITUTE GOODS OR SERVICES; LOSS OF USE, DATA OR PROFITS; OR BUSINESS
    91                           ; INTERRUPTION) HOWSOEVER CAUSED AND ON ANY THEORY OF LIABILITY, WHETHER IN CONTRACT, ST
      +                          RICT
    92                           ; LIABILITY, OR TORT (INCLUDING NEGLIGENCE OR OTHERWISE) ARISING IN ANY WAY OUT OF THE U
      +                          SE OF
    93                           ; THIS SOFTWARE, EVEN IF ADVISED OF THE POSSIBILITY OF SUCH DAMAGE.
    94                           ; 
    95                           ; 
    96                           ; Code-generator required, PIC18F47K42 Definitions
    97                           ; 
    98                           ; SFR Addresses
    99  0000                     _IVTADL	set	14493
   100  0000                     _IVTADH	set	14494
   101  0000                     _IVTADU	set	14495
   102  0000                     _PIE8bits	set	14744
   103  0000                     _PIR8bits	set	14760
   104  0000                     _PIE9bits	set	14745
   105  0000                     _PIR9bits	set	14761
   106  0000                     _PIR4bits	set	14756
   107  0000                     _PIE6bits	set	14742
   108  0000                     _PIE3bits	set	14739
   109  0000                     _IPR3bits	set	14723
   110  0000                     _IPR8bits	set	14728
   111  0000                     _IPR9bits	set	14729
   112  0000                     _IPR6bits	set	14726
   113  0000                     _PMD7	set	14791
   114  0000                     _PMD6	set	14790
   115  0000                     _PMD5	set	14789
   116  0000                     _PMD4	set	14788
   117  0000                     _PMD3	set	14787
   118  0000                     _PMD2	set	14786
   119  0000                     _PMD1	set	14785
   120  0000                     _PMD0	set	14784
   121  0000                     _OSCTUNE	set	14814
   122  0000                     _OSCFRQ	set	14815
   123  0000                     _OSCEN	set	14813
   124  0000                     _OSCCON3	set	14811
   125  0000                     _OSCCON1	set	14809
   126  0000                     _PLLR	set	118496
   127  0000                     _U1RXPPS	set	15077
   128  0000                     _RC6PPS	set	14870
   129  0000                     _RD1PPS	set	14873
   130  0000                     _RB6PPS	set	14862
   131  0000                     _U2RXPPS	set	15080
   132  0000                     _SLRCONE	set	14979
   133  0000                     _SLRCOND	set	14963
   134  0000                     _SLRCONC	set	14947
   135  0000                     _SLRCONB	set	14931
   136  0000                     _SLRCONA	set	14915
   137  0000                     _ODCOND	set	14962
   138  0000                     _ODCONC	set	14946
   139  0000                     _ODCONB	set	14930
   140  0000                     _ODCONA	set	14914
   141  0000                     _ODCONE	set	14978
   142  0000                     _RD1I2C	set	14971
   143  0000                     _RD0I2C	set	14970
   144  0000                     _RC4I2C	set	14955
   145  0000                     _RC3I2C	set	14954
   146  0000                     _RB2I2C	set	14939
   147  0000                     _RB1I2C	set	14938
   148  0000                     _WPUC	set	14945
   149  0000                     _WPUA	set	14913
   150  0000                     _WPUB	set	14929
   151  0000                     _WPUE	set	14977
   152  0000                     _WPUD	set	14961
   153  0000                     _ANSELA	set	14912
   154  0000                     _ANSELE	set	14976
   155  0000                     _ANSELB	set	14928
   156  0000                     _ANSELC	set	14944
   157  0000                     _ANSELD	set	14960
   158  0000                     _U2RXB	set	15824
   159  0000                     _U2TXB	set	15826
   160  0000                     _U2ERRIRbits	set	15841
   161  0000                     _U2ERRIE	set	15842
   162  0000                     _U2ERRIR	set	15841
   163  0000                     _U2UIR	set	15840
   164  0000                     _U2FIFO	set	15839
   165  0000                     _U2BRGH	set	15838
   166  0000                     _U2BRGL	set	15837
   167  0000                     _U2CON2	set	15836
   168  0000                     _U2CON1	set	15835
   169  0000                     _U2CON0	set	15834
   170  0000                     _U2P3L	set	15832
   171  0000                     _U2P2L	set	15830
   172  0000                     _U2P1L	set	15828
   173  0000                     _U1RXB	set	15848
   174  0000                     _U1TXB	set	15850
   175  0000                     _U1ERRIRbits	set	15865
   176  0000                     _U1ERRIE	set	15866
   177  0000                     _U1ERRIR	set	15865
   178  0000                     _U1UIR	set	15864
   179  0000                     _U1FIFO	set	15863
   180  0000                     _U1BRGH	set	15862
   181  0000                     _U1BRGL	set	15861
   182  0000                     _U1CON2	set	15860
   183  0000                     _U1CON1	set	15859
   184  0000                     _U1CON0	set	15858
   185  0000                     _U1P3H	set	15857
   186  0000                     _U1P3L	set	15856
   187  0000                     _U1P2H	set	15855
   188  0000                     _U1P2L	set	15854
   189  0000                     _U1P1H	set	15853
   190  0000                     _U1P1L	set	15852
   191  0000                     _CCPTMRS1bits	set	16223
   192  0000                     _LATEbits	set	16318
   193  0000                     _T5GCONbits	set	16283
   194  0000                     _T5CONbits	set	16282
   195  0000                     _T5CON	set	16282
   196  0000                     _TMR5L	set	16280
   197  0000                     _TMR5H	set	16281
   198  0000                     _T5CLK	set	16285
   199  0000                     _T5GATE	set	16284
   200  0000                     _T5GCON	set	16283
   201  0000                     _PR6	set	16275
   202  0000                     _TMR6	set	16274
   203  0000                     _T6CONbits	set	16276
   204  0000                     _T6RSTbits	set	16279
   205  0000                     _T6HLTbits	set	16277
   206  0000                     _T6CON	set	16276
   207  0000                     _T6TMR	set	16274
   208  0000                     _T6PR	set	16275
   209  0000                     _T6RST	set	16279
   210  0000                     _T6HLT	set	16277
   211  0000                     _T6CLKCON	set	16278
   212  0000                     _PWM8DCL	set	16224
   213  0000                     _PWM8DCH	set	16225
   214  0000                     _PWM8CON	set	16226
   215  0000                     _PR2	set	16299
   216  0000                     _TMR2	set	16298
   217  0000                     _T2CONbits	set	16300
   218  0000                     _T2RSTbits	set	16303
   219  0000                     _T2HLTbits	set	16301
   220  0000                     _T2CON	set	16300
   221  0000                     _T2TMR	set	16298
   222  0000                     _T2PR	set	16299
   223  0000                     _T2RST	set	16303
   224  0000                     _T2HLT	set	16301
   225  0000                     _T2CLKCON	set	16302
   226  0000                     _IVTLOCKbits	set	16340
   227  0000                     _IVTLOCK	set	16340
   228  0000                     _INTCON0bits	set	16338
   229  0000                     _TRISD	set	16325
   230  0000                     _TRISC	set	16324
   231  0000                     _TRISB	set	16323
   232  0000                     _TRISA	set	16322
   233  0000                     _TRISE	set	16326
   234  0000                     _LATC	set	16316
   235  0000                     _LATB	set	16315
   236  0000                     _LATA	set	16314
   237  0000                     _LATD	set	16317
   238  0000                     _LATE	set	16318
   239  0000                     _GIE	set	130711
   240                           
   241                           ; #config settings
   242  0000                     
   243                           	psect	cinit
   244  00061C                     __pcinit:
   245                           	opt callstack 0
   246  00061C                     start_initialization:
   247                           	opt callstack 0
   248  00061C                     __initialization:
   249                           	opt callstack 0
   250                           
   251                           ; Clear objects allocated to BANK0 (50 bytes)
   252  00061C  EE00  F060         	lfsr	0,__pbssBANK0
   253  000620  0E32               	movlw	50
   254  000622                     clear_0:
   255  000622  6AEE               	clrf	postinc0,c
   256  000624  06E8               	decf	wreg,f,c
   257  000626  E1FD               	bnz	clear_0
   258                           
   259                           ; Clear objects allocated to COMRAM (78 bytes)
   260  000628  EE00  F001         	lfsr	0,__pbssCOMRAM
   261  00062C  0E4E               	movlw	78
   262  00062E                     clear_1:
   263  00062E  6AEE               	clrf	postinc0,c
   264  000630  06E8               	decf	wreg,f,c
   265  000632  E1FD               	bnz	clear_1
   266                           
   267                           ;
   268                           ; Setup IVTBASE
   269                           ;
   270  000634  0E08               	movlw	(ivt0x8_base shr 0)& (0+255)
   271  000636  6ED5               	movwf	213,c
   272  000638  0E00               	movlw	(ivt0x8_base shr (0+8))& (0+255)
   273  00063A  6ED6               	movwf	214,c
   274  00063C  0E00               	movlw	(ivt0x8_base shr (0+16))& (0+255)
   275  00063E  6ED7               	movwf	215,c
   276  000640                     end_of_initialization:
   277                           	opt callstack 0
   278  000640                     __end_of__initialization:
   279                           	opt callstack 0
   280  000640  0100               	movlb	0
   281  000642  EF94  F002         	goto	_main	;jump to C main() function
   282                           
   283                           	psect	bssCOMRAM
   284  000001                     __pbssCOMRAM:
   285                           	opt callstack 0
   286  000001                     _uart2RxStatusBuffer:
   287                           	opt callstack 0
   288  000001                     	ds	8
   289  000009                     _uart1RxStatusBuffer:
   290                           	opt callstack 0
   291  000009                     	ds	8
   292  000011                     _uart1TxBuffer:
   293                           	opt callstack 0
   294  000011                     	ds	8
   295  000019                     _TMR5_InterruptHandler:
   296                           	opt callstack 0
   297  000019                     	ds	3
   298  00001C                     _TMR6_InterruptHandler:
   299                           	opt callstack 0
   300  00001C                     	ds	3
   301  00001F                     _UART2_ErrorHandler:
   302                           	opt callstack 0
   303  00001F                     	ds	3
   304  000022                     _UART2_OverrunErrorHandler:
   305                           	opt callstack 0
   306  000022                     	ds	3
   307  000025                     _UART2_FramingErrorHandler:
   308                           	opt callstack 0
   309  000025                     	ds	3
   310  000028                     _UART1_ErrorHandler:
   311                           	opt callstack 0
   312  000028                     	ds	3
   313  00002B                     _UART1_OverrunErrorHandler:
   314                           	opt callstack 0
   315  00002B                     	ds	3
   316  00002E                     _UART1_FramingErrorHandler:
   317                           	opt callstack 0
   318  00002E                     	ds	3
   319  000031                     _UART1_TxInterruptHandler:
   320                           	opt callstack 0
   321  000031                     	ds	3
   322  000034                     _UART1_RxInterruptHandler:
   323                           	opt callstack 0
   324  000034                     	ds	3
   325  000037                     _UART2_TxInterruptHandler:
   326                           	opt callstack 0
   327  000037                     	ds	3
   328  00003A                     _UART2_RxInterruptHandler:
   329                           	opt callstack 0
   330  00003A                     	ds	3
   331  00003D                     TMR5_ISR@CountCallBack:
   332                           	opt callstack 0
   333  00003D                     	ds	2
   334  00003F                     _timer5ReloadVal:
   335                           	opt callstack 0
   336  00003F                     	ds	2
   337  000041                     _uart2RxLastError:
   338                           	opt callstack 0
   339  000041                     	ds	1
   340  000042                     _uart2RxCount:
   341                           	opt callstack 0
   342  000042                     	ds	1
   343  000043                     _uart2RxTail:
   344                           	opt callstack 0
   345  000043                     	ds	1
   346  000044                     _uart2RxHead:
   347                           	opt callstack 0
   348  000044                     	ds	1
   349  000045                     _uart2TxBufferRemaining:
   350                           	opt callstack 0
   351  000045                     	ds	1
   352  000046                     _uart2TxTail:
   353                           	opt callstack 0
   354  000046                     	ds	1
   355  000047                     _uart2TxHead:
   356                           	opt callstack 0
   357  000047                     	ds	1
   358  000048                     _uart1RxLastError:
   359                           	opt callstack 0
   360  000048                     	ds	1
   361  000049                     _uart1RxCount:
   362                           	opt callstack 0
   363  000049                     	ds	1
   364  00004A                     _uart1RxTail:
   365                           	opt callstack 0
   366  00004A                     	ds	1
   367  00004B                     _uart1RxHead:
   368                           	opt callstack 0
   369  00004B                     	ds	1
   370  00004C                     _uart1TxBufferRemaining:
   371                           	opt callstack 0
   372  00004C                     	ds	1
   373  00004D                     _uart1TxTail:
   374                           	opt callstack 0
   375  00004D                     	ds	1
   376  00004E                     _uart1TxHead:
   377                           	opt callstack 0
   378  00004E                     	ds	1
   379                           
   380                           	psect	bssBANK0
   381  000060                     __pbssBANK0:
   382                           	opt callstack 0
   383  000060                     _tickCount:
   384                           	opt callstack 0
   385  000060                     	ds	26
   386  00007A                     _uart2RxBuffer:
   387                           	opt callstack 0
   388  00007A                     	ds	8
   389  000082                     _uart2TxBuffer:
   390                           	opt callstack 0
   391  000082                     	ds	8
   392  00008A                     _uart1RxBuffer:
   393                           	opt callstack 0
   394  00008A                     	ds	8
   395                           
   396                           	psect	cstackCOMRAM
   397  00004F                     __pcstackCOMRAM:
   398                           	opt callstack 0
   399  00004F                     
   400                           ; 1 bytes @ 0x0
   401  00004F                     	ds	2
   402  000051                     TMR6_DefaultInterruptHandler@i:
   403                           	opt callstack 0
   404                           
   405                           ; 1 bytes @ 0x2
   406  000051                     	ds	1
   407  000052                     ??_TMR5_DefaultInterruptHandler:
   408  000052                     TMR5_WriteTimer@timerVal:
   409                           	opt callstack 0
   410                           
   411                           ; 2 bytes @ 0x3
   412  000052                     	ds	1
   413  000053                     
   414                           ; 1 bytes @ 0x4
   415  000053                     	ds	1
   416  000054                     INTERRUPT_Initialize@state:
   417                           	opt callstack 0
   418  000054                     UART1_Write@txData:
   419                           	opt callstack 0
   420  000054                     UART2_Write@txData:
   421                           	opt callstack 0
   422  000054                     UART1_SetFramingErrorHandler@interruptHandler:
   423                           	opt callstack 0
   424  000054                     UART1_SetOverrunErrorHandler@interruptHandler:
   425                           	opt callstack 0
   426  000054                     UART1_SetErrorHandler@interruptHandler:
   427                           	opt callstack 0
   428  000054                     UART1_SetRxInterruptHandler@InterruptHandler:
   429                           	opt callstack 0
   430  000054                     UART1_SetTxInterruptHandler@InterruptHandler:
   431                           	opt callstack 0
   432  000054                     UART2_SetFramingErrorHandler@interruptHandler:
   433                           	opt callstack 0
   434  000054                     UART2_SetOverrunErrorHandler@interruptHandler:
   435                           	opt callstack 0
   436  000054                     UART2_SetErrorHandler@interruptHandler:
   437                           	opt callstack 0
   438  000054                     UART2_SetRxInterruptHandler@InterruptHandler:
   439                           	opt callstack 0
   440  000054                     UART2_SetTxInterruptHandler@InterruptHandler:
   441                           	opt callstack 0
   442  000054                     TMR6_SetInterruptHandler@InterruptHandler:
   443                           	opt callstack 0
   444  000054                     TMR5_SetInterruptHandler@InterruptHandler:
   445                           	opt callstack 0
   446                           
   447                           ; 3 bytes @ 0x5
   448  000054                     	ds	3
   449  000057                     ??_TMR5_Initialize:
   450  000057                     
   451                           ; 1 bytes @ 0x8
   452  000057                     	ds	2
   453  000059                     main@x:
   454                           	opt callstack 0
   455                           
   456                           ; 1 bytes @ 0xA
   457  000059                     	ds	1
   458  00005A                     main@y:
   459                           	opt callstack 0
   460                           
   461                           ; 1 bytes @ 0xB
   462  00005A                     	ds	1
   463                           
   464 ;;
   465 ;;Main: autosize = 0, tempsize = 0, incstack = 0, save=0
   466 ;;
   467 ;; *************** function _main *****************
   468 ;; Defined at:
   469 ;;		line 57 in file "main.c"
   470 ;; Parameters:    Size  Location     Type
   471 ;;		None
   472 ;; Auto vars:     Size  Location     Type
   473 ;;  y               1   11[COMRAM] unsigned char 
   474 ;;  x               1   10[COMRAM] unsigned char 
   475 ;; Return value:  Size  Location     Type
   476 ;;                  1    wreg      void 
   477 ;; Registers used:
   478 ;;		wreg, fsr2l, fsr2h, status,2, status,0, cstack
   479 ;; Tracked objects:
   480 ;;		On entry : 0/0
   481 ;;		On exit  : 0/0
   482 ;;		Unchanged: 0/0
   483 ;; Data sizes:     COMRAM   BANK0   BANK1   BANK2   BANK3   BANK4   BANK5   BANK6   BANK7   BANK8   BANK9  BANK10  BANK1
      +1  BANK12  BANK13  BANK14  BANK15  BANK16  BANK17  BANK18  BANK19  BANK20  BANK21  BANK22  BANK23  BANK24  BANK25  BANK2
      +6  BANK27  BANK28  BANK29  BANK30  BANK31
   484 ;;      Params:         0       0       0       0       0       0       0       0       0       0       0       0       
      +0       0       0       0       0       0       0       0       0       0       0       0       0       0       0       
      +0       0       0       0       0       0
   485 ;;      Locals:         2       0       0       0       0       0       0       0       0       0       0       0       
      +0       0       0       0       0       0       0       0       0       0       0       0       0       0       0       
      +0       0       0       0       0       0
   486 ;;      Temps:          0       0       0       0       0       0       0       0       0       0       0       0       
      +0       0       0       0       0       0       0       0       0       0       0       0       0       0       0       
      +0       0       0       0       0       0
   487 ;;      Totals:         2       0       0       0       0       0       0       0       0       0       0       0       
      +0       0       0       0       0       0       0       0       0       0       0       0       0       0       0       
      +0       0       0       0       0       0
   488 ;;Total ram usage:        2 bytes
   489 ;; Hardware stack levels required when called:    7
   490 ;; This function calls:
   491 ;;		_SYSTEM_Initialize
   492 ;;		_UART1_Write
   493 ;;		_UART1_is_tx_ready
   494 ;;		_UART2_Write
   495 ;;		_UART2_is_tx_ready
   496 ;; This function is called by:
   497 ;;		Startup code after reset
   498 ;; This function uses a non-reentrant model
   499 ;;
   500                           
   501                           	psect	text0
   502  000528                     __ptext0:
   503                           	opt callstack 0
   504  000528                     _main:
   505                           	opt callstack 24
   506                           
   507                           ;main.c: 59:  uint8_t x = 0, y = 0;
   508                           
   509                           ;incstack = 0
   510  000528  0E00               	movlw	0
   511  00052A  6E59               	movwf	main@x,c
   512  00052C  0E00               	movlw	0
   513  00052E  6E5A               	movwf	main@y,c
   514                           
   515                           ;main.c: 61:  SYSTEM_Initialize();
   516  000530  EC23  F003         	call	_SYSTEM_Initialize	;wreg free
   517                           
   518                           ;main.c: 68:  (INTCON0bits.GIEH = 1);
   519  000534  8ED2               	bsf	16338,7,c	;volatile
   520                           
   521                           ;main.c: 71:  (INTCON0bits.GIEL = 1);
   522  000536  8CD2               	bsf	16338,6,c	;volatile
   523  000538                     l2448:
   524                           
   525                           ;main.c: 80:   if (UART1_is_tx_ready())
   526  000538  EC9D  F004         	call	_UART1_is_tx_ready	;wreg free
   527  00053C  0900               	iorlw	0
   528  00053E  B4D8               	btfsc	status,2,c
   529  000540  D004               	goto	l2454
   530                           
   531                           ;main.c: 81:    UART1_Write(x++);
   532  000542  5059               	movf	main@x,w,c
   533  000544  EC58  F002         	call	_UART1_Write
   534  000548  2A59               	incf	main@x,f,c
   535  00054A                     l2454:
   536                           
   537                           ;main.c: 82:   if (UART2_is_tx_ready())
   538  00054A  EC9B  F004         	call	_UART2_is_tx_ready	;wreg free
   539  00054E  0900               	iorlw	0
   540  000550  B4D8               	btfsc	status,2,c
   541  000552  D7F2               	goto	l2448
   542                           
   543                           ;main.c: 83:    UART2_Write(y++);
   544  000554  505A               	movf	main@y,w,c
   545  000556  EC3A  F002         	call	_UART2_Write
   546  00055A  2A5A               	incf	main@y,f,c
   547  00055C  D7ED               	goto	l2448
   548  00055E                     __end_of_main:
   549                           	opt callstack 0
   550                           
   551 ;; *************** function _UART2_is_tx_ready *****************
   552 ;; Defined at:
   553 ;;		line 157 in file "mcc_generated_files/uart2.c"
   554 ;; Parameters:    Size  Location     Type
   555 ;;		None
   556 ;; Auto vars:     Size  Location     Type
   557 ;;		None
   558 ;; Return value:  Size  Location     Type
   559 ;;                  1    wreg      unsigned char 
   560 ;; Registers used:
   561 ;;		wreg, status,2
   562 ;; Tracked objects:
   563 ;;		On entry : 0/0
   564 ;;		On exit  : 0/0
   565 ;;		Unchanged: 0/0
   566 ;; Data sizes:     COMRAM   BANK0   BANK1   BANK2   BANK3   BANK4   BANK5   BANK6   BANK7   BANK8   BANK9  BANK10  BANK1
      +1  BANK12  BANK13  BANK14  BANK15  BANK16  BANK17  BANK18  BANK19  BANK20  BANK21  BANK22  BANK23  BANK24  BANK25  BANK2
      +6  BANK27  BANK28  BANK29  BANK30  BANK31
   567 ;;      Params:         0       0       0       0       0       0       0       0       0       0       0       0       
      +0       0       0       0       0       0       0       0       0       0       0       0       0       0       0       
      +0       0       0       0       0       0
   568 ;;      Locals:         0       0       0       0       0       0       0       0       0       0       0       0       
      +0       0       0       0       0       0       0       0       0       0       0       0       0       0       0       
      +0       0       0       0       0       0
   569 ;;      Temps:          0       0       0       0       0       0       0       0       0       0       0       0       
      +0       0       0       0       0       0       0       0       0       0       0       0       0       0       0       
      +0       0       0       0       0       0
   570 ;;      Totals:         0       0       0       0       0       0       0       0       0       0       0       0       
      +0       0       0       0       0       0       0       0       0       0       0       0       0       0       0       
      +0       0       0       0       0       0
   571 ;;Total ram usage:        0 bytes
   572 ;; Hardware stack levels used:    1
   573 ;; Hardware stack levels required when called:    4
   574 ;; This function calls:
   575 ;;		Nothing
   576 ;; This function is called by:
   577 ;;		_main
   578 ;; This function uses a non-reentrant model
   579 ;;
   580                           
   581                           	psect	text1
   582  000936                     __ptext1:
   583                           	opt callstack 0
   584  000936                     _UART2_is_tx_ready:
   585                           	opt callstack 26
   586                           
   587                           ;mcc_generated_files/uart2.c: 159:     return uart2TxBufferRemaining;
   588                           
   589                           ;incstack = 0
   590  000936  5045               	movf	_uart2TxBufferRemaining,w,c	;volatile
   591  000938  0012               	return		;funcret
   592  00093A                     __end_of_UART2_is_tx_ready:
   593                           	opt callstack 0
   594                           
   595 ;; *************** function _UART2_Write *****************
   596 ;; Defined at:
   597 ;;		line 193 in file "mcc_generated_files/uart2.c"
   598 ;; Parameters:    Size  Location     Type
   599 ;;  txData          1    wreg     unsigned char 
   600 ;; Auto vars:     Size  Location     Type
   601 ;;  txData          1    5[COMRAM] unsigned char 
   602 ;; Return value:  Size  Location     Type
   603 ;;                  1    wreg      void 
   604 ;; Registers used:
   605 ;;		wreg, fsr2l, fsr2h, status,2, status,0
   606 ;; Tracked objects:
   607 ;;		On entry : 0/0
   608 ;;		On exit  : 0/0
   609 ;;		Unchanged: 0/0
   610 ;; Data sizes:     COMRAM   BANK0   BANK1   BANK2   BANK3   BANK4   BANK5   BANK6   BANK7   BANK8   BANK9  BANK10  BANK1
      +1  BANK12  BANK13  BANK14  BANK15  BANK16  BANK17  BANK18  BANK19  BANK20  BANK21  BANK22  BANK23  BANK24  BANK25  BANK2
      +6  BANK27  BANK28  BANK29  BANK30  BANK31
   611 ;;      Params:         0       0       0       0       0       0       0       0       0       0       0       0       
      +0       0       0       0       0       0       0       0       0       0       0       0       0       0       0       
      +0       0       0       0       0       0
   612 ;;      Locals:         1       0       0       0       0       0       0       0       0       0       0       0       
      +0       0       0       0       0       0       0       0       0       0       0       0       0       0       0       
      +0       0       0       0       0       0
   613 ;;      Temps:          0       0       0       0       0       0       0       0       0       0       0       0       
      +0       0       0       0       0       0       0       0       0       0       0       0       0       0       0       
      +0       0       0       0       0       0
   614 ;;      Totals:         1       0       0       0       0       0       0       0       0       0       0       0       
      +0       0       0       0       0       0       0       0       0       0       0       0       0       0       0       
      +0       0       0       0       0       0
   615 ;;Total ram usage:        1 bytes
   616 ;; Hardware stack levels used:    1
   617 ;; Hardware stack levels required when called:    4
   618 ;; This function calls:
   619 ;;		Nothing
   620 ;; This function is called by:
   621 ;;		_main
   622 ;;		_putch
   623 ;; This function uses a non-reentrant model
   624 ;;
   625                           
   626                           	psect	text2
   627  000474                     __ptext2:
   628                           	opt callstack 0
   629  000474                     _UART2_Write:
   630                           	opt callstack 26
   631                           
   632                           ;incstack = 0
   633                           ;UART2_Write@txData stored from wreg
   634  000474  6E54               	movwf	UART2_Write@txData,c
   635  000476                     
   636                           ;mcc_generated_files/uart2.c: 195:     while(0 == uart2TxBufferRemaining)
   637                           
   638                           ;mcc_generated_files/uart2.c: 193: void UART2_Write(uint8_t txData);mcc_generated_files/
      +                          uart2.c: 194: {;mcc_generated_files/uart2.c: 195:     while(0 == uart2TxBufferRemaining)
   639  000476  5045               	movf	_uart2TxBufferRemaining,w,c	;volatile
   640  000478  B4D8               	btfsc	status,2,c
   641  00047A  D7FD               	goto	l2310
   642                           
   643                           ;mcc_generated_files/uart2.c: 199:     if(0 == PIE6bits.U2TXIE)
   644  00047C  0139               	movlb	57	; () banked
   645  00047E  B796               	btfsc	150,3,b	;volatile
   646  000480  D004               	goto	l480
   647                           
   648                           ; BSR set to: 57
   649                           ;mcc_generated_files/uart2.c: 200:     {;mcc_generated_files/uart2.c: 201:         U2TXB
      +                           = txData;
   650  000482  0060  F153  FDD2   	movff	UART2_Write@txData,15826	;volatile
   651                           
   652                           ;mcc_generated_files/uart2.c: 202:     }
   653  000488  D011               	goto	l2326
   654  00048A                     l480:
   655                           
   656                           ; BSR set to: 57
   657                           ;mcc_generated_files/uart2.c: 204:     {;mcc_generated_files/uart2.c: 205:         PIE6b
      +                          its.U2TXIE = 0;
   658  00048A  9796               	bcf	150,3,b	;volatile
   659                           
   660                           ; BSR set to: 57
   661                           ;mcc_generated_files/uart2.c: 206:         uart2TxBuffer[uart2TxHead++] = txData;
   662  00048C  0E82               	movlw	low _uart2TxBuffer
   663  00048E  2447               	addwf	_uart2TxHead,w,c	;volatile
   664  000490  6ED9               	movwf	fsr2l,c
   665  000492  6ADA               	clrf	fsr2h,c
   666  000494  0E00               	movlw	high _uart2TxBuffer
   667  000496  22DA               	addwfc	fsr2h,f,c
   668  000498  0060  F153  FFDF   	movff	UART2_Write@txData,indf2
   669                           
   670                           ; BSR set to: 57
   671  00049E  2A47               	incf	_uart2TxHead,f,c	;volatile
   672                           
   673                           ; BSR set to: 57
   674                           ;mcc_generated_files/uart2.c: 207:         if(sizeof(uart2TxBuffer) <= uart2TxHead)
   675  0004A0  0E07               	movlw	7
   676  0004A2  6447               	cpfsgt	_uart2TxHead,c	;volatile
   677  0004A4  D002               	goto	l2324
   678                           
   679                           ; BSR set to: 57
   680                           ;mcc_generated_files/uart2.c: 208:         {;mcc_generated_files/uart2.c: 209:          
      +                             uart2TxHead = 0;
   681  0004A6  0E00               	movlw	0
   682  0004A8  6E47               	movwf	_uart2TxHead,c	;volatile
   683  0004AA                     l2324:
   684                           
   685                           ; BSR set to: 57
   686                           ;mcc_generated_files/uart2.c: 211:         uart2TxBufferRemaining--;
   687  0004AA  0645               	decf	_uart2TxBufferRemaining,f,c	;volatile
   688  0004AC                     l2326:
   689                           
   690                           ; BSR set to: 57
   691                           ;mcc_generated_files/uart2.c: 213:     PIE6bits.U2TXIE = 1;
   692  0004AC  8796               	bsf	150,3,b	;volatile
   693                           
   694                           ; BSR set to: 57
   695  0004AE  0012               	return		;funcret
   696  0004B0                     __end_of_UART2_Write:
   697                           	opt callstack 0
   698                           
   699 ;; *************** function _UART1_is_tx_ready *****************
   700 ;; Defined at:
   701 ;;		line 166 in file "mcc_generated_files/uart1.c"
   702 ;; Parameters:    Size  Location     Type
   703 ;;		None
   704 ;; Auto vars:     Size  Location     Type
   705 ;;		None
   706 ;; Return value:  Size  Location     Type
   707 ;;                  1    wreg      unsigned char 
   708 ;; Registers used:
   709 ;;		wreg, status,2
   710 ;; Tracked objects:
   711 ;;		On entry : 0/0
   712 ;;		On exit  : 0/0
   713 ;;		Unchanged: 0/0
   714 ;; Data sizes:     COMRAM   BANK0   BANK1   BANK2   BANK3   BANK4   BANK5   BANK6   BANK7   BANK8   BANK9  BANK10  BANK1
      +1  BANK12  BANK13  BANK14  BANK15  BANK16  BANK17  BANK18  BANK19  BANK20  BANK21  BANK22  BANK23  BANK24  BANK25  BANK2
      +6  BANK27  BANK28  BANK29  BANK30  BANK31
   715 ;;      Params:         0       0       0       0       0       0       0       0       0       0       0       0       
      +0       0       0       0       0       0       0       0       0       0       0       0       0       0       0       
      +0       0       0       0       0       0
   716 ;;      Locals:         0       0       0       0       0       0       0       0       0       0       0       0       
      +0       0       0       0       0       0       0       0       0       0       0       0       0       0       0       
      +0       0       0       0       0       0
   717 ;;      Temps:          0       0       0       0       0       0       0       0       0       0       0       0       
      +0       0       0       0       0       0       0       0       0       0       0       0       0       0       0       
      +0       0       0       0       0       0
   718 ;;      Totals:         0       0       0       0       0       0       0       0       0       0       0       0       
      +0       0       0       0       0       0       0       0       0       0       0       0       0       0       0       
      +0       0       0       0       0       0
   719 ;;Total ram usage:        0 bytes
   720 ;; Hardware stack levels used:    1
   721 ;; Hardware stack levels required when called:    4
   722 ;; This function calls:
   723 ;;		Nothing
   724 ;; This function is called by:
   725 ;;		_main
   726 ;; This function uses a non-reentrant model
   727 ;;
   728                           
   729                           	psect	text3
   730  00093A                     __ptext3:
   731                           	opt callstack 0
   732  00093A                     _UART1_is_tx_ready:
   733                           	opt callstack 26
   734                           
   735                           ;mcc_generated_files/uart1.c: 168:     return uart1TxBufferRemaining;
   736                           
   737                           ; BSR set to: 57
   738                           ;incstack = 0
   739  00093A  504C               	movf	_uart1TxBufferRemaining,w,c	;volatile
   740  00093C  0012               	return		;funcret
   741  00093E                     __end_of_UART1_is_tx_ready:
   742                           	opt callstack 0
   743                           
   744 ;; *************** function _UART1_Write *****************
   745 ;; Defined at:
   746 ;;		line 202 in file "mcc_generated_files/uart1.c"
   747 ;; Parameters:    Size  Location     Type
   748 ;;  txData          1    wreg     unsigned char 
   749 ;; Auto vars:     Size  Location     Type
   750 ;;  txData          1    5[COMRAM] unsigned char 
   751 ;; Return value:  Size  Location     Type
   752 ;;                  1    wreg      void 
   753 ;; Registers used:
   754 ;;		wreg, fsr2l, fsr2h, status,2, status,0
   755 ;; Tracked objects:
   756 ;;		On entry : 0/0
   757 ;;		On exit  : 0/0
   758 ;;		Unchanged: 0/0
   759 ;; Data sizes:     COMRAM   BANK0   BANK1   BANK2   BANK3   BANK4   BANK5   BANK6   BANK7   BANK8   BANK9  BANK10  BANK1
      +1  BANK12  BANK13  BANK14  BANK15  BANK16  BANK17  BANK18  BANK19  BANK20  BANK21  BANK22  BANK23  BANK24  BANK25  BANK2
      +6  BANK27  BANK28  BANK29  BANK30  BANK31
   760 ;;      Params:         0       0       0       0       0       0       0       0       0       0       0       0       
      +0       0       0       0       0       0       0       0       0       0       0       0       0       0       0       
      +0       0       0       0       0       0
   761 ;;      Locals:         1       0       0       0       0       0       0       0       0       0       0       0       
      +0       0       0       0       0       0       0       0       0       0       0       0       0       0       0       
      +0       0       0       0       0       0
   762 ;;      Temps:          0       0       0       0       0       0       0       0       0       0       0       0       
      +0       0       0       0       0       0       0       0       0       0       0       0       0       0       0       
      +0       0       0       0       0       0
   763 ;;      Totals:         1       0       0       0       0       0       0       0       0       0       0       0       
      +0       0       0       0       0       0       0       0       0       0       0       0       0       0       0       
      +0       0       0       0       0       0
   764 ;;Total ram usage:        1 bytes
   765 ;; Hardware stack levels used:    1
   766 ;; Hardware stack levels required when called:    4
   767 ;; This function calls:
   768 ;;		Nothing
   769 ;; This function is called by:
   770 ;;		_main
   771 ;; This function uses a non-reentrant model
   772 ;;
   773                           
   774                           	psect	text4
   775  0004B0                     __ptext4:
   776                           	opt callstack 0
   777  0004B0                     _UART1_Write:
   778                           	opt callstack 26
   779                           
   780                           ;incstack = 0
   781                           ;UART1_Write@txData stored from wreg
   782  0004B0  6E54               	movwf	UART1_Write@txData,c
   783  0004B2                     
   784                           ;mcc_generated_files/uart1.c: 204:     while(0 == uart1TxBufferRemaining)
   785                           
   786                           ;mcc_generated_files/uart1.c: 202: void UART1_Write(uint8_t txData);mcc_generated_files/
      +                          uart1.c: 203: {;mcc_generated_files/uart1.c: 204:     while(0 == uart1TxBufferRemaining)
   787  0004B2  504C               	movf	_uart1TxBufferRemaining,w,c	;volatile
   788  0004B4  B4D8               	btfsc	status,2,c
   789  0004B6  D7FD               	goto	l1742
   790                           
   791                           ;mcc_generated_files/uart1.c: 208:     if(0 == PIE3bits.U1TXIE)
   792  0004B8  0139               	movlb	57	; () banked
   793  0004BA  B993               	btfsc	147,4,b	;volatile
   794  0004BC  D004               	goto	l312
   795                           
   796                           ; BSR set to: 57
   797                           ;mcc_generated_files/uart1.c: 209:     {;mcc_generated_files/uart1.c: 210:         U1TXB
      +                           = txData;
   798  0004BE  0060  F153  FDEA   	movff	UART1_Write@txData,15850	;volatile
   799                           
   800                           ;mcc_generated_files/uart1.c: 211:     }
   801  0004C4  D011               	goto	l1758
   802  0004C6                     l312:
   803                           
   804                           ; BSR set to: 57
   805                           ;mcc_generated_files/uart1.c: 213:     {;mcc_generated_files/uart1.c: 214:         PIE3b
      +                          its.U1TXIE = 0;
   806  0004C6  9993               	bcf	147,4,b	;volatile
   807                           
   808                           ; BSR set to: 57
   809                           ;mcc_generated_files/uart1.c: 215:         uart1TxBuffer[uart1TxHead++] = txData;
   810  0004C8  0E11               	movlw	low _uart1TxBuffer
   811  0004CA  244E               	addwf	_uart1TxHead,w,c	;volatile
   812  0004CC  6ED9               	movwf	fsr2l,c
   813  0004CE  6ADA               	clrf	fsr2h,c
   814  0004D0  0E00               	movlw	high _uart1TxBuffer
   815  0004D2  22DA               	addwfc	fsr2h,f,c
   816  0004D4  0060  F153  FFDF   	movff	UART1_Write@txData,indf2
   817                           
   818                           ; BSR set to: 57
   819  0004DA  2A4E               	incf	_uart1TxHead,f,c	;volatile
   820                           
   821                           ; BSR set to: 57
   822                           ;mcc_generated_files/uart1.c: 216:         if(sizeof(uart1TxBuffer) <= uart1TxHead)
   823  0004DC  0E07               	movlw	7
   824  0004DE  644E               	cpfsgt	_uart1TxHead,c	;volatile
   825  0004E0  D002               	goto	l1756
   826                           
   827                           ; BSR set to: 57
   828                           ;mcc_generated_files/uart1.c: 217:         {;mcc_generated_files/uart1.c: 218:          
      +                             uart1TxHead = 0;
   829  0004E2  0E00               	movlw	0
   830  0004E4  6E4E               	movwf	_uart1TxHead,c	;volatile
   831  0004E6                     l1756:
   832                           
   833                           ; BSR set to: 57
   834                           ;mcc_generated_files/uart1.c: 220:         uart1TxBufferRemaining--;
   835  0004E6  064C               	decf	_uart1TxBufferRemaining,f,c	;volatile
   836  0004E8                     l1758:
   837                           
   838                           ; BSR set to: 57
   839                           ;mcc_generated_files/uart1.c: 222:     PIE3bits.U1TXIE = 1;
   840  0004E8  8993               	bsf	147,4,b	;volatile
   841                           
   842                           ; BSR set to: 57
   843  0004EA  0012               	return		;funcret
   844  0004EC                     __end_of_UART1_Write:
   845                           	opt callstack 0
   846                           
   847 ;; *************** function _SYSTEM_Initialize *****************
   848 ;; Defined at:
   849 ;;		line 50 in file "mcc_generated_files/mcc.c"
   850 ;; Parameters:    Size  Location     Type
   851 ;;		None
   852 ;; Auto vars:     Size  Location     Type
   853 ;;		None
   854 ;; Return value:  Size  Location     Type
   855 ;;                  1    wreg      void 
   856 ;; Registers used:
   857 ;;		wreg, status,2, status,0, cstack
   858 ;; Tracked objects:
   859 ;;		On entry : 0/0
   860 ;;		On exit  : 0/0
   861 ;;		Unchanged: 0/0
   862 ;; Data sizes:     COMRAM   BANK0   BANK1   BANK2   BANK3   BANK4   BANK5   BANK6   BANK7   BANK8   BANK9  BANK10  BANK1
      +1  BANK12  BANK13  BANK14  BANK15  BANK16  BANK17  BANK18  BANK19  BANK20  BANK21  BANK22  BANK23  BANK24  BANK25  BANK2
      +6  BANK27  BANK28  BANK29  BANK30  BANK31
   863 ;;      Params:         0       0       0       0       0       0       0       0       0       0       0       0       
      +0       0       0       0       0       0       0       0       0       0       0       0       0       0       0       
      +0       0       0       0       0       0
   864 ;;      Locals:         0       0       0       0       0       0       0       0       0       0       0       0       
      +0       0       0       0       0       0       0       0       0       0       0       0       0       0       0       
      +0       0       0       0       0       0
   865 ;;      Temps:          0       0       0       0       0       0       0       0       0       0       0       0       
      +0       0       0       0       0       0       0       0       0       0       0       0       0       0       0       
      +0       0       0       0       0       0
   866 ;;      Totals:         0       0       0       0       0       0       0       0       0       0       0       0       
      +0       0       0       0       0       0       0       0       0       0       0       0       0       0       0       
      +0       0       0       0       0       0
   867 ;;Total ram usage:        0 bytes
   868 ;; Hardware stack levels used:    1
   869 ;; Hardware stack levels required when called:    6
   870 ;; This function calls:
   871 ;;		_INTERRUPT_Initialize
   872 ;;		_OSCILLATOR_Initialize
   873 ;;		_PIN_MANAGER_Initialize
   874 ;;		_PMD_Initialize
   875 ;;		_PWM8_Initialize
   876 ;;		_TMR2_Initialize
   877 ;;		_TMR5_Initialize
   878 ;;		_TMR6_Initialize
   879 ;;		_UART1_Initialize
   880 ;;		_UART2_Initialize
   881 ;; This function is called by:
   882 ;;		_main
   883 ;; This function uses a non-reentrant model
   884 ;;
   885                           
   886                           	psect	text5
   887  000646                     __ptext5:
   888                           	opt callstack 0
   889  000646                     _SYSTEM_Initialize:
   890                           	opt callstack 24
   891                           
   892                           ;mcc_generated_files/mcc.c: 52:     INTERRUPT_Initialize();
   893                           
   894                           ; BSR set to: 57
   895                           ;incstack = 0
   896  000646  EC16  F002         	call	_INTERRUPT_Initialize	;wreg free
   897                           
   898                           ;mcc_generated_files/mcc.c: 53:     PMD_Initialize();
   899  00064A  EC4B  F003         	call	_PMD_Initialize	;wreg free
   900                           
   901                           ;mcc_generated_files/mcc.c: 54:     PIN_MANAGER_Initialize();
   902  00064E  EC0B  F001         	call	_PIN_MANAGER_Initialize	;wreg free
   903                           
   904                           ;mcc_generated_files/mcc.c: 55:     OSCILLATOR_Initialize();
   905  000652  ECF6  F003         	call	_OSCILLATOR_Initialize	;wreg free
   906                           
   907                           ;mcc_generated_files/mcc.c: 56:     TMR6_Initialize();
   908  000656  ECC9  F002         	call	_TMR6_Initialize	;wreg free
   909                           
   910                           ;mcc_generated_files/mcc.c: 57:     TMR5_Initialize();
   911  00065A  ECF1  F001         	call	_TMR5_Initialize	;wreg free
   912                           
   913                           ;mcc_generated_files/mcc.c: 58:     TMR2_Initialize();
   914  00065E  ECE7  F003         	call	_TMR2_Initialize	;wreg free
   915                           
   916                           ;mcc_generated_files/mcc.c: 59:     PWM8_Initialize();
   917  000662  EC11  F004         	call	_PWM8_Initialize	;wreg free
   918                           
   919                           ;mcc_generated_files/mcc.c: 60:     UART2_Initialize();
   920  000666  ECB5  F000         	call	_UART2_Initialize	;wreg free
   921                           
   922                           ;mcc_generated_files/mcc.c: 61:     UART1_Initialize();
   923  00066A  EC59  F000         	call	_UART1_Initialize	;wreg free
   924  00066E  0012               	return		;funcret
   925  000670                     __end_of_SYSTEM_Initialize:
   926                           	opt callstack 0
   927                           
   928 ;; *************** function _UART2_Initialize *****************
   929 ;; Defined at:
   930 ;;		line 87 in file "mcc_generated_files/uart2.c"
   931 ;; Parameters:    Size  Location     Type
   932 ;;		None
   933 ;; Auto vars:     Size  Location     Type
   934 ;;		None
   935 ;; Return value:  Size  Location     Type
   936 ;;                  1    wreg      void 
   937 ;; Registers used:
   938 ;;		wreg, status,2, status,0, cstack
   939 ;; Tracked objects:
   940 ;;		On entry : 0/0
   941 ;;		On exit  : 0/0
   942 ;;		Unchanged: 0/0
   943 ;; Data sizes:     COMRAM   BANK0   BANK1   BANK2   BANK3   BANK4   BANK5   BANK6   BANK7   BANK8   BANK9  BANK10  BANK1
      +1  BANK12  BANK13  BANK14  BANK15  BANK16  BANK17  BANK18  BANK19  BANK20  BANK21  BANK22  BANK23  BANK24  BANK25  BANK2
      +6  BANK27  BANK28  BANK29  BANK30  BANK31
   944 ;;      Params:         0       0       0       0       0       0       0       0       0       0       0       0       
      +0       0       0       0       0       0       0       0       0       0       0       0       0       0       0       
      +0       0       0       0       0       0
   945 ;;      Locals:         0       0       0       0       0       0       0       0       0       0       0       0       
      +0       0       0       0       0       0       0       0       0       0       0       0       0       0       0       
      +0       0       0       0       0       0
   946 ;;      Temps:          0       0       0       0       0       0       0       0       0       0       0       0       
      +0       0       0       0       0       0       0       0       0       0       0       0       0       0       0       
      +0       0       0       0       0       0
   947 ;;      Totals:         0       0       0       0       0       0       0       0       0       0       0       0       
      +0       0       0       0       0       0       0       0       0       0       0       0       0       0       0       
      +0       0       0       0       0       0
   948 ;;Total ram usage:        0 bytes
   949 ;; Hardware stack levels used:    1
   950 ;; Hardware stack levels required when called:    5
   951 ;; This function calls:
   952 ;;		_UART2_SetErrorHandler
   953 ;;		_UART2_SetFramingErrorHandler
   954 ;;		_UART2_SetOverrunErrorHandler
   955 ;;		_UART2_SetRxInterruptHandler
   956 ;;		_UART2_SetTxInterruptHandler
   957 ;; This function is called by:
   958 ;;		_SYSTEM_Initialize
   959 ;; This function uses a non-reentrant model
   960 ;;
   961                           
   962                           	psect	text6
   963  00016A                     __ptext6:
   964                           	opt callstack 0
   965  00016A                     _UART2_Initialize:
   966                           	opt callstack 24
   967                           
   968                           ;mcc_generated_files/uart2.c: 90:     PIE6bits.U2RXIE = 0;
   969                           
   970                           ;incstack = 0
   971  00016A  0139               	movlb	57	; () banked
   972  00016C  9596               	bcf	150,2,b	;volatile
   973                           
   974                           ; BSR set to: 57
   975                           ;mcc_generated_files/uart2.c: 91:     UART2_SetRxInterruptHandler(UART2_Receive_ISR);
   976  00016E  0E4A               	movlw	low _UART2_Receive_ISR
   977  000170  6E54               	movwf	UART2_SetRxInterruptHandler@InterruptHandler,c
   978  000172  0E03               	movlw	high _UART2_Receive_ISR
   979  000174  6E55               	movwf	UART2_SetRxInterruptHandler@InterruptHandler+1,c
   980  000176  0E00               	movlw	low (_UART2_Receive_ISR shr (0+16))
   981  000178  6E56               	movwf	UART2_SetRxInterruptHandler@InterruptHandler+2,c
   982  00017A  EC27  F004         	call	_UART2_SetRxInterruptHandler	;wreg free
   983                           
   984                           ;mcc_generated_files/uart2.c: 92:     PIE6bits.U2TXIE = 0;
   985  00017E  0139               	movlb	57	; () banked
   986  000180  9796               	bcf	150,3,b	;volatile
   987                           
   988                           ;mcc_generated_files/uart2.c: 93:     UART2_SetTxInterruptHandler(UART2_Transmit_ISR);
   989  000182  0EEE               	movlw	low _UART2_Transmit_ISR
   990  000184  6E54               	movwf	UART2_SetTxInterruptHandler@InterruptHandler,c
   991  000186  0E05               	movlw	high _UART2_Transmit_ISR
   992  000188  6E55               	movwf	UART2_SetTxInterruptHandler@InterruptHandler+1,c
   993  00018A  0E00               	movlw	low (_UART2_Transmit_ISR shr (0+16))
   994  00018C  6E56               	movwf	UART2_SetTxInterruptHandler@InterruptHandler+2,c
   995  00018E  EC1D  F004         	call	_UART2_SetTxInterruptHandler	;wreg free
   996                           
   997                           ;mcc_generated_files/uart2.c: 98:     U2P1L = 0x00;
   998  000192  0E00               	movlw	0
   999  000194  013D               	movlb	61	; () banked
  1000  000196  6FD4               	movwf	212,b	;volatile
  1001                           
  1002                           ; BSR set to: 61
  1003                           ;mcc_generated_files/uart2.c: 101:     U2P2L = 0x00;
  1004  000198  0E00               	movlw	0
  1005  00019A  6FD6               	movwf	214,b	;volatile
  1006                           
  1007                           ; BSR set to: 61
  1008                           ;mcc_generated_files/uart2.c: 104:     U2P3L = 0x00;
  1009  00019C  0E00               	movlw	0
  1010  00019E  6FD8               	movwf	216,b	;volatile
  1011                           
  1012                           ; BSR set to: 61
  1013                           ;mcc_generated_files/uart2.c: 107:     U2CON0 = 0xB0;
  1014  0001A0  0EB0               	movlw	176
  1015  0001A2  6FDA               	movwf	218,b	;volatile
  1016                           
  1017                           ; BSR set to: 61
  1018                           ;mcc_generated_files/uart2.c: 110:     U2CON1 = 0x80;
  1019  0001A4  0E80               	movlw	128
  1020  0001A6  6FDB               	movwf	219,b	;volatile
  1021                           
  1022                           ; BSR set to: 61
  1023                           ;mcc_generated_files/uart2.c: 113:     U2CON2 = 0x00;
  1024  0001A8  0E00               	movlw	0
  1025  0001AA  6FDC               	movwf	220,b	;volatile
  1026                           
  1027                           ; BSR set to: 61
  1028                           ;mcc_generated_files/uart2.c: 116:     U2BRGL = 0x40;
  1029  0001AC  0E40               	movlw	64
  1030  0001AE  6FDD               	movwf	221,b	;volatile
  1031                           
  1032                           ; BSR set to: 61
  1033                           ;mcc_generated_files/uart2.c: 119:     U2BRGH = 0x03;
  1034  0001B0  0E03               	movlw	3
  1035  0001B2  6FDE               	movwf	222,b	;volatile
  1036                           
  1037                           ; BSR set to: 61
  1038                           ;mcc_generated_files/uart2.c: 122:     U2FIFO = 0x00;
  1039  0001B4  0E00               	movlw	0
  1040  0001B6  6FDF               	movwf	223,b	;volatile
  1041                           
  1042                           ; BSR set to: 61
  1043                           ;mcc_generated_files/uart2.c: 125:     U2UIR = 0x00;
  1044  0001B8  0E00               	movlw	0
  1045  0001BA  6FE0               	movwf	224,b	;volatile
  1046                           
  1047                           ; BSR set to: 61
  1048                           ;mcc_generated_files/uart2.c: 128:     U2ERRIR = 0x00;
  1049  0001BC  0E00               	movlw	0
  1050  0001BE  6FE1               	movwf	225,b	;volatile
  1051                           
  1052                           ; BSR set to: 61
  1053                           ;mcc_generated_files/uart2.c: 131:     U2ERRIE = 0x00;
  1054  0001C0  0E00               	movlw	0
  1055  0001C2  6FE2               	movwf	226,b	;volatile
  1056                           
  1057                           ;mcc_generated_files/uart2.c: 134:     UART2_SetFramingErrorHandler(UART2_DefaultFraming
      +                          ErrorHandler);
  1058  0001C4  0E48               	movlw	low _UART2_DefaultFramingErrorHandler
  1059  0001C6  6E54               	movwf	UART2_SetFramingErrorHandler@interruptHandler,c
  1060  0001C8  0E09               	movlw	high _UART2_DefaultFramingErrorHandler
  1061  0001CA  6E55               	movwf	UART2_SetFramingErrorHandler@interruptHandler+1,c
  1062  0001CC  0E00               	movlw	low (_UART2_DefaultFramingErrorHandler shr (0+16))
  1063  0001CE  6E56               	movwf	UART2_SetFramingErrorHandler@interruptHandler+2,c
  1064  0001D0  EC3B  F004         	call	_UART2_SetFramingErrorHandler	;wreg free
  1065                           
  1066                           ;mcc_generated_files/uart2.c: 135:     UART2_SetOverrunErrorHandler(UART2_DefaultOverrun
      +                          ErrorHandler);
  1067  0001D4  0E46               	movlw	low _UART2_DefaultOverrunErrorHandler
  1068  0001D6  6E54               	movwf	UART2_SetOverrunErrorHandler@interruptHandler,c
  1069  0001D8  0E09               	movlw	high _UART2_DefaultOverrunErrorHandler
  1070  0001DA  6E55               	movwf	UART2_SetOverrunErrorHandler@interruptHandler+1,c
  1071  0001DC  0E00               	movlw	low (_UART2_DefaultOverrunErrorHandler shr (0+16))
  1072  0001DE  6E56               	movwf	UART2_SetOverrunErrorHandler@interruptHandler+2,c
  1073  0001E0  EC31  F004         	call	_UART2_SetOverrunErrorHandler	;wreg free
  1074                           
  1075                           ;mcc_generated_files/uart2.c: 136:     UART2_SetErrorHandler(UART2_DefaultErrorHandler);
  1076  0001E4  0E30               	movlw	low _UART2_DefaultErrorHandler
  1077  0001E6  6E54               	movwf	UART2_SetErrorHandler@interruptHandler,c
  1078  0001E8  0E09               	movlw	high _UART2_DefaultErrorHandler
  1079  0001EA  6E55               	movwf	UART2_SetErrorHandler@interruptHandler+1,c
  1080  0001EC  0E00               	movlw	low (_UART2_DefaultErrorHandler shr (0+16))
  1081  0001EE  6E56               	movwf	UART2_SetErrorHandler@interruptHandler+2,c
  1082  0001F0  EC45  F004         	call	_UART2_SetErrorHandler	;wreg free
  1083                           
  1084                           ;mcc_generated_files/uart2.c: 138:     uart2RxLastError.status = 0;
  1085  0001F4  0E00               	movlw	0
  1086  0001F6  6E41               	movwf	_uart2RxLastError,c	;volatile
  1087                           
  1088                           ;mcc_generated_files/uart2.c: 141:     uart2TxHead = 0;
  1089  0001F8  0E00               	movlw	0
  1090  0001FA  6E47               	movwf	_uart2TxHead,c	;volatile
  1091                           
  1092                           ;mcc_generated_files/uart2.c: 142:     uart2TxTail = 0;
  1093  0001FC  0E00               	movlw	0
  1094  0001FE  6E46               	movwf	_uart2TxTail,c	;volatile
  1095                           
  1096                           ;mcc_generated_files/uart2.c: 143:     uart2TxBufferRemaining = sizeof(uart2TxBuffer);
  1097  000200  0E08               	movlw	8
  1098  000202  6E45               	movwf	_uart2TxBufferRemaining,c	;volatile
  1099                           
  1100                           ;mcc_generated_files/uart2.c: 144:     uart2RxHead = 0;
  1101  000204  0E00               	movlw	0
  1102  000206  6E44               	movwf	_uart2RxHead,c	;volatile
  1103                           
  1104                           ;mcc_generated_files/uart2.c: 145:     uart2RxTail = 0;
  1105  000208  0E00               	movlw	0
  1106  00020A  6E43               	movwf	_uart2RxTail,c	;volatile
  1107                           
  1108                           ;mcc_generated_files/uart2.c: 146:     uart2RxCount = 0;
  1109  00020C  0E00               	movlw	0
  1110  00020E  6E42               	movwf	_uart2RxCount,c	;volatile
  1111                           
  1112                           ;mcc_generated_files/uart2.c: 149:     PIE6bits.U2RXIE = 1;
  1113  000210  0139               	movlb	57	; () banked
  1114  000212  8596               	bsf	150,2,b	;volatile
  1115                           
  1116                           ; BSR set to: 57
  1117  000214  0012               	return		;funcret
  1118  000216                     __end_of_UART2_Initialize:
  1119                           	opt callstack 0
  1120                           
  1121 ;; *************** function _UART2_SetTxInterruptHandler *****************
  1122 ;; Defined at:
  1123 ;;		line 324 in file "mcc_generated_files/uart2.c"
  1124 ;; Parameters:    Size  Location     Type
  1125 ;;  InterruptHan    3    5[COMRAM] PTR FTN()void 
  1126 ;;		 -> UART2_Transmit_ISR(1), 
  1127 ;; Auto vars:     Size  Location     Type
  1128 ;;		None
  1129 ;; Return value:  Size  Location     Type
  1130 ;;                  1    wreg      void 
  1131 ;; Registers used:
  1132 ;;		wreg, status,2, status,0
  1133 ;; Tracked objects:
  1134 ;;		On entry : 0/0
  1135 ;;		On exit  : 0/0
  1136 ;;		Unchanged: 0/0
  1137 ;; Data sizes:     COMRAM   BANK0   BANK1   BANK2   BANK3   BANK4   BANK5   BANK6   BANK7   BANK8   BANK9  BANK10  BANK1
      +1  BANK12  BANK13  BANK14  BANK15  BANK16  BANK17  BANK18  BANK19  BANK20  BANK21  BANK22  BANK23  BANK24  BANK25  BANK2
      +6  BANK27  BANK28  BANK29  BANK30  BANK31
  1138 ;;      Params:         3       0       0       0       0       0       0       0       0       0       0       0       
      +0       0       0       0       0       0       0       0       0       0       0       0       0       0       0       
      +0       0       0       0       0       0
  1139 ;;      Locals:         0       0       0       0       0       0       0       0       0       0       0       0       
      +0       0       0       0       0       0       0       0       0       0       0       0       0       0       0       
      +0       0       0       0       0       0
  1140 ;;      Temps:          0       0       0       0       0       0       0       0       0       0       0       0       
      +0       0       0       0       0       0       0       0       0       0       0       0       0       0       0       
      +0       0       0       0       0       0
  1141 ;;      Totals:         3       0       0       0       0       0       0       0       0       0       0       0       
      +0       0       0       0       0       0       0       0       0       0       0       0       0       0       0       
      +0       0       0       0       0       0
  1142 ;;Total ram usage:        3 bytes
  1143 ;; Hardware stack levels used:    1
  1144 ;; Hardware stack levels required when called:    4
  1145 ;; This function calls:
  1146 ;;		Nothing
  1147 ;; This function is called by:
  1148 ;;		_UART2_Initialize
  1149 ;; This function uses a non-reentrant model
  1150 ;;
  1151                           
  1152                           	psect	text7
  1153  00083A                     __ptext7:
  1154                           	opt callstack 0
  1155  00083A                     _UART2_SetTxInterruptHandler:
  1156                           	opt callstack 24
  1157                           
  1158                           ;mcc_generated_files/uart2.c: 325:     UART2_TxInterruptHandler = InterruptHandler;
  1159                           
  1160                           ; BSR set to: 57
  1161                           ;incstack = 0
  1162  00083A  0060  F150  F037   	movff	UART2_SetTxInterruptHandler@InterruptHandler,_UART2_TxInterruptHandler
  1163  000840  0060  F154  F038   	movff	UART2_SetTxInterruptHandler@InterruptHandler+1,_UART2_TxInterruptHandler+1
  1164  000846  0060  F158  F039   	movff	UART2_SetTxInterruptHandler@InterruptHandler+2,_UART2_TxInterruptHandler+2
  1165  00084C  0012               	return		;funcret
  1166  00084E                     __end_of_UART2_SetTxInterruptHandler:
  1167                           	opt callstack 0
  1168                           
  1169 ;; *************** function _UART2_SetRxInterruptHandler *****************
  1170 ;; Defined at:
  1171 ;;		line 320 in file "mcc_generated_files/uart2.c"
  1172 ;; Parameters:    Size  Location     Type
  1173 ;;  InterruptHan    3    5[COMRAM] PTR FTN()void 
  1174 ;;		 -> UART2_Receive_ISR(1), 
  1175 ;; Auto vars:     Size  Location     Type
  1176 ;;		None
  1177 ;; Return value:  Size  Location     Type
  1178 ;;                  1    wreg      void 
  1179 ;; Registers used:
  1180 ;;		wreg, status,2, status,0
  1181 ;; Tracked objects:
  1182 ;;		On entry : 0/0
  1183 ;;		On exit  : 0/0
  1184 ;;		Unchanged: 0/0
  1185 ;; Data sizes:     COMRAM   BANK0   BANK1   BANK2   BANK3   BANK4   BANK5   BANK6   BANK7   BANK8   BANK9  BANK10  BANK1
      +1  BANK12  BANK13  BANK14  BANK15  BANK16  BANK17  BANK18  BANK19  BANK20  BANK21  BANK22  BANK23  BANK24  BANK25  BANK2
      +6  BANK27  BANK28  BANK29  BANK30  BANK31
  1186 ;;      Params:         3       0       0       0       0       0       0       0       0       0       0       0       
      +0       0       0       0       0       0       0       0       0       0       0       0       0       0       0       
      +0       0       0       0       0       0
  1187 ;;      Locals:         0       0       0       0       0       0       0       0       0       0       0       0       
      +0       0       0       0       0       0       0       0       0       0       0       0       0       0       0       
      +0       0       0       0       0       0
  1188 ;;      Temps:          0       0       0       0       0       0       0       0       0       0       0       0       
      +0       0       0       0       0       0       0       0       0       0       0       0       0       0       0       
      +0       0       0       0       0       0
  1189 ;;      Totals:         3       0       0       0       0       0       0       0       0       0       0       0       
      +0       0       0       0       0       0       0       0       0       0       0       0       0       0       0       
      +0       0       0       0       0       0
  1190 ;;Total ram usage:        3 bytes
  1191 ;; Hardware stack levels used:    1
  1192 ;; Hardware stack levels required when called:    4
  1193 ;; This function calls:
  1194 ;;		Nothing
  1195 ;; This function is called by:
  1196 ;;		_UART2_Initialize
  1197 ;; This function uses a non-reentrant model
  1198 ;;
  1199                           
  1200                           	psect	text8
  1201  00084E                     __ptext8:
  1202                           	opt callstack 0
  1203  00084E                     _UART2_SetRxInterruptHandler:
  1204                           	opt callstack 24
  1205                           
  1206                           ;mcc_generated_files/uart2.c: 321:     UART2_RxInterruptHandler = InterruptHandler;
  1207                           
  1208                           ;incstack = 0
  1209  00084E  0060  F150  F03A   	movff	UART2_SetRxInterruptHandler@InterruptHandler,_UART2_RxInterruptHandler
  1210  000854  0060  F154  F03B   	movff	UART2_SetRxInterruptHandler@InterruptHandler+1,_UART2_RxInterruptHandler+1
  1211  00085A  0060  F158  F03C   	movff	UART2_SetRxInterruptHandler@InterruptHandler+2,_UART2_RxInterruptHandler+2
  1212  000860  0012               	return		;funcret
  1213  000862                     __end_of_UART2_SetRxInterruptHandler:
  1214                           	opt callstack 0
  1215                           
  1216 ;; *************** function _UART2_SetOverrunErrorHandler *****************
  1217 ;; Defined at:
  1218 ;;		line 310 in file "mcc_generated_files/uart2.c"
  1219 ;; Parameters:    Size  Location     Type
  1220 ;;  interruptHan    3    5[COMRAM] PTR FTN()void 
  1221 ;;		 -> UART2_DefaultOverrunErrorHandler(1), 
  1222 ;; Auto vars:     Size  Location     Type
  1223 ;;		None
  1224 ;; Return value:  Size  Location     Type
  1225 ;;                  1    wreg      void 
  1226 ;; Registers used:
  1227 ;;		wreg, status,2, status,0
  1228 ;; Tracked objects:
  1229 ;;		On entry : 0/0
  1230 ;;		On exit  : 0/0
  1231 ;;		Unchanged: 0/0
  1232 ;; Data sizes:     COMRAM   BANK0   BANK1   BANK2   BANK3   BANK4   BANK5   BANK6   BANK7   BANK8   BANK9  BANK10  BANK1
      +1  BANK12  BANK13  BANK14  BANK15  BANK16  BANK17  BANK18  BANK19  BANK20  BANK21  BANK22  BANK23  BANK24  BANK25  BANK2
      +6  BANK27  BANK28  BANK29  BANK30  BANK31
  1233 ;;      Params:         3       0       0       0       0       0       0       0       0       0       0       0       
      +0       0       0       0       0       0       0       0       0       0       0       0       0       0       0       
      +0       0       0       0       0       0
  1234 ;;      Locals:         0       0       0       0       0       0       0       0       0       0       0       0       
      +0       0       0       0       0       0       0       0       0       0       0       0       0       0       0       
      +0       0       0       0       0       0
  1235 ;;      Temps:          0       0       0       0       0       0       0       0       0       0       0       0       
      +0       0       0       0       0       0       0       0       0       0       0       0       0       0       0       
      +0       0       0       0       0       0
  1236 ;;      Totals:         3       0       0       0       0       0       0       0       0       0       0       0       
      +0       0       0       0       0       0       0       0       0       0       0       0       0       0       0       
      +0       0       0       0       0       0
  1237 ;;Total ram usage:        3 bytes
  1238 ;; Hardware stack levels used:    1
  1239 ;; Hardware stack levels required when called:    4
  1240 ;; This function calls:
  1241 ;;		Nothing
  1242 ;; This function is called by:
  1243 ;;		_UART2_Initialize
  1244 ;; This function uses a non-reentrant model
  1245 ;;
  1246                           
  1247                           	psect	text9
  1248  000862                     __ptext9:
  1249                           	opt callstack 0
  1250  000862                     _UART2_SetOverrunErrorHandler:
  1251                           	opt callstack 24
  1252                           
  1253                           ;mcc_generated_files/uart2.c: 311:     UART2_OverrunErrorHandler = interruptHandler;
  1254                           
  1255                           ;incstack = 0
  1256  000862  0060  F150  F022   	movff	UART2_SetOverrunErrorHandler@interruptHandler,_UART2_OverrunErrorHandler
  1257  000868  0060  F154  F023   	movff	UART2_SetOverrunErrorHandler@interruptHandler+1,_UART2_OverrunErrorHandler+1
  1258  00086E  0060  F158  F024   	movff	UART2_SetOverrunErrorHandler@interruptHandler+2,_UART2_OverrunErrorHandler+2
  1259  000874  0012               	return		;funcret
  1260  000876                     __end_of_UART2_SetOverrunErrorHandler:
  1261                           	opt callstack 0
  1262                           
  1263 ;; *************** function _UART2_SetFramingErrorHandler *****************
  1264 ;; Defined at:
  1265 ;;		line 306 in file "mcc_generated_files/uart2.c"
  1266 ;; Parameters:    Size  Location     Type
  1267 ;;  interruptHan    3    5[COMRAM] PTR FTN()void 
  1268 ;;		 -> UART2_DefaultFramingErrorHandler(1), 
  1269 ;; Auto vars:     Size  Location     Type
  1270 ;;		None
  1271 ;; Return value:  Size  Location     Type
  1272 ;;                  1    wreg      void 
  1273 ;; Registers used:
  1274 ;;		wreg, status,2, status,0
  1275 ;; Tracked objects:
  1276 ;;		On entry : 0/0
  1277 ;;		On exit  : 0/0
  1278 ;;		Unchanged: 0/0
  1279 ;; Data sizes:     COMRAM   BANK0   BANK1   BANK2   BANK3   BANK4   BANK5   BANK6   BANK7   BANK8   BANK9  BANK10  BANK1
      +1  BANK12  BANK13  BANK14  BANK15  BANK16  BANK17  BANK18  BANK19  BANK20  BANK21  BANK22  BANK23  BANK24  BANK25  BANK2
      +6  BANK27  BANK28  BANK29  BANK30  BANK31
  1280 ;;      Params:         3       0       0       0       0       0       0       0       0       0       0       0       
      +0       0       0       0       0       0       0       0       0       0       0       0       0       0       0       
      +0       0       0       0       0       0
  1281 ;;      Locals:         0       0       0       0       0       0       0       0       0       0       0       0       
      +0       0       0       0       0       0       0       0       0       0       0       0       0       0       0       
      +0       0       0       0       0       0
  1282 ;;      Temps:          0       0       0       0       0       0       0       0       0       0       0       0       
      +0       0       0       0       0       0       0       0       0       0       0       0       0       0       0       
      +0       0       0       0       0       0
  1283 ;;      Totals:         3       0       0       0       0       0       0       0       0       0       0       0       
      +0       0       0       0       0       0       0       0       0       0       0       0       0       0       0       
      +0       0       0       0       0       0
  1284 ;;Total ram usage:        3 bytes
  1285 ;; Hardware stack levels used:    1
  1286 ;; Hardware stack levels required when called:    4
  1287 ;; This function calls:
  1288 ;;		Nothing
  1289 ;; This function is called by:
  1290 ;;		_UART2_Initialize
  1291 ;; This function uses a non-reentrant model
  1292 ;;
  1293                           
  1294                           	psect	text10
  1295  000876                     __ptext10:
  1296                           	opt callstack 0
  1297  000876                     _UART2_SetFramingErrorHandler:
  1298                           	opt callstack 24
  1299                           
  1300                           ;mcc_generated_files/uart2.c: 307:     UART2_FramingErrorHandler = interruptHandler;
  1301                           
  1302                           ;incstack = 0
  1303  000876  0060  F150  F025   	movff	UART2_SetFramingErrorHandler@interruptHandler,_UART2_FramingErrorHandler
  1304  00087C  0060  F154  F026   	movff	UART2_SetFramingErrorHandler@interruptHandler+1,_UART2_FramingErrorHandler+1
  1305  000882  0060  F158  F027   	movff	UART2_SetFramingErrorHandler@interruptHandler+2,_UART2_FramingErrorHandler+2
  1306  000888  0012               	return		;funcret
  1307  00088A                     __end_of_UART2_SetFramingErrorHandler:
  1308                           	opt callstack 0
  1309                           
  1310 ;; *************** function _UART2_SetErrorHandler *****************
  1311 ;; Defined at:
  1312 ;;		line 314 in file "mcc_generated_files/uart2.c"
  1313 ;; Parameters:    Size  Location     Type
  1314 ;;  interruptHan    3    5[COMRAM] PTR FTN()void 
  1315 ;;		 -> UART2_DefaultErrorHandler(1), 
  1316 ;; Auto vars:     Size  Location     Type
  1317 ;;		None
  1318 ;; Return value:  Size  Location     Type
  1319 ;;                  1    wreg      void 
  1320 ;; Registers used:
  1321 ;;		wreg, status,2, status,0
  1322 ;; Tracked objects:
  1323 ;;		On entry : 0/0
  1324 ;;		On exit  : 0/0
  1325 ;;		Unchanged: 0/0
  1326 ;; Data sizes:     COMRAM   BANK0   BANK1   BANK2   BANK3   BANK4   BANK5   BANK6   BANK7   BANK8   BANK9  BANK10  BANK1
      +1  BANK12  BANK13  BANK14  BANK15  BANK16  BANK17  BANK18  BANK19  BANK20  BANK21  BANK22  BANK23  BANK24  BANK25  BANK2
      +6  BANK27  BANK28  BANK29  BANK30  BANK31
  1327 ;;      Params:         3       0       0       0       0       0       0       0       0       0       0       0       
      +0       0       0       0       0       0       0       0       0       0       0       0       0       0       0       
      +0       0       0       0       0       0
  1328 ;;      Locals:         0       0       0       0       0       0       0       0       0       0       0       0       
      +0       0       0       0       0       0       0       0       0       0       0       0       0       0       0       
      +0       0       0       0       0       0
  1329 ;;      Temps:          0       0       0       0       0       0       0       0       0       0       0       0       
      +0       0       0       0       0       0       0       0       0       0       0       0       0       0       0       
      +0       0       0       0       0       0
  1330 ;;      Totals:         3       0       0       0       0       0       0       0       0       0       0       0       
      +0       0       0       0       0       0       0       0       0       0       0       0       0       0       0       
      +0       0       0       0       0       0
  1331 ;;Total ram usage:        3 bytes
  1332 ;; Hardware stack levels used:    1
  1333 ;; Hardware stack levels required when called:    4
  1334 ;; This function calls:
  1335 ;;		Nothing
  1336 ;; This function is called by:
  1337 ;;		_UART2_Initialize
  1338 ;; This function uses a non-reentrant model
  1339 ;;
  1340                           
  1341                           	psect	text11
  1342  00088A                     __ptext11:
  1343                           	opt callstack 0
  1344  00088A                     _UART2_SetErrorHandler:
  1345                           	opt callstack 24
  1346                           
  1347                           ;mcc_generated_files/uart2.c: 315:     UART2_ErrorHandler = interruptHandler;
  1348                           
  1349                           ;incstack = 0
  1350  00088A  0060  F150  F01F   	movff	UART2_SetErrorHandler@interruptHandler,_UART2_ErrorHandler
  1351  000890  0060  F154  F020   	movff	UART2_SetErrorHandler@interruptHandler+1,_UART2_ErrorHandler+1
  1352  000896  0060  F158  F021   	movff	UART2_SetErrorHandler@interruptHandler+2,_UART2_ErrorHandler+2
  1353  00089C  0012               	return		;funcret
  1354  00089E                     __end_of_UART2_SetErrorHandler:
  1355                           	opt callstack 0
  1356                           
  1357 ;; *************** function _UART1_Initialize *****************
  1358 ;; Defined at:
  1359 ;;		line 87 in file "mcc_generated_files/uart1.c"
  1360 ;; Parameters:    Size  Location     Type
  1361 ;;		None
  1362 ;; Auto vars:     Size  Location     Type
  1363 ;;		None
  1364 ;; Return value:  Size  Location     Type
  1365 ;;                  1    wreg      void 
  1366 ;; Registers used:
  1367 ;;		wreg, status,2, status,0, cstack
  1368 ;; Tracked objects:
  1369 ;;		On entry : 0/0
  1370 ;;		On exit  : 0/0
  1371 ;;		Unchanged: 0/0
  1372 ;; Data sizes:     COMRAM   BANK0   BANK1   BANK2   BANK3   BANK4   BANK5   BANK6   BANK7   BANK8   BANK9  BANK10  BANK1
      +1  BANK12  BANK13  BANK14  BANK15  BANK16  BANK17  BANK18  BANK19  BANK20  BANK21  BANK22  BANK23  BANK24  BANK25  BANK2
      +6  BANK27  BANK28  BANK29  BANK30  BANK31
  1373 ;;      Params:         0       0       0       0       0       0       0       0       0       0       0       0       
      +0       0       0       0       0       0       0       0       0       0       0       0       0       0       0       
      +0       0       0       0       0       0
  1374 ;;      Locals:         0       0       0       0       0       0       0       0       0       0       0       0       
      +0       0       0       0       0       0       0       0       0       0       0       0       0       0       0       
      +0       0       0       0       0       0
  1375 ;;      Temps:          0       0       0       0       0       0       0       0       0       0       0       0       
      +0       0       0       0       0       0       0       0       0       0       0       0       0       0       0       
      +0       0       0       0       0       0
  1376 ;;      Totals:         0       0       0       0       0       0       0       0       0       0       0       0       
      +0       0       0       0       0       0       0       0       0       0       0       0       0       0       0       
      +0       0       0       0       0       0
  1377 ;;Total ram usage:        0 bytes
  1378 ;; Hardware stack levels used:    1
  1379 ;; Hardware stack levels required when called:    5
  1380 ;; This function calls:
  1381 ;;		_UART1_SetErrorHandler
  1382 ;;		_UART1_SetFramingErrorHandler
  1383 ;;		_UART1_SetOverrunErrorHandler
  1384 ;;		_UART1_SetRxInterruptHandler
  1385 ;;		_UART1_SetTxInterruptHandler
  1386 ;; This function is called by:
  1387 ;;		_SYSTEM_Initialize
  1388 ;; This function uses a non-reentrant model
  1389 ;;
  1390                           
  1391                           	psect	text12
  1392  0000B2                     __ptext12:
  1393                           	opt callstack 0
  1394  0000B2                     _UART1_Initialize:
  1395                           	opt callstack 24
  1396                           
  1397                           ;mcc_generated_files/uart1.c: 90:     PIE3bits.U1RXIE = 0;
  1398                           
  1399                           ;incstack = 0
  1400  0000B2  0139               	movlb	57	; () banked
  1401  0000B4  9793               	bcf	147,3,b	;volatile
  1402                           
  1403                           ; BSR set to: 57
  1404                           ;mcc_generated_files/uart1.c: 91:     UART1_SetRxInterruptHandler(UART1_Receive_ISR);
  1405  0000B6  0EB2               	movlw	low _UART1_Receive_ISR
  1406  0000B8  6E54               	movwf	UART1_SetRxInterruptHandler@InterruptHandler,c
  1407  0000BA  0E02               	movlw	high _UART1_Receive_ISR
  1408  0000BC  6E55               	movwf	UART1_SetRxInterruptHandler@InterruptHandler+1,c
  1409  0000BE  0E00               	movlw	low (_UART1_Receive_ISR shr (0+16))
  1410  0000C0  6E56               	movwf	UART1_SetRxInterruptHandler@InterruptHandler+2,c
  1411  0000C2  EC59  F004         	call	_UART1_SetRxInterruptHandler	;wreg free
  1412                           
  1413                           ;mcc_generated_files/uart1.c: 92:     PIE3bits.U1TXIE = 0;
  1414  0000C6  0139               	movlb	57	; () banked
  1415  0000C8  9993               	bcf	147,4,b	;volatile
  1416                           
  1417                           ;mcc_generated_files/uart1.c: 93:     UART1_SetTxInterruptHandler(UART1_Transmit_ISR);
  1418  0000CA  0EC0               	movlw	low _UART1_Transmit_ISR
  1419  0000CC  6E54               	movwf	UART1_SetTxInterruptHandler@InterruptHandler,c
  1420  0000CE  0E05               	movlw	high _UART1_Transmit_ISR
  1421  0000D0  6E55               	movwf	UART1_SetTxInterruptHandler@InterruptHandler+1,c
  1422  0000D2  0E00               	movlw	low (_UART1_Transmit_ISR shr (0+16))
  1423  0000D4  6E56               	movwf	UART1_SetTxInterruptHandler@InterruptHandler+2,c
  1424  0000D6  EC4F  F004         	call	_UART1_SetTxInterruptHandler	;wreg free
  1425                           
  1426                           ;mcc_generated_files/uart1.c: 98:     U1P1L = 0x00;
  1427  0000DA  0E00               	movlw	0
  1428  0000DC  013D               	movlb	61	; () banked
  1429  0000DE  6FEC               	movwf	236,b	;volatile
  1430                           
  1431                           ; BSR set to: 61
  1432                           ;mcc_generated_files/uart1.c: 101:     U1P1H = 0x00;
  1433  0000E0  0E00               	movlw	0
  1434  0000E2  6FED               	movwf	237,b	;volatile
  1435                           
  1436                           ; BSR set to: 61
  1437                           ;mcc_generated_files/uart1.c: 104:     U1P2L = 0x00;
  1438  0000E4  0E00               	movlw	0
  1439  0000E6  6FEE               	movwf	238,b	;volatile
  1440                           
  1441                           ; BSR set to: 61
  1442                           ;mcc_generated_files/uart1.c: 107:     U1P2H = 0x00;
  1443  0000E8  0E00               	movlw	0
  1444  0000EA  6FEF               	movwf	239,b	;volatile
  1445                           
  1446                           ; BSR set to: 61
  1447                           ;mcc_generated_files/uart1.c: 110:     U1P3L = 0x00;
  1448  0000EC  0E00               	movlw	0
  1449  0000EE  6FF0               	movwf	240,b	;volatile
  1450                           
  1451                           ; BSR set to: 61
  1452                           ;mcc_generated_files/uart1.c: 113:     U1P3H = 0x00;
  1453  0000F0  0E00               	movlw	0
  1454  0000F2  6FF1               	movwf	241,b	;volatile
  1455                           
  1456                           ; BSR set to: 61
  1457                           ;mcc_generated_files/uart1.c: 116:     U1CON0 = 0x90;
  1458  0000F4  0E90               	movlw	144
  1459  0000F6  6FF2               	movwf	242,b	;volatile
  1460                           
  1461                           ; BSR set to: 61
  1462                           ;mcc_generated_files/uart1.c: 119:     U1CON1 = 0x80;
  1463  0000F8  0E80               	movlw	128
  1464  0000FA  6FF3               	movwf	243,b	;volatile
  1465                           
  1466                           ; BSR set to: 61
  1467                           ;mcc_generated_files/uart1.c: 122:     U1CON2 = 0x00;
  1468  0000FC  0E00               	movlw	0
  1469  0000FE  6FF4               	movwf	244,b	;volatile
  1470                           
  1471                           ; BSR set to: 61
  1472                           ;mcc_generated_files/uart1.c: 125:     U1BRGL = 0x40;
  1473  000100  0E40               	movlw	64
  1474  000102  6FF5               	movwf	245,b	;volatile
  1475                           
  1476                           ; BSR set to: 61
  1477                           ;mcc_generated_files/uart1.c: 128:     U1BRGH = 0x03;
  1478  000104  0E03               	movlw	3
  1479  000106  6FF6               	movwf	246,b	;volatile
  1480                           
  1481                           ; BSR set to: 61
  1482                           ;mcc_generated_files/uart1.c: 131:     U1FIFO = 0x00;
  1483  000108  0E00               	movlw	0
  1484  00010A  6FF7               	movwf	247,b	;volatile
  1485                           
  1486                           ; BSR set to: 61
  1487                           ;mcc_generated_files/uart1.c: 134:     U1UIR = 0x00;
  1488  00010C  0E00               	movlw	0
  1489  00010E  6FF8               	movwf	248,b	;volatile
  1490                           
  1491                           ; BSR set to: 61
  1492                           ;mcc_generated_files/uart1.c: 137:     U1ERRIR = 0x00;
  1493  000110  0E00               	movlw	0
  1494  000112  6FF9               	movwf	249,b	;volatile
  1495                           
  1496                           ; BSR set to: 61
  1497                           ;mcc_generated_files/uart1.c: 140:     U1ERRIE = 0x00;
  1498  000114  0E00               	movlw	0
  1499  000116  6FFA               	movwf	250,b	;volatile
  1500                           
  1501                           ; BSR set to: 61
  1502                           ;mcc_generated_files/uart1.c: 143:     UART1_SetFramingErrorHandler(UART1_DefaultFraming
      +                          ErrorHandler);
  1503  000118  0E44               	movlw	low _UART1_DefaultFramingErrorHandler
  1504  00011A  6E54               	movwf	UART1_SetFramingErrorHandler@interruptHandler,c
  1505  00011C  0E09               	movlw	high _UART1_DefaultFramingErrorHandler
  1506  00011E  6E55               	movwf	UART1_SetFramingErrorHandler@interruptHandler+1,c
  1507  000120  0E00               	movlw	low (_UART1_DefaultFramingErrorHandler shr (0+16))
  1508  000122  6E56               	movwf	UART1_SetFramingErrorHandler@interruptHandler+2,c
  1509  000124  EC6D  F004         	call	_UART1_SetFramingErrorHandler	;wreg free
  1510                           
  1511                           ;mcc_generated_files/uart1.c: 144:     UART1_SetOverrunErrorHandler(UART1_DefaultOverrun
      +                          ErrorHandler);
  1512  000128  0E42               	movlw	low _UART1_DefaultOverrunErrorHandler
  1513  00012A  6E54               	movwf	UART1_SetOverrunErrorHandler@interruptHandler,c
  1514  00012C  0E09               	movlw	high _UART1_DefaultOverrunErrorHandler
  1515  00012E  6E55               	movwf	UART1_SetOverrunErrorHandler@interruptHandler+1,c
  1516  000130  0E00               	movlw	low (_UART1_DefaultOverrunErrorHandler shr (0+16))
  1517  000132  6E56               	movwf	UART1_SetOverrunErrorHandler@interruptHandler+2,c
  1518  000134  EC63  F004         	call	_UART1_SetOverrunErrorHandler	;wreg free
  1519                           
  1520                           ;mcc_generated_files/uart1.c: 145:     UART1_SetErrorHandler(UART1_DefaultErrorHandler);
  1521  000138  0E2A               	movlw	low _UART1_DefaultErrorHandler
  1522  00013A  6E54               	movwf	UART1_SetErrorHandler@interruptHandler,c
  1523  00013C  0E09               	movlw	high _UART1_DefaultErrorHandler
  1524  00013E  6E55               	movwf	UART1_SetErrorHandler@interruptHandler+1,c
  1525  000140  0E00               	movlw	low (_UART1_DefaultErrorHandler shr (0+16))
  1526  000142  6E56               	movwf	UART1_SetErrorHandler@interruptHandler+2,c
  1527  000144  EC77  F004         	call	_UART1_SetErrorHandler	;wreg free
  1528                           
  1529                           ;mcc_generated_files/uart1.c: 147:     uart1RxLastError.status = 0;
  1530  000148  0E00               	movlw	0
  1531  00014A  6E48               	movwf	_uart1RxLastError,c	;volatile
  1532                           
  1533                           ;mcc_generated_files/uart1.c: 150:     uart1TxHead = 0;
  1534  00014C  0E00               	movlw	0
  1535  00014E  6E4E               	movwf	_uart1TxHead,c	;volatile
  1536                           
  1537                           ;mcc_generated_files/uart1.c: 151:     uart1TxTail = 0;
  1538  000150  0E00               	movlw	0
  1539  000152  6E4D               	movwf	_uart1TxTail,c	;volatile
  1540                           
  1541                           ;mcc_generated_files/uart1.c: 152:     uart1TxBufferRemaining = sizeof(uart1TxBuffer);
  1542  000154  0E08               	movlw	8
  1543  000156  6E4C               	movwf	_uart1TxBufferRemaining,c	;volatile
  1544                           
  1545                           ;mcc_generated_files/uart1.c: 153:     uart1RxHead = 0;
  1546  000158  0E00               	movlw	0
  1547  00015A  6E4B               	movwf	_uart1RxHead,c	;volatile
  1548                           
  1549                           ;mcc_generated_files/uart1.c: 154:     uart1RxTail = 0;
  1550  00015C  0E00               	movlw	0
  1551  00015E  6E4A               	movwf	_uart1RxTail,c	;volatile
  1552                           
  1553                           ;mcc_generated_files/uart1.c: 155:     uart1RxCount = 0;
  1554  000160  0E00               	movlw	0
  1555  000162  6E49               	movwf	_uart1RxCount,c	;volatile
  1556                           
  1557                           ;mcc_generated_files/uart1.c: 158:     PIE3bits.U1RXIE = 1;
  1558  000164  0139               	movlb	57	; () banked
  1559  000166  8793               	bsf	147,3,b	;volatile
  1560                           
  1561                           ; BSR set to: 57
  1562  000168  0012               	return		;funcret
  1563  00016A                     __end_of_UART1_Initialize:
  1564                           	opt callstack 0
  1565                           
  1566 ;; *************** function _UART1_SetTxInterruptHandler *****************
  1567 ;; Defined at:
  1568 ;;		line 323 in file "mcc_generated_files/uart1.c"
  1569 ;; Parameters:    Size  Location     Type
  1570 ;;  InterruptHan    3    5[COMRAM] PTR FTN()void 
  1571 ;;		 -> UART1_Transmit_ISR(1), 
  1572 ;; Auto vars:     Size  Location     Type
  1573 ;;		None
  1574 ;; Return value:  Size  Location     Type
  1575 ;;                  1    wreg      void 
  1576 ;; Registers used:
  1577 ;;		wreg, status,2, status,0
  1578 ;; Tracked objects:
  1579 ;;		On entry : 0/0
  1580 ;;		On exit  : 0/0
  1581 ;;		Unchanged: 0/0
  1582 ;; Data sizes:     COMRAM   BANK0   BANK1   BANK2   BANK3   BANK4   BANK5   BANK6   BANK7   BANK8   BANK9  BANK10  BANK1
      +1  BANK12  BANK13  BANK14  BANK15  BANK16  BANK17  BANK18  BANK19  BANK20  BANK21  BANK22  BANK23  BANK24  BANK25  BANK2
      +6  BANK27  BANK28  BANK29  BANK30  BANK31
  1583 ;;      Params:         3       0       0       0       0       0       0       0       0       0       0       0       
      +0       0       0       0       0       0       0       0       0       0       0       0       0       0       0       
      +0       0       0       0       0       0
  1584 ;;      Locals:         0       0       0       0       0       0       0       0       0       0       0       0       
      +0       0       0       0       0       0       0       0       0       0       0       0       0       0       0       
      +0       0       0       0       0       0
  1585 ;;      Temps:          0       0       0       0       0       0       0       0       0       0       0       0       
      +0       0       0       0       0       0       0       0       0       0       0       0       0       0       0       
      +0       0       0       0       0       0
  1586 ;;      Totals:         3       0       0       0       0       0       0       0       0       0       0       0       
      +0       0       0       0       0       0       0       0       0       0       0       0       0       0       0       
      +0       0       0       0       0       0
  1587 ;;Total ram usage:        3 bytes
  1588 ;; Hardware stack levels used:    1
  1589 ;; Hardware stack levels required when called:    4
  1590 ;; This function calls:
  1591 ;;		Nothing
  1592 ;; This function is called by:
  1593 ;;		_UART1_Initialize
  1594 ;; This function uses a non-reentrant model
  1595 ;;
  1596                           
  1597                           	psect	text13
  1598  00089E                     __ptext13:
  1599                           	opt callstack 0
  1600  00089E                     _UART1_SetTxInterruptHandler:
  1601                           	opt callstack 24
  1602                           
  1603                           ;mcc_generated_files/uart1.c: 324:     UART1_TxInterruptHandler = InterruptHandler;
  1604                           
  1605                           ; BSR set to: 57
  1606                           ;incstack = 0
  1607  00089E  0060  F150  F031   	movff	UART1_SetTxInterruptHandler@InterruptHandler,_UART1_TxInterruptHandler
  1608  0008A4  0060  F154  F032   	movff	UART1_SetTxInterruptHandler@InterruptHandler+1,_UART1_TxInterruptHandler+1
  1609  0008AA  0060  F158  F033   	movff	UART1_SetTxInterruptHandler@InterruptHandler+2,_UART1_TxInterruptHandler+2
  1610  0008B0  0012               	return		;funcret
  1611  0008B2                     __end_of_UART1_SetTxInterruptHandler:
  1612                           	opt callstack 0
  1613                           
  1614 ;; *************** function _UART1_SetRxInterruptHandler *****************
  1615 ;; Defined at:
  1616 ;;		line 319 in file "mcc_generated_files/uart1.c"
  1617 ;; Parameters:    Size  Location     Type
  1618 ;;  InterruptHan    3    5[COMRAM] PTR FTN()void 
  1619 ;;		 -> UART1_Receive_ISR(1), 
  1620 ;; Auto vars:     Size  Location     Type
  1621 ;;		None
  1622 ;; Return value:  Size  Location     Type
  1623 ;;                  1    wreg      void 
  1624 ;; Registers used:
  1625 ;;		wreg, status,2, status,0
  1626 ;; Tracked objects:
  1627 ;;		On entry : 0/0
  1628 ;;		On exit  : 0/0
  1629 ;;		Unchanged: 0/0
  1630 ;; Data sizes:     COMRAM   BANK0   BANK1   BANK2   BANK3   BANK4   BANK5   BANK6   BANK7   BANK8   BANK9  BANK10  BANK1
      +1  BANK12  BANK13  BANK14  BANK15  BANK16  BANK17  BANK18  BANK19  BANK20  BANK21  BANK22  BANK23  BANK24  BANK25  BANK2
      +6  BANK27  BANK28  BANK29  BANK30  BANK31
  1631 ;;      Params:         3       0       0       0       0       0       0       0       0       0       0       0       
      +0       0       0       0       0       0       0       0       0       0       0       0       0       0       0       
      +0       0       0       0       0       0
  1632 ;;      Locals:         0       0       0       0       0       0       0       0       0       0       0       0       
      +0       0       0       0       0       0       0       0       0       0       0       0       0       0       0       
      +0       0       0       0       0       0
  1633 ;;      Temps:          0       0       0       0       0       0       0       0       0       0       0       0       
      +0       0       0       0       0       0       0       0       0       0       0       0       0       0       0       
      +0       0       0       0       0       0
  1634 ;;      Totals:         3       0       0       0       0       0       0       0       0       0       0       0       
      +0       0       0       0       0       0       0       0       0       0       0       0       0       0       0       
      +0       0       0       0       0       0
  1635 ;;Total ram usage:        3 bytes
  1636 ;; Hardware stack levels used:    1
  1637 ;; Hardware stack levels required when called:    4
  1638 ;; This function calls:
  1639 ;;		Nothing
  1640 ;; This function is called by:
  1641 ;;		_UART1_Initialize
  1642 ;; This function uses a non-reentrant model
  1643 ;;
  1644                           
  1645                           	psect	text14
  1646  0008B2                     __ptext14:
  1647                           	opt callstack 0
  1648  0008B2                     _UART1_SetRxInterruptHandler:
  1649                           	opt callstack 24
  1650                           
  1651                           ;mcc_generated_files/uart1.c: 320:     UART1_RxInterruptHandler = InterruptHandler;
  1652                           
  1653                           ;incstack = 0
  1654  0008B2  0060  F150  F034   	movff	UART1_SetRxInterruptHandler@InterruptHandler,_UART1_RxInterruptHandler
  1655  0008B8  0060  F154  F035   	movff	UART1_SetRxInterruptHandler@InterruptHandler+1,_UART1_RxInterruptHandler+1
  1656  0008BE  0060  F158  F036   	movff	UART1_SetRxInterruptHandler@InterruptHandler+2,_UART1_RxInterruptHandler+2
  1657  0008C4  0012               	return		;funcret
  1658  0008C6                     __end_of_UART1_SetRxInterruptHandler:
  1659                           	opt callstack 0
  1660                           
  1661 ;; *************** function _UART1_SetOverrunErrorHandler *****************
  1662 ;; Defined at:
  1663 ;;		line 309 in file "mcc_generated_files/uart1.c"
  1664 ;; Parameters:    Size  Location     Type
  1665 ;;  interruptHan    3    5[COMRAM] PTR FTN()void 
  1666 ;;		 -> UART1_DefaultOverrunErrorHandler(1), 
  1667 ;; Auto vars:     Size  Location     Type
  1668 ;;		None
  1669 ;; Return value:  Size  Location     Type
  1670 ;;                  1    wreg      void 
  1671 ;; Registers used:
  1672 ;;		wreg, status,2, status,0
  1673 ;; Tracked objects:
  1674 ;;		On entry : 0/0
  1675 ;;		On exit  : 0/0
  1676 ;;		Unchanged: 0/0
  1677 ;; Data sizes:     COMRAM   BANK0   BANK1   BANK2   BANK3   BANK4   BANK5   BANK6   BANK7   BANK8   BANK9  BANK10  BANK1
      +1  BANK12  BANK13  BANK14  BANK15  BANK16  BANK17  BANK18  BANK19  BANK20  BANK21  BANK22  BANK23  BANK24  BANK25  BANK2
      +6  BANK27  BANK28  BANK29  BANK30  BANK31
  1678 ;;      Params:         3       0       0       0       0       0       0       0       0       0       0       0       
      +0       0       0       0       0       0       0       0       0       0       0       0       0       0       0       
      +0       0       0       0       0       0
  1679 ;;      Locals:         0       0       0       0       0       0       0       0       0       0       0       0       
      +0       0       0       0       0       0       0       0       0       0       0       0       0       0       0       
      +0       0       0       0       0       0
  1680 ;;      Temps:          0       0       0       0       0       0       0       0       0       0       0       0       
      +0       0       0       0       0       0       0       0       0       0       0       0       0       0       0       
      +0       0       0       0       0       0
  1681 ;;      Totals:         3       0       0       0       0       0       0       0       0       0       0       0       
      +0       0       0       0       0       0       0       0       0       0       0       0       0       0       0       
      +0       0       0       0       0       0
  1682 ;;Total ram usage:        3 bytes
  1683 ;; Hardware stack levels used:    1
  1684 ;; Hardware stack levels required when called:    4
  1685 ;; This function calls:
  1686 ;;		Nothing
  1687 ;; This function is called by:
  1688 ;;		_UART1_Initialize
  1689 ;; This function uses a non-reentrant model
  1690 ;;
  1691                           
  1692                           	psect	text15
  1693  0008C6                     __ptext15:
  1694                           	opt callstack 0
  1695  0008C6                     _UART1_SetOverrunErrorHandler:
  1696                           	opt callstack 24
  1697                           
  1698                           ;mcc_generated_files/uart1.c: 310:     UART1_OverrunErrorHandler = interruptHandler;
  1699                           
  1700                           ;incstack = 0
  1701  0008C6  0060  F150  F02B   	movff	UART1_SetOverrunErrorHandler@interruptHandler,_UART1_OverrunErrorHandler
  1702  0008CC  0060  F154  F02C   	movff	UART1_SetOverrunErrorHandler@interruptHandler+1,_UART1_OverrunErrorHandler+1
  1703  0008D2  0060  F158  F02D   	movff	UART1_SetOverrunErrorHandler@interruptHandler+2,_UART1_OverrunErrorHandler+2
  1704  0008D8  0012               	return		;funcret
  1705  0008DA                     __end_of_UART1_SetOverrunErrorHandler:
  1706                           	opt callstack 0
  1707                           
  1708 ;; *************** function _UART1_SetFramingErrorHandler *****************
  1709 ;; Defined at:
  1710 ;;		line 305 in file "mcc_generated_files/uart1.c"
  1711 ;; Parameters:    Size  Location     Type
  1712 ;;  interruptHan    3    5[COMRAM] PTR FTN()void 
  1713 ;;		 -> UART1_DefaultFramingErrorHandler(1), 
  1714 ;; Auto vars:     Size  Location     Type
  1715 ;;		None
  1716 ;; Return value:  Size  Location     Type
  1717 ;;                  1    wreg      void 
  1718 ;; Registers used:
  1719 ;;		wreg, status,2, status,0
  1720 ;; Tracked objects:
  1721 ;;		On entry : 0/0
  1722 ;;		On exit  : 0/0
  1723 ;;		Unchanged: 0/0
  1724 ;; Data sizes:     COMRAM   BANK0   BANK1   BANK2   BANK3   BANK4   BANK5   BANK6   BANK7   BANK8   BANK9  BANK10  BANK1
      +1  BANK12  BANK13  BANK14  BANK15  BANK16  BANK17  BANK18  BANK19  BANK20  BANK21  BANK22  BANK23  BANK24  BANK25  BANK2
      +6  BANK27  BANK28  BANK29  BANK30  BANK31
  1725 ;;      Params:         3       0       0       0       0       0       0       0       0       0       0       0       
      +0       0       0       0       0       0       0       0       0       0       0       0       0       0       0       
      +0       0       0       0       0       0
  1726 ;;      Locals:         0       0       0       0       0       0       0       0       0       0       0       0       
      +0       0       0       0       0       0       0       0       0       0       0       0       0       0       0       
      +0       0       0       0       0       0
  1727 ;;      Temps:          0       0       0       0       0       0       0       0       0       0       0       0       
      +0       0       0       0       0       0       0       0       0       0       0       0       0       0       0       
      +0       0       0       0       0       0
  1728 ;;      Totals:         3       0       0       0       0       0       0       0       0       0       0       0       
      +0       0       0       0       0       0       0       0       0       0       0       0       0       0       0       
      +0       0       0       0       0       0
  1729 ;;Total ram usage:        3 bytes
  1730 ;; Hardware stack levels used:    1
  1731 ;; Hardware stack levels required when called:    4
  1732 ;; This function calls:
  1733 ;;		Nothing
  1734 ;; This function is called by:
  1735 ;;		_UART1_Initialize
  1736 ;; This function uses a non-reentrant model
  1737 ;;
  1738                           
  1739                           	psect	text16
  1740  0008DA                     __ptext16:
  1741                           	opt callstack 0
  1742  0008DA                     _UART1_SetFramingErrorHandler:
  1743                           	opt callstack 24
  1744                           
  1745                           ;mcc_generated_files/uart1.c: 306:     UART1_FramingErrorHandler = interruptHandler;
  1746                           
  1747                           ;incstack = 0
  1748  0008DA  0060  F150  F02E   	movff	UART1_SetFramingErrorHandler@interruptHandler,_UART1_FramingErrorHandler
  1749  0008E0  0060  F154  F02F   	movff	UART1_SetFramingErrorHandler@interruptHandler+1,_UART1_FramingErrorHandler+1
  1750  0008E6  0060  F158  F030   	movff	UART1_SetFramingErrorHandler@interruptHandler+2,_UART1_FramingErrorHandler+2
  1751  0008EC  0012               	return		;funcret
  1752  0008EE                     __end_of_UART1_SetFramingErrorHandler:
  1753                           	opt callstack 0
  1754                           
  1755 ;; *************** function _UART1_SetErrorHandler *****************
  1756 ;; Defined at:
  1757 ;;		line 313 in file "mcc_generated_files/uart1.c"
  1758 ;; Parameters:    Size  Location     Type
  1759 ;;  interruptHan    3    5[COMRAM] PTR FTN()void 
  1760 ;;		 -> UART1_DefaultErrorHandler(1), 
  1761 ;; Auto vars:     Size  Location     Type
  1762 ;;		None
  1763 ;; Return value:  Size  Location     Type
  1764 ;;                  1    wreg      void 
  1765 ;; Registers used:
  1766 ;;		wreg, status,2, status,0
  1767 ;; Tracked objects:
  1768 ;;		On entry : 0/0
  1769 ;;		On exit  : 0/0
  1770 ;;		Unchanged: 0/0
  1771 ;; Data sizes:     COMRAM   BANK0   BANK1   BANK2   BANK3   BANK4   BANK5   BANK6   BANK7   BANK8   BANK9  BANK10  BANK1
      +1  BANK12  BANK13  BANK14  BANK15  BANK16  BANK17  BANK18  BANK19  BANK20  BANK21  BANK22  BANK23  BANK24  BANK25  BANK2
      +6  BANK27  BANK28  BANK29  BANK30  BANK31
  1772 ;;      Params:         3       0       0       0       0       0       0       0       0       0       0       0       
      +0       0       0       0       0       0       0       0       0       0       0       0       0       0       0       
      +0       0       0       0       0       0
  1773 ;;      Locals:         0       0       0       0       0       0       0       0       0       0       0       0       
      +0       0       0       0       0       0       0       0       0       0       0       0       0       0       0       
      +0       0       0       0       0       0
  1774 ;;      Temps:          0       0       0       0       0       0       0       0       0       0       0       0       
      +0       0       0       0       0       0       0       0       0       0       0       0       0       0       0       
      +0       0       0       0       0       0
  1775 ;;      Totals:         3       0       0       0       0       0       0       0       0       0       0       0       
      +0       0       0       0       0       0       0       0       0       0       0       0       0       0       0       
      +0       0       0       0       0       0
  1776 ;;Total ram usage:        3 bytes
  1777 ;; Hardware stack levels used:    1
  1778 ;; Hardware stack levels required when called:    4
  1779 ;; This function calls:
  1780 ;;		Nothing
  1781 ;; This function is called by:
  1782 ;;		_UART1_Initialize
  1783 ;; This function uses a non-reentrant model
  1784 ;;
  1785                           
  1786                           	psect	text17
  1787  0008EE                     __ptext17:
  1788                           	opt callstack 0
  1789  0008EE                     _UART1_SetErrorHandler:
  1790                           	opt callstack 24
  1791                           
  1792                           ;mcc_generated_files/uart1.c: 314:     UART1_ErrorHandler = interruptHandler;
  1793                           
  1794                           ;incstack = 0
  1795  0008EE  0060  F150  F028   	movff	UART1_SetErrorHandler@interruptHandler,_UART1_ErrorHandler
  1796  0008F4  0060  F154  F029   	movff	UART1_SetErrorHandler@interruptHandler+1,_UART1_ErrorHandler+1
  1797  0008FA  0060  F158  F02A   	movff	UART1_SetErrorHandler@interruptHandler+2,_UART1_ErrorHandler+2
  1798  000900  0012               	return		;funcret
  1799  000902                     __end_of_UART1_SetErrorHandler:
  1800                           	opt callstack 0
  1801                           
  1802 ;; *************** function _TMR6_Initialize *****************
  1803 ;; Defined at:
  1804 ;;		line 67 in file "mcc_generated_files/tmr6.c"
  1805 ;; Parameters:    Size  Location     Type
  1806 ;;		None
  1807 ;; Auto vars:     Size  Location     Type
  1808 ;;		None
  1809 ;; Return value:  Size  Location     Type
  1810 ;;                  1    wreg      void 
  1811 ;; Registers used:
  1812 ;;		wreg, status,2, status,0, cstack
  1813 ;; Tracked objects:
  1814 ;;		On entry : 0/0
  1815 ;;		On exit  : 0/0
  1816 ;;		Unchanged: 0/0
  1817 ;; Data sizes:     COMRAM   BANK0   BANK1   BANK2   BANK3   BANK4   BANK5   BANK6   BANK7   BANK8   BANK9  BANK10  BANK1
      +1  BANK12  BANK13  BANK14  BANK15  BANK16  BANK17  BANK18  BANK19  BANK20  BANK21  BANK22  BANK23  BANK24  BANK25  BANK2
      +6  BANK27  BANK28  BANK29  BANK30  BANK31
  1818 ;;      Params:         0       0       0       0       0       0       0       0       0       0       0       0       
      +0       0       0       0       0       0       0       0       0       0       0       0       0       0       0       
      +0       0       0       0       0       0
  1819 ;;      Locals:         0       0       0       0       0       0       0       0       0       0       0       0       
      +0       0       0       0       0       0       0       0       0       0       0       0       0       0       0       
      +0       0       0       0       0       0
  1820 ;;      Temps:          0       0       0       0       0       0       0       0       0       0       0       0       
      +0       0       0       0       0       0       0       0       0       0       0       0       0       0       0       
      +0       0       0       0       0       0
  1821 ;;      Totals:         0       0       0       0       0       0       0       0       0       0       0       0       
      +0       0       0       0       0       0       0       0       0       0       0       0       0       0       0       
      +0       0       0       0       0       0
  1822 ;;Total ram usage:        0 bytes
  1823 ;; Hardware stack levels used:    1
  1824 ;; Hardware stack levels required when called:    5
  1825 ;; This function calls:
  1826 ;;		_TMR6_SetInterruptHandler
  1827 ;; This function is called by:
  1828 ;;		_SYSTEM_Initialize
  1829 ;; This function uses a non-reentrant model
  1830 ;;
  1831                           
  1832                           	psect	text18
  1833  000592                     __ptext18:
  1834                           	opt callstack 0
  1835  000592                     _TMR6_Initialize:
  1836                           	opt callstack 24
  1837                           
  1838                           ;mcc_generated_files/tmr6.c: 72:  T6CLKCON = 0x01;
  1839                           
  1840                           ;incstack = 0
  1841  000592  0E01               	movlw	1
  1842  000594  6E96               	movwf	16278,c	;volatile
  1843                           
  1844                           ;mcc_generated_files/tmr6.c: 75:  T6HLT = 0x00;
  1845  000596  0E00               	movlw	0
  1846  000598  6E95               	movwf	16277,c	;volatile
  1847                           
  1848                           ;mcc_generated_files/tmr6.c: 78:  T6RST = 0x00;
  1849  00059A  0E00               	movlw	0
  1850  00059C  6E97               	movwf	16279,c	;volatile
  1851                           
  1852                           ;mcc_generated_files/tmr6.c: 81:  T6PR = 0x03;
  1853  00059E  0E03               	movlw	3
  1854  0005A0  6E93               	movwf	16275,c	;volatile
  1855                           
  1856                           ;mcc_generated_files/tmr6.c: 84:  T6TMR = 0x00;
  1857  0005A2  0E00               	movlw	0
  1858  0005A4  6E92               	movwf	16274,c	;volatile
  1859                           
  1860                           ;mcc_generated_files/tmr6.c: 87:  PIR9bits.TMR6IF = 0;
  1861  0005A6  0139               	movlb	57	; () banked
  1862  0005A8  91A9               	bcf	169,0,b	;volatile
  1863                           
  1864                           ; BSR set to: 57
  1865                           ;mcc_generated_files/tmr6.c: 90:  PIE9bits.TMR6IE = 1;
  1866  0005AA  8199               	bsf	153,0,b	;volatile
  1867                           
  1868                           ; BSR set to: 57
  1869                           ;mcc_generated_files/tmr6.c: 93:  TMR6_SetInterruptHandler(TMR6_DefaultInterruptHandler)
      +                          ;
  1870  0005AC  0EEC               	movlw	low _TMR6_DefaultInterruptHandler
  1871  0005AE  6E54               	movwf	TMR6_SetInterruptHandler@InterruptHandler,c
  1872  0005B0  0E04               	movlw	high _TMR6_DefaultInterruptHandler
  1873  0005B2  6E55               	movwf	TMR6_SetInterruptHandler@InterruptHandler+1,c
  1874  0005B4  0E00               	movlw	low (_TMR6_DefaultInterruptHandler shr (0+16))
  1875  0005B6  6E56               	movwf	TMR6_SetInterruptHandler@InterruptHandler+2,c
  1876  0005B8  EC81  F004         	call	_TMR6_SetInterruptHandler	;wreg free
  1877                           
  1878                           ;mcc_generated_files/tmr6.c: 96:  T6CON = 0xFF;
  1879  0005BC  6894               	setf	16276,c	;volatile
  1880  0005BE  0012               	return		;funcret
  1881  0005C0                     __end_of_TMR6_Initialize:
  1882                           	opt callstack 0
  1883                           
  1884 ;; *************** function _TMR6_SetInterruptHandler *****************
  1885 ;; Defined at:
  1886 ;;		line 179 in file "mcc_generated_files/tmr6.c"
  1887 ;; Parameters:    Size  Location     Type
  1888 ;;  InterruptHan    3    5[COMRAM] PTR FTN()void 
  1889 ;;		 -> TMR6_DefaultInterruptHandler(1), 
  1890 ;; Auto vars:     Size  Location     Type
  1891 ;;		None
  1892 ;; Return value:  Size  Location     Type
  1893 ;;                  1    wreg      void 
  1894 ;; Registers used:
  1895 ;;		wreg, status,2, status,0
  1896 ;; Tracked objects:
  1897 ;;		On entry : 0/0
  1898 ;;		On exit  : 0/0
  1899 ;;		Unchanged: 0/0
  1900 ;; Data sizes:     COMRAM   BANK0   BANK1   BANK2   BANK3   BANK4   BANK5   BANK6   BANK7   BANK8   BANK9  BANK10  BANK1
      +1  BANK12  BANK13  BANK14  BANK15  BANK16  BANK17  BANK18  BANK19  BANK20  BANK21  BANK22  BANK23  BANK24  BANK25  BANK2
      +6  BANK27  BANK28  BANK29  BANK30  BANK31
  1901 ;;      Params:         3       0       0       0       0       0       0       0       0       0       0       0       
      +0       0       0       0       0       0       0       0       0       0       0       0       0       0       0       
      +0       0       0       0       0       0
  1902 ;;      Locals:         0       0       0       0       0       0       0       0       0       0       0       0       
      +0       0       0       0       0       0       0       0       0       0       0       0       0       0       0       
      +0       0       0       0       0       0
  1903 ;;      Temps:          0       0       0       0       0       0       0       0       0       0       0       0       
      +0       0       0       0       0       0       0       0       0       0       0       0       0       0       0       
      +0       0       0       0       0       0
  1904 ;;      Totals:         3       0       0       0       0       0       0       0       0       0       0       0       
      +0       0       0       0       0       0       0       0       0       0       0       0       0       0       0       
      +0       0       0       0       0       0
  1905 ;;Total ram usage:        3 bytes
  1906 ;; Hardware stack levels used:    1
  1907 ;; Hardware stack levels required when called:    4
  1908 ;; This function calls:
  1909 ;;		Nothing
  1910 ;; This function is called by:
  1911 ;;		_TMR6_Initialize
  1912 ;; This function uses a non-reentrant model
  1913 ;;
  1914                           
  1915                           	psect	text19
  1916  000902                     __ptext19:
  1917                           	opt callstack 0
  1918  000902                     _TMR6_SetInterruptHandler:
  1919                           	opt callstack 24
  1920                           
  1921                           ;mcc_generated_files/tmr6.c: 179: void TMR6_SetInterruptHandler(void (* InterruptHandler
      +                          )(void));mcc_generated_files/tmr6.c: 180: {;mcc_generated_files/tmr6.c: 181:  TMR6_Inter
      +                          ruptHandler = InterruptHandler;
  1922                           
  1923                           ;incstack = 0
  1924  000902  0060  F150  F01C   	movff	TMR6_SetInterruptHandler@InterruptHandler,_TMR6_InterruptHandler
  1925  000908  0060  F154  F01D   	movff	TMR6_SetInterruptHandler@InterruptHandler+1,_TMR6_InterruptHandler+1
  1926  00090E  0060  F158  F01E   	movff	TMR6_SetInterruptHandler@InterruptHandler+2,_TMR6_InterruptHandler+2
  1927  000914  0012               	return		;funcret
  1928  000916                     __end_of_TMR6_SetInterruptHandler:
  1929                           	opt callstack 0
  1930                           
  1931 ;; *************** function _TMR5_Initialize *****************
  1932 ;; Defined at:
  1933 ;;		line 66 in file "mcc_generated_files/tmr5.c"
  1934 ;; Parameters:    Size  Location     Type
  1935 ;;		None
  1936 ;; Auto vars:     Size  Location     Type
  1937 ;;		None
  1938 ;; Return value:  Size  Location     Type
  1939 ;;                  1    wreg      void 
  1940 ;; Registers used:
  1941 ;;		wreg, status,2, status,0, cstack
  1942 ;; Tracked objects:
  1943 ;;		On entry : 0/0
  1944 ;;		On exit  : 0/0
  1945 ;;		Unchanged: 0/0
  1946 ;; Data sizes:     COMRAM   BANK0   BANK1   BANK2   BANK3   BANK4   BANK5   BANK6   BANK7   BANK8   BANK9  BANK10  BANK1
      +1  BANK12  BANK13  BANK14  BANK15  BANK16  BANK17  BANK18  BANK19  BANK20  BANK21  BANK22  BANK23  BANK24  BANK25  BANK2
      +6  BANK27  BANK28  BANK29  BANK30  BANK31
  1947 ;;      Params:         0       0       0       0       0       0       0       0       0       0       0       0       
      +0       0       0       0       0       0       0       0       0       0       0       0       0       0       0       
      +0       0       0       0       0       0
  1948 ;;      Locals:         0       0       0       0       0       0       0       0       0       0       0       0       
      +0       0       0       0       0       0       0       0       0       0       0       0       0       0       0       
      +0       0       0       0       0       0
  1949 ;;      Temps:          2       0       0       0       0       0       0       0       0       0       0       0       
      +0       0       0       0       0       0       0       0       0       0       0       0       0       0       0       
      +0       0       0       0       0       0
  1950 ;;      Totals:         2       0       0       0       0       0       0       0       0       0       0       0       
      +0       0       0       0       0       0       0       0       0       0       0       0       0       0       0       
      +0       0       0       0       0       0
  1951 ;;Total ram usage:        2 bytes
  1952 ;; Hardware stack levels used:    1
  1953 ;; Hardware stack levels required when called:    5
  1954 ;; This function calls:
  1955 ;;		_TMR5_SetInterruptHandler
  1956 ;; This function is called by:
  1957 ;;		_SYSTEM_Initialize
  1958 ;; This function uses a non-reentrant model
  1959 ;;
  1960                           
  1961                           	psect	text20
  1962  0003E2                     __ptext20:
  1963                           	opt callstack 0
  1964  0003E2                     _TMR5_Initialize:
  1965                           	opt callstack 24
  1966                           
  1967                           ;mcc_generated_files/tmr5.c: 71:     T5GCON = 0x00;
  1968                           
  1969                           ;incstack = 0
  1970  0003E2  0E00               	movlw	0
  1971  0003E4  6E9B               	movwf	16283,c	;volatile
  1972                           
  1973                           ;mcc_generated_files/tmr5.c: 74:     T5GATE = 0x00;
  1974  0003E6  0E00               	movlw	0
  1975  0003E8  6E9C               	movwf	16284,c	;volatile
  1976                           
  1977                           ;mcc_generated_files/tmr5.c: 77:     T5CLK = 0x01;
  1978  0003EA  0E01               	movlw	1
  1979  0003EC  6E9D               	movwf	16285,c	;volatile
  1980                           
  1981                           ;mcc_generated_files/tmr5.c: 80:     TMR5H = 0x63;
  1982  0003EE  0E63               	movlw	99
  1983  0003F0  6E99               	movwf	16281,c	;volatile
  1984                           
  1985                           ;mcc_generated_files/tmr5.c: 83:     TMR5L = 0xC0;
  1986  0003F2  0EC0               	movlw	192
  1987  0003F4  6E98               	movwf	16280,c	;volatile
  1988                           
  1989                           ;mcc_generated_files/tmr5.c: 86:     timer5ReloadVal=(uint16_t)((TMR5H << 8) | TMR5L);
  1990  0003F6  5098               	movf	16280,w,c	;volatile
  1991  0003F8  006F FE64  F057    	movff	16281,??_TMR5_Initialize	;volatile
  1992  0003FE  6A58               	clrf	(??_TMR5_Initialize+1)& (0+255),c
  1993  000400  0060  F15C  F058   	movff	??_TMR5_Initialize,??_TMR5_Initialize+1
  1994  000406  6A57               	clrf	??_TMR5_Initialize,c
  1995  000408  1057               	iorwf	??_TMR5_Initialize,w,c
  1996  00040A  6E3F               	movwf	_timer5ReloadVal,c	;volatile
  1997  00040C  5058               	movf	??_TMR5_Initialize+1,w,c
  1998  00040E  6E40               	movwf	_timer5ReloadVal+1,c	;volatile
  1999                           
  2000                           ;mcc_generated_files/tmr5.c: 89:     PIR8bits.TMR5IF = 0;
  2001  000410  0139               	movlb	57	; () banked
  2002  000412  9DA8               	bcf	168,6,b	;volatile
  2003                           
  2004                           ; BSR set to: 57
  2005                           ;mcc_generated_files/tmr5.c: 92:     PIE8bits.TMR5IE = 1;
  2006  000414  8D98               	bsf	152,6,b	;volatile
  2007                           
  2008                           ; BSR set to: 57
  2009                           ;mcc_generated_files/tmr5.c: 95:     TMR5_SetInterruptHandler(TMR5_DefaultInterruptHandl
      +                          er);
  2010  000416  0E08               	movlw	low _TMR5_DefaultInterruptHandler
  2011  000418  6E54               	movwf	TMR5_SetInterruptHandler@InterruptHandler,c
  2012  00041A  0E08               	movlw	high _TMR5_DefaultInterruptHandler
  2013  00041C  6E55               	movwf	TMR5_SetInterruptHandler@InterruptHandler+1,c
  2014  00041E  0E00               	movlw	low (_TMR5_DefaultInterruptHandler shr (0+16))
  2015  000420  6E56               	movwf	TMR5_SetInterruptHandler@InterruptHandler+2,c
  2016  000422  EC8B  F004         	call	_TMR5_SetInterruptHandler	;wreg free
  2017                           
  2018                           ;mcc_generated_files/tmr5.c: 98:     T5CON = 0x31;
  2019  000426  0E31               	movlw	49
  2020  000428  6E9A               	movwf	16282,c	;volatile
  2021  00042A  0012               	return		;funcret
  2022  00042C                     __end_of_TMR5_Initialize:
  2023                           	opt callstack 0
  2024                           
  2025 ;; *************** function _TMR5_SetInterruptHandler *****************
  2026 ;; Defined at:
  2027 ;;		line 194 in file "mcc_generated_files/tmr5.c"
  2028 ;; Parameters:    Size  Location     Type
  2029 ;;  InterruptHan    3    5[COMRAM] PTR FTN()void 
  2030 ;;		 -> TMR5_DefaultInterruptHandler(1), 
  2031 ;; Auto vars:     Size  Location     Type
  2032 ;;		None
  2033 ;; Return value:  Size  Location     Type
  2034 ;;                  1    wreg      void 
  2035 ;; Registers used:
  2036 ;;		wreg, status,2, status,0
  2037 ;; Tracked objects:
  2038 ;;		On entry : 0/0
  2039 ;;		On exit  : 0/0
  2040 ;;		Unchanged: 0/0
  2041 ;; Data sizes:     COMRAM   BANK0   BANK1   BANK2   BANK3   BANK4   BANK5   BANK6   BANK7   BANK8   BANK9  BANK10  BANK1
      +1  BANK12  BANK13  BANK14  BANK15  BANK16  BANK17  BANK18  BANK19  BANK20  BANK21  BANK22  BANK23  BANK24  BANK25  BANK2
      +6  BANK27  BANK28  BANK29  BANK30  BANK31
  2042 ;;      Params:         3       0       0       0       0       0       0       0       0       0       0       0       
      +0       0       0       0       0       0       0       0       0       0       0       0       0       0       0       
      +0       0       0       0       0       0
  2043 ;;      Locals:         0       0       0       0       0       0       0       0       0       0       0       0       
      +0       0       0       0       0       0       0       0       0       0       0       0       0       0       0       
      +0       0       0       0       0       0
  2044 ;;      Temps:          0       0       0       0       0       0       0       0       0       0       0       0       
      +0       0       0       0       0       0       0       0       0       0       0       0       0       0       0       
      +0       0       0       0       0       0
  2045 ;;      Totals:         3       0       0       0       0       0       0       0       0       0       0       0       
      +0       0       0       0       0       0       0       0       0       0       0       0       0       0       0       
      +0       0       0       0       0       0
  2046 ;;Total ram usage:        3 bytes
  2047 ;; Hardware stack levels used:    1
  2048 ;; Hardware stack levels required when called:    4
  2049 ;; This function calls:
  2050 ;;		Nothing
  2051 ;; This function is called by:
  2052 ;;		_TMR5_Initialize
  2053 ;; This function uses a non-reentrant model
  2054 ;;
  2055                           
  2056                           	psect	text21
  2057  000916                     __ptext21:
  2058                           	opt callstack 0
  2059  000916                     _TMR5_SetInterruptHandler:
  2060                           	opt callstack 24
  2061                           
  2062                           ;mcc_generated_files/tmr5.c: 195:     TMR5_InterruptHandler = InterruptHandler;
  2063                           
  2064                           ;incstack = 0
  2065  000916  0060  F150  F019   	movff	TMR5_SetInterruptHandler@InterruptHandler,_TMR5_InterruptHandler
  2066  00091C  0060  F154  F01A   	movff	TMR5_SetInterruptHandler@InterruptHandler+1,_TMR5_InterruptHandler+1
  2067  000922  0060  F158  F01B   	movff	TMR5_SetInterruptHandler@InterruptHandler+2,_TMR5_InterruptHandler+2
  2068  000928  0012               	return		;funcret
  2069  00092A                     __end_of_TMR5_SetInterruptHandler:
  2070                           	opt callstack 0
  2071                           
  2072 ;; *************** function _TMR2_Initialize *****************
  2073 ;; Defined at:
  2074 ;;		line 62 in file "mcc_generated_files/tmr2.c"
  2075 ;; Parameters:    Size  Location     Type
  2076 ;;		None
  2077 ;; Auto vars:     Size  Location     Type
  2078 ;;		None
  2079 ;; Return value:  Size  Location     Type
  2080 ;;                  1    wreg      void 
  2081 ;; Registers used:
  2082 ;;		wreg, status,2
  2083 ;; Tracked objects:
  2084 ;;		On entry : 0/0
  2085 ;;		On exit  : 0/0
  2086 ;;		Unchanged: 0/0
  2087 ;; Data sizes:     COMRAM   BANK0   BANK1   BANK2   BANK3   BANK4   BANK5   BANK6   BANK7   BANK8   BANK9  BANK10  BANK1
      +1  BANK12  BANK13  BANK14  BANK15  BANK16  BANK17  BANK18  BANK19  BANK20  BANK21  BANK22  BANK23  BANK24  BANK25  BANK2
      +6  BANK27  BANK28  BANK29  BANK30  BANK31
  2088 ;;      Params:         0       0       0       0       0       0       0       0       0       0       0       0       
      +0       0       0       0       0       0       0       0       0       0       0       0       0       0       0       
      +0       0       0       0       0       0
  2089 ;;      Locals:         0       0       0       0       0       0       0       0       0       0       0       0       
      +0       0       0       0       0       0       0       0       0       0       0       0       0       0       0       
      +0       0       0       0       0       0
  2090 ;;      Temps:          0       0       0       0       0       0       0       0       0       0       0       0       
      +0       0       0       0       0       0       0       0       0       0       0       0       0       0       0       
      +0       0       0       0       0       0
  2091 ;;      Totals:         0       0       0       0       0       0       0       0       0       0       0       0       
      +0       0       0       0       0       0       0       0       0       0       0       0       0       0       0       
      +0       0       0       0       0       0
  2092 ;;Total ram usage:        0 bytes
  2093 ;; Hardware stack levels used:    1
  2094 ;; Hardware stack levels required when called:    4
  2095 ;; This function calls:
  2096 ;;		Nothing
  2097 ;; This function is called by:
  2098 ;;		_SYSTEM_Initialize
  2099 ;; This function uses a non-reentrant model
  2100 ;;
  2101                           
  2102                           	psect	text22
  2103  0007CE                     __ptext22:
  2104                           	opt callstack 0
  2105  0007CE                     _TMR2_Initialize:
  2106                           	opt callstack 25
  2107                           
  2108                           ;mcc_generated_files/tmr2.c: 67:     T2CLKCON = 0x01;
  2109                           
  2110                           ;incstack = 0
  2111  0007CE  0E01               	movlw	1
  2112  0007D0  6EAE               	movwf	16302,c	;volatile
  2113                           
  2114                           ;mcc_generated_files/tmr2.c: 70:     T2HLT = 0x00;
  2115  0007D2  0E00               	movlw	0
  2116  0007D4  6EAD               	movwf	16301,c	;volatile
  2117                           
  2118                           ;mcc_generated_files/tmr2.c: 73:     T2RST = 0x00;
  2119  0007D6  0E00               	movlw	0
  2120  0007D8  6EAF               	movwf	16303,c	;volatile
  2121                           
  2122                           ;mcc_generated_files/tmr2.c: 76:     T2PR = 0x63;
  2123  0007DA  0E63               	movlw	99
  2124  0007DC  6EAB               	movwf	16299,c	;volatile
  2125                           
  2126                           ;mcc_generated_files/tmr2.c: 79:     T2TMR = 0x00;
  2127  0007DE  0E00               	movlw	0
  2128  0007E0  6EAA               	movwf	16298,c	;volatile
  2129                           
  2130                           ;mcc_generated_files/tmr2.c: 82:     PIR4bits.TMR2IF = 0;
  2131  0007E2  0139               	movlb	57	; () banked
  2132  0007E4  95A4               	bcf	164,2,b	;volatile
  2133                           
  2134                           ;mcc_generated_files/tmr2.c: 85:     T2CON = 0xC0;
  2135  0007E6  0EC0               	movlw	192
  2136  0007E8  6EAC               	movwf	16300,c	;volatile
  2137                           
  2138                           ; BSR set to: 57
  2139  0007EA  0012               	return		;funcret
  2140  0007EC                     __end_of_TMR2_Initialize:
  2141                           	opt callstack 0
  2142                           
  2143 ;; *************** function _PWM8_Initialize *****************
  2144 ;; Defined at:
  2145 ;;		line 58 in file "mcc_generated_files/pwm8.c"
  2146 ;; Parameters:    Size  Location     Type
  2147 ;;		None
  2148 ;; Auto vars:     Size  Location     Type
  2149 ;;		None
  2150 ;; Return value:  Size  Location     Type
  2151 ;;                  1    wreg      void 
  2152 ;; Registers used:
  2153 ;;		wreg, status,2
  2154 ;; Tracked objects:
  2155 ;;		On entry : 0/0
  2156 ;;		On exit  : 0/0
  2157 ;;		Unchanged: 0/0
  2158 ;; Data sizes:     COMRAM   BANK0   BANK1   BANK2   BANK3   BANK4   BANK5   BANK6   BANK7   BANK8   BANK9  BANK10  BANK1
      +1  BANK12  BANK13  BANK14  BANK15  BANK16  BANK17  BANK18  BANK19  BANK20  BANK21  BANK22  BANK23  BANK24  BANK25  BANK2
      +6  BANK27  BANK28  BANK29  BANK30  BANK31
  2159 ;;      Params:         0       0       0       0       0       0       0       0       0       0       0       0       
      +0       0       0       0       0       0       0       0       0       0       0       0       0       0       0       
      +0       0       0       0       0       0
  2160 ;;      Locals:         0       0       0       0       0       0       0       0       0       0       0       0       
      +0       0       0       0       0       0       0       0       0       0       0       0       0       0       0       
      +0       0       0       0       0       0
  2161 ;;      Temps:          0       0       0       0       0       0       0       0       0       0       0       0       
      +0       0       0       0       0       0       0       0       0       0       0       0       0       0       0       
      +0       0       0       0       0       0
  2162 ;;      Totals:         0       0       0       0       0       0       0       0       0       0       0       0       
      +0       0       0       0       0       0       0       0       0       0       0       0       0       0       0       
      +0       0       0       0       0       0
  2163 ;;Total ram usage:        0 bytes
  2164 ;; Hardware stack levels used:    1
  2165 ;; Hardware stack levels required when called:    4
  2166 ;; This function calls:
  2167 ;;		Nothing
  2168 ;; This function is called by:
  2169 ;;		_SYSTEM_Initialize
  2170 ;; This function uses a non-reentrant model
  2171 ;;
  2172                           
  2173                           	psect	text23
  2174  000822                     __ptext23:
  2175                           	opt callstack 0
  2176  000822                     _PWM8_Initialize:
  2177                           	opt callstack 25
  2178                           
  2179                           ;mcc_generated_files/pwm8.c: 62:     PWM8CON = 0x80;
  2180                           
  2181                           ; BSR set to: 57
  2182                           ;incstack = 0
  2183  000822  0E80               	movlw	128
  2184  000824  6E62               	movwf	16226,c	;volatile
  2185                           
  2186                           ;mcc_generated_files/pwm8.c: 65:     PWM8DCH = 0x31;
  2187  000826  0E31               	movlw	49
  2188  000828  6E61               	movwf	16225,c	;volatile
  2189                           
  2190                           ;mcc_generated_files/pwm8.c: 68:     PWM8DCL = 0xC0;
  2191  00082A  0EC0               	movlw	192
  2192  00082C  6E60               	movwf	16224,c	;volatile
  2193                           
  2194                           ;mcc_generated_files/pwm8.c: 71:     CCPTMRS1bits.P8TSEL = 1;
  2195  00082E  013F               	movlb	63	; () banked
  2196  000830  515F               	movf	95,w,b	;volatile
  2197  000832  0B3F               	andlw	-193
  2198  000834  0940               	iorlw	64
  2199  000836  6F5F               	movwf	95,b	;volatile
  2200                           
  2201                           ; BSR set to: 63
  2202  000838  0012               	return		;funcret
  2203  00083A                     __end_of_PWM8_Initialize:
  2204                           	opt callstack 0
  2205                           
  2206 ;; *************** function _PMD_Initialize *****************
  2207 ;; Defined at:
  2208 ;;		line 82 in file "mcc_generated_files/mcc.c"
  2209 ;; Parameters:    Size  Location     Type
  2210 ;;		None
  2211 ;; Auto vars:     Size  Location     Type
  2212 ;;		None
  2213 ;; Return value:  Size  Location     Type
  2214 ;;                  1    wreg      void 
  2215 ;; Registers used:
  2216 ;;		wreg, status,2
  2217 ;; Tracked objects:
  2218 ;;		On entry : 0/0
  2219 ;;		On exit  : 0/0
  2220 ;;		Unchanged: 0/0
  2221 ;; Data sizes:     COMRAM   BANK0   BANK1   BANK2   BANK3   BANK4   BANK5   BANK6   BANK7   BANK8   BANK9  BANK10  BANK1
      +1  BANK12  BANK13  BANK14  BANK15  BANK16  BANK17  BANK18  BANK19  BANK20  BANK21  BANK22  BANK23  BANK24  BANK25  BANK2
      +6  BANK27  BANK28  BANK29  BANK30  BANK31
  2222 ;;      Params:         0       0       0       0       0       0       0       0       0       0       0       0       
      +0       0       0       0       0       0       0       0       0       0       0       0       0       0       0       
      +0       0       0       0       0       0
  2223 ;;      Locals:         0       0       0       0       0       0       0       0       0       0       0       0       
      +0       0       0       0       0       0       0       0       0       0       0       0       0       0       0       
      +0       0       0       0       0       0
  2224 ;;      Temps:          0       0       0       0       0       0       0       0       0       0       0       0       
      +0       0       0       0       0       0       0       0       0       0       0       0       0       0       0       
      +0       0       0       0       0       0
  2225 ;;      Totals:         0       0       0       0       0       0       0       0       0       0       0       0       
      +0       0       0       0       0       0       0       0       0       0       0       0       0       0       0       
      +0       0       0       0       0       0
  2226 ;;Total ram usage:        0 bytes
  2227 ;; Hardware stack levels used:    1
  2228 ;; Hardware stack levels required when called:    4
  2229 ;; This function calls:
  2230 ;;		Nothing
  2231 ;; This function is called by:
  2232 ;;		_SYSTEM_Initialize
  2233 ;; This function uses a non-reentrant model
  2234 ;;
  2235                           
  2236                           	psect	text24
  2237  000696                     __ptext24:
  2238                           	opt callstack 0
  2239  000696                     _PMD_Initialize:
  2240                           	opt callstack 25
  2241                           
  2242                           ;mcc_generated_files/mcc.c: 85:     PMD0 = 0x00;
  2243                           
  2244                           ; BSR set to: 63
  2245                           ;incstack = 0
  2246  000696  0E00               	movlw	0
  2247  000698  0139               	movlb	57	; () banked
  2248  00069A  6FC0               	movwf	192,b	;volatile
  2249                           
  2250                           ;mcc_generated_files/mcc.c: 87:     PMD1 = 0x00;
  2251  00069C  0E00               	movlw	0
  2252  00069E  6FC1               	movwf	193,b	;volatile
  2253                           
  2254                           ;mcc_generated_files/mcc.c: 89:     PMD2 = 0x00;
  2255  0006A0  0E00               	movlw	0
  2256  0006A2  6FC2               	movwf	194,b	;volatile
  2257                           
  2258                           ;mcc_generated_files/mcc.c: 91:     PMD3 = 0x00;
  2259  0006A4  0E00               	movlw	0
  2260  0006A6  6FC3               	movwf	195,b	;volatile
  2261                           
  2262                           ;mcc_generated_files/mcc.c: 93:     PMD4 = 0x00;
  2263  0006A8  0E00               	movlw	0
  2264  0006AA  6FC4               	movwf	196,b	;volatile
  2265                           
  2266                           ;mcc_generated_files/mcc.c: 95:     PMD5 = 0x00;
  2267  0006AC  0E00               	movlw	0
  2268  0006AE  6FC5               	movwf	197,b	;volatile
  2269                           
  2270                           ;mcc_generated_files/mcc.c: 97:     PMD6 = 0x00;
  2271  0006B0  0E00               	movlw	0
  2272  0006B2  6FC6               	movwf	198,b	;volatile
  2273                           
  2274                           ;mcc_generated_files/mcc.c: 99:     PMD7 = 0x00;
  2275  0006B4  0E00               	movlw	0
  2276  0006B6  6FC7               	movwf	199,b	;volatile
  2277                           
  2278                           ; BSR set to: 57
  2279  0006B8  0012               	return		;funcret
  2280  0006BA                     __end_of_PMD_Initialize:
  2281                           	opt callstack 0
  2282                           
  2283 ;; *************** function _PIN_MANAGER_Initialize *****************
  2284 ;; Defined at:
  2285 ;;		line 55 in file "mcc_generated_files/pin_manager.c"
  2286 ;; Parameters:    Size  Location     Type
  2287 ;;		None
  2288 ;; Auto vars:     Size  Location     Type
  2289 ;;		None
  2290 ;; Return value:  Size  Location     Type
  2291 ;;                  1    wreg      void 
  2292 ;; Registers used:
  2293 ;;		wreg, status,2
  2294 ;; Tracked objects:
  2295 ;;		On entry : 0/0
  2296 ;;		On exit  : 0/0
  2297 ;;		Unchanged: 0/0
  2298 ;; Data sizes:     COMRAM   BANK0   BANK1   BANK2   BANK3   BANK4   BANK5   BANK6   BANK7   BANK8   BANK9  BANK10  BANK1
      +1  BANK12  BANK13  BANK14  BANK15  BANK16  BANK17  BANK18  BANK19  BANK20  BANK21  BANK22  BANK23  BANK24  BANK25  BANK2
      +6  BANK27  BANK28  BANK29  BANK30  BANK31
  2299 ;;      Params:         0       0       0       0       0       0       0       0       0       0       0       0       
      +0       0       0       0       0       0       0       0       0       0       0       0       0       0       0       
      +0       0       0       0       0       0
  2300 ;;      Locals:         0       0       0       0       0       0       0       0       0       0       0       0       
      +0       0       0       0       0       0       0       0       0       0       0       0       0       0       0       
      +0       0       0       0       0       0
  2301 ;;      Temps:          0       0       0       0       0       0       0       0       0       0       0       0       
      +0       0       0       0       0       0       0       0       0       0       0       0       0       0       0       
      +0       0       0       0       0       0
  2302 ;;      Totals:         0       0       0       0       0       0       0       0       0       0       0       0       
      +0       0       0       0       0       0       0       0       0       0       0       0       0       0       0       
      +0       0       0       0       0       0
  2303 ;;Total ram usage:        0 bytes
  2304 ;; Hardware stack levels used:    1
  2305 ;; Hardware stack levels required when called:    4
  2306 ;; This function calls:
  2307 ;;		Nothing
  2308 ;; This function is called by:
  2309 ;;		_SYSTEM_Initialize
  2310 ;; This function uses a non-reentrant model
  2311 ;;
  2312                           
  2313                           	psect	text25
  2314  000216                     __ptext25:
  2315                           	opt callstack 0
  2316  000216                     _PIN_MANAGER_Initialize:
  2317                           	opt callstack 25
  2318                           
  2319                           ;mcc_generated_files/pin_manager.c: 60:     LATE = 0x01;
  2320                           
  2321                           ; BSR set to: 57
  2322                           ;incstack = 0
  2323  000216  0E01               	movlw	1
  2324  000218  6EBE               	movwf	16318,c	;volatile
  2325                           
  2326                           ;mcc_generated_files/pin_manager.c: 61:     LATD = 0x02;
  2327  00021A  0E02               	movlw	2
  2328  00021C  6EBD               	movwf	16317,c	;volatile
  2329                           
  2330                           ;mcc_generated_files/pin_manager.c: 62:     LATA = 0x00;
  2331  00021E  0E00               	movlw	0
  2332  000220  6EBA               	movwf	16314,c	;volatile
  2333                           
  2334                           ;mcc_generated_files/pin_manager.c: 63:     LATB = 0x00;
  2335  000222  0E00               	movlw	0
  2336  000224  6EBB               	movwf	16315,c	;volatile
  2337                           
  2338                           ;mcc_generated_files/pin_manager.c: 64:     LATC = 0x00;
  2339  000226  0E00               	movlw	0
  2340  000228  6EBC               	movwf	16316,c	;volatile
  2341                           
  2342                           ;mcc_generated_files/pin_manager.c: 69:     TRISE = 0x06;
  2343  00022A  0E06               	movlw	6
  2344  00022C  6EC6               	movwf	16326,c	;volatile
  2345                           
  2346                           ;mcc_generated_files/pin_manager.c: 70:     TRISA = 0xFF;
  2347  00022E  68C2               	setf	16322,c	;volatile
  2348                           
  2349                           ;mcc_generated_files/pin_manager.c: 71:     TRISB = 0xBF;
  2350  000230  0EBF               	movlw	191
  2351  000232  6EC3               	movwf	16323,c	;volatile
  2352                           
  2353                           ;mcc_generated_files/pin_manager.c: 72:     TRISC = 0xBF;
  2354  000234  0EBF               	movlw	191
  2355  000236  6EC4               	movwf	16324,c	;volatile
  2356                           
  2357                           ;mcc_generated_files/pin_manager.c: 73:     TRISD = 0xFD;
  2358  000238  0EFD               	movlw	253
  2359  00023A  6EC5               	movwf	16325,c	;volatile
  2360                           
  2361                           ;mcc_generated_files/pin_manager.c: 78:     ANSELD = 0xFD;
  2362  00023C  0EFD               	movlw	253
  2363  00023E  013A               	movlb	58	; () banked
  2364  000240  6F70               	movwf	112,b	;volatile
  2365                           
  2366                           ;mcc_generated_files/pin_manager.c: 79:     ANSELC = 0x3F;
  2367  000242  0E3F               	movlw	63
  2368  000244  6F60               	movwf	96,b	;volatile
  2369                           
  2370                           ;mcc_generated_files/pin_manager.c: 80:     ANSELB = 0x3F;
  2371  000246  0E3F               	movlw	63
  2372  000248  6F50               	movwf	80,b	;volatile
  2373                           
  2374                           ;mcc_generated_files/pin_manager.c: 81:     ANSELE = 0x06;
  2375  00024A  0E06               	movlw	6
  2376  00024C  6F80               	movwf	128,b	;volatile
  2377                           
  2378                           ; BSR set to: 58
  2379                           ;mcc_generated_files/pin_manager.c: 82:     ANSELA = 0xFF;
  2380  00024E  6940               	setf	64,b	;volatile
  2381                           
  2382                           ;mcc_generated_files/pin_manager.c: 87:     WPUD = 0x00;
  2383  000250  0E00               	movlw	0
  2384  000252  6F71               	movwf	113,b	;volatile
  2385                           
  2386                           ;mcc_generated_files/pin_manager.c: 88:     WPUE = 0x00;
  2387  000254  0E00               	movlw	0
  2388  000256  6F81               	movwf	129,b	;volatile
  2389                           
  2390                           ;mcc_generated_files/pin_manager.c: 89:     WPUB = 0x00;
  2391  000258  0E00               	movlw	0
  2392  00025A  6F51               	movwf	81,b	;volatile
  2393                           
  2394                           ;mcc_generated_files/pin_manager.c: 90:     WPUA = 0x00;
  2395  00025C  0E00               	movlw	0
  2396  00025E  6F41               	movwf	65,b	;volatile
  2397                           
  2398                           ;mcc_generated_files/pin_manager.c: 91:     WPUC = 0x00;
  2399  000260  0E00               	movlw	0
  2400  000262  6F61               	movwf	97,b	;volatile
  2401                           
  2402                           ;mcc_generated_files/pin_manager.c: 96:     RB1I2C = 0x00;
  2403  000264  0E00               	movlw	0
  2404  000266  6F5A               	movwf	90,b	;volatile
  2405                           
  2406                           ;mcc_generated_files/pin_manager.c: 97:     RB2I2C = 0x00;
  2407  000268  0E00               	movlw	0
  2408  00026A  6F5B               	movwf	91,b	;volatile
  2409                           
  2410                           ;mcc_generated_files/pin_manager.c: 98:     RC3I2C = 0x00;
  2411  00026C  0E00               	movlw	0
  2412  00026E  6F6A               	movwf	106,b	;volatile
  2413                           
  2414                           ;mcc_generated_files/pin_manager.c: 99:     RC4I2C = 0x00;
  2415  000270  0E00               	movlw	0
  2416  000272  6F6B               	movwf	107,b	;volatile
  2417                           
  2418                           ;mcc_generated_files/pin_manager.c: 100:     RD0I2C = 0x00;
  2419  000274  0E00               	movlw	0
  2420  000276  6F7A               	movwf	122,b	;volatile
  2421                           
  2422                           ;mcc_generated_files/pin_manager.c: 101:     RD1I2C = 0x00;
  2423  000278  0E00               	movlw	0
  2424  00027A  6F7B               	movwf	123,b	;volatile
  2425                           
  2426                           ;mcc_generated_files/pin_manager.c: 106:     ODCONE = 0x00;
  2427  00027C  0E00               	movlw	0
  2428  00027E  6F82               	movwf	130,b	;volatile
  2429                           
  2430                           ;mcc_generated_files/pin_manager.c: 107:     ODCONA = 0x00;
  2431  000280  0E00               	movlw	0
  2432  000282  6F42               	movwf	66,b	;volatile
  2433                           
  2434                           ;mcc_generated_files/pin_manager.c: 108:     ODCONB = 0x00;
  2435  000284  0E00               	movlw	0
  2436  000286  6F52               	movwf	82,b	;volatile
  2437                           
  2438                           ;mcc_generated_files/pin_manager.c: 109:     ODCONC = 0x00;
  2439  000288  0E00               	movlw	0
  2440  00028A  6F62               	movwf	98,b	;volatile
  2441                           
  2442                           ;mcc_generated_files/pin_manager.c: 110:     ODCOND = 0x00;
  2443  00028C  0E00               	movlw	0
  2444  00028E  6F72               	movwf	114,b	;volatile
  2445                           
  2446                           ; BSR set to: 58
  2447                           ;mcc_generated_files/pin_manager.c: 115:     SLRCONA = 0xFF;
  2448  000290  6943               	setf	67,b	;volatile
  2449                           
  2450                           ; BSR set to: 58
  2451                           ;mcc_generated_files/pin_manager.c: 116:     SLRCONB = 0xFF;
  2452  000292  6953               	setf	83,b	;volatile
  2453                           
  2454                           ; BSR set to: 58
  2455                           ;mcc_generated_files/pin_manager.c: 117:     SLRCONC = 0xFF;
  2456  000294  6963               	setf	99,b	;volatile
  2457                           
  2458                           ; BSR set to: 58
  2459                           ;mcc_generated_files/pin_manager.c: 118:     SLRCOND = 0xFF;
  2460  000296  6973               	setf	115,b	;volatile
  2461                           
  2462                           ;mcc_generated_files/pin_manager.c: 119:     SLRCONE = 0x07;
  2463  000298  0E07               	movlw	7
  2464  00029A  6F83               	movwf	131,b	;volatile
  2465                           
  2466                           ;mcc_generated_files/pin_manager.c: 128:     U2RXPPS = 0x0F;
  2467  00029C  0E0F               	movlw	15
  2468  00029E  6FE8               	movwf	232,b	;volatile
  2469                           
  2470                           ;mcc_generated_files/pin_manager.c: 129:     RB6PPS = 0x16;
  2471  0002A0  0E16               	movlw	22
  2472  0002A2  6F0E               	movwf	14,b	;volatile
  2473                           
  2474                           ;mcc_generated_files/pin_manager.c: 130:     RD1PPS = 0x10;
  2475  0002A4  0E10               	movlw	16
  2476  0002A6  6F19               	movwf	25,b	;volatile
  2477                           
  2478                           ;mcc_generated_files/pin_manager.c: 131:     RC6PPS = 0x13;
  2479  0002A8  0E13               	movlw	19
  2480  0002AA  6F16               	movwf	22,b	;volatile
  2481                           
  2482                           ;mcc_generated_files/pin_manager.c: 132:     U1RXPPS = 0x17;
  2483  0002AC  0E17               	movlw	23
  2484  0002AE  6FE5               	movwf	229,b	;volatile
  2485                           
  2486                           ; BSR set to: 58
  2487  0002B0  0012               	return		;funcret
  2488  0002B2                     __end_of_PIN_MANAGER_Initialize:
  2489                           	opt callstack 0
  2490                           
  2491 ;; *************** function _OSCILLATOR_Initialize *****************
  2492 ;; Defined at:
  2493 ;;		line 64 in file "mcc_generated_files/mcc.c"
  2494 ;; Parameters:    Size  Location     Type
  2495 ;;		None
  2496 ;; Auto vars:     Size  Location     Type
  2497 ;;		None
  2498 ;; Return value:  Size  Location     Type
  2499 ;;                  1    wreg      void 
  2500 ;; Registers used:
  2501 ;;		wreg, status,2
  2502 ;; Tracked objects:
  2503 ;;		On entry : 0/0
  2504 ;;		On exit  : 0/0
  2505 ;;		Unchanged: 0/0
  2506 ;; Data sizes:     COMRAM   BANK0   BANK1   BANK2   BANK3   BANK4   BANK5   BANK6   BANK7   BANK8   BANK9  BANK10  BANK1
      +1  BANK12  BANK13  BANK14  BANK15  BANK16  BANK17  BANK18  BANK19  BANK20  BANK21  BANK22  BANK23  BANK24  BANK25  BANK2
      +6  BANK27  BANK28  BANK29  BANK30  BANK31
  2507 ;;      Params:         0       0       0       0       0       0       0       0       0       0       0       0       
      +0       0       0       0       0       0       0       0       0       0       0       0       0       0       0       
      +0       0       0       0       0       0
  2508 ;;      Locals:         0       0       0       0       0       0       0       0       0       0       0       0       
      +0       0       0       0       0       0       0       0       0       0       0       0       0       0       0       
      +0       0       0       0       0       0
  2509 ;;      Temps:          0       0       0       0       0       0       0       0       0       0       0       0       
      +0       0       0       0       0       0       0       0       0       0       0       0       0       0       0       
      +0       0       0       0       0       0
  2510 ;;      Totals:         0       0       0       0       0       0       0       0       0       0       0       0       
      +0       0       0       0       0       0       0       0       0       0       0       0       0       0       0       
      +0       0       0       0       0       0
  2511 ;;Total ram usage:        0 bytes
  2512 ;; Hardware stack levels used:    1
  2513 ;; Hardware stack levels required when called:    4
  2514 ;; This function calls:
  2515 ;;		Nothing
  2516 ;; This function is called by:
  2517 ;;		_SYSTEM_Initialize
  2518 ;; This function uses a non-reentrant model
  2519 ;;
  2520                           
  2521                           	psect	text26
  2522  0007EC                     __ptext26:
  2523                           	opt callstack 0
  2524  0007EC                     _OSCILLATOR_Initialize:
  2525                           	opt callstack 25
  2526                           
  2527                           ;mcc_generated_files/mcc.c: 67:     OSCCON1 = 0x20;
  2528                           
  2529                           ; BSR set to: 58
  2530                           ;incstack = 0
  2531  0007EC  0E20               	movlw	32
  2532  0007EE  0139               	movlb	57	; () banked
  2533  0007F0  6FD9               	movwf	217,b	;volatile
  2534                           
  2535                           ;mcc_generated_files/mcc.c: 69:     OSCCON3 = 0x00;
  2536  0007F2  0E00               	movlw	0
  2537  0007F4  6FDB               	movwf	219,b	;volatile
  2538                           
  2539                           ;mcc_generated_files/mcc.c: 71:     OSCEN = 0x00;
  2540  0007F6  0E00               	movlw	0
  2541  0007F8  6FDD               	movwf	221,b	;volatile
  2542                           
  2543                           ;mcc_generated_files/mcc.c: 73:     OSCFRQ = 0x08;
  2544  0007FA  0E08               	movlw	8
  2545  0007FC  6FDF               	movwf	223,b	;volatile
  2546                           
  2547                           ;mcc_generated_files/mcc.c: 75:     OSCTUNE = 0x00;
  2548  0007FE  0E00               	movlw	0
  2549  000800  6FDE               	movwf	222,b	;volatile
  2550  000802                     l62:
  2551                           
  2552                           ; BSR set to: 57
  2553                           ;mcc_generated_files/mcc.c: 77:     while(PLLR == 0)
  2554  000802  B1DC               	btfsc	220,0,b	;volatile
  2555  000804  0012               	return	
  2556  000806  D7FD               	goto	l62
  2557  000808                     __end_of_OSCILLATOR_Initialize:
  2558                           	opt callstack 0
  2559                           
  2560 ;; *************** function _INTERRUPT_Initialize *****************
  2561 ;; Defined at:
  2562 ;;		line 52 in file "mcc_generated_files/interrupt_manager.c"
  2563 ;; Parameters:    Size  Location     Type
  2564 ;;		None
  2565 ;; Auto vars:     Size  Location     Type
  2566 ;;  state           1    5[COMRAM] _Bool 
  2567 ;; Return value:  Size  Location     Type
  2568 ;;                  1    wreg      void 
  2569 ;; Registers used:
  2570 ;;		wreg, status,2
  2571 ;; Tracked objects:
  2572 ;;		On entry : 0/0
  2573 ;;		On exit  : 0/0
  2574 ;;		Unchanged: 0/0
  2575 ;; Data sizes:     COMRAM   BANK0   BANK1   BANK2   BANK3   BANK4   BANK5   BANK6   BANK7   BANK8   BANK9  BANK10  BANK1
      +1  BANK12  BANK13  BANK14  BANK15  BANK16  BANK17  BANK18  BANK19  BANK20  BANK21  BANK22  BANK23  BANK24  BANK25  BANK2
      +6  BANK27  BANK28  BANK29  BANK30  BANK31
  2576 ;;      Params:         0       0       0       0       0       0       0       0       0       0       0       0       
      +0       0       0       0       0       0       0       0       0       0       0       0       0       0       0       
      +0       0       0       0       0       0
  2577 ;;      Locals:         1       0       0       0       0       0       0       0       0       0       0       0       
      +0       0       0       0       0       0       0       0       0       0       0       0       0       0       0       
      +0       0       0       0       0       0
  2578 ;;      Temps:          0       0       0       0       0       0       0       0       0       0       0       0       
      +0       0       0       0       0       0       0       0       0       0       0       0       0       0       0       
      +0       0       0       0       0       0
  2579 ;;      Totals:         1       0       0       0       0       0       0       0       0       0       0       0       
      +0       0       0       0       0       0       0       0       0       0       0       0       0       0       0       
      +0       0       0       0       0       0
  2580 ;;Total ram usage:        1 bytes
  2581 ;; Hardware stack levels used:    1
  2582 ;; Hardware stack levels required when called:    4
  2583 ;; This function calls:
  2584 ;;		Nothing
  2585 ;; This function is called by:
  2586 ;;		_SYSTEM_Initialize
  2587 ;; This function uses a non-reentrant model
  2588 ;;
  2589                           
  2590                           	psect	text27
  2591  00042C                     __ptext27:
  2592                           	opt callstack 0
  2593  00042C                     _INTERRUPT_Initialize:
  2594                           	opt callstack 25
  2595                           
  2596                           ;mcc_generated_files/interrupt_manager.c: 54:     INTCON0bits.IPEN = 1;
  2597                           
  2598                           ; BSR set to: 57
  2599                           ;incstack = 0
  2600  00042C  8AD2               	bsf	16338,5,c	;volatile
  2601                           
  2602                           ;mcc_generated_files/interrupt_manager.c: 56:     _Bool state = (unsigned char)GIE;
  2603  00042E  0E00               	movlw	0
  2604  000430  BED2               	btfsc	16338,7,c	;volatile
  2605  000432  0E01               	movlw	1
  2606  000434  6E54               	movwf	INTERRUPT_Initialize@state,c
  2607                           
  2608                           ;mcc_generated_files/interrupt_manager.c: 57:     GIE = 0;
  2609  000436  9ED2               	bcf	16338,7,c	;volatile
  2610                           
  2611                           ;mcc_generated_files/interrupt_manager.c: 58:     IVTLOCK = 0x55;
  2612  000438  0E55               	movlw	85
  2613  00043A  6ED4               	movwf	16340,c	;volatile
  2614                           
  2615                           ;mcc_generated_files/interrupt_manager.c: 59:     IVTLOCK = 0xAA;
  2616  00043C  0EAA               	movlw	170
  2617  00043E  6ED4               	movwf	16340,c	;volatile
  2618                           
  2619                           ;mcc_generated_files/interrupt_manager.c: 60:     IVTLOCKbits.IVTLOCKED = 0x00;
  2620  000440  90D4               	bcf	16340,0,c	;volatile
  2621                           
  2622                           ;mcc_generated_files/interrupt_manager.c: 62:     IVTADU = 0;
  2623  000442  0E00               	movlw	0
  2624  000444  0138               	movlb	56	; () banked
  2625  000446  6F9F               	movwf	159,b	;volatile
  2626                           
  2627                           ;mcc_generated_files/interrupt_manager.c: 63:     IVTADH = 0;
  2628  000448  0E00               	movlw	0
  2629  00044A  6F9E               	movwf	158,b	;volatile
  2630                           
  2631                           ;mcc_generated_files/interrupt_manager.c: 64:     IVTADL = 8;
  2632  00044C  0E08               	movlw	8
  2633  00044E  6F9D               	movwf	157,b	;volatile
  2634                           
  2635                           ;mcc_generated_files/interrupt_manager.c: 66:     IVTLOCK = 0x55;
  2636  000450  0E55               	movlw	85
  2637  000452  6ED4               	movwf	16340,c	;volatile
  2638                           
  2639                           ;mcc_generated_files/interrupt_manager.c: 67:     IVTLOCK = 0xAA;
  2640  000454  0EAA               	movlw	170
  2641  000456  6ED4               	movwf	16340,c	;volatile
  2642                           
  2643                           ; BSR set to: 56
  2644                           ;mcc_generated_files/interrupt_manager.c: 68:     IVTLOCKbits.IVTLOCKED = 0x01;
  2645  000458  80D4               	bsf	16340,0,c	;volatile
  2646                           
  2647                           ; BSR set to: 56
  2648                           ;mcc_generated_files/interrupt_manager.c: 70:     GIE = state;
  2649  00045A  B054               	btfsc	INTERRUPT_Initialize@state,0,c
  2650  00045C  D002               	bra	u35
  2651  00045E  9ED2               	bcf	16338,7,c	;volatile
  2652  000460  D001               	bra	u36
  2653  000462                     u35:
  2654  000462  8ED2               	bsf	16338,7,c	;volatile
  2655  000464                     u36:
  2656                           
  2657                           ;mcc_generated_files/interrupt_manager.c: 72:     IPR6bits.U2TXIP = 1;
  2658  000464  0139               	movlb	57	; () banked
  2659  000466  8786               	bsf	134,3,b	;volatile
  2660                           
  2661                           ; BSR set to: 57
  2662                           ;mcc_generated_files/interrupt_manager.c: 73:     IPR6bits.U2RXIP = 1;
  2663  000468  8586               	bsf	134,2,b	;volatile
  2664                           
  2665                           ; BSR set to: 57
  2666                           ;mcc_generated_files/interrupt_manager.c: 74:     IPR9bits.TMR6IP = 1;
  2667  00046A  8189               	bsf	137,0,b	;volatile
  2668                           
  2669                           ; BSR set to: 57
  2670                           ;mcc_generated_files/interrupt_manager.c: 75:     IPR8bits.TMR5IP = 1;
  2671  00046C  8D88               	bsf	136,6,b	;volatile
  2672                           
  2673                           ; BSR set to: 57
  2674                           ;mcc_generated_files/interrupt_manager.c: 76:     IPR3bits.U1TXIP = 1;
  2675  00046E  8983               	bsf	131,4,b	;volatile
  2676                           
  2677                           ; BSR set to: 57
  2678                           ;mcc_generated_files/interrupt_manager.c: 77:     IPR3bits.U1RXIP = 1;
  2679  000470  8783               	bsf	131,3,b	;volatile
  2680                           
  2681                           ; BSR set to: 57
  2682  000472  0012               	return		;funcret
  2683  000474                     __end_of_INTERRUPT_Initialize:
  2684                           	opt callstack 0
  2685                           
  2686 ;; *************** function _Default_ISR *****************
  2687 ;; Defined at:
  2688 ;;		line 80 in file "mcc_generated_files/interrupt_manager.c"
  2689 ;; Parameters:    Size  Location     Type
  2690 ;;		None
  2691 ;; Auto vars:     Size  Location     Type
  2692 ;;		None
  2693 ;; Return value:  Size  Location     Type
  2694 ;;                  1    wreg      void 
  2695 ;; Registers used:
  2696 ;;		None
  2697 ;; Tracked objects:
  2698 ;;		On entry : 0/0
  2699 ;;		On exit  : 0/0
  2700 ;;		Unchanged: 0/0
  2701 ;; Data sizes:     COMRAM   BANK0   BANK1   BANK2   BANK3   BANK4   BANK5   BANK6   BANK7   BANK8   BANK9  BANK10  BANK1
      +1  BANK12  BANK13  BANK14  BANK15  BANK16  BANK17  BANK18  BANK19  BANK20  BANK21  BANK22  BANK23  BANK24  BANK25  BANK2
      +6  BANK27  BANK28  BANK29  BANK30  BANK31
  2702 ;;      Params:         0       0       0       0       0       0       0       0       0       0       0       0       
      +0       0       0       0       0       0       0       0       0       0       0       0       0       0       0       
      +0       0       0       0       0       0
  2703 ;;      Locals:         0       0       0       0       0       0       0       0       0       0       0       0       
      +0       0       0       0       0       0       0       0       0       0       0       0       0       0       0       
      +0       0       0       0       0       0
  2704 ;;      Temps:          0       0       0       0       0       0       0       0       0       0       0       0       
      +0       0       0       0       0       0       0       0       0       0       0       0       0       0       0       
      +0       0       0       0       0       0
  2705 ;;      Totals:         0       0       0       0       0       0       0       0       0       0       0       0       
      +0       0       0       0       0       0       0       0       0       0       0       0       0       0       0       
      +0       0       0       0       0       0
  2706 ;;Total ram usage:        0 bytes
  2707 ;; Hardware stack levels used:    1
  2708 ;; This function calls:
  2709 ;;		Nothing
  2710 ;; This function is called by:
  2711 ;;		Interrupt level 2
  2712 ;; This function uses a non-reentrant model
  2713 ;;
  2714                           
  2715                           	psect	text28
  2716  000940                     __ptext28:
  2717                           	opt callstack 0
  2718  000940                     _Default_ISR:
  2719                           	opt callstack 27
  2720                           
  2721                           ; BSR set to: 57
  2722                           ;incstack = 0
  2723  000940  0011               	retfie		f
  2724  000942                     __end_of_Default_ISR:
  2725                           	opt callstack 0
  2726                           
  2727 ;; *************** function _UART1_tx_vect_isr *****************
  2728 ;; Defined at:
  2729 ;;		line 225 in file "mcc_generated_files/uart1.c"
  2730 ;; Parameters:    Size  Location     Type
  2731 ;;		None
  2732 ;; Auto vars:     Size  Location     Type
  2733 ;;		None
  2734 ;; Return value:  Size  Location     Type
  2735 ;;                  1    wreg      void 
  2736 ;; Registers used:
  2737 ;;		wreg, fsr2l, fsr2h, status,2, status,0, pclath, tosl, cstack
  2738 ;; Tracked objects:
  2739 ;;		On entry : 0/0
  2740 ;;		On exit  : 0/0
  2741 ;;		Unchanged: 0/0
  2742 ;; Data sizes:     COMRAM   BANK0   BANK1   BANK2   BANK3   BANK4   BANK5   BANK6   BANK7   BANK8   BANK9  BANK10  BANK1
      +1  BANK12  BANK13  BANK14  BANK15  BANK16  BANK17  BANK18  BANK19  BANK20  BANK21  BANK22  BANK23  BANK24  BANK25  BANK2
      +6  BANK27  BANK28  BANK29  BANK30  BANK31
  2743 ;;      Params:         0       0       0       0       0       0       0       0       0       0       0       0       
      +0       0       0       0       0       0       0       0       0       0       0       0       0       0       0       
      +0       0       0       0       0       0
  2744 ;;      Locals:         0       0       0       0       0       0       0       0       0       0       0       0       
      +0       0       0       0       0       0       0       0       0       0       0       0       0       0       0       
      +0       0       0       0       0       0
  2745 ;;      Temps:          0       0       0       0       0       0       0       0       0       0       0       0       
      +0       0       0       0       0       0       0       0       0       0       0       0       0       0       0       
      +0       0       0       0       0       0
  2746 ;;      Totals:         0       0       0       0       0       0       0       0       0       0       0       0       
      +0       0       0       0       0       0       0       0       0       0       0       0       0       0       0       
      +0       0       0       0       0       0
  2747 ;;Total ram usage:        0 bytes
  2748 ;; Hardware stack levels used:    1
  2749 ;; Hardware stack levels required when called:    1
  2750 ;; This function calls:
  2751 ;;		Absolute function
  2752 ;;		_UART1_Transmit_ISR
  2753 ;; This function is called by:
  2754 ;;		Interrupt level 2
  2755 ;; This function uses a non-reentrant model
  2756 ;;
  2757                           
  2758                           	psect	text29
  2759  0006BC                     __ptext29:
  2760                           	opt callstack 0
  2761  0006BC                     _UART1_tx_vect_isr:
  2762                           	opt callstack 26
  2763                           
  2764                           ;mcc_generated_files/uart1.c: 227:     if(UART1_TxInterruptHandler)
  2765                           
  2766                           ;incstack = 0
  2767  0006BC  5031               	movf	_UART1_TxInterruptHandler,w,c
  2768  0006BE  1032               	iorwf	_UART1_TxInterruptHandler+1,w,c
  2769  0006C0  1033               	iorwf	_UART1_TxInterruptHandler+2,w,c
  2770  0006C2  B4D8               	btfsc	status,2,c
  2771  0006C4  0011               	retfie		f
  2772                           
  2773                           ;mcc_generated_files/uart1.c: 228:     {;mcc_generated_files/uart1.c: 229:         UART1
      +                          _TxInterruptHandler();
  2774  0006C6  D801               	call	i2u39_48
  2775  0006C8  0011               	retfie		f
  2776  0006CA                     i2u39_48:
  2777  0006CA  0005               	push	
  2778  0006CC  6EFA               	movwf	pclath,c
  2779  0006CE  5031               	movf	_UART1_TxInterruptHandler,w,c
  2780  0006D0  6EFD               	movwf	tosl,c
  2781  0006D2  5032               	movf	_UART1_TxInterruptHandler+1,w,c
  2782  0006D4  6EFE               	movwf	tosh,c
  2783  0006D6  5033               	movf	_UART1_TxInterruptHandler+2,w,c
  2784  0006D8  6EFF               	movwf	tosu,c
  2785  0006DA  50FA               	movf	pclath,w,c
  2786  0006DC  0012               	return		;indir
  2787  0006DE                     __end_of_UART1_tx_vect_isr:
  2788                           	opt callstack 0
  2789                           
  2790 ;; *************** function _UART1_Transmit_ISR *****************
  2791 ;; Defined at:
  2792 ;;		line 243 in file "mcc_generated_files/uart1.c"
  2793 ;; Parameters:    Size  Location     Type
  2794 ;;		None
  2795 ;; Auto vars:     Size  Location     Type
  2796 ;;		None
  2797 ;; Return value:  Size  Location     Type
  2798 ;;                  1    wreg      void 
  2799 ;; Registers used:
  2800 ;;		wreg, fsr2l, fsr2h, status,2, status,0
  2801 ;; Tracked objects:
  2802 ;;		On entry : 0/0
  2803 ;;		On exit  : 0/0
  2804 ;;		Unchanged: 0/0
  2805 ;; Data sizes:     COMRAM   BANK0   BANK1   BANK2   BANK3   BANK4   BANK5   BANK6   BANK7   BANK8   BANK9  BANK10  BANK1
      +1  BANK12  BANK13  BANK14  BANK15  BANK16  BANK17  BANK18  BANK19  BANK20  BANK21  BANK22  BANK23  BANK24  BANK25  BANK2
      +6  BANK27  BANK28  BANK29  BANK30  BANK31
  2806 ;;      Params:         0       0       0       0       0       0       0       0       0       0       0       0       
      +0       0       0       0       0       0       0       0       0       0       0       0       0       0       0       
      +0       0       0       0       0       0
  2807 ;;      Locals:         0       0       0       0       0       0       0       0       0       0       0       0       
      +0       0       0       0       0       0       0       0       0       0       0       0       0       0       0       
      +0       0       0       0       0       0
  2808 ;;      Temps:          0       0       0       0       0       0       0       0       0       0       0       0       
      +0       0       0       0       0       0       0       0       0       0       0       0       0       0       0       
      +0       0       0       0       0       0
  2809 ;;      Totals:         0       0       0       0       0       0       0       0       0       0       0       0       
      +0       0       0       0       0       0       0       0       0       0       0       0       0       0       0       
      +0       0       0       0       0       0
  2810 ;;Total ram usage:        0 bytes
  2811 ;; Hardware stack levels used:    1
  2812 ;; This function calls:
  2813 ;;		Nothing
  2814 ;; This function is called by:
  2815 ;;		_UART1_Initialize
  2816 ;;		_UART1_tx_vect_isr
  2817 ;; This function uses a non-reentrant model
  2818 ;;
  2819                           
  2820                           	psect	text30
  2821  0005C0                     __ptext30:
  2822                           	opt callstack 0
  2823  0005C0                     _UART1_Transmit_ISR:
  2824                           	opt callstack 26
  2825                           
  2826                           ;mcc_generated_files/uart1.c: 246:     if(sizeof(uart1TxBuffer) > uart1TxBufferRemaining
      +                          )
  2827                           
  2828                           ;incstack = 0
  2829  0005C0  0E08               	movlw	8
  2830  0005C2  604C               	cpfslt	_uart1TxBufferRemaining,c	;volatile
  2831  0005C4  D011               	goto	i2l330
  2832                           
  2833                           ;mcc_generated_files/uart1.c: 247:     {;mcc_generated_files/uart1.c: 248:         U1TXB
      +                           = uart1TxBuffer[uart1TxTail++];
  2834  0005C6  0E11               	movlw	low _uart1TxBuffer
  2835  0005C8  244D               	addwf	_uart1TxTail,w,c	;volatile
  2836  0005CA  6ED9               	movwf	fsr2l,c
  2837  0005CC  6ADA               	clrf	fsr2h,c
  2838  0005CE  0E00               	movlw	high _uart1TxBuffer
  2839  0005D0  22DA               	addwfc	fsr2h,f,c
  2840  0005D2  50DF               	movf	indf2,w,c
  2841  0005D4  013D               	movlb	61	; () banked
  2842  0005D6  6FEA               	movwf	234,b	;volatile
  2843                           
  2844                           ; BSR set to: 61
  2845  0005D8  2A4D               	incf	_uart1TxTail,f,c	;volatile
  2846                           
  2847                           ; BSR set to: 61
  2848                           ;mcc_generated_files/uart1.c: 249:        if(sizeof(uart1TxBuffer) <= uart1TxTail)
  2849  0005DA  0E07               	movlw	7
  2850  0005DC  644D               	cpfsgt	_uart1TxTail,c	;volatile
  2851  0005DE  D002               	goto	i2l1770
  2852                           
  2853                           ; BSR set to: 61
  2854                           ;mcc_generated_files/uart1.c: 250:         {;mcc_generated_files/uart1.c: 251:          
      +                             uart1TxTail = 0;
  2855  0005E0  0E00               	movlw	0
  2856  0005E2  6E4D               	movwf	_uart1TxTail,c	;volatile
  2857  0005E4                     i2l1770:
  2858                           
  2859                           ; BSR set to: 61
  2860                           ;mcc_generated_files/uart1.c: 253:         uart1TxBufferRemaining++;
  2861  0005E4  2A4C               	incf	_uart1TxBufferRemaining,f,c	;volatile
  2862                           
  2863                           ;mcc_generated_files/uart1.c: 254:     }
  2864  0005E6  0012               	return	
  2865  0005E8                     i2l330:
  2866                           
  2867                           ;mcc_generated_files/uart1.c: 256:     {;mcc_generated_files/uart1.c: 257:         PIE3b
      +                          its.U1TXIE = 0;
  2868  0005E8  0139               	movlb	57	; () banked
  2869  0005EA  9993               	bcf	147,4,b	;volatile
  2870  0005EC  0012               	return		;funcret
  2871  0005EE                     __end_of_UART1_Transmit_ISR:
  2872                           	opt callstack 0
  2873                           
  2874 ;; *************** function _UART1_rx_vect_isr *****************
  2875 ;; Defined at:
  2876 ;;		line 233 in file "mcc_generated_files/uart1.c"
  2877 ;; Parameters:    Size  Location     Type
  2878 ;;		None
  2879 ;; Auto vars:     Size  Location     Type
  2880 ;;		None
  2881 ;; Return value:  Size  Location     Type
  2882 ;;                  1    wreg      void 
  2883 ;; Registers used:
  2884 ;;		wreg, fsr2l, fsr2h, status,2, status,0, pclath, tosl, cstack
  2885 ;; Tracked objects:
  2886 ;;		On entry : 0/0
  2887 ;;		On exit  : 0/0
  2888 ;;		Unchanged: 0/0
  2889 ;; Data sizes:     COMRAM   BANK0   BANK1   BANK2   BANK3   BANK4   BANK5   BANK6   BANK7   BANK8   BANK9  BANK10  BANK1
      +1  BANK12  BANK13  BANK14  BANK15  BANK16  BANK17  BANK18  BANK19  BANK20  BANK21  BANK22  BANK23  BANK24  BANK25  BANK2
      +6  BANK27  BANK28  BANK29  BANK30  BANK31
  2890 ;;      Params:         0       0       0       0       0       0       0       0       0       0       0       0       
      +0       0       0       0       0       0       0       0       0       0       0       0       0       0       0       
      +0       0       0       0       0       0
  2891 ;;      Locals:         0       0       0       0       0       0       0       0       0       0       0       0       
      +0       0       0       0       0       0       0       0       0       0       0       0       0       0       0       
      +0       0       0       0       0       0
  2892 ;;      Temps:          0       0       0       0       0       0       0       0       0       0       0       0       
      +0       0       0       0       0       0       0       0       0       0       0       0       0       0       0       
      +0       0       0       0       0       0
  2893 ;;      Totals:         0       0       0       0       0       0       0       0       0       0       0       0       
      +0       0       0       0       0       0       0       0       0       0       0       0       0       0       0       
      +0       0       0       0       0       0
  2894 ;;Total ram usage:        0 bytes
  2895 ;; Hardware stack levels used:    1
  2896 ;; Hardware stack levels required when called:    3
  2897 ;; This function calls:
  2898 ;;		Absolute function
  2899 ;;		_UART1_Receive_ISR
  2900 ;; This function is called by:
  2901 ;;		Interrupt level 2
  2902 ;; This function uses a non-reentrant model
  2903 ;;
  2904                           
  2905                           	psect	text31
  2906  0006E0                     __ptext31:
  2907                           	opt callstack 0
  2908  0006E0                     _UART1_rx_vect_isr:
  2909                           	opt callstack 24
  2910                           
  2911                           ;mcc_generated_files/uart1.c: 235:     if(UART1_RxInterruptHandler)
  2912                           
  2913                           ;incstack = 0
  2914  0006E0  5034               	movf	_UART1_RxInterruptHandler,w,c
  2915  0006E2  1035               	iorwf	_UART1_RxInterruptHandler+1,w,c
  2916  0006E4  1036               	iorwf	_UART1_RxInterruptHandler+2,w,c
  2917  0006E6  B4D8               	btfsc	status,2,c
  2918  0006E8  0011               	retfie		f
  2919                           
  2920                           ;mcc_generated_files/uart1.c: 236:     {;mcc_generated_files/uart1.c: 237:         UART1
      +                          _RxInterruptHandler();
  2921  0006EA  D801               	call	i2u83_48
  2922  0006EC  0011               	retfie		f
  2923  0006EE                     i2u83_48:
  2924  0006EE  0005               	push	
  2925  0006F0  6EFA               	movwf	pclath,c
  2926  0006F2  5034               	movf	_UART1_RxInterruptHandler,w,c
  2927  0006F4  6EFD               	movwf	tosl,c
  2928  0006F6  5035               	movf	_UART1_RxInterruptHandler+1,w,c
  2929  0006F8  6EFE               	movwf	tosh,c
  2930  0006FA  5036               	movf	_UART1_RxInterruptHandler+2,w,c
  2931  0006FC  6EFF               	movwf	tosu,c
  2932  0006FE  50FA               	movf	pclath,w,c
  2933  000700  0012               	return		;indir
  2934  000702                     __end_of_UART1_rx_vect_isr:
  2935                           	opt callstack 0
  2936                           
  2937 ;; *************** function _UART1_Receive_ISR *****************
  2938 ;; Defined at:
  2939 ;;		line 263 in file "mcc_generated_files/uart1.c"
  2940 ;; Parameters:    Size  Location     Type
  2941 ;;		None
  2942 ;; Auto vars:     Size  Location     Type
  2943 ;;		None
  2944 ;; Return value:  Size  Location     Type
  2945 ;;                  1    wreg      void 
  2946 ;; Registers used:
  2947 ;;		wreg, fsr2l, fsr2h, status,2, status,0, pclath, tosl, cstack
  2948 ;; Tracked objects:
  2949 ;;		On entry : 0/0
  2950 ;;		On exit  : 0/0
  2951 ;;		Unchanged: 0/0
  2952 ;; Data sizes:     COMRAM   BANK0   BANK1   BANK2   BANK3   BANK4   BANK5   BANK6   BANK7   BANK8   BANK9  BANK10  BANK1
      +1  BANK12  BANK13  BANK14  BANK15  BANK16  BANK17  BANK18  BANK19  BANK20  BANK21  BANK22  BANK23  BANK24  BANK25  BANK2
      +6  BANK27  BANK28  BANK29  BANK30  BANK31
  2953 ;;      Params:         0       0       0       0       0       0       0       0       0       0       0       0       
      +0       0       0       0       0       0       0       0       0       0       0       0       0       0       0       
      +0       0       0       0       0       0
  2954 ;;      Locals:         0       0       0       0       0       0       0       0       0       0       0       0       
      +0       0       0       0       0       0       0       0       0       0       0       0       0       0       0       
      +0       0       0       0       0       0
  2955 ;;      Temps:          0       0       0       0       0       0       0       0       0       0       0       0       
      +0       0       0       0       0       0       0       0       0       0       0       0       0       0       0       
      +0       0       0       0       0       0
  2956 ;;      Totals:         0       0       0       0       0       0       0       0       0       0       0       0       
      +0       0       0       0       0       0       0       0       0       0       0       0       0       0       0       
      +0       0       0       0       0       0
  2957 ;;Total ram usage:        0 bytes
  2958 ;; Hardware stack levels used:    1
  2959 ;; Hardware stack levels required when called:    2
  2960 ;; This function calls:
  2961 ;;		Absolute function
  2962 ;;		_UART1_DefaultErrorHandler
  2963 ;;		_UART1_DefaultFramingErrorHandler
  2964 ;;		_UART1_DefaultOverrunErrorHandler
  2965 ;;		_UART1_RxDataHandler
  2966 ;; This function is called by:
  2967 ;;		_UART1_Initialize
  2968 ;;		_UART1_rx_vect_isr
  2969 ;; This function uses a non-reentrant model
  2970 ;;
  2971                           
  2972                           	psect	text32
  2973  0002B2                     __ptext32:
  2974                           	opt callstack 0
  2975  0002B2                     _UART1_Receive_ISR:
  2976                           	opt callstack 24
  2977                           
  2978                           ;mcc_generated_files/uart1.c: 266:     uart1RxStatusBuffer[uart1RxHead].status = 0;
  2979                           
  2980                           ;incstack = 0
  2981  0002B2  0E09               	movlw	low _uart1RxStatusBuffer
  2982  0002B4  244B               	addwf	_uart1RxHead,w,c	;volatile
  2983  0002B6  6ED9               	movwf	fsr2l,c
  2984  0002B8  6ADA               	clrf	fsr2h,c
  2985  0002BA  0E00               	movlw	high _uart1RxStatusBuffer
  2986  0002BC  22DA               	addwfc	fsr2h,f,c
  2987  0002BE  0E00               	movlw	0
  2988  0002C0  6EDF               	movwf	indf2,c
  2989                           
  2990                           ;mcc_generated_files/uart1.c: 268:     if(U1ERRIRbits.FERIF){
  2991  0002C2  013D               	movlb	61	; () banked
  2992  0002C4  A7F9               	btfss	249,3,b	;volatile
  2993  0002C6  D013               	goto	i2u58_49
  2994                           
  2995                           ; BSR set to: 61
  2996                           ;mcc_generated_files/uart1.c: 269:         uart1RxStatusBuffer[uart1RxHead].ferr = 1;
  2997  0002C8  0E09               	movlw	low _uart1RxStatusBuffer
  2998  0002CA  244B               	addwf	_uart1RxHead,w,c	;volatile
  2999  0002CC  6ED9               	movwf	fsr2l,c
  3000  0002CE  6ADA               	clrf	fsr2h,c
  3001  0002D0  0E00               	movlw	high _uart1RxStatusBuffer
  3002  0002D2  22DA               	addwfc	fsr2h,f,c
  3003  0002D4  82DF               	bsf	indf2,1,c
  3004                           
  3005                           ; BSR set to: 61
  3006                           ;mcc_generated_files/uart1.c: 270:         UART1_FramingErrorHandler();
  3007  0002D6  D801               	call	i2u58_48
  3008  0002D8  D00A               	goto	i2u58_49
  3009  0002DA                     i2u58_48:
  3010  0002DA  0005               	push	
  3011  0002DC  6EFA               	movwf	pclath,c
  3012  0002DE  502E               	movf	_UART1_FramingErrorHandler,w,c
  3013  0002E0  6EFD               	movwf	tosl,c
  3014  0002E2  502F               	movf	_UART1_FramingErrorHandler+1,w,c
  3015  0002E4  6EFE               	movwf	tosh,c
  3016  0002E6  5030               	movf	_UART1_FramingErrorHandler+2,w,c
  3017  0002E8  6EFF               	movwf	tosu,c
  3018  0002EA  50FA               	movf	pclath,w,c
  3019  0002EC  0012               	return		;indir
  3020  0002EE                     i2u58_49:
  3021                           
  3022                           ;mcc_generated_files/uart1.c: 273:     if(U1ERRIRbits.RXFOIF){
  3023  0002EE  013D               	movlb	61	; () banked
  3024  0002F0  A3F9               	btfss	249,1,b	;volatile
  3025  0002F2  D013               	goto	i2u60_49
  3026                           
  3027                           ; BSR set to: 61
  3028                           ;mcc_generated_files/uart1.c: 274:         uart1RxStatusBuffer[uart1RxHead].oerr = 1;
  3029  0002F4  0E09               	movlw	low _uart1RxStatusBuffer
  3030  0002F6  244B               	addwf	_uart1RxHead,w,c	;volatile
  3031  0002F8  6ED9               	movwf	fsr2l,c
  3032  0002FA  6ADA               	clrf	fsr2h,c
  3033  0002FC  0E00               	movlw	high _uart1RxStatusBuffer
  3034  0002FE  22DA               	addwfc	fsr2h,f,c
  3035  000300  84DF               	bsf	indf2,2,c
  3036                           
  3037                           ; BSR set to: 61
  3038                           ;mcc_generated_files/uart1.c: 275:         UART1_OverrunErrorHandler();
  3039  000302  D801               	call	i2u60_48
  3040  000304  D00A               	goto	i2u60_49
  3041  000306                     i2u60_48:
  3042  000306  0005               	push	
  3043  000308  6EFA               	movwf	pclath,c
  3044  00030A  502B               	movf	_UART1_OverrunErrorHandler,w,c
  3045  00030C  6EFD               	movwf	tosl,c
  3046  00030E  502C               	movf	_UART1_OverrunErrorHandler+1,w,c
  3047  000310  6EFE               	movwf	tosh,c
  3048  000312  502D               	movf	_UART1_OverrunErrorHandler+2,w,c
  3049  000314  6EFF               	movwf	tosu,c
  3050  000316  50FA               	movf	pclath,w,c
  3051  000318  0012               	return		;indir
  3052  00031A                     i2u60_49:
  3053                           
  3054                           ;mcc_generated_files/uart1.c: 278:     if(uart1RxStatusBuffer[uart1RxHead].status){
  3055  00031A  0E09               	movlw	low _uart1RxStatusBuffer
  3056  00031C  244B               	addwf	_uart1RxHead,w,c	;volatile
  3057  00031E  6ED9               	movwf	fsr2l,c
  3058  000320  6ADA               	clrf	fsr2h,c
  3059  000322  0E00               	movlw	high _uart1RxStatusBuffer
  3060  000324  22DA               	addwfc	fsr2h,f,c
  3061  000326  50DF               	movf	indf2,w,c
  3062  000328  B4D8               	btfsc	status,2,c
  3063  00032A  D00C               	goto	i2l2286
  3064                           
  3065                           ;mcc_generated_files/uart1.c: 279:         UART1_ErrorHandler();
  3066  00032C  D801               	call	i2u62_48
  3067  00032E  0012               	return	
  3068  000330                     i2u62_48:
  3069  000330  0005               	push	
  3070  000332  6EFA               	movwf	pclath,c
  3071  000334  5028               	movf	_UART1_ErrorHandler,w,c
  3072  000336  6EFD               	movwf	tosl,c
  3073  000338  5029               	movf	_UART1_ErrorHandler+1,w,c
  3074  00033A  6EFE               	movwf	tosh,c
  3075  00033C  502A               	movf	_UART1_ErrorHandler+2,w,c
  3076  00033E  6EFF               	movwf	tosu,c
  3077  000340  50FA               	movf	pclath,w,c
  3078  000342  0012               	return		;indir
  3079  000344                     i2l2286:
  3080                           
  3081                           ;mcc_generated_files/uart1.c: 281:         UART1_RxDataHandler();
  3082  000344  EC81  F003         	call	_UART1_RxDataHandler	;wreg free
  3083  000348  0012               	return		;funcret
  3084  00034A                     __end_of_UART1_Receive_ISR:
  3085                           	opt callstack 0
  3086                           
  3087 ;; *************** function _UART1_DefaultOverrunErrorHandler *****************
  3088 ;; Defined at:
  3089 ;;		line 299 in file "mcc_generated_files/uart1.c"
  3090 ;; Parameters:    Size  Location     Type
  3091 ;;		None
  3092 ;; Auto vars:     Size  Location     Type
  3093 ;;		None
  3094 ;; Return value:  Size  Location     Type
  3095 ;;                  1    wreg      void 
  3096 ;; Registers used:
  3097 ;;		None
  3098 ;; Tracked objects:
  3099 ;;		On entry : 0/0
  3100 ;;		On exit  : 0/0
  3101 ;;		Unchanged: 0/0
  3102 ;; Data sizes:     COMRAM   BANK0   BANK1   BANK2   BANK3   BANK4   BANK5   BANK6   BANK7   BANK8   BANK9  BANK10  BANK1
      +1  BANK12  BANK13  BANK14  BANK15  BANK16  BANK17  BANK18  BANK19  BANK20  BANK21  BANK22  BANK23  BANK24  BANK25  BANK2
      +6  BANK27  BANK28  BANK29  BANK30  BANK31
  3103 ;;      Params:         0       0       0       0       0       0       0       0       0       0       0       0       
      +0       0       0       0       0       0       0       0       0       0       0       0       0       0       0       
      +0       0       0       0       0       0
  3104 ;;      Locals:         0       0       0       0       0       0       0       0       0       0       0       0       
      +0       0       0       0       0       0       0       0       0       0       0       0       0       0       0       
      +0       0       0       0       0       0
  3105 ;;      Temps:          0       0       0       0       0       0       0       0       0       0       0       0       
      +0       0       0       0       0       0       0       0       0       0       0       0       0       0       0       
      +0       0       0       0       0       0
  3106 ;;      Totals:         0       0       0       0       0       0       0       0       0       0       0       0       
      +0       0       0       0       0       0       0       0       0       0       0       0       0       0       0       
      +0       0       0       0       0       0
  3107 ;;Total ram usage:        0 bytes
  3108 ;; Hardware stack levels used:    1
  3109 ;; This function calls:
  3110 ;;		Nothing
  3111 ;; This function is called by:
  3112 ;;		_UART1_Initialize
  3113 ;;		_UART1_Receive_ISR
  3114 ;; This function uses a non-reentrant model
  3115 ;;
  3116                           
  3117                           	psect	text33
  3118  000942                     __ptext33:
  3119                           	opt callstack 0
  3120  000942                     _UART1_DefaultOverrunErrorHandler:
  3121                           	opt callstack 25
  3122                           
  3123                           ;incstack = 0
  3124  000942  0012               	return		;funcret
  3125  000944                     __end_of_UART1_DefaultOverrunErrorHandler:
  3126                           	opt callstack 0
  3127                           
  3128 ;; *************** function _UART1_DefaultFramingErrorHandler *****************
  3129 ;; Defined at:
  3130 ;;		line 297 in file "mcc_generated_files/uart1.c"
  3131 ;; Parameters:    Size  Location     Type
  3132 ;;		None
  3133 ;; Auto vars:     Size  Location     Type
  3134 ;;		None
  3135 ;; Return value:  Size  Location     Type
  3136 ;;                  1    wreg      void 
  3137 ;; Registers used:
  3138 ;;		None
  3139 ;; Tracked objects:
  3140 ;;		On entry : 0/0
  3141 ;;		On exit  : 0/0
  3142 ;;		Unchanged: 0/0
  3143 ;; Data sizes:     COMRAM   BANK0   BANK1   BANK2   BANK3   BANK4   BANK5   BANK6   BANK7   BANK8   BANK9  BANK10  BANK1
      +1  BANK12  BANK13  BANK14  BANK15  BANK16  BANK17  BANK18  BANK19  BANK20  BANK21  BANK22  BANK23  BANK24  BANK25  BANK2
      +6  BANK27  BANK28  BANK29  BANK30  BANK31
  3144 ;;      Params:         0       0       0       0       0       0       0       0       0       0       0       0       
      +0       0       0       0       0       0       0       0       0       0       0       0       0       0       0       
      +0       0       0       0       0       0
  3145 ;;      Locals:         0       0       0       0       0       0       0       0       0       0       0       0       
      +0       0       0       0       0       0       0       0       0       0       0       0       0       0       0       
      +0       0       0       0       0       0
  3146 ;;      Temps:          0       0       0       0       0       0       0       0       0       0       0       0       
      +0       0       0       0       0       0       0       0       0       0       0       0       0       0       0       
      +0       0       0       0       0       0
  3147 ;;      Totals:         0       0       0       0       0       0       0       0       0       0       0       0       
      +0       0       0       0       0       0       0       0       0       0       0       0       0       0       0       
      +0       0       0       0       0       0
  3148 ;;Total ram usage:        0 bytes
  3149 ;; Hardware stack levels used:    1
  3150 ;; This function calls:
  3151 ;;		Nothing
  3152 ;; This function is called by:
  3153 ;;		_UART1_Initialize
  3154 ;;		_UART1_Receive_ISR
  3155 ;; This function uses a non-reentrant model
  3156 ;;
  3157                           
  3158                           	psect	text34
  3159  000944                     __ptext34:
  3160                           	opt callstack 0
  3161  000944                     _UART1_DefaultFramingErrorHandler:
  3162                           	opt callstack 25
  3163                           
  3164                           ;incstack = 0
  3165  000944  0012               	return		;funcret
  3166  000946                     __end_of_UART1_DefaultFramingErrorHandler:
  3167                           	opt callstack 0
  3168                           
  3169 ;; *************** function _UART1_DefaultErrorHandler *****************
  3170 ;; Defined at:
  3171 ;;		line 301 in file "mcc_generated_files/uart1.c"
  3172 ;; Parameters:    Size  Location     Type
  3173 ;;		None
  3174 ;; Auto vars:     Size  Location     Type
  3175 ;;		None
  3176 ;; Return value:  Size  Location     Type
  3177 ;;                  1    wreg      void 
  3178 ;; Registers used:
  3179 ;;		wreg, fsr2l, fsr2h, status,2, status,0, cstack
  3180 ;; Tracked objects:
  3181 ;;		On entry : 0/0
  3182 ;;		On exit  : 0/0
  3183 ;;		Unchanged: 0/0
  3184 ;; Data sizes:     COMRAM   BANK0   BANK1   BANK2   BANK3   BANK4   BANK5   BANK6   BANK7   BANK8   BANK9  BANK10  BANK1
      +1  BANK12  BANK13  BANK14  BANK15  BANK16  BANK17  BANK18  BANK19  BANK20  BANK21  BANK22  BANK23  BANK24  BANK25  BANK2
      +6  BANK27  BANK28  BANK29  BANK30  BANK31
  3185 ;;      Params:         0       0       0       0       0       0       0       0       0       0       0       0       
      +0       0       0       0       0       0       0       0       0       0       0       0       0       0       0       
      +0       0       0       0       0       0
  3186 ;;      Locals:         0       0       0       0       0       0       0       0       0       0       0       0       
      +0       0       0       0       0       0       0       0       0       0       0       0       0       0       0       
      +0       0       0       0       0       0
  3187 ;;      Temps:          0       0       0       0       0       0       0       0       0       0       0       0       
      +0       0       0       0       0       0       0       0       0       0       0       0       0       0       0       
      +0       0       0       0       0       0
  3188 ;;      Totals:         0       0       0       0       0       0       0       0       0       0       0       0       
      +0       0       0       0       0       0       0       0       0       0       0       0       0       0       0       
      +0       0       0       0       0       0
  3189 ;;Total ram usage:        0 bytes
  3190 ;; Hardware stack levels used:    1
  3191 ;; Hardware stack levels required when called:    1
  3192 ;; This function calls:
  3193 ;;		_UART1_RxDataHandler
  3194 ;; This function is called by:
  3195 ;;		_UART1_Initialize
  3196 ;;		_UART1_Receive_ISR
  3197 ;; This function uses a non-reentrant model
  3198 ;;
  3199                           
  3200                           	psect	text35
  3201  00092A                     __ptext35:
  3202                           	opt callstack 0
  3203  00092A                     _UART1_DefaultErrorHandler:
  3204                           	opt callstack 24
  3205                           
  3206                           ;mcc_generated_files/uart1.c: 302:     UART1_RxDataHandler();
  3207                           
  3208                           ;incstack = 0
  3209  00092A  EC81  F003         	call	_UART1_RxDataHandler	;wreg free
  3210  00092E  0012               	return		;funcret
  3211  000930                     __end_of_UART1_DefaultErrorHandler:
  3212                           	opt callstack 0
  3213                           
  3214 ;; *************** function _UART1_RxDataHandler *****************
  3215 ;; Defined at:
  3216 ;;		line 287 in file "mcc_generated_files/uart1.c"
  3217 ;; Parameters:    Size  Location     Type
  3218 ;;		None
  3219 ;; Auto vars:     Size  Location     Type
  3220 ;;		None
  3221 ;; Return value:  Size  Location     Type
  3222 ;;                  1    wreg      void 
  3223 ;; Registers used:
  3224 ;;		wreg, fsr2l, fsr2h, status,2, status,0
  3225 ;; Tracked objects:
  3226 ;;		On entry : 0/0
  3227 ;;		On exit  : 0/0
  3228 ;;		Unchanged: 0/0
  3229 ;; Data sizes:     COMRAM   BANK0   BANK1   BANK2   BANK3   BANK4   BANK5   BANK6   BANK7   BANK8   BANK9  BANK10  BANK1
      +1  BANK12  BANK13  BANK14  BANK15  BANK16  BANK17  BANK18  BANK19  BANK20  BANK21  BANK22  BANK23  BANK24  BANK25  BANK2
      +6  BANK27  BANK28  BANK29  BANK30  BANK31
  3230 ;;      Params:         0       0       0       0       0       0       0       0       0       0       0       0       
      +0       0       0       0       0       0       0       0       0       0       0       0       0       0       0       
      +0       0       0       0       0       0
  3231 ;;      Locals:         0       0       0       0       0       0       0       0       0       0       0       0       
      +0       0       0       0       0       0       0       0       0       0       0       0       0       0       0       
      +0       0       0       0       0       0
  3232 ;;      Temps:          0       0       0       0       0       0       0       0       0       0       0       0       
      +0       0       0       0       0       0       0       0       0       0       0       0       0       0       0       
      +0       0       0       0       0       0
  3233 ;;      Totals:         0       0       0       0       0       0       0       0       0       0       0       0       
      +0       0       0       0       0       0       0       0       0       0       0       0       0       0       0       
      +0       0       0       0       0       0
  3234 ;;Total ram usage:        0 bytes
  3235 ;; Hardware stack levels used:    1
  3236 ;; This function calls:
  3237 ;;		Nothing
  3238 ;; This function is called by:
  3239 ;;		_UART1_Receive_ISR
  3240 ;;		_UART1_DefaultErrorHandler
  3241 ;; This function uses a non-reentrant model
  3242 ;;
  3243                           
  3244                           	psect	text36
  3245  000702                     __ptext36:
  3246                           	opt callstack 0
  3247  000702                     _UART1_RxDataHandler:
  3248                           	opt callstack 25
  3249                           
  3250                           ;mcc_generated_files/uart1.c: 289:     uart1RxBuffer[uart1RxHead++] = U1RXB;
  3251                           
  3252                           ;incstack = 0
  3253  000702  0E8A               	movlw	low _uart1RxBuffer
  3254  000704  244B               	addwf	_uart1RxHead,w,c	;volatile
  3255  000706  6ED9               	movwf	fsr2l,c
  3256  000708  6ADA               	clrf	fsr2h,c
  3257  00070A  0E00               	movlw	high _uart1RxBuffer
  3258  00070C  22DA               	addwfc	fsr2h,f,c
  3259  00070E  006F F7A3 FFDF     	movff	15848,indf2	;volatile
  3260  000714  2A4B               	incf	_uart1RxHead,f,c	;volatile
  3261                           
  3262                           ;mcc_generated_files/uart1.c: 290:     if(sizeof(uart1RxBuffer) <= uart1RxHead)
  3263  000716  0E07               	movlw	7
  3264  000718  644B               	cpfsgt	_uart1RxHead,c	;volatile
  3265  00071A  D002               	goto	i2l2116
  3266                           
  3267                           ;mcc_generated_files/uart1.c: 291:     {;mcc_generated_files/uart1.c: 292:         uart1
      +                          RxHead = 0;
  3268  00071C  0E00               	movlw	0
  3269  00071E  6E4B               	movwf	_uart1RxHead,c	;volatile
  3270  000720                     i2l2116:
  3271                           
  3272                           ;mcc_generated_files/uart1.c: 294:     uart1RxCount++;
  3273  000720  2A49               	incf	_uart1RxCount,f,c	;volatile
  3274  000722  0012               	return		;funcret
  3275  000724                     __end_of_UART1_RxDataHandler:
  3276                           	opt callstack 0
  3277                           
  3278 ;; *************** function _UART2_tx_vect_isr *****************
  3279 ;; Defined at:
  3280 ;;		line 226 in file "mcc_generated_files/uart2.c"
  3281 ;; Parameters:    Size  Location     Type
  3282 ;;		None
  3283 ;; Auto vars:     Size  Location     Type
  3284 ;;		None
  3285 ;; Return value:  Size  Location     Type
  3286 ;;                  1    wreg      void 
  3287 ;; Registers used:
  3288 ;;		wreg, fsr2l, fsr2h, status,2, status,0, pclath, tosl, cstack
  3289 ;; Tracked objects:
  3290 ;;		On entry : 0/0
  3291 ;;		On exit  : 0/0
  3292 ;;		Unchanged: 0/0
  3293 ;; Data sizes:     COMRAM   BANK0   BANK1   BANK2   BANK3   BANK4   BANK5   BANK6   BANK7   BANK8   BANK9  BANK10  BANK1
      +1  BANK12  BANK13  BANK14  BANK15  BANK16  BANK17  BANK18  BANK19  BANK20  BANK21  BANK22  BANK23  BANK24  BANK25  BANK2
      +6  BANK27  BANK28  BANK29  BANK30  BANK31
  3294 ;;      Params:         0       0       0       0       0       0       0       0       0       0       0       0       
      +0       0       0       0       0       0       0       0       0       0       0       0       0       0       0       
      +0       0       0       0       0       0
  3295 ;;      Locals:         0       0       0       0       0       0       0       0       0       0       0       0       
      +0       0       0       0       0       0       0       0       0       0       0       0       0       0       0       
      +0       0       0       0       0       0
  3296 ;;      Temps:          0       0       0       0       0       0       0       0       0       0       0       0       
      +0       0       0       0       0       0       0       0       0       0       0       0       0       0       0       
      +0       0       0       0       0       0
  3297 ;;      Totals:         0       0       0       0       0       0       0       0       0       0       0       0       
      +0       0       0       0       0       0       0       0       0       0       0       0       0       0       0       
      +0       0       0       0       0       0
  3298 ;;Total ram usage:        0 bytes
  3299 ;; Hardware stack levels used:    1
  3300 ;; Hardware stack levels required when called:    1
  3301 ;; This function calls:
  3302 ;;		Absolute function
  3303 ;;		_UART2_Transmit_ISR
  3304 ;; This function is called by:
  3305 ;;		Interrupt level 2
  3306 ;; This function uses a non-reentrant model
  3307 ;;
  3308                           
  3309                           	psect	text37
  3310  000724                     __ptext37:
  3311                           	opt callstack 0
  3312  000724                     _UART2_tx_vect_isr:
  3313                           	opt callstack 26
  3314                           
  3315                           ;mcc_generated_files/uart2.c: 228:     if(UART2_TxInterruptHandler)
  3316                           
  3317                           ;incstack = 0
  3318  000724  5037               	movf	_UART2_TxInterruptHandler,w,c
  3319  000726  1038               	iorwf	_UART2_TxInterruptHandler+1,w,c
  3320  000728  1039               	iorwf	_UART2_TxInterruptHandler+2,w,c
  3321  00072A  B4D8               	btfsc	status,2,c
  3322  00072C  0011               	retfie		f
  3323                           
  3324                           ;mcc_generated_files/uart2.c: 229:     {;mcc_generated_files/uart2.c: 230:         UART2
      +                          _TxInterruptHandler();
  3325  00072E  D801               	call	i2u85_48
  3326  000730  0011               	retfie		f
  3327  000732                     i2u85_48:
  3328  000732  0005               	push	
  3329  000734  6EFA               	movwf	pclath,c
  3330  000736  5037               	movf	_UART2_TxInterruptHandler,w,c
  3331  000738  6EFD               	movwf	tosl,c
  3332  00073A  5038               	movf	_UART2_TxInterruptHandler+1,w,c
  3333  00073C  6EFE               	movwf	tosh,c
  3334  00073E  5039               	movf	_UART2_TxInterruptHandler+2,w,c
  3335  000740  6EFF               	movwf	tosu,c
  3336  000742  50FA               	movf	pclath,w,c
  3337  000744  0012               	return		;indir
  3338  000746                     __end_of_UART2_tx_vect_isr:
  3339                           	opt callstack 0
  3340                           
  3341 ;; *************** function _UART2_Transmit_ISR *****************
  3342 ;; Defined at:
  3343 ;;		line 244 in file "mcc_generated_files/uart2.c"
  3344 ;; Parameters:    Size  Location     Type
  3345 ;;		None
  3346 ;; Auto vars:     Size  Location     Type
  3347 ;;		None
  3348 ;; Return value:  Size  Location     Type
  3349 ;;                  1    wreg      void 
  3350 ;; Registers used:
  3351 ;;		wreg, fsr2l, fsr2h, status,2, status,0
  3352 ;; Tracked objects:
  3353 ;;		On entry : 0/0
  3354 ;;		On exit  : 0/0
  3355 ;;		Unchanged: 0/0
  3356 ;; Data sizes:     COMRAM   BANK0   BANK1   BANK2   BANK3   BANK4   BANK5   BANK6   BANK7   BANK8   BANK9  BANK10  BANK1
      +1  BANK12  BANK13  BANK14  BANK15  BANK16  BANK17  BANK18  BANK19  BANK20  BANK21  BANK22  BANK23  BANK24  BANK25  BANK2
      +6  BANK27  BANK28  BANK29  BANK30  BANK31
  3357 ;;      Params:         0       0       0       0       0       0       0       0       0       0       0       0       
      +0       0       0       0       0       0       0       0       0       0       0       0       0       0       0       
      +0       0       0       0       0       0
  3358 ;;      Locals:         0       0       0       0       0       0       0       0       0       0       0       0       
      +0       0       0       0       0       0       0       0       0       0       0       0       0       0       0       
      +0       0       0       0       0       0
  3359 ;;      Temps:          0       0       0       0       0       0       0       0       0       0       0       0       
      +0       0       0       0       0       0       0       0       0       0       0       0       0       0       0       
      +0       0       0       0       0       0
  3360 ;;      Totals:         0       0       0       0       0       0       0       0       0       0       0       0       
      +0       0       0       0       0       0       0       0       0       0       0       0       0       0       0       
      +0       0       0       0       0       0
  3361 ;;Total ram usage:        0 bytes
  3362 ;; Hardware stack levels used:    1
  3363 ;; This function calls:
  3364 ;;		Nothing
  3365 ;; This function is called by:
  3366 ;;		_UART2_Initialize
  3367 ;;		_UART2_tx_vect_isr
  3368 ;; This function uses a non-reentrant model
  3369 ;;
  3370                           
  3371                           	psect	text38
  3372  0005EE                     __ptext38:
  3373                           	opt callstack 0
  3374  0005EE                     _UART2_Transmit_ISR:
  3375                           	opt callstack 26
  3376                           
  3377                           ;mcc_generated_files/uart2.c: 247:     if(sizeof(uart2TxBuffer) > uart2TxBufferRemaining
      +                          )
  3378                           
  3379                           ;incstack = 0
  3380  0005EE  0E08               	movlw	8
  3381  0005F0  6045               	cpfslt	_uart2TxBufferRemaining,c	;volatile
  3382  0005F2  D011               	goto	i2l504
  3383                           
  3384                           ;mcc_generated_files/uart2.c: 248:     {;mcc_generated_files/uart2.c: 249:         U2TXB
      +                           = uart2TxBuffer[uart2TxTail++];
  3385  0005F4  0E82               	movlw	low _uart2TxBuffer
  3386  0005F6  2446               	addwf	_uart2TxTail,w,c	;volatile
  3387  0005F8  6ED9               	movwf	fsr2l,c
  3388  0005FA  6ADA               	clrf	fsr2h,c
  3389  0005FC  0E00               	movlw	high _uart2TxBuffer
  3390  0005FE  22DA               	addwfc	fsr2h,f,c
  3391  000600  50DF               	movf	indf2,w,c
  3392  000602  013D               	movlb	61	; () banked
  3393  000604  6FD2               	movwf	210,b	;volatile
  3394                           
  3395                           ; BSR set to: 61
  3396  000606  2A46               	incf	_uart2TxTail,f,c	;volatile
  3397                           
  3398                           ; BSR set to: 61
  3399                           ;mcc_generated_files/uart2.c: 250:        if(sizeof(uart2TxBuffer) <= uart2TxTail)
  3400  000608  0E07               	movlw	7
  3401  00060A  6446               	cpfsgt	_uart2TxTail,c	;volatile
  3402  00060C  D002               	goto	i2l2338
  3403                           
  3404                           ; BSR set to: 61
  3405                           ;mcc_generated_files/uart2.c: 251:         {;mcc_generated_files/uart2.c: 252:          
      +                             uart2TxTail = 0;
  3406  00060E  0E00               	movlw	0
  3407  000610  6E46               	movwf	_uart2TxTail,c	;volatile
  3408  000612                     i2l2338:
  3409                           
  3410                           ; BSR set to: 61
  3411                           ;mcc_generated_files/uart2.c: 254:         uart2TxBufferRemaining++;
  3412  000612  2A45               	incf	_uart2TxBufferRemaining,f,c	;volatile
  3413                           
  3414                           ;mcc_generated_files/uart2.c: 255:     }
  3415  000614  0012               	return	
  3416  000616                     i2l504:
  3417                           
  3418                           ;mcc_generated_files/uart2.c: 257:     {;mcc_generated_files/uart2.c: 258:         PIE6b
      +                          its.U2TXIE = 0;
  3419  000616  0139               	movlb	57	; () banked
  3420  000618  9796               	bcf	150,3,b	;volatile
  3421  00061A  0012               	return		;funcret
  3422  00061C                     __end_of_UART2_Transmit_ISR:
  3423                           	opt callstack 0
  3424                           
  3425 ;; *************** function _UART2_rx_vect_isr *****************
  3426 ;; Defined at:
  3427 ;;		line 234 in file "mcc_generated_files/uart2.c"
  3428 ;; Parameters:    Size  Location     Type
  3429 ;;		None
  3430 ;; Auto vars:     Size  Location     Type
  3431 ;;		None
  3432 ;; Return value:  Size  Location     Type
  3433 ;;                  1    wreg      void 
  3434 ;; Registers used:
  3435 ;;		wreg, fsr2l, fsr2h, status,2, status,0, pclath, tosl, cstack
  3436 ;; Tracked objects:
  3437 ;;		On entry : 0/0
  3438 ;;		On exit  : 0/0
  3439 ;;		Unchanged: 0/0
  3440 ;; Data sizes:     COMRAM   BANK0   BANK1   BANK2   BANK3   BANK4   BANK5   BANK6   BANK7   BANK8   BANK9  BANK10  BANK1
      +1  BANK12  BANK13  BANK14  BANK15  BANK16  BANK17  BANK18  BANK19  BANK20  BANK21  BANK22  BANK23  BANK24  BANK25  BANK2
      +6  BANK27  BANK28  BANK29  BANK30  BANK31
  3441 ;;      Params:         0       0       0       0       0       0       0       0       0       0       0       0       
      +0       0       0       0       0       0       0       0       0       0       0       0       0       0       0       
      +0       0       0       0       0       0
  3442 ;;      Locals:         0       0       0       0       0       0       0       0       0       0       0       0       
      +0       0       0       0       0       0       0       0       0       0       0       0       0       0       0       
      +0       0       0       0       0       0
  3443 ;;      Temps:          0       0       0       0       0       0       0       0       0       0       0       0       
      +0       0       0       0       0       0       0       0       0       0       0       0       0       0       0       
      +0       0       0       0       0       0
  3444 ;;      Totals:         0       0       0       0       0       0       0       0       0       0       0       0       
      +0       0       0       0       0       0       0       0       0       0       0       0       0       0       0       
      +0       0       0       0       0       0
  3445 ;;Total ram usage:        0 bytes
  3446 ;; Hardware stack levels used:    1
  3447 ;; Hardware stack levels required when called:    3
  3448 ;; This function calls:
  3449 ;;		Absolute function
  3450 ;;		_UART2_Receive_ISR
  3451 ;; This function is called by:
  3452 ;;		Interrupt level 2
  3453 ;; This function uses a non-reentrant model
  3454 ;;
  3455                           
  3456                           	psect	text39
  3457  000748                     __ptext39:
  3458                           	opt callstack 0
  3459  000748                     _UART2_rx_vect_isr:
  3460                           	opt callstack 24
  3461                           
  3462                           ;mcc_generated_files/uart2.c: 236:     if(UART2_RxInterruptHandler)
  3463                           
  3464                           ;incstack = 0
  3465  000748  503A               	movf	_UART2_RxInterruptHandler,w,c
  3466  00074A  103B               	iorwf	_UART2_RxInterruptHandler+1,w,c
  3467  00074C  103C               	iorwf	_UART2_RxInterruptHandler+2,w,c
  3468  00074E  B4D8               	btfsc	status,2,c
  3469  000750  0011               	retfie		f
  3470                           
  3471                           ;mcc_generated_files/uart2.c: 237:     {;mcc_generated_files/uart2.c: 238:         UART2
      +                          _RxInterruptHandler();
  3472  000752  D801               	call	i2u87_48
  3473  000754  0011               	retfie		f
  3474  000756                     i2u87_48:
  3475  000756  0005               	push	
  3476  000758  6EFA               	movwf	pclath,c
  3477  00075A  503A               	movf	_UART2_RxInterruptHandler,w,c
  3478  00075C  6EFD               	movwf	tosl,c
  3479  00075E  503B               	movf	_UART2_RxInterruptHandler+1,w,c
  3480  000760  6EFE               	movwf	tosh,c
  3481  000762  503C               	movf	_UART2_RxInterruptHandler+2,w,c
  3482  000764  6EFF               	movwf	tosu,c
  3483  000766  50FA               	movf	pclath,w,c
  3484  000768  0012               	return		;indir
  3485  00076A                     __end_of_UART2_rx_vect_isr:
  3486                           	opt callstack 0
  3487                           
  3488 ;; *************** function _UART2_Receive_ISR *****************
  3489 ;; Defined at:
  3490 ;;		line 264 in file "mcc_generated_files/uart2.c"
  3491 ;; Parameters:    Size  Location     Type
  3492 ;;		None
  3493 ;; Auto vars:     Size  Location     Type
  3494 ;;		None
  3495 ;; Return value:  Size  Location     Type
  3496 ;;                  1    wreg      void 
  3497 ;; Registers used:
  3498 ;;		wreg, fsr2l, fsr2h, status,2, status,0, pclath, tosl, cstack
  3499 ;; Tracked objects:
  3500 ;;		On entry : 0/0
  3501 ;;		On exit  : 0/0
  3502 ;;		Unchanged: 0/0
  3503 ;; Data sizes:     COMRAM   BANK0   BANK1   BANK2   BANK3   BANK4   BANK5   BANK6   BANK7   BANK8   BANK9  BANK10  BANK1
      +1  BANK12  BANK13  BANK14  BANK15  BANK16  BANK17  BANK18  BANK19  BANK20  BANK21  BANK22  BANK23  BANK24  BANK25  BANK2
      +6  BANK27  BANK28  BANK29  BANK30  BANK31
  3504 ;;      Params:         0       0       0       0       0       0       0       0       0       0       0       0       
      +0       0       0       0       0       0       0       0       0       0       0       0       0       0       0       
      +0       0       0       0       0       0
  3505 ;;      Locals:         0       0       0       0       0       0       0       0       0       0       0       0       
      +0       0       0       0       0       0       0       0       0       0       0       0       0       0       0       
      +0       0       0       0       0       0
  3506 ;;      Temps:          0       0       0       0       0       0       0       0       0       0       0       0       
      +0       0       0       0       0       0       0       0       0       0       0       0       0       0       0       
      +0       0       0       0       0       0
  3507 ;;      Totals:         0       0       0       0       0       0       0       0       0       0       0       0       
      +0       0       0       0       0       0       0       0       0       0       0       0       0       0       0       
      +0       0       0       0       0       0
  3508 ;;Total ram usage:        0 bytes
  3509 ;; Hardware stack levels used:    1
  3510 ;; Hardware stack levels required when called:    2
  3511 ;; This function calls:
  3512 ;;		Absolute function
  3513 ;;		_UART2_DefaultErrorHandler
  3514 ;;		_UART2_DefaultFramingErrorHandler
  3515 ;;		_UART2_DefaultOverrunErrorHandler
  3516 ;;		_UART2_RxDataHandler
  3517 ;; This function is called by:
  3518 ;;		_UART2_Initialize
  3519 ;;		_UART2_rx_vect_isr
  3520 ;; This function uses a non-reentrant model
  3521 ;;
  3522                           
  3523                           	psect	text40
  3524  00034A                     __ptext40:
  3525                           	opt callstack 0
  3526  00034A                     _UART2_Receive_ISR:
  3527                           	opt callstack 24
  3528                           
  3529                           ;mcc_generated_files/uart2.c: 267:     uart2RxStatusBuffer[uart2RxHead].status = 0;
  3530                           
  3531                           ;incstack = 0
  3532  00034A  0E01               	movlw	low _uart2RxStatusBuffer
  3533  00034C  2444               	addwf	_uart2RxHead,w,c	;volatile
  3534  00034E  6ED9               	movwf	fsr2l,c
  3535  000350  6ADA               	clrf	fsr2h,c
  3536  000352  0E00               	movlw	high _uart2RxStatusBuffer
  3537  000354  22DA               	addwfc	fsr2h,f,c
  3538  000356  0E00               	movlw	0
  3539  000358  6EDF               	movwf	indf2,c
  3540                           
  3541                           ;mcc_generated_files/uart2.c: 269:     if(U2ERRIRbits.FERIF){
  3542  00035A  013D               	movlb	61	; () banked
  3543  00035C  A7E1               	btfss	225,3,b	;volatile
  3544  00035E  D013               	goto	i2u71_49
  3545                           
  3546                           ; BSR set to: 61
  3547                           ;mcc_generated_files/uart2.c: 270:         uart2RxStatusBuffer[uart2RxHead].ferr = 1;
  3548  000360  0E01               	movlw	low _uart2RxStatusBuffer
  3549  000362  2444               	addwf	_uart2RxHead,w,c	;volatile
  3550  000364  6ED9               	movwf	fsr2l,c
  3551  000366  6ADA               	clrf	fsr2h,c
  3552  000368  0E00               	movlw	high _uart2RxStatusBuffer
  3553  00036A  22DA               	addwfc	fsr2h,f,c
  3554  00036C  82DF               	bsf	indf2,1,c
  3555                           
  3556                           ; BSR set to: 61
  3557                           ;mcc_generated_files/uart2.c: 271:         UART2_FramingErrorHandler();
  3558  00036E  D801               	call	i2u71_48
  3559  000370  D00A               	goto	i2u71_49
  3560  000372                     i2u71_48:
  3561  000372  0005               	push	
  3562  000374  6EFA               	movwf	pclath,c
  3563  000376  5025               	movf	_UART2_FramingErrorHandler,w,c
  3564  000378  6EFD               	movwf	tosl,c
  3565  00037A  5026               	movf	_UART2_FramingErrorHandler+1,w,c
  3566  00037C  6EFE               	movwf	tosh,c
  3567  00037E  5027               	movf	_UART2_FramingErrorHandler+2,w,c
  3568  000380  6EFF               	movwf	tosu,c
  3569  000382  50FA               	movf	pclath,w,c
  3570  000384  0012               	return		;indir
  3571  000386                     i2u71_49:
  3572                           
  3573                           ;mcc_generated_files/uart2.c: 274:     if(U2ERRIRbits.RXFOIF){
  3574  000386  013D               	movlb	61	; () banked
  3575  000388  A3E1               	btfss	225,1,b	;volatile
  3576  00038A  D013               	goto	i2u73_49
  3577                           
  3578                           ; BSR set to: 61
  3579                           ;mcc_generated_files/uart2.c: 275:         uart2RxStatusBuffer[uart2RxHead].oerr = 1;
  3580  00038C  0E01               	movlw	low _uart2RxStatusBuffer
  3581  00038E  2444               	addwf	_uart2RxHead,w,c	;volatile
  3582  000390  6ED9               	movwf	fsr2l,c
  3583  000392  6ADA               	clrf	fsr2h,c
  3584  000394  0E00               	movlw	high _uart2RxStatusBuffer
  3585  000396  22DA               	addwfc	fsr2h,f,c
  3586  000398  84DF               	bsf	indf2,2,c
  3587                           
  3588                           ; BSR set to: 61
  3589                           ;mcc_generated_files/uart2.c: 276:         UART2_OverrunErrorHandler();
  3590  00039A  D801               	call	i2u73_48
  3591  00039C  D00A               	goto	i2u73_49
  3592  00039E                     i2u73_48:
  3593  00039E  0005               	push	
  3594  0003A0  6EFA               	movwf	pclath,c
  3595  0003A2  5022               	movf	_UART2_OverrunErrorHandler,w,c
  3596  0003A4  6EFD               	movwf	tosl,c
  3597  0003A6  5023               	movf	_UART2_OverrunErrorHandler+1,w,c
  3598  0003A8  6EFE               	movwf	tosh,c
  3599  0003AA  5024               	movf	_UART2_OverrunErrorHandler+2,w,c
  3600  0003AC  6EFF               	movwf	tosu,c
  3601  0003AE  50FA               	movf	pclath,w,c
  3602  0003B0  0012               	return		;indir
  3603  0003B2                     i2u73_49:
  3604                           
  3605                           ;mcc_generated_files/uart2.c: 279:     if(uart2RxStatusBuffer[uart2RxHead].status){
  3606  0003B2  0E01               	movlw	low _uart2RxStatusBuffer
  3607  0003B4  2444               	addwf	_uart2RxHead,w,c	;volatile
  3608  0003B6  6ED9               	movwf	fsr2l,c
  3609  0003B8  6ADA               	clrf	fsr2h,c
  3610  0003BA  0E00               	movlw	high _uart2RxStatusBuffer
  3611  0003BC  22DA               	addwfc	fsr2h,f,c
  3612  0003BE  50DF               	movf	indf2,w,c
  3613  0003C0  B4D8               	btfsc	status,2,c
  3614  0003C2  D00C               	goto	i2l2358
  3615                           
  3616                           ;mcc_generated_files/uart2.c: 280:         UART2_ErrorHandler();
  3617  0003C4  D801               	call	i2u75_48
  3618  0003C6  0012               	return	
  3619  0003C8                     i2u75_48:
  3620  0003C8  0005               	push	
  3621  0003CA  6EFA               	movwf	pclath,c
  3622  0003CC  501F               	movf	_UART2_ErrorHandler,w,c
  3623  0003CE  6EFD               	movwf	tosl,c
  3624  0003D0  5020               	movf	_UART2_ErrorHandler+1,w,c
  3625  0003D2  6EFE               	movwf	tosh,c
  3626  0003D4  5021               	movf	_UART2_ErrorHandler+2,w,c
  3627  0003D6  6EFF               	movwf	tosu,c
  3628  0003D8  50FA               	movf	pclath,w,c
  3629  0003DA  0012               	return		;indir
  3630  0003DC                     i2l2358:
  3631                           
  3632                           ;mcc_generated_files/uart2.c: 282:         UART2_RxDataHandler();
  3633  0003DC  ECB5  F003         	call	_UART2_RxDataHandler	;wreg free
  3634  0003E0  0012               	return		;funcret
  3635  0003E2                     __end_of_UART2_Receive_ISR:
  3636                           	opt callstack 0
  3637                           
  3638 ;; *************** function _UART2_DefaultOverrunErrorHandler *****************
  3639 ;; Defined at:
  3640 ;;		line 300 in file "mcc_generated_files/uart2.c"
  3641 ;; Parameters:    Size  Location     Type
  3642 ;;		None
  3643 ;; Auto vars:     Size  Location     Type
  3644 ;;		None
  3645 ;; Return value:  Size  Location     Type
  3646 ;;                  1    wreg      void 
  3647 ;; Registers used:
  3648 ;;		None
  3649 ;; Tracked objects:
  3650 ;;		On entry : 0/0
  3651 ;;		On exit  : 0/0
  3652 ;;		Unchanged: 0/0
  3653 ;; Data sizes:     COMRAM   BANK0   BANK1   BANK2   BANK3   BANK4   BANK5   BANK6   BANK7   BANK8   BANK9  BANK10  BANK1
      +1  BANK12  BANK13  BANK14  BANK15  BANK16  BANK17  BANK18  BANK19  BANK20  BANK21  BANK22  BANK23  BANK24  BANK25  BANK2
      +6  BANK27  BANK28  BANK29  BANK30  BANK31
  3654 ;;      Params:         0       0       0       0       0       0       0       0       0       0       0       0       
      +0       0       0       0       0       0       0       0       0       0       0       0       0       0       0       
      +0       0       0       0       0       0
  3655 ;;      Locals:         0       0       0       0       0       0       0       0       0       0       0       0       
      +0       0       0       0       0       0       0       0       0       0       0       0       0       0       0       
      +0       0       0       0       0       0
  3656 ;;      Temps:          0       0       0       0       0       0       0       0       0       0       0       0       
      +0       0       0       0       0       0       0       0       0       0       0       0       0       0       0       
      +0       0       0       0       0       0
  3657 ;;      Totals:         0       0       0       0       0       0       0       0       0       0       0       0       
      +0       0       0       0       0       0       0       0       0       0       0       0       0       0       0       
      +0       0       0       0       0       0
  3658 ;;Total ram usage:        0 bytes
  3659 ;; Hardware stack levels used:    1
  3660 ;; This function calls:
  3661 ;;		Nothing
  3662 ;; This function is called by:
  3663 ;;		_UART2_Initialize
  3664 ;;		_UART2_Receive_ISR
  3665 ;; This function uses a non-reentrant model
  3666 ;;
  3667                           
  3668                           	psect	text41
  3669  000946                     __ptext41:
  3670                           	opt callstack 0
  3671  000946                     _UART2_DefaultOverrunErrorHandler:
  3672                           	opt callstack 25
  3673                           
  3674                           ;incstack = 0
  3675  000946  0012               	return		;funcret
  3676  000948                     __end_of_UART2_DefaultOverrunErrorHandler:
  3677                           	opt callstack 0
  3678                           
  3679 ;; *************** function _UART2_DefaultFramingErrorHandler *****************
  3680 ;; Defined at:
  3681 ;;		line 298 in file "mcc_generated_files/uart2.c"
  3682 ;; Parameters:    Size  Location     Type
  3683 ;;		None
  3684 ;; Auto vars:     Size  Location     Type
  3685 ;;		None
  3686 ;; Return value:  Size  Location     Type
  3687 ;;                  1    wreg      void 
  3688 ;; Registers used:
  3689 ;;		None
  3690 ;; Tracked objects:
  3691 ;;		On entry : 0/0
  3692 ;;		On exit  : 0/0
  3693 ;;		Unchanged: 0/0
  3694 ;; Data sizes:     COMRAM   BANK0   BANK1   BANK2   BANK3   BANK4   BANK5   BANK6   BANK7   BANK8   BANK9  BANK10  BANK1
      +1  BANK12  BANK13  BANK14  BANK15  BANK16  BANK17  BANK18  BANK19  BANK20  BANK21  BANK22  BANK23  BANK24  BANK25  BANK2
      +6  BANK27  BANK28  BANK29  BANK30  BANK31
  3695 ;;      Params:         0       0       0       0       0       0       0       0       0       0       0       0       
      +0       0       0       0       0       0       0       0       0       0       0       0       0       0       0       
      +0       0       0       0       0       0
  3696 ;;      Locals:         0       0       0       0       0       0       0       0       0       0       0       0       
      +0       0       0       0       0       0       0       0       0       0       0       0       0       0       0       
      +0       0       0       0       0       0
  3697 ;;      Temps:          0       0       0       0       0       0       0       0       0       0       0       0       
      +0       0       0       0       0       0       0       0       0       0       0       0       0       0       0       
      +0       0       0       0       0       0
  3698 ;;      Totals:         0       0       0       0       0       0       0       0       0       0       0       0       
      +0       0       0       0       0       0       0       0       0       0       0       0       0       0       0       
      +0       0       0       0       0       0
  3699 ;;Total ram usage:        0 bytes
  3700 ;; Hardware stack levels used:    1
  3701 ;; This function calls:
  3702 ;;		Nothing
  3703 ;; This function is called by:
  3704 ;;		_UART2_Initialize
  3705 ;;		_UART2_Receive_ISR
  3706 ;; This function uses a non-reentrant model
  3707 ;;
  3708                           
  3709                           	psect	text42
  3710  000948                     __ptext42:
  3711                           	opt callstack 0
  3712  000948                     _UART2_DefaultFramingErrorHandler:
  3713                           	opt callstack 25
  3714                           
  3715                           ;incstack = 0
  3716  000948  0012               	return		;funcret
  3717  00094A                     __end_of_UART2_DefaultFramingErrorHandler:
  3718                           	opt callstack 0
  3719                           
  3720 ;; *************** function _UART2_DefaultErrorHandler *****************
  3721 ;; Defined at:
  3722 ;;		line 302 in file "mcc_generated_files/uart2.c"
  3723 ;; Parameters:    Size  Location     Type
  3724 ;;		None
  3725 ;; Auto vars:     Size  Location     Type
  3726 ;;		None
  3727 ;; Return value:  Size  Location     Type
  3728 ;;                  1    wreg      void 
  3729 ;; Registers used:
  3730 ;;		wreg, fsr2l, fsr2h, status,2, status,0, cstack
  3731 ;; Tracked objects:
  3732 ;;		On entry : 0/0
  3733 ;;		On exit  : 0/0
  3734 ;;		Unchanged: 0/0
  3735 ;; Data sizes:     COMRAM   BANK0   BANK1   BANK2   BANK3   BANK4   BANK5   BANK6   BANK7   BANK8   BANK9  BANK10  BANK1
      +1  BANK12  BANK13  BANK14  BANK15  BANK16  BANK17  BANK18  BANK19  BANK20  BANK21  BANK22  BANK23  BANK24  BANK25  BANK2
      +6  BANK27  BANK28  BANK29  BANK30  BANK31
  3736 ;;      Params:         0       0       0       0       0       0       0       0       0       0       0       0       
      +0       0       0       0       0       0       0       0       0       0       0       0       0       0       0       
      +0       0       0       0       0       0
  3737 ;;      Locals:         0       0       0       0       0       0       0       0       0       0       0       0       
      +0       0       0       0       0       0       0       0       0       0       0       0       0       0       0       
      +0       0       0       0       0       0
  3738 ;;      Temps:          0       0       0       0       0       0       0       0       0       0       0       0       
      +0       0       0       0       0       0       0       0       0       0       0       0       0       0       0       
      +0       0       0       0       0       0
  3739 ;;      Totals:         0       0       0       0       0       0       0       0       0       0       0       0       
      +0       0       0       0       0       0       0       0       0       0       0       0       0       0       0       
      +0       0       0       0       0       0
  3740 ;;Total ram usage:        0 bytes
  3741 ;; Hardware stack levels used:    1
  3742 ;; Hardware stack levels required when called:    1
  3743 ;; This function calls:
  3744 ;;		_UART2_RxDataHandler
  3745 ;; This function is called by:
  3746 ;;		_UART2_Initialize
  3747 ;;		_UART2_Receive_ISR
  3748 ;; This function uses a non-reentrant model
  3749 ;;
  3750                           
  3751                           	psect	text43
  3752  000930                     __ptext43:
  3753                           	opt callstack 0
  3754  000930                     _UART2_DefaultErrorHandler:
  3755                           	opt callstack 24
  3756                           
  3757                           ;mcc_generated_files/uart2.c: 303:     UART2_RxDataHandler();
  3758                           
  3759                           ;incstack = 0
  3760  000930  ECB5  F003         	call	_UART2_RxDataHandler	;wreg free
  3761  000934  0012               	return		;funcret
  3762  000936                     __end_of_UART2_DefaultErrorHandler:
  3763                           	opt callstack 0
  3764                           
  3765 ;; *************** function _UART2_RxDataHandler *****************
  3766 ;; Defined at:
  3767 ;;		line 288 in file "mcc_generated_files/uart2.c"
  3768 ;; Parameters:    Size  Location     Type
  3769 ;;		None
  3770 ;; Auto vars:     Size  Location     Type
  3771 ;;		None
  3772 ;; Return value:  Size  Location     Type
  3773 ;;                  1    wreg      void 
  3774 ;; Registers used:
  3775 ;;		wreg, fsr2l, fsr2h, status,2, status,0
  3776 ;; Tracked objects:
  3777 ;;		On entry : 0/0
  3778 ;;		On exit  : 0/0
  3779 ;;		Unchanged: 0/0
  3780 ;; Data sizes:     COMRAM   BANK0   BANK1   BANK2   BANK3   BANK4   BANK5   BANK6   BANK7   BANK8   BANK9  BANK10  BANK1
      +1  BANK12  BANK13  BANK14  BANK15  BANK16  BANK17  BANK18  BANK19  BANK20  BANK21  BANK22  BANK23  BANK24  BANK25  BANK2
      +6  BANK27  BANK28  BANK29  BANK30  BANK31
  3781 ;;      Params:         0       0       0       0       0       0       0       0       0       0       0       0       
      +0       0       0       0       0       0       0       0       0       0       0       0       0       0       0       
      +0       0       0       0       0       0
  3782 ;;      Locals:         0       0       0       0       0       0       0       0       0       0       0       0       
      +0       0       0       0       0       0       0       0       0       0       0       0       0       0       0       
      +0       0       0       0       0       0
  3783 ;;      Temps:          0       0       0       0       0       0       0       0       0       0       0       0       
      +0       0       0       0       0       0       0       0       0       0       0       0       0       0       0       
      +0       0       0       0       0       0
  3784 ;;      Totals:         0       0       0       0       0       0       0       0       0       0       0       0       
      +0       0       0       0       0       0       0       0       0       0       0       0       0       0       0       
      +0       0       0       0       0       0
  3785 ;;Total ram usage:        0 bytes
  3786 ;; Hardware stack levels used:    1
  3787 ;; This function calls:
  3788 ;;		Nothing
  3789 ;; This function is called by:
  3790 ;;		_UART2_Receive_ISR
  3791 ;;		_UART2_DefaultErrorHandler
  3792 ;; This function uses a non-reentrant model
  3793 ;;
  3794                           
  3795                           	psect	text44
  3796  00076A                     __ptext44:
  3797                           	opt callstack 0
  3798  00076A                     _UART2_RxDataHandler:
  3799                           	opt callstack 25
  3800                           
  3801                           ;mcc_generated_files/uart2.c: 290:     uart2RxBuffer[uart2RxHead++] = U2RXB;
  3802                           
  3803                           ;incstack = 0
  3804  00076A  0E7A               	movlw	low _uart2RxBuffer
  3805  00076C  2444               	addwf	_uart2RxHead,w,c	;volatile
  3806  00076E  6ED9               	movwf	fsr2l,c
  3807  000770  6ADA               	clrf	fsr2h,c
  3808  000772  0E00               	movlw	high _uart2RxBuffer
  3809  000774  22DA               	addwfc	fsr2h,f,c
  3810  000776  006F F743 FFDF     	movff	15824,indf2	;volatile
  3811  00077C  2A44               	incf	_uart2RxHead,f,c	;volatile
  3812                           
  3813                           ;mcc_generated_files/uart2.c: 291:     if(sizeof(uart2RxBuffer) <= uart2RxHead)
  3814  00077E  0E07               	movlw	7
  3815  000780  6444               	cpfsgt	_uart2RxHead,c	;volatile
  3816  000782  D002               	goto	i2l2136
  3817                           
  3818                           ;mcc_generated_files/uart2.c: 292:     {;mcc_generated_files/uart2.c: 293:         uart2
      +                          RxHead = 0;
  3819  000784  0E00               	movlw	0
  3820  000786  6E44               	movwf	_uart2RxHead,c	;volatile
  3821  000788                     i2l2136:
  3822                           
  3823                           ;mcc_generated_files/uart2.c: 295:     uart2RxCount++;
  3824  000788  2A42               	incf	_uart2RxCount,f,c	;volatile
  3825  00078A  0012               	return		;funcret
  3826  00078C                     __end_of_UART2_RxDataHandler:
  3827                           	opt callstack 0
  3828                           
  3829 ;; *************** function _TMR6_ISR *****************
  3830 ;; Defined at:
  3831 ;;		line 168 in file "mcc_generated_files/tmr6.c"
  3832 ;; Parameters:    Size  Location     Type
  3833 ;;		None
  3834 ;; Auto vars:     Size  Location     Type
  3835 ;;		None
  3836 ;; Return value:  Size  Location     Type
  3837 ;;                  1    wreg      void 
  3838 ;; Registers used:
  3839 ;;		wreg, fsr2l, fsr2h, status,2, status,0, pclath, tosl, prodl, prodh, cstack
  3840 ;; Tracked objects:
  3841 ;;		On entry : 0/0
  3842 ;;		On exit  : 0/0
  3843 ;;		Unchanged: 0/0
  3844 ;; Data sizes:     COMRAM   BANK0   BANK1   BANK2   BANK3   BANK4   BANK5   BANK6   BANK7   BANK8   BANK9  BANK10  BANK1
      +1  BANK12  BANK13  BANK14  BANK15  BANK16  BANK17  BANK18  BANK19  BANK20  BANK21  BANK22  BANK23  BANK24  BANK25  BANK2
      +6  BANK27  BANK28  BANK29  BANK30  BANK31
  3845 ;;      Params:         0       0       0       0       0       0       0       0       0       0       0       0       
      +0       0       0       0       0       0       0       0       0       0       0       0       0       0       0       
      +0       0       0       0       0       0
  3846 ;;      Locals:         0       0       0       0       0       0       0       0       0       0       0       0       
      +0       0       0       0       0       0       0       0       0       0       0       0       0       0       0       
      +0       0       0       0       0       0
  3847 ;;      Temps:          0       0       0       0       0       0       0       0       0       0       0       0       
      +0       0       0       0       0       0       0       0       0       0       0       0       0       0       0       
      +0       0       0       0       0       0
  3848 ;;      Totals:         0       0       0       0       0       0       0       0       0       0       0       0       
      +0       0       0       0       0       0       0       0       0       0       0       0       0       0       0       
      +0       0       0       0       0       0
  3849 ;;Total ram usage:        0 bytes
  3850 ;; Hardware stack levels used:    1
  3851 ;; Hardware stack levels required when called:    1
  3852 ;; This function calls:
  3853 ;;		Absolute function
  3854 ;;		_TMR6_DefaultInterruptHandler
  3855 ;; This function is called by:
  3856 ;;		Interrupt level 2
  3857 ;; This function uses a non-reentrant model
  3858 ;;
  3859                           
  3860                           	psect	text45
  3861  000670                     __ptext45:
  3862                           	opt callstack 0
  3863  000670                     _TMR6_ISR:
  3864                           	opt callstack 26
  3865                           
  3866                           ;mcc_generated_files/tmr6.c: 172:  PIR9bits.TMR6IF = 0;
  3867                           
  3868                           ;incstack = 0
  3869  000670  0139               	movlb	57	; () banked
  3870  000672  91A9               	bcf	169,0,b	;volatile
  3871                           
  3872                           ; BSR set to: 57
  3873                           ;mcc_generated_files/tmr6.c: 174:  if (TMR6_InterruptHandler) {
  3874  000674  501C               	movf	_TMR6_InterruptHandler,w,c
  3875  000676  101D               	iorwf	_TMR6_InterruptHandler+1,w,c
  3876  000678  101E               	iorwf	_TMR6_InterruptHandler+2,w,c
  3877  00067A  B4D8               	btfsc	status,2,c
  3878  00067C  0011               	retfie		f
  3879                           
  3880                           ; BSR set to: 57
  3881                           ;mcc_generated_files/tmr6.c: 175:   TMR6_InterruptHandler();
  3882  00067E  D801               	call	i2u91_48
  3883  000680  0011               	retfie		f
  3884  000682                     i2u91_48:
  3885  000682  0005               	push	
  3886  000684  6EFA               	movwf	pclath,c
  3887  000686  501C               	movf	_TMR6_InterruptHandler,w,c
  3888  000688  6EFD               	movwf	tosl,c
  3889  00068A  501D               	movf	_TMR6_InterruptHandler+1,w,c
  3890  00068C  6EFE               	movwf	tosh,c
  3891  00068E  501E               	movf	_TMR6_InterruptHandler+2,w,c
  3892  000690  6EFF               	movwf	tosu,c
  3893  000692  50FA               	movf	pclath,w,c
  3894  000694  0012               	return		;indir
  3895  000696                     __end_of_TMR6_ISR:
  3896                           	opt callstack 0
  3897                           
  3898 ;; *************** function _TMR6_DefaultInterruptHandler *****************
  3899 ;; Defined at:
  3900 ;;		line 184 in file "mcc_generated_files/tmr6.c"
  3901 ;; Parameters:    Size  Location     Type
  3902 ;;		None
  3903 ;; Auto vars:     Size  Location     Type
  3904 ;;  i               1    2[COMRAM] unsigned char 
  3905 ;; Return value:  Size  Location     Type
  3906 ;;                  1    wreg      void 
  3907 ;; Registers used:
  3908 ;;		wreg, fsr2l, fsr2h, status,2, status,0, prodl, prodh
  3909 ;; Tracked objects:
  3910 ;;		On entry : 0/0
  3911 ;;		On exit  : 0/0
  3912 ;;		Unchanged: 0/0
  3913 ;; Data sizes:     COMRAM   BANK0   BANK1   BANK2   BANK3   BANK4   BANK5   BANK6   BANK7   BANK8   BANK9  BANK10  BANK1
      +1  BANK12  BANK13  BANK14  BANK15  BANK16  BANK17  BANK18  BANK19  BANK20  BANK21  BANK22  BANK23  BANK24  BANK25  BANK2
      +6  BANK27  BANK28  BANK29  BANK30  BANK31
  3914 ;;      Params:         0       0       0       0       0       0       0       0       0       0       0       0       
      +0       0       0       0       0       0       0       0       0       0       0       0       0       0       0       
      +0       0       0       0       0       0
  3915 ;;      Locals:         1       0       0       0       0       0       0       0       0       0       0       0       
      +0       0       0       0       0       0       0       0       0       0       0       0       0       0       0       
      +0       0       0       0       0       0
  3916 ;;      Temps:          2       0       0       0       0       0       0       0       0       0       0       0       
      +0       0       0       0       0       0       0       0       0       0       0       0       0       0       0       
      +0       0       0       0       0       0
  3917 ;;      Totals:         3       0       0       0       0       0       0       0       0       0       0       0       
      +0       0       0       0       0       0       0       0       0       0       0       0       0       0       0       
      +0       0       0       0       0       0
  3918 ;;Total ram usage:        3 bytes
  3919 ;; Hardware stack levels used:    1
  3920 ;; This function calls:
  3921 ;;		Nothing
  3922 ;; This function is called by:
  3923 ;;		_TMR6_Initialize
  3924 ;;		_TMR6_ISR
  3925 ;; This function uses a non-reentrant model
  3926 ;;
  3927                           
  3928                           	psect	text46
  3929  0004EC                     __ptext46:
  3930                           	opt callstack 0
  3931  0004EC                     _TMR6_DefaultInterruptHandler:
  3932                           	opt callstack 26
  3933                           
  3934                           ;mcc_generated_files/tmr6.c: 186:  uint8_t i;;mcc_generated_files/tmr6.c: 190:  for (i =
      +                           0; i < TMR_COUNT; i++) {
  3935                           
  3936                           ;incstack = 0
  3937  0004EC  0E00               	movlw	0
  3938  0004EE  6E51               	movwf	TMR6_DefaultInterruptHandler@i,c
  3939  0004F0                     i2l2366:
  3940                           
  3941                           ;mcc_generated_files/tmr6.c: 191:   if (tickCount[i] != 0) {
  3942  0004F0  5051               	movf	TMR6_DefaultInterruptHandler@i,w,c
  3943  0004F2  0D02               	mullw	2
  3944  0004F4  0E60               	movlw	low _tickCount
  3945  0004F6  24F3               	addwf	prodl,w,c
  3946  0004F8  6ED9               	movwf	fsr2l,c
  3947  0004FA  0E00               	movlw	high _tickCount
  3948  0004FC  20F4               	addwfc	prodh,w,c
  3949  0004FE  6EDA               	movwf	fsr2h,c
  3950  000500  50DE               	movf	postinc2,w,c
  3951  000502  10DE               	iorwf	postinc2,w,c
  3952  000504  B4D8               	btfsc	status,2,c
  3953  000506  D00B               	goto	i2l2370
  3954                           
  3955                           ;mcc_generated_files/tmr6.c: 192:    tickCount[i]--;
  3956  000508  5051               	movf	TMR6_DefaultInterruptHandler@i,w,c
  3957  00050A  0D02               	mullw	2
  3958  00050C  0E60               	movlw	low _tickCount
  3959  00050E  24F3               	addwf	prodl,w,c
  3960  000510  6ED9               	movwf	fsr2l,c
  3961  000512  0E00               	movlw	high _tickCount
  3962  000514  20F4               	addwfc	prodh,w,c
  3963  000516  6EDA               	movwf	fsr2h,c
  3964  000518  06DE               	decf	postinc2,f,c
  3965  00051A  0E00               	movlw	0
  3966  00051C  5ADD               	subwfb	postdec2,f,c
  3967  00051E                     i2l2370:
  3968                           
  3969                           ;mcc_generated_files/tmr6.c: 194:  }
  3970  00051E  2A51               	incf	TMR6_DefaultInterruptHandler@i,f,c
  3971  000520  0E0C               	movlw	12
  3972  000522  6451               	cpfsgt	TMR6_DefaultInterruptHandler@i,c
  3973  000524  D7E5               	goto	i2l2366
  3974  000526  0012               	return	
  3975  000528                     __end_of_TMR6_DefaultInterruptHandler:
  3976                           	opt callstack 0
  3977                           
  3978 ;; *************** function _TMR5_ISR *****************
  3979 ;; Defined at:
  3980 ;;		line 166 in file "mcc_generated_files/tmr5.c"
  3981 ;; Parameters:    Size  Location     Type
  3982 ;;		None
  3983 ;; Auto vars:     Size  Location     Type
  3984 ;;		None
  3985 ;; Return value:  Size  Location     Type
  3986 ;;                  1    wreg      void 
  3987 ;; Registers used:
  3988 ;;		wreg, status,2, status,0, pclath, tosl, cstack
  3989 ;; Tracked objects:
  3990 ;;		On entry : 0/0
  3991 ;;		On exit  : 0/0
  3992 ;;		Unchanged: 0/0
  3993 ;; Data sizes:     COMRAM   BANK0   BANK1   BANK2   BANK3   BANK4   BANK5   BANK6   BANK7   BANK8   BANK9  BANK10  BANK1
      +1  BANK12  BANK13  BANK14  BANK15  BANK16  BANK17  BANK18  BANK19  BANK20  BANK21  BANK22  BANK23  BANK24  BANK25  BANK2
      +6  BANK27  BANK28  BANK29  BANK30  BANK31
  3994 ;;      Params:         0       0       0       0       0       0       0       0       0       0       0       0       
      +0       0       0       0       0       0       0       0       0       0       0       0       0       0       0       
      +0       0       0       0       0       0
  3995 ;;      Locals:         0       0       0       0       0       0       0       0       0       0       0       0       
      +0       0       0       0       0       0       0       0       0       0       0       0       0       0       0       
      +0       0       0       0       0       0
  3996 ;;      Temps:          0       0       0       0       0       0       0       0       0       0       0       0       
      +0       0       0       0       0       0       0       0       0       0       0       0       0       0       0       
      +0       0       0       0       0       0
  3997 ;;      Totals:         0       0       0       0       0       0       0       0       0       0       0       0       
      +0       0       0       0       0       0       0       0       0       0       0       0       0       0       0       
      +0       0       0       0       0       0
  3998 ;;Total ram usage:        0 bytes
  3999 ;; Hardware stack levels used:    1
  4000 ;; Hardware stack levels required when called:    2
  4001 ;; This function calls:
  4002 ;;		_TMR5_CallBack
  4003 ;;		_TMR5_WriteTimer
  4004 ;; This function is called by:
  4005 ;;		Interrupt level 2
  4006 ;; This function uses a non-reentrant model
  4007 ;;
  4008                           
  4009                           	psect	text47
  4010  000560                     __ptext47:
  4011                           	opt callstack 0
  4012  000560                     _TMR5_ISR:
  4013                           	opt callstack 25
  4014                           
  4015                           ;mcc_generated_files/tmr5.c: 168:     static volatile unsigned int CountCallBack = 0;;mc
      +                          c_generated_files/tmr5.c: 171:     PIR8bits.TMR5IF = 0;
  4016                           
  4017                           ;incstack = 0
  4018  000560  0139               	movlb	57	; () banked
  4019  000562  9DA8               	bcf	168,6,b	;volatile
  4020                           
  4021                           ; BSR set to: 57
  4022                           ;mcc_generated_files/tmr5.c: 172:     TMR5_WriteTimer(timer5ReloadVal);
  4023  000564  0060  F0FC  F052   	movff	_timer5ReloadVal,TMR5_WriteTimer@timerVal	;volatile
  4024  00056A  0060  F100  F053   	movff	_timer5ReloadVal+1,TMR5_WriteTimer@timerVal+1	;volatile
  4025  000570  ECD7  F003         	call	_TMR5_WriteTimer	;wreg free
  4026                           
  4027                           ;mcc_generated_files/tmr5.c: 175:     if (++CountCallBack >= 50)
  4028  000574  4A3D               	infsnz	TMR5_ISR@CountCallBack,f,c	;volatile
  4029  000576  2A3E               	incf	TMR5_ISR@CountCallBack+1,f,c	;volatile
  4030  000578  503E               	movf	TMR5_ISR@CountCallBack+1,w,c	;volatile
  4031  00057A  E104               	bnz	i2u93_40
  4032  00057C  0E32               	movlw	50
  4033  00057E  5C3D               	subwf	TMR5_ISR@CountCallBack,w,c	;volatile
  4034  000580  A0D8               	btfss	status,0,c
  4035  000582  0011               	retfie		f
  4036  000584                     i2u93_40:
  4037                           
  4038                           ;mcc_generated_files/tmr5.c: 176:     {;mcc_generated_files/tmr5.c: 178:         TMR5_Ca
      +                          llBack();
  4039  000584  ECC6  F003         	call	_TMR5_CallBack	;wreg free
  4040                           
  4041                           ;mcc_generated_files/tmr5.c: 181:         CountCallBack = 0;
  4042  000588  0E00               	movlw	0
  4043  00058A  6E3E               	movwf	TMR5_ISR@CountCallBack+1,c	;volatile
  4044  00058C  0E00               	movlw	0
  4045  00058E  6E3D               	movwf	TMR5_ISR@CountCallBack,c	;volatile
  4046  000590  0011               	retfie		f
  4047  000592                     __end_of_TMR5_ISR:
  4048                           	opt callstack 0
  4049                           
  4050 ;; *************** function _TMR5_WriteTimer *****************
  4051 ;; Defined at:
  4052 ;;		line 129 in file "mcc_generated_files/tmr5.c"
  4053 ;; Parameters:    Size  Location     Type
  4054 ;;  timerVal        2    3[COMRAM] unsigned short 
  4055 ;; Auto vars:     Size  Location     Type
  4056 ;;		None
  4057 ;; Return value:  Size  Location     Type
  4058 ;;                  1    wreg      void 
  4059 ;; Registers used:
  4060 ;;		wreg, status,2
  4061 ;; Tracked objects:
  4062 ;;		On entry : 0/0
  4063 ;;		On exit  : 0/0
  4064 ;;		Unchanged: 0/0
  4065 ;; Data sizes:     COMRAM   BANK0   BANK1   BANK2   BANK3   BANK4   BANK5   BANK6   BANK7   BANK8   BANK9  BANK10  BANK1
      +1  BANK12  BANK13  BANK14  BANK15  BANK16  BANK17  BANK18  BANK19  BANK20  BANK21  BANK22  BANK23  BANK24  BANK25  BANK2
      +6  BANK27  BANK28  BANK29  BANK30  BANK31
  4066 ;;      Params:         2       0       0       0       0       0       0       0       0       0       0       0       
      +0       0       0       0       0       0       0       0       0       0       0       0       0       0       0       
      +0       0       0       0       0       0
  4067 ;;      Locals:         0       0       0       0       0       0       0       0       0       0       0       0       
      +0       0       0       0       0       0       0       0       0       0       0       0       0       0       0       
      +0       0       0       0       0       0
  4068 ;;      Temps:          0       0       0       0       0       0       0       0       0       0       0       0       
      +0       0       0       0       0       0       0       0       0       0       0       0       0       0       0       
      +0       0       0       0       0       0
  4069 ;;      Totals:         2       0       0       0       0       0       0       0       0       0       0       0       
      +0       0       0       0       0       0       0       0       0       0       0       0       0       0       0       
      +0       0       0       0       0       0
  4070 ;;Total ram usage:        2 bytes
  4071 ;; Hardware stack levels used:    1
  4072 ;; This function calls:
  4073 ;;		Nothing
  4074 ;; This function is called by:
  4075 ;;		_TMR5_ISR
  4076 ;;		_TMR5_Reload
  4077 ;; This function uses a non-reentrant model
  4078 ;;
  4079                           
  4080                           	psect	text48
  4081  0007AE                     __ptext48:
  4082                           	opt callstack 0
  4083  0007AE                     _TMR5_WriteTimer:
  4084                           	opt callstack 26
  4085                           
  4086                           ;mcc_generated_files/tmr5.c: 129: void TMR5_WriteTimer(uint16_t timerVal);mcc_generated_
      +                          files/tmr5.c: 130: {;mcc_generated_files/tmr5.c: 131:     if (T5CONbits.NOT_SYNC == 1)
  4087                           
  4088                           ;incstack = 0
  4089  0007AE  A49A               	btfss	16282,2,c	;volatile
  4090  0007B0  D008               	goto	i2l2398
  4091                           
  4092                           ;mcc_generated_files/tmr5.c: 132:     {;mcc_generated_files/tmr5.c: 134:         T5CONbi
      +                          ts.TMR5ON = 0;
  4093  0007B2  909A               	bcf	16282,0,c	;volatile
  4094                           
  4095                           ;mcc_generated_files/tmr5.c: 137:         TMR5H = (timerVal >> 8);
  4096  0007B4  5053               	movf	TMR5_WriteTimer@timerVal+1,w,c
  4097  0007B6  6E99               	movwf	16281,c	;volatile
  4098                           
  4099                           ;mcc_generated_files/tmr5.c: 138:         TMR5L = timerVal;
  4100  0007B8  0060  F14B  FF98   	movff	TMR5_WriteTimer@timerVal,16280	;volatile
  4101                           
  4102                           ;mcc_generated_files/tmr5.c: 141:         T5CONbits.TMR5ON =1;
  4103  0007BE  809A               	bsf	16282,0,c	;volatile
  4104                           
  4105                           ;mcc_generated_files/tmr5.c: 142:     }
  4106  0007C0  0012               	return	
  4107  0007C2                     i2l2398:
  4108                           
  4109                           ;mcc_generated_files/tmr5.c: 144:     {;mcc_generated_files/tmr5.c: 146:         TMR5H =
      +                           (timerVal >> 8);
  4110  0007C2  5053               	movf	TMR5_WriteTimer@timerVal+1,w,c
  4111  0007C4  6E99               	movwf	16281,c	;volatile
  4112                           
  4113                           ;mcc_generated_files/tmr5.c: 147:         TMR5L = timerVal;
  4114  0007C6  0060  F14B  FF98   	movff	TMR5_WriteTimer@timerVal,16280	;volatile
  4115  0007CC  0012               	return		;funcret
  4116  0007CE                     __end_of_TMR5_WriteTimer:
  4117                           	opt callstack 0
  4118                           
  4119 ;; *************** function _TMR5_CallBack *****************
  4120 ;; Defined at:
  4121 ;;		line 185 in file "mcc_generated_files/tmr5.c"
  4122 ;; Parameters:    Size  Location     Type
  4123 ;;		None
  4124 ;; Auto vars:     Size  Location     Type
  4125 ;;		None
  4126 ;; Return value:  Size  Location     Type
  4127 ;;                  1    wreg      void 
  4128 ;; Registers used:
  4129 ;;		wreg, status,2, status,0, pclath, tosl, cstack
  4130 ;; Tracked objects:
  4131 ;;		On entry : 0/0
  4132 ;;		On exit  : 0/0
  4133 ;;		Unchanged: 0/0
  4134 ;; Data sizes:     COMRAM   BANK0   BANK1   BANK2   BANK3   BANK4   BANK5   BANK6   BANK7   BANK8   BANK9  BANK10  BANK1
      +1  BANK12  BANK13  BANK14  BANK15  BANK16  BANK17  BANK18  BANK19  BANK20  BANK21  BANK22  BANK23  BANK24  BANK25  BANK2
      +6  BANK27  BANK28  BANK29  BANK30  BANK31
  4135 ;;      Params:         0       0       0       0       0       0       0       0       0       0       0       0       
      +0       0       0       0       0       0       0       0       0       0       0       0       0       0       0       
      +0       0       0       0       0       0
  4136 ;;      Locals:         0       0       0       0       0       0       0       0       0       0       0       0       
      +0       0       0       0       0       0       0       0       0       0       0       0       0       0       0       
      +0       0       0       0       0       0
  4137 ;;      Temps:          0       0       0       0       0       0       0       0       0       0       0       0       
      +0       0       0       0       0       0       0       0       0       0       0       0       0       0       0       
      +0       0       0       0       0       0
  4138 ;;      Totals:         0       0       0       0       0       0       0       0       0       0       0       0       
      +0       0       0       0       0       0       0       0       0       0       0       0       0       0       0       
      +0       0       0       0       0       0
  4139 ;;Total ram usage:        0 bytes
  4140 ;; Hardware stack levels used:    1
  4141 ;; Hardware stack levels required when called:    1
  4142 ;; This function calls:
  4143 ;;		Absolute function
  4144 ;;		_TMR5_DefaultInterruptHandler
  4145 ;; This function is called by:
  4146 ;;		_TMR5_ISR
  4147 ;; This function uses a non-reentrant model
  4148 ;;
  4149                           
  4150                           	psect	text49
  4151  00078C                     __ptext49:
  4152                           	opt callstack 0
  4153  00078C                     _TMR5_CallBack:
  4154                           	opt callstack 25
  4155                           
  4156                           ;mcc_generated_files/tmr5.c: 188:     if(TMR5_InterruptHandler)
  4157                           
  4158                           ;incstack = 0
  4159  00078C  5019               	movf	_TMR5_InterruptHandler,w,c
  4160  00078E  101A               	iorwf	_TMR5_InterruptHandler+1,w,c
  4161  000790  101B               	iorwf	_TMR5_InterruptHandler+2,w,c
  4162  000792  B4D8               	btfsc	status,2,c
  4163  000794  0012               	return	
  4164                           
  4165                           ;mcc_generated_files/tmr5.c: 189:     {;mcc_generated_files/tmr5.c: 190:         TMR5_In
      +                          terruptHandler();
  4166  000796  D801               	call	i2u35_48
  4167  000798  0012               	return	
  4168  00079A                     i2u35_48:
  4169  00079A  0005               	push	
  4170  00079C  6EFA               	movwf	pclath,c
  4171  00079E  5019               	movf	_TMR5_InterruptHandler,w,c
  4172  0007A0  6EFD               	movwf	tosl,c
  4173  0007A2  501A               	movf	_TMR5_InterruptHandler+1,w,c
  4174  0007A4  6EFE               	movwf	tosh,c
  4175  0007A6  501B               	movf	_TMR5_InterruptHandler+2,w,c
  4176  0007A8  6EFF               	movwf	tosu,c
  4177  0007AA  50FA               	movf	pclath,w,c
  4178  0007AC  0012               	return		;indir
  4179  0007AE                     __end_of_TMR5_CallBack:
  4180                           	opt callstack 0
  4181                           
  4182 ;; *************** function _TMR5_DefaultInterruptHandler *****************
  4183 ;; Defined at:
  4184 ;;		line 198 in file "mcc_generated_files/tmr5.c"
  4185 ;; Parameters:    Size  Location     Type
  4186 ;;		None
  4187 ;; Auto vars:     Size  Location     Type
  4188 ;;		None
  4189 ;; Return value:  Size  Location     Type
  4190 ;;                  1    wreg      void 
  4191 ;; Registers used:
  4192 ;;		wreg, status,2, status,0
  4193 ;; Tracked objects:
  4194 ;;		On entry : 0/0
  4195 ;;		On exit  : 0/0
  4196 ;;		Unchanged: 0/0
  4197 ;; Data sizes:     COMRAM   BANK0   BANK1   BANK2   BANK3   BANK4   BANK5   BANK6   BANK7   BANK8   BANK9  BANK10  BANK1
      +1  BANK12  BANK13  BANK14  BANK15  BANK16  BANK17  BANK18  BANK19  BANK20  BANK21  BANK22  BANK23  BANK24  BANK25  BANK2
      +6  BANK27  BANK28  BANK29  BANK30  BANK31
  4198 ;;      Params:         0       0       0       0       0       0       0       0       0       0       0       0       
      +0       0       0       0       0       0       0       0       0       0       0       0       0       0       0       
      +0       0       0       0       0       0
  4199 ;;      Locals:         0       0       0       0       0       0       0       0       0       0       0       0       
      +0       0       0       0       0       0       0       0       0       0       0       0       0       0       0       
      +0       0       0       0       0       0
  4200 ;;      Temps:          1       0       0       0       0       0       0       0       0       0       0       0       
      +0       0       0       0       0       0       0       0       0       0       0       0       0       0       0       
      +0       0       0       0       0       0
  4201 ;;      Totals:         1       0       0       0       0       0       0       0       0       0       0       0       
      +0       0       0       0       0       0       0       0       0       0       0       0       0       0       0       
      +0       0       0       0       0       0
  4202 ;;Total ram usage:        1 bytes
  4203 ;; Hardware stack levels used:    1
  4204 ;; This function calls:
  4205 ;;		Nothing
  4206 ;; This function is called by:
  4207 ;;		_TMR5_Initialize
  4208 ;;		_TMR5_CallBack
  4209 ;; This function uses a non-reentrant model
  4210 ;;
  4211                           
  4212                           	psect	text50
  4213  000808                     __ptext50:
  4214                           	opt callstack 0
  4215  000808                     _TMR5_DefaultInterruptHandler:
  4216                           	opt callstack 25
  4217                           
  4218                           ;mcc_generated_files/tmr5.c: 201:   LATEbits.LATE0 = (uint8_t) ~LATEbits.LATE0;
  4219                           
  4220                           ;incstack = 0
  4221  000808  A0BE               	btfss	16318,0,c	;volatile
  4222  00080A  D002               	goto	i2u5_40
  4223  00080C  0E01               	movlw	1
  4224  00080E  D001               	goto	i2u5_46
  4225  000810                     i2u5_40:
  4226  000810  0E00               	movlw	0
  4227  000812                     i2u5_46:
  4228  000812  0AFF               	xorlw	255
  4229  000814  6E52               	movwf	??_TMR5_DefaultInterruptHandler& (0+255),c
  4230  000816  50BE               	movf	16318,w,c	;volatile
  4231  000818  1852               	xorwf	??_TMR5_DefaultInterruptHandler,w,c
  4232  00081A  0BFE               	andlw	-2
  4233  00081C  1852               	xorwf	??_TMR5_DefaultInterruptHandler,w,c
  4234  00081E  6EBE               	movwf	16318,c	;volatile
  4235  000820  0012               	return		;funcret
  4236  000822                     __end_of_TMR5_DefaultInterruptHandler:
  4237                           	opt callstack 0
  4238                           
  4239                           ;
  4240                           ; Interrupt Vector Table @ 0x8
  4241                           ;
  4242                           
  4243                           	psect	ivt0x8
  4244  000008                     __pivt0x8:
  4245                           	opt callstack 0
  4246  000008                     ivt0x8_base:
  4247                           	opt callstack 0
  4248                           
  4249                           ; Vector 0 : SWINT
  4250  000008  0250               	dw	_Default_ISR shr (0+2)
  4251                           
  4252                           ; Vector 1 : HLVD
  4253  00000A  0250               	dw	_Default_ISR shr (0+2)
  4254                           
  4255                           ; Vector 2 : OSF
  4256  00000C  0250               	dw	_Default_ISR shr (0+2)
  4257                           
  4258                           ; Vector 3 : CSW
  4259  00000E  0250               	dw	_Default_ISR shr (0+2)
  4260                           
  4261                           ; Vector 4 : NVM
  4262  000010  0250               	dw	_Default_ISR shr (0+2)
  4263                           
  4264                           ; Vector 5 : SCAN
  4265  000012  0250               	dw	_Default_ISR shr (0+2)
  4266                           
  4267                           ; Vector 6 : CRC
  4268  000014  0250               	dw	_Default_ISR shr (0+2)
  4269                           
  4270                           ; Vector 7 : IOC
  4271  000016  0250               	dw	_Default_ISR shr (0+2)
  4272                           
  4273                           ; Vector 8 : INT0
  4274  000018  0250               	dw	_Default_ISR shr (0+2)
  4275                           
  4276                           ; Vector 9 : ZCD
  4277  00001A  0250               	dw	_Default_ISR shr (0+2)
  4278                           
  4279                           ; Vector 10 : AD
  4280  00001C  0250               	dw	_Default_ISR shr (0+2)
  4281                           
  4282                           ; Vector 11 : ADT
  4283  00001E  0250               	dw	_Default_ISR shr (0+2)
  4284                           
  4285                           ; Vector 12 : CMP1
  4286  000020  0250               	dw	_Default_ISR shr (0+2)
  4287                           
  4288                           ; Vector 13 : SMT1
  4289  000022  0250               	dw	_Default_ISR shr (0+2)
  4290                           
  4291                           ; Vector 14 : SMT1PRA
  4292  000024  0250               	dw	_Default_ISR shr (0+2)
  4293                           
  4294                           ; Vector 15 : SMT1PRW
  4295  000026  0250               	dw	_Default_ISR shr (0+2)
  4296                           
  4297                           ; Vector 16 : DMA1SCNT
  4298  000028  0250               	dw	_Default_ISR shr (0+2)
  4299                           
  4300                           ; Vector 17 : DMA1DCNT
  4301  00002A  0250               	dw	_Default_ISR shr (0+2)
  4302                           
  4303                           ; Vector 18 : DMA1OR
  4304  00002C  0250               	dw	_Default_ISR shr (0+2)
  4305                           
  4306                           ; Vector 19 : DMA1A
  4307  00002E  0250               	dw	_Default_ISR shr (0+2)
  4308                           
  4309                           ; Vector 20 : SPI1RX
  4310  000030  0250               	dw	_Default_ISR shr (0+2)
  4311                           
  4312                           ; Vector 21 : SPI1TX
  4313  000032  0250               	dw	_Default_ISR shr (0+2)
  4314                           
  4315                           ; Vector 22 : SPI1
  4316  000034  0250               	dw	_Default_ISR shr (0+2)
  4317                           
  4318                           ; Vector 23 : I2C1RX
  4319  000036  0250               	dw	_Default_ISR shr (0+2)
  4320                           
  4321                           ; Vector 24 : I2C1TX
  4322  000038  0250               	dw	_Default_ISR shr (0+2)
  4323                           
  4324                           ; Vector 25 : I2C1
  4325  00003A  0250               	dw	_Default_ISR shr (0+2)
  4326                           
  4327                           ; Vector 26 : I2C1E
  4328  00003C  0250               	dw	_Default_ISR shr (0+2)
  4329                           
  4330                           ; Vector 27 : U1RX
  4331  00003E  01B8               	dw	_UART1_rx_vect_isr shr (0+2)
  4332                           
  4333                           ; Vector 28 : U1TX
  4334  000040  01AF               	dw	_UART1_tx_vect_isr shr (0+2)
  4335                           
  4336                           ; Vector 29 : U1E
  4337  000042  0250               	dw	_Default_ISR shr (0+2)
  4338                           
  4339                           ; Vector 30 : U1
  4340  000044  0250               	dw	_Default_ISR shr (0+2)
  4341                           
  4342                           ; Vector 31 : TMR0
  4343  000046  0250               	dw	_Default_ISR shr (0+2)
  4344                           
  4345                           ; Vector 32 : TMR1
  4346  000048  0250               	dw	_Default_ISR shr (0+2)
  4347                           
  4348                           ; Vector 33 : TMR1G
  4349  00004A  0250               	dw	_Default_ISR shr (0+2)
  4350                           
  4351                           ; Vector 34 : TMR2
  4352  00004C  0250               	dw	_Default_ISR shr (0+2)
  4353                           
  4354                           ; Vector 35 : CCP1
  4355  00004E  0250               	dw	_Default_ISR shr (0+2)
  4356                           
  4357                           ; Vector 36 : Undefined
  4358  000050  002B               	dw	ivt0x8_undefint shr (0+2)
  4359                           
  4360                           ; Vector 37 : NCO1
  4361  000052  0250               	dw	_Default_ISR shr (0+2)
  4362                           
  4363                           ; Vector 38 : CWG1
  4364  000054  0250               	dw	_Default_ISR shr (0+2)
  4365                           
  4366                           ; Vector 39 : CLC1
  4367  000056  0250               	dw	_Default_ISR shr (0+2)
  4368                           
  4369                           ; Vector 40 : INT1
  4370  000058  0250               	dw	_Default_ISR shr (0+2)
  4371                           
  4372                           ; Vector 41 : CMP2
  4373  00005A  0250               	dw	_Default_ISR shr (0+2)
  4374                           
  4375                           ; Vector 42 : DMA2SCNT
  4376  00005C  0250               	dw	_Default_ISR shr (0+2)
  4377                           
  4378                           ; Vector 43 : DMA2DCNT
  4379  00005E  0250               	dw	_Default_ISR shr (0+2)
  4380                           
  4381                           ; Vector 44 : DMA2OR
  4382  000060  0250               	dw	_Default_ISR shr (0+2)
  4383                           
  4384                           ; Vector 45 : DMA2A
  4385  000062  0250               	dw	_Default_ISR shr (0+2)
  4386                           
  4387                           ; Vector 46 : I2C2RX
  4388  000064  0250               	dw	_Default_ISR shr (0+2)
  4389                           
  4390                           ; Vector 47 : I2C2TX
  4391  000066  0250               	dw	_Default_ISR shr (0+2)
  4392                           
  4393                           ; Vector 48 : I2C2
  4394  000068  0250               	dw	_Default_ISR shr (0+2)
  4395                           
  4396                           ; Vector 49 : I2C2E
  4397  00006A  0250               	dw	_Default_ISR shr (0+2)
  4398                           
  4399                           ; Vector 50 : U2RX
  4400  00006C  01D2               	dw	_UART2_rx_vect_isr shr (0+2)
  4401                           
  4402                           ; Vector 51 : U2TX
  4403  00006E  01C9               	dw	_UART2_tx_vect_isr shr (0+2)
  4404                           
  4405                           ; Vector 52 : U2E
  4406  000070  0250               	dw	_Default_ISR shr (0+2)
  4407                           
  4408                           ; Vector 53 : U2
  4409  000072  0250               	dw	_Default_ISR shr (0+2)
  4410                           
  4411                           ; Vector 54 : TMR3
  4412  000074  0250               	dw	_Default_ISR shr (0+2)
  4413                           
  4414                           ; Vector 55 : TMR3G
  4415  000076  0250               	dw	_Default_ISR shr (0+2)
  4416                           
  4417                           ; Vector 56 : TMR4
  4418  000078  0250               	dw	_Default_ISR shr (0+2)
  4419                           
  4420                           ; Vector 57 : CCP2
  4421  00007A  0250               	dw	_Default_ISR shr (0+2)
  4422                           
  4423                           ; Vector 58 : Undefined
  4424  00007C  002B               	dw	ivt0x8_undefint shr (0+2)
  4425                           
  4426                           ; Vector 59 : CWG2
  4427  00007E  0250               	dw	_Default_ISR shr (0+2)
  4428                           
  4429                           ; Vector 60 : CLC2
  4430  000080  0250               	dw	_Default_ISR shr (0+2)
  4431                           
  4432                           ; Vector 61 : INT2
  4433  000082  0250               	dw	_Default_ISR shr (0+2)
  4434                           
  4435                           ; Vector 62 : Undefined
  4436  000084  002B               	dw	ivt0x8_undefint shr (0+2)
  4437                           
  4438                           ; Vector 63 : Undefined
  4439  000086  002B               	dw	ivt0x8_undefint shr (0+2)
  4440                           
  4441                           ; Vector 64 : Undefined
  4442  000088  002B               	dw	ivt0x8_undefint shr (0+2)
  4443                           
  4444                           ; Vector 65 : Undefined
  4445  00008A  002B               	dw	ivt0x8_undefint shr (0+2)
  4446                           
  4447                           ; Vector 66 : Undefined
  4448  00008C  002B               	dw	ivt0x8_undefint shr (0+2)
  4449                           
  4450                           ; Vector 67 : Undefined
  4451  00008E  002B               	dw	ivt0x8_undefint shr (0+2)
  4452                           
  4453                           ; Vector 68 : Undefined
  4454  000090  002B               	dw	ivt0x8_undefint shr (0+2)
  4455                           
  4456                           ; Vector 69 : Undefined
  4457  000092  002B               	dw	ivt0x8_undefint shr (0+2)
  4458                           
  4459                           ; Vector 70 : TMR5
  4460  000094  0158               	dw	_TMR5_ISR shr (0+2)
  4461                           
  4462                           ; Vector 71 : TMR5G
  4463  000096  0250               	dw	_Default_ISR shr (0+2)
  4464                           
  4465                           ; Vector 72 : TMR6
  4466  000098  019C               	dw	_TMR6_ISR shr (0+2)
  4467                           
  4468                           ; Vector 73 : CCP3
  4469  00009A  0250               	dw	_Default_ISR shr (0+2)
  4470                           
  4471                           ; Vector 74 : CWG3
  4472  00009C  0250               	dw	_Default_ISR shr (0+2)
  4473                           
  4474                           ; Vector 75 : CLC3
  4475  00009E  0250               	dw	_Default_ISR shr (0+2)
  4476                           
  4477                           ; Vector 76 : Undefined
  4478  0000A0  002B               	dw	ivt0x8_undefint shr (0+2)
  4479                           
  4480                           ; Vector 77 : Undefined
  4481  0000A2  002B               	dw	ivt0x8_undefint shr (0+2)
  4482                           
  4483                           ; Vector 78 : Undefined
  4484  0000A4  002B               	dw	ivt0x8_undefint shr (0+2)
  4485                           
  4486                           ; Vector 79 : Undefined
  4487  0000A6  002B               	dw	ivt0x8_undefint shr (0+2)
  4488                           
  4489                           ; Vector 80 : CCP4
  4490  0000A8  0250               	dw	_Default_ISR shr (0+2)
  4491                           
  4492                           ; Vector 81 : CLC4
  4493  0000AA  0250               	dw	_Default_ISR shr (0+2)
  4494  0000AC                     ivt0x8_undefint:
  4495                           	opt callstack 0
  4496  0000AC  00FF               	reset	
  4497  0000                     
  4498                           	psect	text51
  4499  000000                     __ptext51:
  4500                           	opt callstack 0
  4501                           
  4502                           	psect	rparam
  4503  0000                     tosu	equ	0x3FFF
  4504                           tosh	equ	0x3FFE
  4505                           tosl	equ	0x3FFD
  4506                           stkptr	equ	0x3FFC
  4507                           pclatu	equ	0x3FFB
  4508                           pclath	equ	0x3FFA
  4509                           pcl	equ	0x3FF9
  4510                           tblptru	equ	0x3FF8
  4511                           tblptrh	equ	0x3FF7
  4512                           tblptrl	equ	0x3FF6
  4513                           tablat	equ	0x3FF5
  4514                           prodh	equ	0x3FF4
  4515                           prodl	equ	0x3FF3
  4516                           indf0	equ	0x3FEF
  4517                           postinc0	equ	0x3FEE
  4518                           postdec0	equ	0x3FED
  4519                           preinc0	equ	0x3FEC
  4520                           plusw0	equ	0x3FEB
  4521                           fsr0h	equ	0x3FEA
  4522                           fsr0l	equ	0x3FE9
  4523                           wreg	equ	0x3FE8
  4524                           indf1	equ	0x3FE7
  4525                           postinc1	equ	0x3FE6
  4526                           postdec1	equ	0x3FE5
  4527                           preinc1	equ	0x3FE4
  4528                           plusw1	equ	0x3FE3
  4529                           fsr1h	equ	0x3FE2
  4530                           fsr1l	equ	0x3FE1
  4531                           bsr	equ	0x3FE0
  4532                           indf2	equ	0x3FDF
  4533                           postinc2	equ	0x3FDE
  4534                           postdec2	equ	0x3FDD
  4535                           preinc2	equ	0x3FDC
  4536                           plusw2	equ	0x3FDB
  4537                           fsr2h	equ	0x3FDA
  4538                           fsr2l	equ	0x3FD9
  4539                           status	equ	0x3FD8


Data Sizes:
    Strings     0
    Constant    0
    Data        0
    BSS         128
    Persistent  0
    Stack       0

Auto Spaces:
    Space          Size  Autos    Used
    COMRAM           95     12      90
    BANK0           160      0      50
    BANK1           256      0       0
    BANK2           256      0       0
    BANK3           256      0       0
    BANK4           256      0       0
    BANK5           256      0       0
    BANK6           256      0       0
    BANK7           256      0       0
    BANK8           256      0       0
    BANK9           256      0       0
    BANK10          256      0       0
    BANK11          256      0       0
    BANK12          256      0       0
    BANK13          256      0       0
    BANK14          256      0       0
    BANK15          256      0       0
    BANK16          256      0       0
    BANK17          256      0       0
    BANK18          256      0       0
    BANK19          256      0       0
    BANK20          256      0       0
    BANK21          256      0       0
    BANK22          256      0       0
    BANK23          256      0       0
    BANK24          256      0       0
    BANK25          256      0       0
    BANK26          256      0       0
    BANK27          256      0       0
    BANK28          256      0       0
    BANK29          256      0       0
    BANK30          256      0       0
    BANK31          256      0       0

Pointer List with Targets:

    TMR5_SetInterruptHandler@InterruptHandler	PTR FTN()void  size(3) Largest target is 1
		 -> TMR5_DefaultInterruptHandler(), 

    TMR5_InterruptHandler	PTR FTN()void  size(3) Largest target is 1
		 -> TMR5_DefaultInterruptHandler(), Absolute function(), 

    TMR6_SetInterruptHandler@InterruptHandler	PTR FTN()void  size(3) Largest target is 1
		 -> TMR6_DefaultInterruptHandler(), 

    TMR6_InterruptHandler	PTR FTN()void  size(3) Largest target is 1
		 -> TMR6_DefaultInterruptHandler(), Absolute function(), 

    UART2_SetTxInterruptHandler@InterruptHandler	PTR FTN()void  size(3) Largest target is 1
		 -> UART2_Transmit_ISR(), 

    UART2_SetRxInterruptHandler@InterruptHandler	PTR FTN()void  size(3) Largest target is 1
		 -> UART2_Receive_ISR(), 

    UART2_SetErrorHandler@interruptHandler	PTR FTN()void  size(3) Largest target is 1
		 -> UART2_DefaultErrorHandler(), 

    UART2_SetOverrunErrorHandler@interruptHandler	PTR FTN()void  size(3) Largest target is 1
		 -> UART2_DefaultOverrunErrorHandler(), 

    UART2_SetFramingErrorHandler@interruptHandler	PTR FTN()void  size(3) Largest target is 1
		 -> UART2_DefaultFramingErrorHandler(), 

    UART2_ErrorHandler	PTR FTN()void  size(3) Largest target is 1
		 -> UART2_DefaultErrorHandler(), Absolute function(), 

    UART2_OverrunErrorHandler	PTR FTN()void  size(3) Largest target is 1
		 -> UART2_DefaultOverrunErrorHandler(), Absolute function(), 

    UART2_FramingErrorHandler	PTR FTN()void  size(3) Largest target is 1
		 -> UART2_DefaultFramingErrorHandler(), Absolute function(), 

    UART2_RxInterruptHandler	PTR FTN()void  size(3) Largest target is 1
		 -> UART2_Receive_ISR(), Absolute function(), 

    UART2_TxInterruptHandler	PTR FTN()void  size(3) Largest target is 1
		 -> UART2_Transmit_ISR(), Absolute function(), 

    UART1_SetTxInterruptHandler@InterruptHandler	PTR FTN()void  size(3) Largest target is 1
		 -> UART1_Transmit_ISR(), 

    UART1_SetRxInterruptHandler@InterruptHandler	PTR FTN()void  size(3) Largest target is 1
		 -> UART1_Receive_ISR(), 

    UART1_SetErrorHandler@interruptHandler	PTR FTN()void  size(3) Largest target is 1
		 -> UART1_DefaultErrorHandler(), 

    UART1_SetOverrunErrorHandler@interruptHandler	PTR FTN()void  size(3) Largest target is 1
		 -> UART1_DefaultOverrunErrorHandler(), 

    UART1_SetFramingErrorHandler@interruptHandler	PTR FTN()void  size(3) Largest target is 1
		 -> UART1_DefaultFramingErrorHandler(), 

    UART1_ErrorHandler	PTR FTN()void  size(3) Largest target is 1
		 -> Absolute function(), UART1_DefaultErrorHandler(), 

    UART1_OverrunErrorHandler	PTR FTN()void  size(3) Largest target is 1
		 -> Absolute function(), UART1_DefaultOverrunErrorHandler(), 

    UART1_FramingErrorHandler	PTR FTN()void  size(3) Largest target is 1
		 -> Absolute function(), UART1_DefaultFramingErrorHandler(), 

    UART1_RxInterruptHandler	PTR FTN()void  size(3) Largest target is 1
		 -> Absolute function(), UART1_Receive_ISR(), 

    UART1_TxInterruptHandler	PTR FTN()void  size(3) Largest target is 1
		 -> Absolute function(), UART1_Transmit_ISR(), 


Critical Paths under _main in COMRAM

    _SYSTEM_Initialize->_TMR5_Initialize
    _UART2_Initialize->_UART2_SetErrorHandler
    _UART2_Initialize->_UART2_SetFramingErrorHandler
    _UART2_Initialize->_UART2_SetOverrunErrorHandler
    _UART2_Initialize->_UART2_SetRxInterruptHandler
    _UART2_Initialize->_UART2_SetTxInterruptHandler
    _UART1_Initialize->_UART1_SetErrorHandler
    _UART1_Initialize->_UART1_SetFramingErrorHandler
    _UART1_Initialize->_UART1_SetOverrunErrorHandler
    _UART1_Initialize->_UART1_SetRxInterruptHandler
    _UART1_Initialize->_UART1_SetTxInterruptHandler
    _TMR6_Initialize->_TMR6_SetInterruptHandler
    _TMR5_Initialize->_TMR5_SetInterruptHandler

Critical Paths under _Default_ISR in COMRAM

    None.

Critical Paths under _UART1_tx_vect_isr in COMRAM

    None.

Critical Paths under _UART1_rx_vect_isr in COMRAM

    None.

Critical Paths under _UART2_tx_vect_isr in COMRAM

    None.

Critical Paths under _UART2_rx_vect_isr in COMRAM

    None.

Critical Paths under _TMR6_ISR in COMRAM

    _TMR6_ISR->_TMR6_DefaultInterruptHandler

Critical Paths under _TMR5_ISR in COMRAM

    _TMR5_ISR->_TMR5_WriteTimer
    _TMR5_CallBack->_TMR5_DefaultInterruptHandler

Critical Paths under _main in BANK0

    None.

Critical Paths under _Default_ISR in BANK0

    None.

Critical Paths under _UART1_tx_vect_isr in BANK0

    None.

Critical Paths under _UART1_rx_vect_isr in BANK0

    None.

Critical Paths under _UART2_tx_vect_isr in BANK0

    None.

Critical Paths under _UART2_rx_vect_isr in BANK0

    None.

Critical Paths under _TMR6_ISR in BANK0

    None.

Critical Paths under _TMR5_ISR in BANK0

    None.

Critical Paths under _main in BANK1

    None.

Critical Paths under _Default_ISR in BANK1

    None.

Critical Paths under _UART1_tx_vect_isr in BANK1

    None.

Critical Paths under _UART1_rx_vect_isr in BANK1

    None.

Critical Paths under _UART2_tx_vect_isr in BANK1

    None.

Critical Paths under _UART2_rx_vect_isr in BANK1

    None.

Critical Paths under _TMR6_ISR in BANK1

    None.

Critical Paths under _TMR5_ISR in BANK1

    None.

Critical Paths under _main in BANK2

    None.

Critical Paths under _Default_ISR in BANK2

    None.

Critical Paths under _UART1_tx_vect_isr in BANK2

    None.

Critical Paths under _UART1_rx_vect_isr in BANK2

    None.

Critical Paths under _UART2_tx_vect_isr in BANK2

    None.

Critical Paths under _UART2_rx_vect_isr in BANK2

    None.

Critical Paths under _TMR6_ISR in BANK2

    None.

Critical Paths under _TMR5_ISR in BANK2

    None.

Critical Paths under _main in BANK3

    None.

Critical Paths under _Default_ISR in BANK3

    None.

Critical Paths under _UART1_tx_vect_isr in BANK3

    None.

Critical Paths under _UART1_rx_vect_isr in BANK3

    None.

Critical Paths under _UART2_tx_vect_isr in BANK3

    None.

Critical Paths under _UART2_rx_vect_isr in BANK3

    None.

Critical Paths under _TMR6_ISR in BANK3

    None.

Critical Paths under _TMR5_ISR in BANK3

    None.

Critical Paths under _main in BANK4

    None.

Critical Paths under _Default_ISR in BANK4

    None.

Critical Paths under _UART1_tx_vect_isr in BANK4

    None.

Critical Paths under _UART1_rx_vect_isr in BANK4

    None.

Critical Paths under _UART2_tx_vect_isr in BANK4

    None.

Critical Paths under _UART2_rx_vect_isr in BANK4

    None.

Critical Paths under _TMR6_ISR in BANK4

    None.

Critical Paths under _TMR5_ISR in BANK4

    None.

Critical Paths under _main in BANK5

    None.

Critical Paths under _Default_ISR in BANK5

    None.

Critical Paths under _UART1_tx_vect_isr in BANK5

    None.

Critical Paths under _UART1_rx_vect_isr in BANK5

    None.

Critical Paths under _UART2_tx_vect_isr in BANK5

    None.

Critical Paths under _UART2_rx_vect_isr in BANK5

    None.

Critical Paths under _TMR6_ISR in BANK5

    None.

Critical Paths under _TMR5_ISR in BANK5

    None.

Critical Paths under _main in BANK6

    None.

Critical Paths under _Default_ISR in BANK6

    None.

Critical Paths under _UART1_tx_vect_isr in BANK6

    None.

Critical Paths under _UART1_rx_vect_isr in BANK6

    None.

Critical Paths under _UART2_tx_vect_isr in BANK6

    None.

Critical Paths under _UART2_rx_vect_isr in BANK6

    None.

Critical Paths under _TMR6_ISR in BANK6

    None.

Critical Paths under _TMR5_ISR in BANK6

    None.

Critical Paths under _main in BANK7

    None.

Critical Paths under _Default_ISR in BANK7

    None.

Critical Paths under _UART1_tx_vect_isr in BANK7

    None.

Critical Paths under _UART1_rx_vect_isr in BANK7

    None.

Critical Paths under _UART2_tx_vect_isr in BANK7

    None.

Critical Paths under _UART2_rx_vect_isr in BANK7

    None.

Critical Paths under _TMR6_ISR in BANK7

    None.

Critical Paths under _TMR5_ISR in BANK7

    None.

Critical Paths under _main in BANK8

    None.

Critical Paths under _Default_ISR in BANK8

    None.

Critical Paths under _UART1_tx_vect_isr in BANK8

    None.

Critical Paths under _UART1_rx_vect_isr in BANK8

    None.

Critical Paths under _UART2_tx_vect_isr in BANK8

    None.

Critical Paths under _UART2_rx_vect_isr in BANK8

    None.

Critical Paths under _TMR6_ISR in BANK8

    None.

Critical Paths under _TMR5_ISR in BANK8

    None.

Critical Paths under _main in BANK9

    None.

Critical Paths under _Default_ISR in BANK9

    None.

Critical Paths under _UART1_tx_vect_isr in BANK9

    None.

Critical Paths under _UART1_rx_vect_isr in BANK9

    None.

Critical Paths under _UART2_tx_vect_isr in BANK9

    None.

Critical Paths under _UART2_rx_vect_isr in BANK9

    None.

Critical Paths under _TMR6_ISR in BANK9

    None.

Critical Paths under _TMR5_ISR in BANK9

    None.

Critical Paths under _main in BANK10

    None.

Critical Paths under _Default_ISR in BANK10

    None.

Critical Paths under _UART1_tx_vect_isr in BANK10

    None.

Critical Paths under _UART1_rx_vect_isr in BANK10

    None.

Critical Paths under _UART2_tx_vect_isr in BANK10

    None.

Critical Paths under _UART2_rx_vect_isr in BANK10

    None.

Critical Paths under _TMR6_ISR in BANK10

    None.

Critical Paths under _TMR5_ISR in BANK10

    None.

Critical Paths under _main in BANK11

    None.

Critical Paths under _Default_ISR in BANK11

    None.

Critical Paths under _UART1_tx_vect_isr in BANK11

    None.

Critical Paths under _UART1_rx_vect_isr in BANK11

    None.

Critical Paths under _UART2_tx_vect_isr in BANK11

    None.

Critical Paths under _UART2_rx_vect_isr in BANK11

    None.

Critical Paths under _TMR6_ISR in BANK11

    None.

Critical Paths under _TMR5_ISR in BANK11

    None.

Critical Paths under _main in BANK12

    None.

Critical Paths under _Default_ISR in BANK12

    None.

Critical Paths under _UART1_tx_vect_isr in BANK12

    None.

Critical Paths under _UART1_rx_vect_isr in BANK12

    None.

Critical Paths under _UART2_tx_vect_isr in BANK12

    None.

Critical Paths under _UART2_rx_vect_isr in BANK12

    None.

Critical Paths under _TMR6_ISR in BANK12

    None.

Critical Paths under _TMR5_ISR in BANK12

    None.

Critical Paths under _main in BANK13

    None.

Critical Paths under _Default_ISR in BANK13

    None.

Critical Paths under _UART1_tx_vect_isr in BANK13

    None.

Critical Paths under _UART1_rx_vect_isr in BANK13

    None.

Critical Paths under _UART2_tx_vect_isr in BANK13

    None.

Critical Paths under _UART2_rx_vect_isr in BANK13

    None.

Critical Paths under _TMR6_ISR in BANK13

    None.

Critical Paths under _TMR5_ISR in BANK13

    None.

Critical Paths under _main in BANK14

    None.

Critical Paths under _Default_ISR in BANK14

    None.

Critical Paths under _UART1_tx_vect_isr in BANK14

    None.

Critical Paths under _UART1_rx_vect_isr in BANK14

    None.

Critical Paths under _UART2_tx_vect_isr in BANK14

    None.

Critical Paths under _UART2_rx_vect_isr in BANK14

    None.

Critical Paths under _TMR6_ISR in BANK14

    None.

Critical Paths under _TMR5_ISR in BANK14

    None.

Critical Paths under _main in BANK15

    None.

Critical Paths under _Default_ISR in BANK15

    None.

Critical Paths under _UART1_tx_vect_isr in BANK15

    None.

Critical Paths under _UART1_rx_vect_isr in BANK15

    None.

Critical Paths under _UART2_tx_vect_isr in BANK15

    None.

Critical Paths under _UART2_rx_vect_isr in BANK15

    None.

Critical Paths under _TMR6_ISR in BANK15

    None.

Critical Paths under _TMR5_ISR in BANK15

    None.

Critical Paths under _main in BANK16

    None.

Critical Paths under _Default_ISR in BANK16

    None.

Critical Paths under _UART1_tx_vect_isr in BANK16

    None.

Critical Paths under _UART1_rx_vect_isr in BANK16

    None.

Critical Paths under _UART2_tx_vect_isr in BANK16

    None.

Critical Paths under _UART2_rx_vect_isr in BANK16

    None.

Critical Paths under _TMR6_ISR in BANK16

    None.

Critical Paths under _TMR5_ISR in BANK16

    None.

Critical Paths under _main in BANK17

    None.

Critical Paths under _Default_ISR in BANK17

    None.

Critical Paths under _UART1_tx_vect_isr in BANK17

    None.

Critical Paths under _UART1_rx_vect_isr in BANK17

    None.

Critical Paths under _UART2_tx_vect_isr in BANK17

    None.

Critical Paths under _UART2_rx_vect_isr in BANK17

    None.

Critical Paths under _TMR6_ISR in BANK17

    None.

Critical Paths under _TMR5_ISR in BANK17

    None.

Critical Paths under _main in BANK18

    None.

Critical Paths under _Default_ISR in BANK18

    None.

Critical Paths under _UART1_tx_vect_isr in BANK18

    None.

Critical Paths under _UART1_rx_vect_isr in BANK18

    None.

Critical Paths under _UART2_tx_vect_isr in BANK18

    None.

Critical Paths under _UART2_rx_vect_isr in BANK18

    None.

Critical Paths under _TMR6_ISR in BANK18

    None.

Critical Paths under _TMR5_ISR in BANK18

    None.

Critical Paths under _main in BANK19

    None.

Critical Paths under _Default_ISR in BANK19

    None.

Critical Paths under _UART1_tx_vect_isr in BANK19

    None.

Critical Paths under _UART1_rx_vect_isr in BANK19

    None.

Critical Paths under _UART2_tx_vect_isr in BANK19

    None.

Critical Paths under _UART2_rx_vect_isr in BANK19

    None.

Critical Paths under _TMR6_ISR in BANK19

    None.

Critical Paths under _TMR5_ISR in BANK19

    None.

Critical Paths under _main in BANK20

    None.

Critical Paths under _Default_ISR in BANK20

    None.

Critical Paths under _UART1_tx_vect_isr in BANK20

    None.

Critical Paths under _UART1_rx_vect_isr in BANK20

    None.

Critical Paths under _UART2_tx_vect_isr in BANK20

    None.

Critical Paths under _UART2_rx_vect_isr in BANK20

    None.

Critical Paths under _TMR6_ISR in BANK20

    None.

Critical Paths under _TMR5_ISR in BANK20

    None.

Critical Paths under _main in BANK21

    None.

Critical Paths under _Default_ISR in BANK21

    None.

Critical Paths under _UART1_tx_vect_isr in BANK21

    None.

Critical Paths under _UART1_rx_vect_isr in BANK21

    None.

Critical Paths under _UART2_tx_vect_isr in BANK21

    None.

Critical Paths under _UART2_rx_vect_isr in BANK21

    None.

Critical Paths under _TMR6_ISR in BANK21

    None.

Critical Paths under _TMR5_ISR in BANK21

    None.

Critical Paths under _main in BANK22

    None.

Critical Paths under _Default_ISR in BANK22

    None.

Critical Paths under _UART1_tx_vect_isr in BANK22

    None.

Critical Paths under _UART1_rx_vect_isr in BANK22

    None.

Critical Paths under _UART2_tx_vect_isr in BANK22

    None.

Critical Paths under _UART2_rx_vect_isr in BANK22

    None.

Critical Paths under _TMR6_ISR in BANK22

    None.

Critical Paths under _TMR5_ISR in BANK22

    None.

Critical Paths under _main in BANK23

    None.

Critical Paths under _Default_ISR in BANK23

    None.

Critical Paths under _UART1_tx_vect_isr in BANK23

    None.

Critical Paths under _UART1_rx_vect_isr in BANK23

    None.

Critical Paths under _UART2_tx_vect_isr in BANK23

    None.

Critical Paths under _UART2_rx_vect_isr in BANK23

    None.

Critical Paths under _TMR6_ISR in BANK23

    None.

Critical Paths under _TMR5_ISR in BANK23

    None.

Critical Paths under _main in BANK24

    None.

Critical Paths under _Default_ISR in BANK24

    None.

Critical Paths under _UART1_tx_vect_isr in BANK24

    None.

Critical Paths under _UART1_rx_vect_isr in BANK24

    None.

Critical Paths under _UART2_tx_vect_isr in BANK24

    None.

Critical Paths under _UART2_rx_vect_isr in BANK24

    None.

Critical Paths under _TMR6_ISR in BANK24

    None.

Critical Paths under _TMR5_ISR in BANK24

    None.

Critical Paths under _main in BANK25

    None.

Critical Paths under _Default_ISR in BANK25

    None.

Critical Paths under _UART1_tx_vect_isr in BANK25

    None.

Critical Paths under _UART1_rx_vect_isr in BANK25

    None.

Critical Paths under _UART2_tx_vect_isr in BANK25

    None.

Critical Paths under _UART2_rx_vect_isr in BANK25

    None.

Critical Paths under _TMR6_ISR in BANK25

    None.

Critical Paths under _TMR5_ISR in BANK25

    None.

Critical Paths under _main in BANK26

    None.

Critical Paths under _Default_ISR in BANK26

    None.

Critical Paths under _UART1_tx_vect_isr in BANK26

    None.

Critical Paths under _UART1_rx_vect_isr in BANK26

    None.

Critical Paths under _UART2_tx_vect_isr in BANK26

    None.

Critical Paths under _UART2_rx_vect_isr in BANK26

    None.

Critical Paths under _TMR6_ISR in BANK26

    None.

Critical Paths under _TMR5_ISR in BANK26

    None.

Critical Paths under _main in BANK27

    None.

Critical Paths under _Default_ISR in BANK27

    None.

Critical Paths under _UART1_tx_vect_isr in BANK27

    None.

Critical Paths under _UART1_rx_vect_isr in BANK27

    None.

Critical Paths under _UART2_tx_vect_isr in BANK27

    None.

Critical Paths under _UART2_rx_vect_isr in BANK27

    None.

Critical Paths under _TMR6_ISR in BANK27

    None.

Critical Paths under _TMR5_ISR in BANK27

    None.

Critical Paths under _main in BANK28

    None.

Critical Paths under _Default_ISR in BANK28

    None.

Critical Paths under _UART1_tx_vect_isr in BANK28

    None.

Critical Paths under _UART1_rx_vect_isr in BANK28

    None.

Critical Paths under _UART2_tx_vect_isr in BANK28

    None.

Critical Paths under _UART2_rx_vect_isr in BANK28

    None.

Critical Paths under _TMR6_ISR in BANK28

    None.

Critical Paths under _TMR5_ISR in BANK28

    None.

Critical Paths under _main in BANK29

    None.

Critical Paths under _Default_ISR in BANK29

    None.

Critical Paths under _UART1_tx_vect_isr in BANK29

    None.

Critical Paths under _UART1_rx_vect_isr in BANK29

    None.

Critical Paths under _UART2_tx_vect_isr in BANK29

    None.

Critical Paths under _UART2_rx_vect_isr in BANK29

    None.

Critical Paths under _TMR6_ISR in BANK29

    None.

Critical Paths under _TMR5_ISR in BANK29

    None.

Critical Paths under _main in BANK30

    None.

Critical Paths under _Default_ISR in BANK30

    None.

Critical Paths under _UART1_tx_vect_isr in BANK30

    None.

Critical Paths under _UART1_rx_vect_isr in BANK30

    None.

Critical Paths under _UART2_tx_vect_isr in BANK30

    None.

Critical Paths under _UART2_rx_vect_isr in BANK30

    None.

Critical Paths under _TMR6_ISR in BANK30

    None.

Critical Paths under _TMR5_ISR in BANK30

    None.

Critical Paths under _main in BANK31

    None.

Critical Paths under _Default_ISR in BANK31

    None.

Critical Paths under _UART1_tx_vect_isr in BANK31

    None.

Critical Paths under _UART1_rx_vect_isr in BANK31

    None.

Critical Paths under _UART2_tx_vect_isr in BANK31

    None.

Critical Paths under _UART2_rx_vect_isr in BANK31

    None.

Critical Paths under _TMR6_ISR in BANK31

    None.

Critical Paths under _TMR5_ISR in BANK31

    None.

Call Graph Tables:

 ---------------------------------------------------------------------------------
 (Depth) Function   	        Calls       Base Space   Used Autos Params    Refs
 ---------------------------------------------------------------------------------
 (0) _main                                                 2     2      0    1313
                                             10 COMRAM     2     2      0
                  _SYSTEM_Initialize
                        _UART1_Write
                  _UART1_is_tx_ready
                        _UART2_Write
                  _UART2_is_tx_ready
 ---------------------------------------------------------------------------------
 (1) _UART2_is_tx_ready                                    0     0      0       0
 ---------------------------------------------------------------------------------
 (1) _UART2_Write                                          1     1      0      44
                                              5 COMRAM     1     1      0
 ---------------------------------------------------------------------------------
 (1) _UART1_is_tx_ready                                    0     0      0       0
 ---------------------------------------------------------------------------------
 (1) _UART1_Write                                          1     1      0      30
                                              5 COMRAM     1     1      0
 ---------------------------------------------------------------------------------
 (1) _SYSTEM_Initialize                                    0     0      0    1191
               _INTERRUPT_Initialize
              _OSCILLATOR_Initialize
             _PIN_MANAGER_Initialize
                     _PMD_Initialize
                    _PWM8_Initialize
                    _TMR2_Initialize
                    _TMR5_Initialize
                    _TMR6_Initialize
                   _UART1_Initialize
                   _UART2_Initialize
 ---------------------------------------------------------------------------------
 (2) _UART2_Initialize                                     0     0      0     490
              _UART2_SetErrorHandler
       _UART2_SetFramingErrorHandler
       _UART2_SetOverrunErrorHandler
        _UART2_SetRxInterruptHandler
        _UART2_SetTxInterruptHandler
 ---------------------------------------------------------------------------------
 (3) _UART2_SetTxInterruptHandler                          3     0      3      98
                                              5 COMRAM     3     0      3
 ---------------------------------------------------------------------------------
 (3) _UART2_SetRxInterruptHandler                          3     0      3      98
                                              5 COMRAM     3     0      3
 ---------------------------------------------------------------------------------
 (3) _UART2_SetOverrunErrorHandler                         3     0      3      98
                                              5 COMRAM     3     0      3
 ---------------------------------------------------------------------------------
 (3) _UART2_SetFramingErrorHandler                         3     0      3      98
                                              5 COMRAM     3     0      3
 ---------------------------------------------------------------------------------
 (3) _UART2_SetErrorHandler                                3     0      3      98
                                              5 COMRAM     3     0      3
 ---------------------------------------------------------------------------------
 (2) _UART1_Initialize                                     0     0      0     490
              _UART1_SetErrorHandler
       _UART1_SetFramingErrorHandler
       _UART1_SetOverrunErrorHandler
        _UART1_SetRxInterruptHandler
        _UART1_SetTxInterruptHandler
 ---------------------------------------------------------------------------------
 (3) _UART1_SetTxInterruptHandler                          3     0      3      98
                                              5 COMRAM     3     0      3
 ---------------------------------------------------------------------------------
 (3) _UART1_SetRxInterruptHandler                          3     0      3      98
                                              5 COMRAM     3     0      3
 ---------------------------------------------------------------------------------
 (3) _UART1_SetOverrunErrorHandler                         3     0      3      98
                                              5 COMRAM     3     0      3
 ---------------------------------------------------------------------------------
 (3) _UART1_SetFramingErrorHandler                         3     0      3      98
                                              5 COMRAM     3     0      3
 ---------------------------------------------------------------------------------
 (3) _UART1_SetErrorHandler                                3     0      3      98
                                              5 COMRAM     3     0      3
 ---------------------------------------------------------------------------------
 (2) _TMR6_Initialize                                      0     0      0      98
           _TMR6_SetInterruptHandler
 ---------------------------------------------------------------------------------
 (3) _TMR6_SetInterruptHandler                             3     0      3      98
                                              5 COMRAM     3     0      3
 ---------------------------------------------------------------------------------
 (2) _TMR5_Initialize                                      2     2      0      98
                                              8 COMRAM     2     2      0
           _TMR5_SetInterruptHandler
 ---------------------------------------------------------------------------------
 (3) _TMR5_SetInterruptHandler                             3     0      3      98
                                              5 COMRAM     3     0      3
 ---------------------------------------------------------------------------------
 (2) _TMR2_Initialize                                      0     0      0       0
 ---------------------------------------------------------------------------------
 (2) _PWM8_Initialize                                      0     0      0       0
 ---------------------------------------------------------------------------------
 (2) _PMD_Initialize                                       0     0      0       0
 ---------------------------------------------------------------------------------
 (2) _PIN_MANAGER_Initialize                               0     0      0       0
 ---------------------------------------------------------------------------------
 (2) _OSCILLATOR_Initialize                                0     0      0       0
 ---------------------------------------------------------------------------------
 (2) _INTERRUPT_Initialize                                 1     1      0      15
                                              5 COMRAM     1     1      0
 ---------------------------------------------------------------------------------
 Estimated maximum stack depth 3
 ---------------------------------------------------------------------------------
 (Depth) Function   	        Calls       Base Space   Used Autos Params    Refs
 ---------------------------------------------------------------------------------
 (4) _Default_ISR                                          0     0      0       0
 ---------------------------------------------------------------------------------
 Estimated maximum stack depth 4
 ---------------------------------------------------------------------------------
 (Depth) Function   	        Calls       Base Space   Used Autos Params    Refs
 ---------------------------------------------------------------------------------
 (4) _UART1_tx_vect_isr                                    0     0      0       0
                   Absolute function *
                 _UART1_Transmit_ISR *
 ---------------------------------------------------------------------------------
 (5) _UART1_Transmit_ISR                                   0     0      0       0
 ---------------------------------------------------------------------------------
 (6) Absolute function(Fake)                               0     0      0       0
 ---------------------------------------------------------------------------------
 Estimated maximum stack depth 6
 ---------------------------------------------------------------------------------
 (Depth) Function   	        Calls       Base Space   Used Autos Params    Refs
 ---------------------------------------------------------------------------------
 (4) _UART1_rx_vect_isr                                    0     0      0       0
                   Absolute function *
                  _UART1_Receive_ISR *
 ---------------------------------------------------------------------------------
 (5) _UART1_Receive_ISR                                    0     0      0       0
                   Absolute function *
          _UART1_DefaultErrorHandler *
   _UART1_DefaultFramingErrorHandler *
   _UART1_DefaultOverrunErrorHandler *
                _UART1_RxDataHandler
 ---------------------------------------------------------------------------------
 (6) _UART1_DefaultOverrunErrorHandler                     0     0      0       0
 ---------------------------------------------------------------------------------
 (6) _UART1_DefaultFramingErrorHandler                     0     0      0       0
 ---------------------------------------------------------------------------------
 (6) _UART1_DefaultErrorHandler                            0     0      0       0
                _UART1_RxDataHandler
 ---------------------------------------------------------------------------------
 (6) _UART1_RxDataHandler                                  0     0      0       0
 ---------------------------------------------------------------------------------
 (6) Absolute function(Fake)                               0     0      0       0
 ---------------------------------------------------------------------------------
 Estimated maximum stack depth 6
 ---------------------------------------------------------------------------------
 (Depth) Function   	        Calls       Base Space   Used Autos Params    Refs
 ---------------------------------------------------------------------------------
 (4) _UART2_tx_vect_isr                                    0     0      0       0
                   Absolute function *
                 _UART2_Transmit_ISR *
 ---------------------------------------------------------------------------------
 (5) _UART2_Transmit_ISR                                   0     0      0       0
 ---------------------------------------------------------------------------------
 (6) Absolute function(Fake)                               0     0      0       0
 ---------------------------------------------------------------------------------
 Estimated maximum stack depth 6
 ---------------------------------------------------------------------------------
 (Depth) Function   	        Calls       Base Space   Used Autos Params    Refs
 ---------------------------------------------------------------------------------
 (4) _UART2_rx_vect_isr                                    0     0      0       0
                   Absolute function *
                  _UART2_Receive_ISR *
 ---------------------------------------------------------------------------------
 (5) _UART2_Receive_ISR                                    0     0      0       0
                   Absolute function *
          _UART2_DefaultErrorHandler *
   _UART2_DefaultFramingErrorHandler *
   _UART2_DefaultOverrunErrorHandler *
                _UART2_RxDataHandler
 ---------------------------------------------------------------------------------
 (6) _UART2_DefaultOverrunErrorHandler                     0     0      0       0
 ---------------------------------------------------------------------------------
 (6) _UART2_DefaultFramingErrorHandler                     0     0      0       0
 ---------------------------------------------------------------------------------
 (6) _UART2_DefaultErrorHandler                            0     0      0       0
                _UART2_RxDataHandler
 ---------------------------------------------------------------------------------
 (6) _UART2_RxDataHandler                                  0     0      0       0
 ---------------------------------------------------------------------------------
 (6) Absolute function(Fake)                               0     0      0       0
 ---------------------------------------------------------------------------------
 Estimated maximum stack depth 6
 ---------------------------------------------------------------------------------
 (Depth) Function   	        Calls       Base Space   Used Autos Params    Refs
 ---------------------------------------------------------------------------------
 (4) _TMR6_ISR                                             0     0      0      90
                   Absolute function *
       _TMR6_DefaultInterruptHandler *
 ---------------------------------------------------------------------------------
 (5) _TMR6_DefaultInterruptHandler                         3     3      0      90
                                              0 COMRAM     3     3      0
 ---------------------------------------------------------------------------------
 (6) Absolute function(Fake)                               0     0      0       0
 ---------------------------------------------------------------------------------
 Estimated maximum stack depth 6
 ---------------------------------------------------------------------------------
 (Depth) Function   	        Calls       Base Space   Used Autos Params    Refs
 ---------------------------------------------------------------------------------
 (4) _TMR5_ISR                                             0     0      0     240
                      _TMR5_CallBack
                    _TMR5_WriteTimer
 ---------------------------------------------------------------------------------
 (5) _TMR5_WriteTimer                                      2     0      2     240
                                              3 COMRAM     2     0      2
 ---------------------------------------------------------------------------------
 (5) _TMR5_CallBack                                        0     0      0       0
                   Absolute function *
       _TMR5_DefaultInterruptHandler *
 ---------------------------------------------------------------------------------
 (6) _TMR5_DefaultInterruptHandler                         1     1      0       0
                                              3 COMRAM     1     1      0
 ---------------------------------------------------------------------------------
 (6) Absolute function(Fake)                               0     0      0       0
 ---------------------------------------------------------------------------------
 Estimated maximum stack depth 6
 ---------------------------------------------------------------------------------

 Call Graph Graphs:

 _main (ROOT)
   _SYSTEM_Initialize
     _INTERRUPT_Initialize
     _OSCILLATOR_Initialize
     _PIN_MANAGER_Initialize
     _PMD_Initialize
     _PWM8_Initialize
     _TMR2_Initialize
     _TMR5_Initialize
       _TMR5_SetInterruptHandler
     _TMR6_Initialize
       _TMR6_SetInterruptHandler
     _UART1_Initialize
       _UART1_SetErrorHandler
       _UART1_SetFramingErrorHandler
       _UART1_SetOverrunErrorHandler
       _UART1_SetRxInterruptHandler
       _UART1_SetTxInterruptHandler
     _UART2_Initialize
       _UART2_SetErrorHandler
       _UART2_SetFramingErrorHandler
       _UART2_SetOverrunErrorHandler
       _UART2_SetRxInterruptHandler
       _UART2_SetTxInterruptHandler
   _UART1_Write
   _UART1_is_tx_ready
   _UART2_Write
   _UART2_is_tx_ready

 _Default_ISR (ROOT)

 _UART1_tx_vect_isr (ROOT)
   Absolute function(Fake) *
   _UART1_Transmit_ISR *

 _UART1_rx_vect_isr (ROOT)
   Absolute function(Fake) *
   _UART1_Receive_ISR *
     Absolute function(Fake) *
     _UART1_DefaultErrorHandler *
       _UART1_RxDataHandler
     _UART1_DefaultFramingErrorHandler *
     _UART1_DefaultOverrunErrorHandler *
     _UART1_RxDataHandler *

 _UART2_tx_vect_isr (ROOT)
   Absolute function(Fake) *
   _UART2_Transmit_ISR *

 _UART2_rx_vect_isr (ROOT)
   Absolute function(Fake) *
   _UART2_Receive_ISR *
     Absolute function(Fake) *
     _UART2_DefaultErrorHandler *
       _UART2_RxDataHandler
     _UART2_DefaultFramingErrorHandler *
     _UART2_DefaultOverrunErrorHandler *
     _UART2_RxDataHandler *

 _TMR6_ISR (ROOT)
   Absolute function(Fake) *
   _TMR6_DefaultInterruptHandler *

 _TMR5_ISR (ROOT)
   _TMR5_CallBack
     Absolute function(Fake) *
     _TMR5_DefaultInterruptHandler *
   _TMR5_WriteTimer

 Address spaces:
Name               Size   Autos  Total    Cost      Usage
BIGRAM            1FFF      0       0      69        0.0%
EEDATA             400      0       0       0        0.0%
BITBANK31          100      0       0      67        0.0%
BANK31             100      0       0      68        0.0%
BITBANK30          100      0       0      65        0.0%
BANK30             100      0       0      66        0.0%
BITBANK29          100      0       0      63        0.0%
BANK29             100      0       0      64        0.0%
BITBANK28          100      0       0      61        0.0%
BANK28             100      0       0      62        0.0%
BITBANK27          100      0       0      59        0.0%
BANK27             100      0       0      60        0.0%
BITBANK26          100      0       0      56        0.0%
BANK26             100      0       0      57        0.0%
BITBANK25          100      0       0      54        0.0%
BANK25             100      0       0      55        0.0%
BITBANK24          100      0       0      52        0.0%
BANK24             100      0       0      53        0.0%
BITBANK23          100      0       0      50        0.0%
BANK23             100      0       0      51        0.0%
BITBANK22          100      0       0      48        0.0%
BANK22             100      0       0      49        0.0%
BITBANK21          100      0       0      46        0.0%
BANK21             100      0       0      47        0.0%
BITBANK20          100      0       0      44        0.0%
BANK20             100      0       0      45        0.0%
BITBANK19          100      0       0      42        0.0%
BANK19             100      0       0      43        0.0%
BITBANK18          100      0       0      40        0.0%
BANK18             100      0       0      41        0.0%
BITBANK17          100      0       0      38        0.0%
BANK17             100      0       0      39        0.0%
BITBANK16          100      0       0      36        0.0%
BANK16             100      0       0      37        0.0%
BITBANK15          100      0       0      34        0.0%
BANK15             100      0       0      35        0.0%
BITBANK14          100      0       0      32        0.0%
BANK14             100      0       0      33        0.0%
BITBANK13          100      0       0      30        0.0%
BANK13             100      0       0      31        0.0%
BITBANK12          100      0       0      28        0.0%
BANK12             100      0       0      29        0.0%
BITBANK11          100      0       0      26        0.0%
BANK11             100      0       0      27        0.0%
BITBANK10          100      0       0      24        0.0%
BANK10             100      0       0      25        0.0%
BITBANK9           100      0       0      22        0.0%
BANK9              100      0       0      23        0.0%
BITBANK8           100      0       0      20        0.0%
BANK8              100      0       0      21        0.0%
BITBANK7           100      0       0      18        0.0%
BANK7              100      0       0      19        0.0%
BITBANK6           100      0       0      16        0.0%
BANK6              100      0       0      17        0.0%
BITBANK5           100      0       0      14        0.0%
BANK5              100      0       0      15        0.0%
BITBANK4           100      0       0      12        0.0%
BANK4              100      0       0      13        0.0%
BITBANK3           100      0       0      10        0.0%
BANK3              100      0       0      11        0.0%
BITBANK2           100      0       0       8        0.0%
BANK2              100      0       0       9        0.0%
BITBANK1           100      0       0       6        0.0%
BANK1              100      0       0       7        0.0%
BITBANK0            A0      0       0       4        0.0%
BANK0               A0      0      32       5       31.2%
BITCOMRAM           5F      0       0       0        0.0%
COMRAM              5F      C      5A       1       94.7%
BITSFR_8             0      0       0     200        0.0%
SFR_8                0      0       0     200        0.0%
BITSFR_7             0      0       0     200        0.0%
SFR_7                0      0       0     200        0.0%
BITSFR_6             0      0       0     200        0.0%
SFR_6                0      0       0     200        0.0%
BITSFR_5             0      0       0     200        0.0%
SFR_5                0      0       0     200        0.0%
BITSFR_4             0      0       0     200        0.0%
SFR_4                0      0       0     200        0.0%
BITSFR_3             0      0       0     200        0.0%
SFR_3                0      0       0     200        0.0%
BITSFR_2             0      0       0     200        0.0%
SFR_2                0      0       0     200        0.0%
BITSFR_1             0      0       0     200        0.0%
SFR_1                0      0       0     200        0.0%
BITSFR               0      0       0     200        0.0%
SFR                  0      0       0     200        0.0%
STACK                0      0       0       2        0.0%
NULL                 0      0       0       0        0.0%
ABS                  0      0      8C      58        0.0%
DATA                 0      0      8C       3        0.0%
CODE                 0      0       0       0        0.0%


Microchip Technology PIC18 Macro Assembler V2.05 build -831301201 
Symbol Table                                                                                   Wed Aug 14 00:06:09 2019

            __end_of_TMR5_SetInterruptHandler 092A                                   __CFG_CP$OFF 000000  
                                          l62 0802                     __end_of_UART2_is_tx_ready 093A  
                                          u35 0462                                            u36 0464  
                           ??_TMR5_WriteTimer 0054                                   __CFG_LVP$ON 000000  
                                         l312 04C6                                           l480 048A  
                                         _GIE 01FE97                                           _PR2 003FAB  
                                         _PR6 003F93                       __size_of_PMD_Initialize 0024  
                             _TMR2_Initialize 07CE                                           prod 003FF3  
                                         tosl 003FFD                                           wreg 003FE8  
                          _UART1_Transmit_ISR 05C0                                 __CFG_BBEN$OFF 000000  
                                __CFG_ZCD$OFF 000000                                          l2310 0476  
                                        l2324 04AA                                          l2326 04AC  
                                        l1742 04B2                                          l2454 054A  
                                        l2448 0538                                          l1756 04E6  
                                        l1758 04E8                                          _LATA 003FBA  
                                        _LATB 003FBB                                          _LATC 003FBC  
                                        _LATD 003FBD                                          _LATE 003FBE  
                                        _T2PR 003FAB                                          _T6PR 003F93  
                                        _PMD0 0039C0                                          _PMD1 0039C1  
                                        _PMD2 0039C2                                          _PMD3 0039C3  
                                        _PMD4 0039C4                                          _PMD5 0039C5  
                                        _PMD6 0039C6                                          _PMD7 0039C7  
                                        _PLLR 01CEE0                                          _TMR2 003FAA  
                                        _TMR6 003F92                                          _WPUA 003A41  
                                        _WPUB 003A51                                          _WPUC 003A61  
                                        _WPUD 003A71                                          _WPUE 003A81  
                               __CFG_FCMEN$ON 000000                           ?_UART1_Transmit_ISR 004F  
                                        _main 0528                                          indf2 003FDF  
                                        fsr2l 003FD9                                          prodl 003FF3  
                                        start 00AE                               _timer5ReloadVal 003F  
               ??_UART1_SetTxInterruptHandler 0057                 ??_UART2_SetRxInterruptHandler 0057  
                               __CFG_CSWEN$ON 000000                             _UART1_rx_vect_isr 06E0  
                                ___param_bank 000000                            ?_UART1_rx_vect_isr 004F  
                  __size_of_UART1_is_tx_ready 0004                __size_of_OSCILLATOR_Initialize 001C  
                        ??_UART1_Transmit_ISR 004F                 __end_of_OSCILLATOR_Initialize 0808  
                                       ?_main 004F                                 __CFG_WDTE$OFF 000000  
                                       _U1P1H 003DED                                         _U1P2H 003DEF  
                                       _U1P1L 003DEC                                         _U1P3H 003DF1  
                                       _T2CON 003FAC                                         _U1P2L 003DEE  
                                       _U1P3L 003DF0                                         _U2P1L 003DD4  
                                       _U2P2L 003DD6                                         _U2P3L 003DD8  
                                       _T5CLK 003F9D                                         _T2HLT 003FAD  
                                       _T5CON 003F9A                                         _T6CON 003F94  
                              __CFG_DEBUG$OFF 000000                                         _T6HLT 003F95  
                                       _T2TMR 003FAA                                         _U1UIR 003DF8  
                                       _T2RST 003FAF                                         _U1RXB 003DE8  
                                       _U2UIR 003DE0                                         _U1TXB 003DEA  
                                       _U2RXB 003DD0                                         i2l330 05E8  
                                       _U2TXB 003DD2                                         i2l504 0616  
                                       _T6TMR 003F92                                         _T6RST 003F97  
                         ??_UART1_rx_vect_isr 004F                                         _OSCEN 0039DD  
                                       _TMR5H 003F99                                         _TMR5L 003F98  
                                       _TRISA 003FC2                                         _TRISB 003FC3  
                                       _TRISC 003FC4                                         _TRISD 003FC5  
                                       _TRISE 003FC6                                   _Default_ISR 0940  
           __size_of_TMR6_SetInterruptHandler 0014                     ?_TMR6_SetInterruptHandler 0054  
                           _UART1_tx_vect_isr 06BC                                 __CFG_WRTB$OFF 000000  
                               __CFG_WRTC$OFF 000000                                 __CFG_WRTD$OFF 000000  
                            __end_of_TMR5_ISR 0592                              __end_of_TMR6_ISR 0696  
                          __CFG_MCLRE$EXTMCLR 000000                            ?_UART1_tx_vect_isr 004F  
                                       main@x 0059                                         main@y 005A  
                                       pclath 003FFA                                         status 003FD8  
         __end_of_UART1_SetRxInterruptHandler 08C6                   _UART1_SetRxInterruptHandler 08B2  
    __end_of_UART1_DefaultFramingErrorHandler 0946     __size_of_UART1_DefaultFramingErrorHandler 0002  
          ??_UART1_DefaultFramingErrorHandler 004F             ?_UART1_DefaultFramingErrorHandler 004F  
            _UART1_DefaultFramingErrorHandler 0944                           ??_UART1_tx_vect_isr 004F  
                   __end_of_UART1_rx_vect_isr 0702                ??_TMR6_DefaultInterruptHandler 004F  
                             _TMR5_Initialize 03E2                ??_UART2_SetOverrunErrorHandler 0057  
                             __initialization 061C                             _UART2_rx_vect_isr 0748  
                                __end_of_main 055E                                __CFG_SAFEN$OFF 000000  
                 ??_UART1_DefaultErrorHandler 004F                            ?_UART2_rx_vect_isr 004F  
                  __size_of_UART2_is_tx_ready 0004                       __end_of_TMR2_Initialize 07EC  
                                ?_UART1_Write 004F                                  ?_UART2_Write 004F  
                                      ??_main 0059                                __CFG_PR1WAY$ON 000000  
                    _TMR5_SetInterruptHandler 0916                                 __activetblptr 000003  
        __size_of_UART1_SetTxInterruptHandler 0014                           ??_UART2_rx_vect_isr 004F  
                   __end_of_UART1_tx_vect_isr 06DE          __size_of_UART2_SetRxInterruptHandler 0014  
                              __CFG_MVECEN$ON 000000                               _TMR6_Initialize 0592  
                             _PWM8_Initialize 0822                   __end_of_UART2_RxDataHandler 078C  
                            _UART1_Initialize 00B2                             _UART2_tx_vect_isr 0724  
                          _UART2_Transmit_ISR 05EE                                        _ANSELA 003A40  
                                      _ANSELB 003A50                                        _ANSELC 003A60  
                                      _ANSELD 003A70                                        _ANSELE 003A80  
                          ?_UART2_tx_vect_isr 004F                                        _RB1I2C 003A5A  
                                      _RB2I2C 003A5B                                        _RD0I2C 003A7A  
                                      _U1CON0 003DF2                                        _U1CON1 003DF3  
                                      _U1CON2 003DF4                                        _RC3I2C 003A6A  
                                      _RD1I2C 003A7B                                        _RC4I2C 003A6B  
                                      _U1BRGH 003DF6                                        _U1FIFO 003DF7  
                                      _U2CON0 003DDA                                        _U2CON1 003DDB  
                                      _U1BRGL 003DF5                                        _U2CON2 003DDC  
                                      _U2BRGH 003DDE                                        _U2FIFO 003DDF  
                                      _U2BRGL 003DDD                                        _T5GATE 003F9C  
                                      _T5GCON 003F9B                                        _RD1PPS 003A19  
                                      _RB6PPS 003A0E                                        _ODCONA 003A42  
                                      _ODCONB 003A52                                        _ODCONC 003A62  
                                      _RC6PPS 003A16                                        _ODCOND 003A72  
                                      _ODCONE 003A82                                        i2l2116 0720  
                                      i2l2136 0788                                __CFG_WDTCCS$SC 000000  
                                      i2l2370 051E                                        i2l2338 0612  
                                      i2l2366 04F0                                        i2l2358 03DC  
                                      i2l2286 0344                                        i2l1770 05E4  
                                      i2l2398 07C2                                        _IVTADH 00389E  
                                      _IVTADL 00389D                                        _IVTADU 00389F  
                                      _OSCFRQ 0039DF                           ?_UART2_Transmit_ISR 004F  
                                      i2u5_40 0810                                        i2u5_46 0812  
                       _UART1_SetErrorHandler 08EE                           ??_UART2_tx_vect_isr 004F  
                   __end_of_UART2_rx_vect_isr 076A                                __CFG_XINST$OFF 000000  
                            _UART2_Initialize 016A                                  _CCPTMRS1bits 003F5F  
                   _UART2_OverrunErrorHandler 0022                           _uart2RxStatusBuffer 0001  
          __size_of_UART2_DefaultErrorHandler 0006                                __CFG_STVREN$ON 000000  
                  ?_UART2_DefaultErrorHandler 004F                                        clear_0 0622  
                                      clear_1 062E                          ??_UART2_Transmit_ISR 004F  
                              _PMD_Initialize 0696                     __end_of_UART2_tx_vect_isr 0746  
    TMR5_SetInterruptHandler@InterruptHandler 0054      TMR6_SetInterruptHandler@InterruptHandler 0054  
 UART2_SetTxInterruptHandler@InterruptHandler 0054   UART2_SetRxInterruptHandler@InterruptHandler 0054  
 UART1_SetTxInterruptHandler@InterruptHandler 0054   UART1_SetRxInterruptHandler@InterruptHandler 0054  
        __end_of_UART1_SetOverrunErrorHandler 08DA         __size_of_UART1_SetOverrunErrorHandler 0014  
                _UART1_SetOverrunErrorHandler 08C6                     _UART1_DefaultErrorHandler 092A  
               __size_of_INTERRUPT_Initialize 0048                  __size_of_UART1_RxDataHandler 0022  
                     __end_of_TMR5_Initialize 042C                             _SYSTEM_Initialize 0646  
                                  __accesstop 0060                       __end_of__initialization 0640  
                          ?_SYSTEM_Initialize 004F                                 ___rparam_used 000001  
                  __size_of_UART1_rx_vect_isr 0022                               _TMR5_WriteTimer 07AE  
                              __pcstackCOMRAM 004F                         _UART2_SetErrorHandler 088A  
                         ??_SYSTEM_Initialize 0059                                     ?_TMR5_ISR 004F  
                                   ?_TMR6_ISR 004F                                ivt0x8_undefint 00AC  
           __end_of_UART2_DefaultErrorHandler 0936                         __end_of_TMR5_CallBack 07AE  
                            ?_TMR2_Initialize 004F                       __end_of_PWM8_Initialize 083A  
                     __end_of_TMR6_Initialize 05C0                        __end_of_PMD_Initialize 06BA  
                  __size_of_UART1_tx_vect_isr 0022                     _UART1_FramingErrorHandler 002E  
                    _UART2_RxInterruptHandler 003A                     __end_of_SYSTEM_Initialize 0670  
                             __CFG_IVT1WAY$ON 000000                                    __pbssBANK0 0060  
               ?_UART1_SetOverrunErrorHandler 0054                        ?_UART1_SetErrorHandler 0054  
                ?_UART2_SetTxInterruptHandler 0054                    __size_of_UART2_rx_vect_isr 0022  
                                     IVTBASEH 003FD6                                       IVTBASEL 003FD5  
                                     IVTBASEU 003FD7                               __CFG_PPS1WAY$ON 000000  
            __end_of_TMR6_SetInterruptHandler 0916          __end_of_UART2_SetFramingErrorHandler 088A  
       __size_of_UART2_SetFramingErrorHandler 0014                  _UART2_SetFramingErrorHandler 0876  
                                  ??_TMR5_ISR 0054                                    ??_TMR6_ISR 0052  
                             ?_PMD_Initialize 004F                             _UART1_Receive_ISR 02B2  
                                     _U1ERRIE 003DFA                                       _U1ERRIR 003DF9  
                                     _U2ERRIE 003DE2                                       _U2ERRIR 003DE1  
                         __CFG_PWRTS$PWRT_OFF 000000                                  ?_Default_ISR 004F  
                        __size_of_UART1_Write 003C                            ?_UART1_Receive_ISR 004F  
                  __size_of_UART2_tx_vect_isr 0022                          __size_of_UART2_Write 003C  
                                     _U1RXPPS 003AE5                                       _U2RXPPS 003AE8  
                                     _OSCCON1 0039D9                                       _OSCCON3 0039DB  
                                     _IVTLOCK 003FD4                                       i2u35_48 079A  
                                     i2u60_48 0306                                       i2u60_49 031A  
                                     _OSCTUNE 0039DE                                       i2u62_48 0330  
                                     i2u71_48 0372                                       i2u39_48 06CA  
                                     i2u71_49 0386                                       i2u73_48 039E  
                                     i2u73_49 03B2                                       i2u58_48 02DA  
                                     i2u58_49 02EE                                       _PWM8DCH 003F61  
                                     _PWM8DCL 003F60                                       i2u91_48 0682  
                                     i2u75_48 03C8                                       i2u83_48 06EE  
                                     i2u93_40 0584                                       i2u85_48 0732  
                                     _PWM8CON 003F62                                       i2u87_48 0756  
                                     _SLRCONA 003A43                                       _SLRCONB 003A53  
                                     _SLRCONC 003A63                                       _SLRCOND 003A73  
                                     _SLRCONE 003A83                           ??_UART1_Receive_ISR 004F  
                     __end_of_TMR5_WriteTimer 07CE                              ?_TMR5_Initialize 004F  
                   INTERRUPT_Initialize@state 0054                                       __Hparam 0000  
                      ?_UART2_SetErrorHandler 0054                                       __Lparam 0000  
                    __end_of_UART1_Initialize 016A                 ??_UART2_SetTxInterruptHandler 0057  
                  ??_TMR5_SetInterruptHandler 0057                     __end_of_UART1_Receive_ISR 034A  
               ?_UART2_SetFramingErrorHandler 0054                                       __pcinit 061C  
                            ?_PWM8_Initialize 004F                              ?_TMR6_Initialize 004F  
                                     __ramtop 2000                   __size_of_UART1_Transmit_ISR 002E  
                                     __ptext0 0528                                       __ptext1 0936  
                                     __ptext2 0474                                       __ptext3 093A  
                                     __ptext4 04B0                                       __ptext5 0646  
                                     __ptext6 016A                                       __ptext7 083A  
                                     __ptext8 084E                                       __ptext9 0862  
                           _UART2_Receive_ISR 034A                               __CFG_WRTAPP$OFF 000000  
    __end_of_UART2_DefaultOverrunErrorHandler 0948     __size_of_UART2_DefaultOverrunErrorHandler 0002  
          ??_UART2_DefaultOverrunErrorHandler 004F             ?_UART2_DefaultOverrunErrorHandler 004F  
            _UART2_DefaultOverrunErrorHandler 0946                         _OSCILLATOR_Initialize 07EC  
                                   _T2CONbits 003FAC                            ?_UART2_Receive_ISR 004F  
                    ??_PIN_MANAGER_Initialize 0054                                     _T2HLTbits 003FAD  
                             __CFG_WRTSAF$OFF 000000                                     _T5CONbits 003F9A  
                    __end_of_UART2_Initialize 0216                                     _T6CONbits 003F94  
                                   _T6HLTbits 003F95                    __size_of_SYSTEM_Initialize 002A  
                        end_of_initialization 0640                           ??_UART2_Receive_ISR 004F  
                                   _T2RSTbits 003FAF           __end_of_UART1_SetTxInterruptHandler 08B2  
                 _UART1_SetTxInterruptHandler 089E                                     _T6RSTbits 003F97  
         __end_of_UART2_SetRxInterruptHandler 0862                   _UART2_SetRxInterruptHandler 084E  
              ??_UART1_SetOverrunErrorHandler 0057                                       postdec2 003FDD  
                                     postinc0 003FEE                                       postinc2 003FDE  
                 ??_UART2_DefaultErrorHandler 004F                     __end_of_UART2_Receive_ISR 03E2  
                           UART1_Write@txData 0054                           _UART1_RxDataHandler 0702  
                       __CFG_WDTCPS$WDTCPS_31 000000                      _TMR6_SetInterruptHandler 0902  
                       _TMR5_InterruptHandler 0019          __size_of_UART2_SetTxInterruptHandler 0014  
                            __CFG_FEXTOSC$ECH 000000                          ?_UART1_RxDataHandler 004F  
                            ?_TMR5_WriteTimer 0052                       TMR5_WriteTimer@timerVal 0052  
                __size_of_UART2_RxDataHandler 0022                  __end_of_INTERRUPT_Initialize 0474  
                  __size_of_UART1_Receive_ISR 0098                             __size_of_TMR5_ISR 0032  
                           __size_of_TMR6_ISR 0026                   __size_of_UART2_Transmit_ISR 002E  
                      ?_OSCILLATOR_Initialize 004F                ??_UART2_SetFramingErrorHandler 0057  
                         start_initialization 061C          __end_of_TMR5_DefaultInterruptHandler 0822  
       __size_of_TMR5_DefaultInterruptHandler 001A                  _TMR5_DefaultInterruptHandler 0808  
             __size_of_PIN_MANAGER_Initialize 009C                          __size_of_Default_ISR 0002  
                     ??_UART1_SetErrorHandler 0057                     _UART2_DefaultErrorHandler 0930  
                       ??_UART1_RxDataHandler 004F                                    ivt0x8_base 0008  
                               _uart1RxBuffer 008A                                 _uart2RxBuffer 007A  
                               _uart1TxBuffer 0011                                 _uart2TxBuffer 0082  
                            __CFG_LPBOREN$OFF 000000                              ??_PMD_Initialize 0054  
                  __size_of_UART2_Receive_ISR 0098                             UART2_Write@txData 0054  
                                 __pbssCOMRAM 0001                            _UART1_ErrorHandler 0028  
                   _UART2_FramingErrorHandler 0025                      __size_of_TMR2_Initialize 001E  
                    _UART1_RxInterruptHandler 0034                      _UART2_TxInterruptHandler 0037  
               ?_TMR5_DefaultInterruptHandler 004F                        __size_of_TMR5_CallBack 0022  
                     ??_UART2_SetErrorHandler 0057                  ?_UART1_SetRxInterruptHandler 0054  
                       _TMR6_InterruptHandler 001C                        _PIN_MANAGER_Initialize 0216  
                           ?_UART1_Initialize 004F          __end_of_UART1_SetFramingErrorHandler 08EE  
       __size_of_UART1_SetFramingErrorHandler 0014                  _UART1_SetFramingErrorHandler 08DA  
                          ??_UART1_Initialize 0057                              _uart1RxLastError 0048  
                               ??_UART1_Write 0054                                 ??_UART2_Write 0054  
                      __CFG_BBSIZE$BBSIZE_512 000000      __end_of_UART1_DefaultOverrunErrorHandler 0944  
   __size_of_UART1_DefaultOverrunErrorHandler 0002            ??_UART1_DefaultOverrunErrorHandler 004F  
           ?_UART1_DefaultOverrunErrorHandler 004F              _UART1_DefaultOverrunErrorHandler 0942  
                           ?_UART2_Initialize 004F                                      _T2CLKCON 003FAE  
                                 _U1ERRIRbits 003DF9                            ??_UART2_Initialize 0057  
                        _INTERRUPT_Initialize 042C                                      _T6CLKCON 003F96  
                            _uart2RxLastError 0041                                   _U2ERRIRbits 003DE1  
       UART2_SetErrorHandler@interruptHandler 0054         UART1_SetErrorHandler@interruptHandler 0054  
                                    _LATEbits 003FBE                                      _IPR3bits 003983  
                                    _PIE3bits 003993                                     _tickCount 0060  
                                    _IPR6bits 003986                                      _IPR8bits 003988  
                                    _PIE6bits 003996                                      _IPR9bits 003989  
                                    _PIE8bits 003998                           __CFG_BORV$VBOR_2P45 000000  
                                    _PIE9bits 003999                 ??_UART1_SetRxInterruptHandler 0057  
                                    _PIR4bits 0039A4                                      _PIR8bits 0039A8  
                                    _PIR9bits 0039A9                    ??_TMR6_SetInterruptHandler 0057  
                    __size_of_TMR5_Initialize 004A                    __end_of_UART1_Transmit_ISR 05EE  
                                    _TMR5_ISR 0560                                      _TMR6_ISR 0670  
               ?_UART1_SetFramingErrorHandler 0054                                 _TMR5_CallBack 078C  
                         _UART2_RxDataHandler 076A             __size_of_TMR5_SetInterruptHandler 0014  
                   ?_TMR5_SetInterruptHandler 0054                           __end_of_UART1_Write 04EC  
                          _UART2_ErrorHandler 001F                           __end_of_UART2_Write 04B0  
                    __size_of_PWM8_Initialize 0018                      __size_of_TMR6_Initialize 002E  
                                 _INTCON0bits 003FD2                         ?_INTERRUPT_Initialize 004F  
                        ?_UART2_RxDataHandler 004F                        _uart1TxBufferRemaining 004C  
                           ??_TMR2_Initialize 0054                ??_TMR5_DefaultInterruptHandler 0052  
         __end_of_UART2_SetTxInterruptHandler 084E                   _UART2_SetTxInterruptHandler 083A  
                                _uart1RxCount 0049                                  _uart2RxCount 0042  
                                    __Hrparam 0000                       __CFG_RSTOSC$EXTOSC_4PLL 000000  
                                    __Lrparam 0000                            __CFG_BOREN$SBORDIS 000000  
                     ??_OSCILLATOR_Initialize 0054                                ?_TMR5_CallBack 004F  
        __size_of_UART1_SetRxInterruptHandler 0014                                      __pivt0x8 0008  
                                    __ptext10 0876                                      __ptext11 088A  
                                    __ptext20 03E2                                      __ptext12 00B2  
                                    __ptext21 0916                                      __ptext13 089E  
                                    __ptext30 05C0                                      __ptext22 07CE  
                                    __ptext14 08B2                                      __ptext31 06E0  
                                    __ptext23 0822                                      __ptext15 08C6  
                                    __ptext40 034A                                      __ptext32 02B2  
                                    __ptext24 0696                                      __ptext16 08DA  
                                    __ptext41 0946                                      __ptext33 0942  
                                    __ptext25 0216                                      __ptext17 08EE  
                                    __ptext50 0808                                      __ptext42 0948  
                                    __ptext34 0944                                      __ptext26 07EC  
                                    __ptext18 0592                                      __ptext51 0000  
                                    __ptext43 0930                                      __ptext35 092A  
                                    __ptext27 042C                                      __ptext19 0902  
                                    __ptext44 076A                                      __ptext36 0702  
                                    __ptext28 0940                                      __ptext45 0670  
                                    __ptext37 0724                                      __ptext29 06BC  
                                    __ptext46 04EC                                      __ptext38 05EE  
                                    __ptext47 0560                                      __ptext39 0748  
                                    __ptext48 07AE                                      __ptext49 078C  
              __size_of_UART1_SetErrorHandler 0014                 TMR6_DefaultInterruptHandler@i 0051  
               __end_of_UART1_SetErrorHandler 0902                         ??_UART2_RxDataHandler 004F  
                               __size_of_main 0036                                    _T5GCONbits 003F9B  
    __end_of_UART2_DefaultFramingErrorHandler 094A     __size_of_UART2_DefaultFramingErrorHandler 0002  
          ??_UART2_DefaultFramingErrorHandler 004F             ?_UART2_DefaultFramingErrorHandler 004F  
            _UART2_DefaultFramingErrorHandler 0948                          __CFG_WDTCWS$WDTCWS_7 000000  
                                 _IVTLOCKbits 003FD4                      __size_of_TMR5_WriteTimer 0020  
                   _UART1_OverrunErrorHandler 002B  UART2_SetOverrunErrorHandler@interruptHandler 0054  
UART1_SetOverrunErrorHandler@interruptHandler 0054            __size_of_UART1_DefaultErrorHandler 0006  
                  ?_UART1_DefaultErrorHandler 004F                    __end_of_UART2_Transmit_ISR 061C  
                                 _UART1_Write 04B0                                   _UART2_Write 0474  
                           _UART1_is_tx_ready 093A                             ??_TMR5_Initialize 0057  
                               ??_Default_ISR 004F                ??_UART1_SetFramingErrorHandler 0057  
                          ?_UART1_is_tx_ready 004F                   __end_of_UART1_RxDataHandler 0724  
                                 _uart1RxHead 004B                                   _uart1TxHead 004E  
                                 _uart2RxHead 0044                                   _uart1RxTail 004A  
                                 _uart2TxHead 0047                                   _uart1TxTail 004D  
                                 _uart2RxTail 0043                                   _uart2TxTail 0046  
                      ??_INTERRUPT_Initialize 0054          __end_of_TMR6_DefaultInterruptHandler 0528  
       __size_of_TMR6_DefaultInterruptHandler 003C                  _TMR6_DefaultInterruptHandler 04EC  
                         ??_UART1_is_tx_ready 0054          __end_of_UART2_SetOverrunErrorHandler 0876  
       __size_of_UART2_SetOverrunErrorHandler 0014                  _UART2_SetOverrunErrorHandler 0862  
                                    intlevel2 0000                       ?_PIN_MANAGER_Initialize 004F  
                           ??_TMR6_Initialize 0057                             ??_PWM8_Initialize 0054  
                           __CFG_CLKOUTEN$OFF 000000                __size_of_UART2_SetErrorHandler 0014  
               __end_of_UART2_SetErrorHandler 089E                           _uart1RxStatusBuffer 0009  
                             ??_TMR5_CallBack 0053  UART2_SetFramingErrorHandler@interruptHandler 0054  
UART1_SetFramingErrorHandler@interruptHandler 0054                     __end_of_UART1_is_tx_ready 093E  
           __end_of_UART1_DefaultErrorHandler 0930                        _uart2TxBufferRemaining 0045  
                           _UART2_is_tx_ready 0936                            ?_UART2_is_tx_ready 004F  
                       TMR5_ISR@CountCallBack 003D                     __size_of_UART1_Initialize 00B8  
                    _UART1_TxInterruptHandler 0031                           __end_of_Default_ISR 0942  
                         ??_UART2_is_tx_ready 0054                __end_of_PIN_MANAGER_Initialize 02B2  
               ?_TMR6_DefaultInterruptHandler 004F                 ?_UART2_SetOverrunErrorHandler 0054  
                ?_UART1_SetTxInterruptHandler 0054                  ?_UART2_SetRxInterruptHandler 0054  
                   __size_of_UART2_Initialize 00AC  
