

Microchip MPLAB XC8 Assembler V2.05 build -831301201 
                                                                                               Wed Jul 24 15:57:24 2019

Microchip MPLAB XC8 C Compiler v2.05 (Free license) build 20181220022703 Og1 
     1                           	processor	18F47K42
     2                           	fnconf	rparam,??,?,0
     3                           	opt	pw 120
     4                           	opt	flic
     5                           	psect	cinit,global,reloc=2,class=CODE,delta=1
     6                           	psect	bssCOMRAM,global,class=COMRAM,space=1,delta=1,noexec
     7                           	psect	bssBANK0,global,class=BANK0,space=1,delta=1,lowdata,noexec
     8                           	psect	cstackCOMRAM,global,class=COMRAM,space=1,delta=1,noexec
     9                           	psect	text0,global,reloc=2,class=CODE,delta=1
    10                           	psect	text1,global,reloc=2,class=CODE,delta=1
    11                           	psect	text2,global,reloc=2,class=CODE,delta=1
    12                           	psect	text3,global,reloc=2,class=CODE,delta=1
    13                           	psect	text4,global,reloc=2,class=CODE,delta=1
    14                           	psect	text5,global,reloc=2,class=CODE,delta=1
    15                           	psect	text6,global,reloc=2,class=CODE,delta=1
    16                           	psect	text7,global,reloc=2,class=CODE,delta=1
    17                           	psect	text8,global,reloc=2,class=CODE,delta=1
    18                           	psect	text9,global,reloc=2,class=CODE,delta=1
    19                           	psect	text10,global,reloc=2,class=CODE,delta=1
    20                           	psect	text11,global,reloc=2,class=CODE,delta=1
    21                           	psect	text12,global,reloc=2,class=CODE,delta=1
    22                           	psect	text13,global,reloc=2,class=CODE,delta=1
    23                           	psect	text14,global,reloc=2,class=CODE,delta=1
    24                           	psect	text15,global,reloc=2,class=CODE,delta=1
    25                           	psect	text16,global,reloc=2,class=CODE,delta=1
    26                           	psect	text17,global,reloc=2,class=CODE,delta=1
    27                           	psect	text18,global,reloc=2,class=CODE,delta=1
    28                           	psect	text19,global,reloc=2,class=CODE,delta=1
    29                           	psect	text20,global,reloc=2,class=CODE,delta=1
    30                           	psect	text21,global,reloc=2,class=CODE,delta=1
    31                           	psect	text22,global,reloc=2,class=CODE,delta=1
    32                           	psect	text23,global,reloc=2,class=CODE,delta=1
    33                           	psect	text24,global,reloc=4,class=CODE,delta=1
    34                           	psect	text25,global,reloc=4,class=CODE,delta=1
    35                           	psect	text26,global,reloc=2,class=CODE,delta=1
    36                           	psect	text27,global,reloc=4,class=CODE,delta=1
    37                           	psect	text28,global,reloc=2,class=CODE,delta=1
    38                           	psect	text29,global,reloc=2,class=CODE,delta=1
    39                           	psect	text30,global,reloc=2,class=CODE,delta=1
    40                           	psect	text31,global,reloc=2,class=CODE,delta=1
    41                           	psect	text32,global,reloc=2,class=CODE,delta=1
    42                           	psect	text33,global,reloc=4,class=CODE,delta=1
    43                           	psect	text34,global,reloc=2,class=CODE,delta=1
    44                           	psect	text35,global,reloc=4,class=CODE,delta=1
    45                           	psect	text36,global,reloc=2,class=CODE,delta=1
    46                           	psect	text37,global,reloc=2,class=CODE,delta=1
    47                           	psect	text38,global,reloc=2,class=CODE,delta=1
    48                           	psect	text39,global,reloc=2,class=CODE,delta=1
    49                           	psect	text40,global,reloc=2,class=CODE,delta=1
    50                           	psect	ivt0x8,global,reloc=2,class=CODE,delta=1,noexec,keep,optim=
    51                           	psect	intsave_regs,global,class=BIGRAM,space=1,delta=1,noexec
    52                           	psect	text41,global,reloc=2,class=CODE,delta=1
    53                           	psect	rparam,global,class=COMRAM,space=1,delta=1,noexec
    54  0000                     
    55                           ; Version 2.05
    56                           ; Generated 20/12/2018 GMT
    57                           ; 
    58                           ; Copyright © 2018, Microchip Technology Inc. and its subsidiaries ("Microchip")
    59                           ; All rights reserved.
    60                           ; 
    61                           ; This software is developed by Microchip Technology Inc. and its subsidiaries ("Microch
      +                          ip").
    62                           ; 
    63                           ; Redistribution and use in source and binary forms, with or without modification, are
    64                           ; permitted provided that the following conditions are met:
    65                           ; 
    66                           ;     1. Redistributions of source code must retain the above copyright notice, this lis
      +                          t of
    67                           ;        conditions and the following disclaimer.
    68                           ; 
    69                           ;     2. Redistributions in binary form must reproduce the above copyright notice, this 
      +                          list
    70                           ;        of conditions and the following disclaimer in the documentation and/or other
    71                           ;        materials provided with the distribution.
    72                           ; 
    73                           ;     3. Microchip's name may not be used to endorse or promote products derived from th
      +                          is
    74                           ;        software without specific prior written permission.
    75                           ; 
    76                           ; THIS SOFTWARE IS PROVIDED BY MICROCHIP "AS IS" AND ANY EXPRESS OR IMPLIED WARRANTIES,
    77                           ; INCLUDING, BUT NOT LIMITED TO, THE IMPLIED WARRANTIES OF MERCHANTABILITY AND FITNESS F
      +                          OR
    78                           ; PURPOSE ARE DISCLAIMED.  IN NO EVENT SHALL MICROCHIP BE LIABLE FOR ANY DIRECT, INDIREC
      +                          T,
    79                           ; INCIDENTAL, SPECIAL, EXEMPLARY, OR CONSEQUENTIAL DAMAGES (INCLUDING BUT NOT LIMITED TO
    80                           ; PROCUREMENT OF SUBSTITUTE GOODS OR SERVICES; LOSS OF USE, DATA OR PROFITS; OR BUSINESS
    81                           ; INTERRUPTION) HOWSOEVER CAUSED AND ON ANY THEORY OF LIABILITY, WHETHER IN CONTRACT, ST
      +                          RICT
    82                           ; LIABILITY, OR TORT (INCLUDING NEGLIGENCE OR OTHERWISE) ARISING IN ANY WAY OUT OF THE U
      +                          SE OF
    83                           ; THIS SOFTWARE, EVEN IF ADVISED OF THE POSSIBILITY OF SUCH DAMAGE.
    84                           ; 
    85                           ; 
    86                           ; Code-generator required, PIC18F47K42 Definitions
    87                           ; 
    88                           ; SFR Addresses
    89  0000                     _IVTADL	set	14493
    90  0000                     _IVTADH	set	14494
    91  0000                     _IVTADU	set	14495
    92  0000                     _PIR4bits	set	14756
    93  0000                     _PIE6bits	set	14742
    94  0000                     _PIE3bits	set	14739
    95  0000                     _IPR3bits	set	14723
    96  0000                     _IPR6bits	set	14726
    97  0000                     _PMD7	set	14791
    98  0000                     _PMD6	set	14790
    99  0000                     _PMD5	set	14789
   100  0000                     _PMD4	set	14788
   101  0000                     _PMD3	set	14787
   102  0000                     _PMD2	set	14786
   103  0000                     _PMD1	set	14785
   104  0000                     _PMD0	set	14784
   105  0000                     _OSCTUNE	set	14814
   106  0000                     _OSCFRQ	set	14815
   107  0000                     _OSCEN	set	14813
   108  0000                     _OSCCON3	set	14811
   109  0000                     _OSCCON1	set	14809
   110  0000                     _PLLR	set	118496
   111  0000                     _U1RXPPS	set	15077
   112  0000                     _RC6PPS	set	14870
   113  0000                     _RD1PPS	set	14873
   114  0000                     _RB6PPS	set	14862
   115  0000                     _U2RXPPS	set	15080
   116  0000                     _SLRCONE	set	14979
   117  0000                     _SLRCOND	set	14963
   118  0000                     _SLRCONC	set	14947
   119  0000                     _SLRCONB	set	14931
   120  0000                     _SLRCONA	set	14915
   121  0000                     _ODCOND	set	14962
   122  0000                     _ODCONC	set	14946
   123  0000                     _ODCONB	set	14930
   124  0000                     _ODCONA	set	14914
   125  0000                     _ODCONE	set	14978
   126  0000                     _RD1I2C	set	14971
   127  0000                     _RD0I2C	set	14970
   128  0000                     _RC4I2C	set	14955
   129  0000                     _RC3I2C	set	14954
   130  0000                     _RB2I2C	set	14939
   131  0000                     _RB1I2C	set	14938
   132  0000                     _WPUC	set	14945
   133  0000                     _WPUA	set	14913
   134  0000                     _WPUB	set	14929
   135  0000                     _WPUE	set	14977
   136  0000                     _WPUD	set	14961
   137  0000                     _ANSELA	set	14912
   138  0000                     _ANSELE	set	14976
   139  0000                     _ANSELB	set	14928
   140  0000                     _ANSELC	set	14944
   141  0000                     _ANSELD	set	14960
   142  0000                     _U2RXB	set	15824
   143  0000                     _U2TXB	set	15826
   144  0000                     _U2ERRIRbits	set	15841
   145  0000                     _U2ERRIE	set	15842
   146  0000                     _U2ERRIR	set	15841
   147  0000                     _U2UIR	set	15840
   148  0000                     _U2FIFO	set	15839
   149  0000                     _U2BRGH	set	15838
   150  0000                     _U2BRGL	set	15837
   151  0000                     _U2CON2	set	15836
   152  0000                     _U2CON1	set	15835
   153  0000                     _U2CON0	set	15834
   154  0000                     _U2P3L	set	15832
   155  0000                     _U2P2L	set	15830
   156  0000                     _U2P1L	set	15828
   157  0000                     _U1RXB	set	15848
   158  0000                     _U1TXB	set	15850
   159  0000                     _U1ERRIRbits	set	15865
   160  0000                     _U1ERRIE	set	15866
   161  0000                     _U1ERRIR	set	15865
   162  0000                     _U1UIR	set	15864
   163  0000                     _U1FIFO	set	15863
   164  0000                     _U1BRGH	set	15862
   165  0000                     _U1BRGL	set	15861
   166  0000                     _U1CON2	set	15860
   167  0000                     _U1CON1	set	15859
   168  0000                     _U1CON0	set	15858
   169  0000                     _U1P3H	set	15857
   170  0000                     _U1P3L	set	15856
   171  0000                     _U1P2H	set	15855
   172  0000                     _U1P2L	set	15854
   173  0000                     _U1P1H	set	15853
   174  0000                     _U1P1L	set	15852
   175  0000                     _CCPTMRS1bits	set	16223
   176  0000                     _PWM8DCL	set	16224
   177  0000                     _PWM8DCH	set	16225
   178  0000                     _PWM8CON	set	16226
   179  0000                     _PR2	set	16299
   180  0000                     _TMR2	set	16298
   181  0000                     _T2CONbits	set	16300
   182  0000                     _T2RSTbits	set	16303
   183  0000                     _T2HLTbits	set	16301
   184  0000                     _T2CON	set	16300
   185  0000                     _T2TMR	set	16298
   186  0000                     _T2PR	set	16299
   187  0000                     _T2RST	set	16303
   188  0000                     _T2HLT	set	16301
   189  0000                     _T2CLKCON	set	16302
   190  0000                     _IVTLOCKbits	set	16340
   191  0000                     _IVTLOCK	set	16340
   192  0000                     _INTCON0bits	set	16338
   193  0000                     _TRISD	set	16325
   194  0000                     _TRISC	set	16324
   195  0000                     _TRISB	set	16323
   196  0000                     _TRISA	set	16322
   197  0000                     _TRISE	set	16326
   198  0000                     _LATC	set	16316
   199  0000                     _LATB	set	16315
   200  0000                     _LATA	set	16314
   201  0000                     _LATD	set	16317
   202  0000                     _LATE	set	16318
   203  0000                     _GIE	set	130711
   204                           
   205                           ; #config settings
   206  0000                     
   207                           	psect	cinit
   208  000530                     __pcinit:
   209                           	opt callstack 0
   210  000530                     start_initialization:
   211                           	opt callstack 0
   212  000530                     __initialization:
   213                           	opt callstack 0
   214                           
   215                           ; Clear objects allocated to BANK0 (8 bytes)
   216  000530  EE00  F060         	lfsr	0,__pbssBANK0
   217  000534  0E08               	movlw	8
   218  000536                     clear_0:
   219  000536  6AEE               	clrf	postinc0,c
   220  000538  06E8               	decf	wreg,f,c
   221  00053A  E1FD               	bnz	clear_0
   222                           
   223                           ; Clear objects allocated to COMRAM (84 bytes)
   224  00053C  EE00  F001         	lfsr	0,__pbssCOMRAM
   225  000540  0E54               	movlw	84
   226  000542                     clear_1:
   227  000542  6AEE               	clrf	postinc0,c
   228  000544  06E8               	decf	wreg,f,c
   229  000546  E1FD               	bnz	clear_1
   230                           
   231                           ;
   232                           ; Setup IVTBASE
   233                           ;
   234  000548  0E08               	movlw	(ivt0x8_base shr 0)& (0+255)
   235  00054A  6ED5               	movwf	213,c
   236  00054C  0E00               	movlw	(ivt0x8_base shr (0+8))& (0+255)
   237  00054E  6ED6               	movwf	214,c
   238  000550  0E00               	movlw	(ivt0x8_base shr (0+16))& (0+255)
   239  000552  6ED7               	movwf	215,c
   240  000554                     end_of_initialization:
   241                           	opt callstack 0
   242  000554                     __end_of__initialization:
   243                           	opt callstack 0
   244  000554  0100               	movlb	0
   245  000556  EF4F  F002         	goto	_main	;jump to C main() function
   246                           
   247                           	psect	bssCOMRAM
   248  000001                     __pbssCOMRAM:
   249                           	opt callstack 0
   250  000001                     _uart2RxStatusBuffer:
   251                           	opt callstack 0
   252  000001                     	ds	8
   253  000009                     _uart2TxBuffer:
   254                           	opt callstack 0
   255  000009                     	ds	8
   256  000011                     _uart1RxStatusBuffer:
   257                           	opt callstack 0
   258  000011                     	ds	8
   259  000019                     _uart1RxBuffer:
   260                           	opt callstack 0
   261  000019                     	ds	8
   262  000021                     _uart1TxBuffer:
   263                           	opt callstack 0
   264  000021                     	ds	8
   265  000029                     _UART2_ErrorHandler:
   266                           	opt callstack 0
   267  000029                     	ds	3
   268  00002C                     _UART2_OverrunErrorHandler:
   269                           	opt callstack 0
   270  00002C                     	ds	3
   271  00002F                     _UART2_FramingErrorHandler:
   272                           	opt callstack 0
   273  00002F                     	ds	3
   274  000032                     _UART1_ErrorHandler:
   275                           	opt callstack 0
   276  000032                     	ds	3
   277  000035                     _UART1_OverrunErrorHandler:
   278                           	opt callstack 0
   279  000035                     	ds	3
   280  000038                     _UART1_FramingErrorHandler:
   281                           	opt callstack 0
   282  000038                     	ds	3
   283  00003B                     _UART1_TxInterruptHandler:
   284                           	opt callstack 0
   285  00003B                     	ds	3
   286  00003E                     _UART1_RxInterruptHandler:
   287                           	opt callstack 0
   288  00003E                     	ds	3
   289  000041                     _UART2_TxInterruptHandler:
   290                           	opt callstack 0
   291  000041                     	ds	3
   292  000044                     _UART2_RxInterruptHandler:
   293                           	opt callstack 0
   294  000044                     	ds	3
   295  000047                     _uart2RxLastError:
   296                           	opt callstack 0
   297  000047                     	ds	1
   298  000048                     _uart2RxCount:
   299                           	opt callstack 0
   300  000048                     	ds	1
   301  000049                     _uart2RxTail:
   302                           	opt callstack 0
   303  000049                     	ds	1
   304  00004A                     _uart2RxHead:
   305                           	opt callstack 0
   306  00004A                     	ds	1
   307  00004B                     _uart2TxBufferRemaining:
   308                           	opt callstack 0
   309  00004B                     	ds	1
   310  00004C                     _uart2TxTail:
   311                           	opt callstack 0
   312  00004C                     	ds	1
   313  00004D                     _uart2TxHead:
   314                           	opt callstack 0
   315  00004D                     	ds	1
   316  00004E                     _uart1RxLastError:
   317                           	opt callstack 0
   318  00004E                     	ds	1
   319  00004F                     _uart1RxCount:
   320                           	opt callstack 0
   321  00004F                     	ds	1
   322  000050                     _uart1RxTail:
   323                           	opt callstack 0
   324  000050                     	ds	1
   325  000051                     _uart1RxHead:
   326                           	opt callstack 0
   327  000051                     	ds	1
   328  000052                     _uart1TxBufferRemaining:
   329                           	opt callstack 0
   330  000052                     	ds	1
   331  000053                     _uart1TxTail:
   332                           	opt callstack 0
   333  000053                     	ds	1
   334  000054                     _uart1TxHead:
   335                           	opt callstack 0
   336  000054                     	ds	1
   337                           
   338                           	psect	bssBANK0
   339  000060                     __pbssBANK0:
   340                           	opt callstack 0
   341  000060                     _uart2RxBuffer:
   342                           	opt callstack 0
   343  000060                     	ds	8
   344                           
   345                           	psect	cstackCOMRAM
   346  000055                     __pcstackCOMRAM:
   347                           	opt callstack 0
   348  000055                     INTERRUPT_Initialize@state:
   349                           	opt callstack 0
   350  000055                     UART1_Write@txData:
   351                           	opt callstack 0
   352  000055                     UART2_Write@txData:
   353                           	opt callstack 0
   354  000055                     UART1_SetFramingErrorHandler@interruptHandler:
   355                           	opt callstack 0
   356  000055                     UART1_SetOverrunErrorHandler@interruptHandler:
   357                           	opt callstack 0
   358  000055                     UART1_SetErrorHandler@interruptHandler:
   359                           	opt callstack 0
   360  000055                     UART1_SetRxInterruptHandler@InterruptHandler:
   361                           	opt callstack 0
   362  000055                     UART1_SetTxInterruptHandler@InterruptHandler:
   363                           	opt callstack 0
   364  000055                     UART2_SetFramingErrorHandler@interruptHandler:
   365                           	opt callstack 0
   366  000055                     UART2_SetOverrunErrorHandler@interruptHandler:
   367                           	opt callstack 0
   368  000055                     UART2_SetErrorHandler@interruptHandler:
   369                           	opt callstack 0
   370  000055                     UART2_SetRxInterruptHandler@InterruptHandler:
   371                           	opt callstack 0
   372  000055                     UART2_SetTxInterruptHandler@InterruptHandler:
   373                           	opt callstack 0
   374                           
   375                           ; 3 bytes @ 0x0
   376  000055                     	ds	3
   377  000058                     main@x:
   378                           	opt callstack 0
   379                           
   380                           ; 1 bytes @ 0x3
   381  000058                     	ds	1
   382  000059                     main@y:
   383                           	opt callstack 0
   384                           
   385                           ; 1 bytes @ 0x4
   386  000059                     	ds	1
   387                           
   388 ;;
   389 ;;Main: autosize = 0, tempsize = 0, incstack = 0, save=0
   390 ;;
   391 ;; *************** function _main *****************
   392 ;; Defined at:
   393 ;;		line 54 in file "main.c"
   394 ;; Parameters:    Size  Location     Type
   395 ;;		None
   396 ;; Auto vars:     Size  Location     Type
   397 ;;  y               1    4[COMRAM] unsigned char 
   398 ;;  x               1    3[COMRAM] unsigned char 
   399 ;; Return value:  Size  Location     Type
   400 ;;                  1    wreg      void 
   401 ;; Registers used:
   402 ;;		wreg, fsr2l, fsr2h, status,2, status,0, cstack
   403 ;; Tracked objects:
   404 ;;		On entry : 0/0
   405 ;;		On exit  : 0/0
   406 ;;		Unchanged: 0/0
   407 ;; Data sizes:     COMRAM   BANK0   BANK1   BANK2   BANK3   BANK4   BANK5   BANK6   BANK7   BANK8   BANK9  BANK10  BANK1
      +1  BANK12  BANK13  BANK14  BANK15  BANK16  BANK17  BANK18  BANK19  BANK20  BANK21  BANK22  BANK23  BANK24  BANK25  BANK2
      +6  BANK27  BANK28  BANK29  BANK30  BANK31
   408 ;;      Params:         0       0       0       0       0       0       0       0       0       0       0       0       
      +0       0       0       0       0       0       0       0       0       0       0       0       0       0       0       
      +0       0       0       0       0       0
   409 ;;      Locals:         2       0       0       0       0       0       0       0       0       0       0       0       
      +0       0       0       0       0       0       0       0       0       0       0       0       0       0       0       
      +0       0       0       0       0       0
   410 ;;      Temps:          0       0       0       0       0       0       0       0       0       0       0       0       
      +0       0       0       0       0       0       0       0       0       0       0       0       0       0       0       
      +0       0       0       0       0       0
   411 ;;      Totals:         2       0       0       0       0       0       0       0       0       0       0       0       
      +0       0       0       0       0       0       0       0       0       0       0       0       0       0       0       
      +0       0       0       0       0       0
   412 ;;Total ram usage:        2 bytes
   413 ;; Hardware stack levels required when called:    7
   414 ;; This function calls:
   415 ;;		_SYSTEM_Initialize
   416 ;;		_UART1_Write
   417 ;;		_UART1_is_tx_ready
   418 ;;		_UART2_Write
   419 ;;		_UART2_is_tx_ready
   420 ;; This function is called by:
   421 ;;		Startup code after reset
   422 ;; This function uses a non-reentrant model
   423 ;;
   424                           
   425                           	psect	text0
   426  00049E                     __ptext0:
   427                           	opt callstack 0
   428  00049E                     _main:
   429                           	opt callstack 24
   430                           
   431                           ;main.c: 56:  uint8_t x = 0, y = 0;
   432                           
   433                           ;incstack = 0
   434  00049E  0E00               	movlw	0
   435  0004A0  6E58               	movwf	main@x,c
   436  0004A2  0E00               	movlw	0
   437  0004A4  6E59               	movwf	main@y,c
   438                           
   439                           ;main.c: 58:  SYSTEM_Initialize();
   440  0004A6  ECBF  F002         	call	_SYSTEM_Initialize	;wreg free
   441                           
   442                           ;main.c: 65:  (INTCON0bits.GIEH = 1);
   443  0004AA  8ED2               	bsf	16338,7,c	;volatile
   444                           
   445                           ;main.c: 68:  (INTCON0bits.GIEL = 1);
   446  0004AC  8CD2               	bsf	16338,6,c	;volatile
   447  0004AE                     l1915:
   448                           
   449                           ;main.c: 77:   if (UART1_is_tx_ready())
   450  0004AE  ECCD  F003         	call	_UART1_is_tx_ready	;wreg free
   451  0004B2  0900               	iorlw	0
   452  0004B4  B4D8               	btfsc	status,2,c
   453  0004B6  D004               	goto	l1921
   454                           
   455                           ;main.c: 78:    UART1_Write(x++);
   456  0004B8  5058               	movf	main@x,w,c
   457  0004BA  EC31  F002         	call	_UART1_Write
   458  0004BE  2A58               	incf	main@x,f,c
   459  0004C0                     l1921:
   460                           
   461                           ;main.c: 79:   if (UART2_is_tx_ready())
   462  0004C0  ECCB  F003         	call	_UART2_is_tx_ready	;wreg free
   463  0004C4  0900               	iorlw	0
   464  0004C6  B4D8               	btfsc	status,2,c
   465  0004C8  D7F2               	goto	l1915
   466                           
   467                           ;main.c: 80:    UART2_Write(y++);
   468  0004CA  5059               	movf	main@y,w,c
   469  0004CC  EC13  F002         	call	_UART2_Write
   470  0004D0  2A59               	incf	main@y,f,c
   471  0004D2  D7ED               	goto	l1915
   472  0004D4                     __end_of_main:
   473                           	opt callstack 0
   474                           
   475 ;; *************** function _UART2_is_tx_ready *****************
   476 ;; Defined at:
   477 ;;		line 157 in file "mcc_generated_files/uart2.c"
   478 ;; Parameters:    Size  Location     Type
   479 ;;		None
   480 ;; Auto vars:     Size  Location     Type
   481 ;;		None
   482 ;; Return value:  Size  Location     Type
   483 ;;                  1    wreg      unsigned char 
   484 ;; Registers used:
   485 ;;		wreg, status,2
   486 ;; Tracked objects:
   487 ;;		On entry : 0/0
   488 ;;		On exit  : 0/0
   489 ;;		Unchanged: 0/0
   490 ;; Data sizes:     COMRAM   BANK0   BANK1   BANK2   BANK3   BANK4   BANK5   BANK6   BANK7   BANK8   BANK9  BANK10  BANK1
      +1  BANK12  BANK13  BANK14  BANK15  BANK16  BANK17  BANK18  BANK19  BANK20  BANK21  BANK22  BANK23  BANK24  BANK25  BANK2
      +6  BANK27  BANK28  BANK29  BANK30  BANK31
   491 ;;      Params:         0       0       0       0       0       0       0       0       0       0       0       0       
      +0       0       0       0       0       0       0       0       0       0       0       0       0       0       0       
      +0       0       0       0       0       0
   492 ;;      Locals:         0       0       0       0       0       0       0       0       0       0       0       0       
      +0       0       0       0       0       0       0       0       0       0       0       0       0       0       0       
      +0       0       0       0       0       0
   493 ;;      Temps:          0       0       0       0       0       0       0       0       0       0       0       0       
      +0       0       0       0       0       0       0       0       0       0       0       0       0       0       0       
      +0       0       0       0       0       0
   494 ;;      Totals:         0       0       0       0       0       0       0       0       0       0       0       0       
      +0       0       0       0       0       0       0       0       0       0       0       0       0       0       0       
      +0       0       0       0       0       0
   495 ;;Total ram usage:        0 bytes
   496 ;; Hardware stack levels used:    1
   497 ;; Hardware stack levels required when called:    4
   498 ;; This function calls:
   499 ;;		Nothing
   500 ;; This function is called by:
   501 ;;		_main
   502 ;; This function uses a non-reentrant model
   503 ;;
   504                           
   505                           	psect	text1
   506  000796                     __ptext1:
   507                           	opt callstack 0
   508  000796                     _UART2_is_tx_ready:
   509                           	opt callstack 26
   510                           
   511                           ;mcc_generated_files/uart2.c: 159:     return uart2TxBufferRemaining;
   512                           
   513                           ;incstack = 0
   514  000796  504B               	movf	_uart2TxBufferRemaining,w,c	;volatile
   515  000798  0012               	return		;funcret
   516  00079A                     __end_of_UART2_is_tx_ready:
   517                           	opt callstack 0
   518                           
   519 ;; *************** function _UART2_Write *****************
   520 ;; Defined at:
   521 ;;		line 193 in file "mcc_generated_files/uart2.c"
   522 ;; Parameters:    Size  Location     Type
   523 ;;  txData          1    wreg     unsigned char 
   524 ;; Auto vars:     Size  Location     Type
   525 ;;  txData          1    0[COMRAM] unsigned char 
   526 ;; Return value:  Size  Location     Type
   527 ;;                  1    wreg      void 
   528 ;; Registers used:
   529 ;;		wreg, fsr2l, fsr2h, status,2, status,0
   530 ;; Tracked objects:
   531 ;;		On entry : 0/0
   532 ;;		On exit  : 0/0
   533 ;;		Unchanged: 0/0
   534 ;; Data sizes:     COMRAM   BANK0   BANK1   BANK2   BANK3   BANK4   BANK5   BANK6   BANK7   BANK8   BANK9  BANK10  BANK1
      +1  BANK12  BANK13  BANK14  BANK15  BANK16  BANK17  BANK18  BANK19  BANK20  BANK21  BANK22  BANK23  BANK24  BANK25  BANK2
      +6  BANK27  BANK28  BANK29  BANK30  BANK31
   535 ;;      Params:         0       0       0       0       0       0       0       0       0       0       0       0       
      +0       0       0       0       0       0       0       0       0       0       0       0       0       0       0       
      +0       0       0       0       0       0
   536 ;;      Locals:         1       0       0       0       0       0       0       0       0       0       0       0       
      +0       0       0       0       0       0       0       0       0       0       0       0       0       0       0       
      +0       0       0       0       0       0
   537 ;;      Temps:          0       0       0       0       0       0       0       0       0       0       0       0       
      +0       0       0       0       0       0       0       0       0       0       0       0       0       0       0       
      +0       0       0       0       0       0
   538 ;;      Totals:         1       0       0       0       0       0       0       0       0       0       0       0       
      +0       0       0       0       0       0       0       0       0       0       0       0       0       0       0       
      +0       0       0       0       0       0
   539 ;;Total ram usage:        1 bytes
   540 ;; Hardware stack levels used:    1
   541 ;; Hardware stack levels required when called:    4
   542 ;; This function calls:
   543 ;;		Nothing
   544 ;; This function is called by:
   545 ;;		_main
   546 ;; This function uses a non-reentrant model
   547 ;;
   548                           
   549                           	psect	text2
   550  000426                     __ptext2:
   551                           	opt callstack 0
   552  000426                     _UART2_Write:
   553                           	opt callstack 26
   554                           
   555                           ;incstack = 0
   556                           ;UART2_Write@txData stored from wreg
   557  000426  6E55               	movwf	UART2_Write@txData,c
   558  000428                     
   559                           ;mcc_generated_files/uart2.c: 195:     while(0 == uart2TxBufferRemaining)
   560                           
   561                           ;mcc_generated_files/uart2.c: 193: void UART2_Write(uint8_t txData);mcc_generated_files/
      +                          uart2.c: 194: {;mcc_generated_files/uart2.c: 195:     while(0 == uart2TxBufferRemaining)
   562  000428  504B               	movf	_uart2TxBufferRemaining,w,c	;volatile
   563  00042A  B4D8               	btfsc	status,2,c
   564  00042C  D7FD               	goto	l1557
   565                           
   566                           ;mcc_generated_files/uart2.c: 199:     if(0 == PIE6bits.U2TXIE)
   567  00042E  0139               	movlb	57	; () banked
   568  000430  B796               	btfsc	150,3,b	;volatile
   569  000432  D004               	goto	l472
   570                           
   571                           ; BSR set to: 57
   572                           ;mcc_generated_files/uart2.c: 200:     {;mcc_generated_files/uart2.c: 201:         U2TXB
      +                           = txData;
   573  000434  0060  F157  FDD2   	movff	UART2_Write@txData,15826	;volatile
   574                           
   575                           ;mcc_generated_files/uart2.c: 202:     }
   576  00043A  D011               	goto	l1573
   577  00043C                     l472:
   578                           
   579                           ; BSR set to: 57
   580                           ;mcc_generated_files/uart2.c: 204:     {;mcc_generated_files/uart2.c: 205:         PIE6b
      +                          its.U2TXIE = 0;
   581  00043C  9796               	bcf	150,3,b	;volatile
   582                           
   583                           ; BSR set to: 57
   584                           ;mcc_generated_files/uart2.c: 206:         uart2TxBuffer[uart2TxHead++] = txData;
   585  00043E  0E09               	movlw	low _uart2TxBuffer
   586  000440  244D               	addwf	_uart2TxHead,w,c	;volatile
   587  000442  6ED9               	movwf	fsr2l,c
   588  000444  6ADA               	clrf	fsr2h,c
   589  000446  0E00               	movlw	high _uart2TxBuffer
   590  000448  22DA               	addwfc	fsr2h,f,c
   591  00044A  0060  F157  FFDF   	movff	UART2_Write@txData,indf2
   592                           
   593                           ; BSR set to: 57
   594  000450  2A4D               	incf	_uart2TxHead,f,c	;volatile
   595                           
   596                           ; BSR set to: 57
   597                           ;mcc_generated_files/uart2.c: 207:         if(sizeof(uart2TxBuffer) <= uart2TxHead)
   598  000452  0E07               	movlw	7
   599  000454  644D               	cpfsgt	_uart2TxHead,c	;volatile
   600  000456  D002               	goto	l1571
   601                           
   602                           ; BSR set to: 57
   603                           ;mcc_generated_files/uart2.c: 208:         {;mcc_generated_files/uart2.c: 209:          
      +                             uart2TxHead = 0;
   604  000458  0E00               	movlw	0
   605  00045A  6E4D               	movwf	_uart2TxHead,c	;volatile
   606  00045C                     l1571:
   607                           
   608                           ; BSR set to: 57
   609                           ;mcc_generated_files/uart2.c: 211:         uart2TxBufferRemaining--;
   610  00045C  064B               	decf	_uart2TxBufferRemaining,f,c	;volatile
   611  00045E                     l1573:
   612                           
   613                           ; BSR set to: 57
   614                           ;mcc_generated_files/uart2.c: 213:     PIE6bits.U2TXIE = 1;
   615  00045E  8796               	bsf	150,3,b	;volatile
   616                           
   617                           ; BSR set to: 57
   618  000460  0012               	return		;funcret
   619  000462                     __end_of_UART2_Write:
   620                           	opt callstack 0
   621                           
   622 ;; *************** function _UART1_is_tx_ready *****************
   623 ;; Defined at:
   624 ;;		line 166 in file "mcc_generated_files/uart1.c"
   625 ;; Parameters:    Size  Location     Type
   626 ;;		None
   627 ;; Auto vars:     Size  Location     Type
   628 ;;		None
   629 ;; Return value:  Size  Location     Type
   630 ;;                  1    wreg      unsigned char 
   631 ;; Registers used:
   632 ;;		wreg, status,2
   633 ;; Tracked objects:
   634 ;;		On entry : 0/0
   635 ;;		On exit  : 0/0
   636 ;;		Unchanged: 0/0
   637 ;; Data sizes:     COMRAM   BANK0   BANK1   BANK2   BANK3   BANK4   BANK5   BANK6   BANK7   BANK8   BANK9  BANK10  BANK1
      +1  BANK12  BANK13  BANK14  BANK15  BANK16  BANK17  BANK18  BANK19  BANK20  BANK21  BANK22  BANK23  BANK24  BANK25  BANK2
      +6  BANK27  BANK28  BANK29  BANK30  BANK31
   638 ;;      Params:         0       0       0       0       0       0       0       0       0       0       0       0       
      +0       0       0       0       0       0       0       0       0       0       0       0       0       0       0       
      +0       0       0       0       0       0
   639 ;;      Locals:         0       0       0       0       0       0       0       0       0       0       0       0       
      +0       0       0       0       0       0       0       0       0       0       0       0       0       0       0       
      +0       0       0       0       0       0
   640 ;;      Temps:          0       0       0       0       0       0       0       0       0       0       0       0       
      +0       0       0       0       0       0       0       0       0       0       0       0       0       0       0       
      +0       0       0       0       0       0
   641 ;;      Totals:         0       0       0       0       0       0       0       0       0       0       0       0       
      +0       0       0       0       0       0       0       0       0       0       0       0       0       0       0       
      +0       0       0       0       0       0
   642 ;;Total ram usage:        0 bytes
   643 ;; Hardware stack levels used:    1
   644 ;; Hardware stack levels required when called:    4
   645 ;; This function calls:
   646 ;;		Nothing
   647 ;; This function is called by:
   648 ;;		_main
   649 ;; This function uses a non-reentrant model
   650 ;;
   651                           
   652                           	psect	text3
   653  00079A                     __ptext3:
   654                           	opt callstack 0
   655  00079A                     _UART1_is_tx_ready:
   656                           	opt callstack 26
   657                           
   658                           ;mcc_generated_files/uart1.c: 168:     return uart1TxBufferRemaining;
   659                           
   660                           ; BSR set to: 57
   661                           ;incstack = 0
   662  00079A  5052               	movf	_uart1TxBufferRemaining,w,c	;volatile
   663  00079C  0012               	return		;funcret
   664  00079E                     __end_of_UART1_is_tx_ready:
   665                           	opt callstack 0
   666                           
   667 ;; *************** function _UART1_Write *****************
   668 ;; Defined at:
   669 ;;		line 202 in file "mcc_generated_files/uart1.c"
   670 ;; Parameters:    Size  Location     Type
   671 ;;  txData          1    wreg     unsigned char 
   672 ;; Auto vars:     Size  Location     Type
   673 ;;  txData          1    0[COMRAM] unsigned char 
   674 ;; Return value:  Size  Location     Type
   675 ;;                  1    wreg      void 
   676 ;; Registers used:
   677 ;;		wreg, fsr2l, fsr2h, status,2, status,0
   678 ;; Tracked objects:
   679 ;;		On entry : 0/0
   680 ;;		On exit  : 0/0
   681 ;;		Unchanged: 0/0
   682 ;; Data sizes:     COMRAM   BANK0   BANK1   BANK2   BANK3   BANK4   BANK5   BANK6   BANK7   BANK8   BANK9  BANK10  BANK1
      +1  BANK12  BANK13  BANK14  BANK15  BANK16  BANK17  BANK18  BANK19  BANK20  BANK21  BANK22  BANK23  BANK24  BANK25  BANK2
      +6  BANK27  BANK28  BANK29  BANK30  BANK31
   683 ;;      Params:         0       0       0       0       0       0       0       0       0       0       0       0       
      +0       0       0       0       0       0       0       0       0       0       0       0       0       0       0       
      +0       0       0       0       0       0
   684 ;;      Locals:         1       0       0       0       0       0       0       0       0       0       0       0       
      +0       0       0       0       0       0       0       0       0       0       0       0       0       0       0       
      +0       0       0       0       0       0
   685 ;;      Temps:          0       0       0       0       0       0       0       0       0       0       0       0       
      +0       0       0       0       0       0       0       0       0       0       0       0       0       0       0       
      +0       0       0       0       0       0
   686 ;;      Totals:         1       0       0       0       0       0       0       0       0       0       0       0       
      +0       0       0       0       0       0       0       0       0       0       0       0       0       0       0       
      +0       0       0       0       0       0
   687 ;;Total ram usage:        1 bytes
   688 ;; Hardware stack levels used:    1
   689 ;; Hardware stack levels required when called:    4
   690 ;; This function calls:
   691 ;;		Nothing
   692 ;; This function is called by:
   693 ;;		_main
   694 ;; This function uses a non-reentrant model
   695 ;;
   696                           
   697                           	psect	text4
   698  000462                     __ptext4:
   699                           	opt callstack 0
   700  000462                     _UART1_Write:
   701                           	opt callstack 26
   702                           
   703                           ;incstack = 0
   704                           ;UART1_Write@txData stored from wreg
   705  000462  6E55               	movwf	UART1_Write@txData,c
   706  000464                     
   707                           ;mcc_generated_files/uart1.c: 204:     while(0 == uart1TxBufferRemaining)
   708                           
   709                           ;mcc_generated_files/uart1.c: 202: void UART1_Write(uint8_t txData);mcc_generated_files/
      +                          uart1.c: 203: {;mcc_generated_files/uart1.c: 204:     while(0 == uart1TxBufferRemaining)
   710  000464  5052               	movf	_uart1TxBufferRemaining,w,c	;volatile
   711  000466  B4D8               	btfsc	status,2,c
   712  000468  D7FD               	goto	l1503
   713                           
   714                           ;mcc_generated_files/uart1.c: 208:     if(0 == PIE3bits.U1TXIE)
   715  00046A  0139               	movlb	57	; () banked
   716  00046C  B993               	btfsc	147,4,b	;volatile
   717  00046E  D004               	goto	l304
   718                           
   719                           ; BSR set to: 57
   720                           ;mcc_generated_files/uart1.c: 209:     {;mcc_generated_files/uart1.c: 210:         U1TXB
      +                           = txData;
   721  000470  0060  F157  FDEA   	movff	UART1_Write@txData,15850	;volatile
   722                           
   723                           ;mcc_generated_files/uart1.c: 211:     }
   724  000476  D011               	goto	l1519
   725  000478                     l304:
   726                           
   727                           ; BSR set to: 57
   728                           ;mcc_generated_files/uart1.c: 213:     {;mcc_generated_files/uart1.c: 214:         PIE3b
      +                          its.U1TXIE = 0;
   729  000478  9993               	bcf	147,4,b	;volatile
   730                           
   731                           ; BSR set to: 57
   732                           ;mcc_generated_files/uart1.c: 215:         uart1TxBuffer[uart1TxHead++] = txData;
   733  00047A  0E21               	movlw	low _uart1TxBuffer
   734  00047C  2454               	addwf	_uart1TxHead,w,c	;volatile
   735  00047E  6ED9               	movwf	fsr2l,c
   736  000480  6ADA               	clrf	fsr2h,c
   737  000482  0E00               	movlw	high _uart1TxBuffer
   738  000484  22DA               	addwfc	fsr2h,f,c
   739  000486  0060  F157  FFDF   	movff	UART1_Write@txData,indf2
   740                           
   741                           ; BSR set to: 57
   742  00048C  2A54               	incf	_uart1TxHead,f,c	;volatile
   743                           
   744                           ; BSR set to: 57
   745                           ;mcc_generated_files/uart1.c: 216:         if(sizeof(uart1TxBuffer) <= uart1TxHead)
   746  00048E  0E07               	movlw	7
   747  000490  6454               	cpfsgt	_uart1TxHead,c	;volatile
   748  000492  D002               	goto	l1517
   749                           
   750                           ; BSR set to: 57
   751                           ;mcc_generated_files/uart1.c: 217:         {;mcc_generated_files/uart1.c: 218:          
      +                             uart1TxHead = 0;
   752  000494  0E00               	movlw	0
   753  000496  6E54               	movwf	_uart1TxHead,c	;volatile
   754  000498                     l1517:
   755                           
   756                           ; BSR set to: 57
   757                           ;mcc_generated_files/uart1.c: 220:         uart1TxBufferRemaining--;
   758  000498  0652               	decf	_uart1TxBufferRemaining,f,c	;volatile
   759  00049A                     l1519:
   760                           
   761                           ; BSR set to: 57
   762                           ;mcc_generated_files/uart1.c: 222:     PIE3bits.U1TXIE = 1;
   763  00049A  8993               	bsf	147,4,b	;volatile
   764                           
   765                           ; BSR set to: 57
   766  00049C  0012               	return		;funcret
   767  00049E                     __end_of_UART1_Write:
   768                           	opt callstack 0
   769                           
   770 ;; *************** function _SYSTEM_Initialize *****************
   771 ;; Defined at:
   772 ;;		line 50 in file "mcc_generated_files/mcc.c"
   773 ;; Parameters:    Size  Location     Type
   774 ;;		None
   775 ;; Auto vars:     Size  Location     Type
   776 ;;		None
   777 ;; Return value:  Size  Location     Type
   778 ;;                  1    wreg      void 
   779 ;; Registers used:
   780 ;;		wreg, status,2, status,0, cstack
   781 ;; Tracked objects:
   782 ;;		On entry : 0/0
   783 ;;		On exit  : 0/0
   784 ;;		Unchanged: 0/0
   785 ;; Data sizes:     COMRAM   BANK0   BANK1   BANK2   BANK3   BANK4   BANK5   BANK6   BANK7   BANK8   BANK9  BANK10  BANK1
      +1  BANK12  BANK13  BANK14  BANK15  BANK16  BANK17  BANK18  BANK19  BANK20  BANK21  BANK22  BANK23  BANK24  BANK25  BANK2
      +6  BANK27  BANK28  BANK29  BANK30  BANK31
   786 ;;      Params:         0       0       0       0       0       0       0       0       0       0       0       0       
      +0       0       0       0       0       0       0       0       0       0       0       0       0       0       0       
      +0       0       0       0       0       0
   787 ;;      Locals:         0       0       0       0       0       0       0       0       0       0       0       0       
      +0       0       0       0       0       0       0       0       0       0       0       0       0       0       0       
      +0       0       0       0       0       0
   788 ;;      Temps:          0       0       0       0       0       0       0       0       0       0       0       0       
      +0       0       0       0       0       0       0       0       0       0       0       0       0       0       0       
      +0       0       0       0       0       0
   789 ;;      Totals:         0       0       0       0       0       0       0       0       0       0       0       0       
      +0       0       0       0       0       0       0       0       0       0       0       0       0       0       0       
      +0       0       0       0       0       0
   790 ;;Total ram usage:        0 bytes
   791 ;; Hardware stack levels used:    1
   792 ;; Hardware stack levels required when called:    6
   793 ;; This function calls:
   794 ;;		_INTERRUPT_Initialize
   795 ;;		_OSCILLATOR_Initialize
   796 ;;		_PIN_MANAGER_Initialize
   797 ;;		_PMD_Initialize
   798 ;;		_PWM8_Initialize
   799 ;;		_TMR2_Initialize
   800 ;;		_UART1_Initialize
   801 ;;		_UART2_Initialize
   802 ;; This function is called by:
   803 ;;		_main
   804 ;; This function uses a non-reentrant model
   805 ;;
   806                           
   807                           	psect	text5
   808  00057E                     __ptext5:
   809                           	opt callstack 0
   810  00057E                     _SYSTEM_Initialize:
   811                           	opt callstack 24
   812                           
   813                           ;mcc_generated_files/mcc.c: 52:     INTERRUPT_Initialize();
   814                           
   815                           ; BSR set to: 57
   816                           ;incstack = 0
   817  00057E  ECF1  F001         	call	_INTERRUPT_Initialize	;wreg free
   818                           
   819                           ;mcc_generated_files/mcc.c: 53:     PMD_Initialize();
   820  000582  ECAD  F002         	call	_PMD_Initialize	;wreg free
   821                           
   822                           ;mcc_generated_files/mcc.c: 54:     PIN_MANAGER_Initialize();
   823  000586  EC0B  F001         	call	_PIN_MANAGER_Initialize	;wreg free
   824                           
   825                           ;mcc_generated_files/mcc.c: 55:     OSCILLATOR_Initialize();
   826  00058A  EC47  F003         	call	_OSCILLATOR_Initialize	;wreg free
   827                           
   828                           ;mcc_generated_files/mcc.c: 56:     TMR2_Initialize();
   829  00058E  EC38  F003         	call	_TMR2_Initialize	;wreg free
   830                           
   831                           ;mcc_generated_files/mcc.c: 57:     PWM8_Initialize();
   832  000592  EC55  F003         	call	_PWM8_Initialize	;wreg free
   833                           
   834                           ;mcc_generated_files/mcc.c: 58:     UART2_Initialize();
   835  000596  ECB5  F000         	call	_UART2_Initialize	;wreg free
   836                           
   837                           ;mcc_generated_files/mcc.c: 59:     UART1_Initialize();
   838  00059A  EC59  F000         	call	_UART1_Initialize	;wreg free
   839  00059E  0012               	return		;funcret
   840  0005A0                     __end_of_SYSTEM_Initialize:
   841                           	opt callstack 0
   842                           
   843 ;; *************** function _UART2_Initialize *****************
   844 ;; Defined at:
   845 ;;		line 87 in file "mcc_generated_files/uart2.c"
   846 ;; Parameters:    Size  Location     Type
   847 ;;		None
   848 ;; Auto vars:     Size  Location     Type
   849 ;;		None
   850 ;; Return value:  Size  Location     Type
   851 ;;                  1    wreg      void 
   852 ;; Registers used:
   853 ;;		wreg, status,2, status,0, cstack
   854 ;; Tracked objects:
   855 ;;		On entry : 0/0
   856 ;;		On exit  : 0/0
   857 ;;		Unchanged: 0/0
   858 ;; Data sizes:     COMRAM   BANK0   BANK1   BANK2   BANK3   BANK4   BANK5   BANK6   BANK7   BANK8   BANK9  BANK10  BANK1
      +1  BANK12  BANK13  BANK14  BANK15  BANK16  BANK17  BANK18  BANK19  BANK20  BANK21  BANK22  BANK23  BANK24  BANK25  BANK2
      +6  BANK27  BANK28  BANK29  BANK30  BANK31
   859 ;;      Params:         0       0       0       0       0       0       0       0       0       0       0       0       
      +0       0       0       0       0       0       0       0       0       0       0       0       0       0       0       
      +0       0       0       0       0       0
   860 ;;      Locals:         0       0       0       0       0       0       0       0       0       0       0       0       
      +0       0       0       0       0       0       0       0       0       0       0       0       0       0       0       
      +0       0       0       0       0       0
   861 ;;      Temps:          0       0       0       0       0       0       0       0       0       0       0       0       
      +0       0       0       0       0       0       0       0       0       0       0       0       0       0       0       
      +0       0       0       0       0       0
   862 ;;      Totals:         0       0       0       0       0       0       0       0       0       0       0       0       
      +0       0       0       0       0       0       0       0       0       0       0       0       0       0       0       
      +0       0       0       0       0       0
   863 ;;Total ram usage:        0 bytes
   864 ;; Hardware stack levels used:    1
   865 ;; Hardware stack levels required when called:    5
   866 ;; This function calls:
   867 ;;		_UART2_SetErrorHandler
   868 ;;		_UART2_SetFramingErrorHandler
   869 ;;		_UART2_SetOverrunErrorHandler
   870 ;;		_UART2_SetRxInterruptHandler
   871 ;;		_UART2_SetTxInterruptHandler
   872 ;; This function is called by:
   873 ;;		_SYSTEM_Initialize
   874 ;; This function uses a non-reentrant model
   875 ;;
   876                           
   877                           	psect	text6
   878  00016A                     __ptext6:
   879                           	opt callstack 0
   880  00016A                     _UART2_Initialize:
   881                           	opt callstack 24
   882                           
   883                           ;mcc_generated_files/uart2.c: 90:     PIE6bits.U2RXIE = 0;
   884                           
   885                           ;incstack = 0
   886  00016A  0139               	movlb	57	; () banked
   887  00016C  9596               	bcf	150,2,b	;volatile
   888                           
   889                           ; BSR set to: 57
   890                           ;mcc_generated_files/uart2.c: 91:     UART2_SetRxInterruptHandler(UART2_Receive_ISR);
   891  00016E  0E4A               	movlw	low _UART2_Receive_ISR
   892  000170  6E55               	movwf	UART2_SetRxInterruptHandler@InterruptHandler,c
   893  000172  0E03               	movlw	high _UART2_Receive_ISR
   894  000174  6E56               	movwf	UART2_SetRxInterruptHandler@InterruptHandler+1,c
   895  000176  0E00               	movlw	low (_UART2_Receive_ISR shr (0+16))
   896  000178  6E57               	movwf	UART2_SetRxInterruptHandler@InterruptHandler+2,c
   897  00017A  EC6B  F003         	call	_UART2_SetRxInterruptHandler	;wreg free
   898                           
   899                           ;mcc_generated_files/uart2.c: 92:     PIE6bits.U2TXIE = 0;
   900  00017E  0139               	movlb	57	; () banked
   901  000180  9796               	bcf	150,3,b	;volatile
   902                           
   903                           ;mcc_generated_files/uart2.c: 93:     UART2_SetTxInterruptHandler(UART2_Transmit_ISR);
   904  000182  0E02               	movlw	low _UART2_Transmit_ISR
   905  000184  6E55               	movwf	UART2_SetTxInterruptHandler@InterruptHandler,c
   906  000186  0E05               	movlw	high _UART2_Transmit_ISR
   907  000188  6E56               	movwf	UART2_SetTxInterruptHandler@InterruptHandler+1,c
   908  00018A  0E00               	movlw	low (_UART2_Transmit_ISR shr (0+16))
   909  00018C  6E57               	movwf	UART2_SetTxInterruptHandler@InterruptHandler+2,c
   910  00018E  EC61  F003         	call	_UART2_SetTxInterruptHandler	;wreg free
   911                           
   912                           ;mcc_generated_files/uart2.c: 98:     U2P1L = 0x00;
   913  000192  0E00               	movlw	0
   914  000194  013D               	movlb	61	; () banked
   915  000196  6FD4               	movwf	212,b	;volatile
   916                           
   917                           ; BSR set to: 61
   918                           ;mcc_generated_files/uart2.c: 101:     U2P2L = 0x00;
   919  000198  0E00               	movlw	0
   920  00019A  6FD6               	movwf	214,b	;volatile
   921                           
   922                           ; BSR set to: 61
   923                           ;mcc_generated_files/uart2.c: 104:     U2P3L = 0x00;
   924  00019C  0E00               	movlw	0
   925  00019E  6FD8               	movwf	216,b	;volatile
   926                           
   927                           ; BSR set to: 61
   928                           ;mcc_generated_files/uart2.c: 107:     U2CON0 = 0xB0;
   929  0001A0  0EB0               	movlw	176
   930  0001A2  6FDA               	movwf	218,b	;volatile
   931                           
   932                           ; BSR set to: 61
   933                           ;mcc_generated_files/uart2.c: 110:     U2CON1 = 0x80;
   934  0001A4  0E80               	movlw	128
   935  0001A6  6FDB               	movwf	219,b	;volatile
   936                           
   937                           ; BSR set to: 61
   938                           ;mcc_generated_files/uart2.c: 113:     U2CON2 = 0x04;
   939  0001A8  0E04               	movlw	4
   940  0001AA  6FDC               	movwf	220,b	;volatile
   941                           
   942                           ; BSR set to: 61
   943                           ;mcc_generated_files/uart2.c: 116:     U2BRGL = 0x82;
   944  0001AC  0E82               	movlw	130
   945  0001AE  6FDD               	movwf	221,b	;volatile
   946                           
   947                           ; BSR set to: 61
   948                           ;mcc_generated_files/uart2.c: 119:     U2BRGH = 0x06;
   949  0001B0  0E06               	movlw	6
   950  0001B2  6FDE               	movwf	222,b	;volatile
   951                           
   952                           ; BSR set to: 61
   953                           ;mcc_generated_files/uart2.c: 122:     U2FIFO = 0x00;
   954  0001B4  0E00               	movlw	0
   955  0001B6  6FDF               	movwf	223,b	;volatile
   956                           
   957                           ; BSR set to: 61
   958                           ;mcc_generated_files/uart2.c: 125:     U2UIR = 0x00;
   959  0001B8  0E00               	movlw	0
   960  0001BA  6FE0               	movwf	224,b	;volatile
   961                           
   962                           ; BSR set to: 61
   963                           ;mcc_generated_files/uart2.c: 128:     U2ERRIR = 0x00;
   964  0001BC  0E00               	movlw	0
   965  0001BE  6FE1               	movwf	225,b	;volatile
   966                           
   967                           ; BSR set to: 61
   968                           ;mcc_generated_files/uart2.c: 131:     U2ERRIE = 0x00;
   969  0001C0  0E00               	movlw	0
   970  0001C2  6FE2               	movwf	226,b	;volatile
   971                           
   972                           ;mcc_generated_files/uart2.c: 134:     UART2_SetFramingErrorHandler(UART2_DefaultFraming
      +                          ErrorHandler);
   973  0001C4  0EA8               	movlw	low _UART2_DefaultFramingErrorHandler
   974  0001C6  6E55               	movwf	UART2_SetFramingErrorHandler@interruptHandler,c
   975  0001C8  0E07               	movlw	high _UART2_DefaultFramingErrorHandler
   976  0001CA  6E56               	movwf	UART2_SetFramingErrorHandler@interruptHandler+1,c
   977  0001CC  0E00               	movlw	low (_UART2_DefaultFramingErrorHandler shr (0+16))
   978  0001CE  6E57               	movwf	UART2_SetFramingErrorHandler@interruptHandler+2,c
   979  0001D0  EC7F  F003         	call	_UART2_SetFramingErrorHandler	;wreg free
   980                           
   981                           ;mcc_generated_files/uart2.c: 135:     UART2_SetOverrunErrorHandler(UART2_DefaultOverrun
      +                          ErrorHandler);
   982  0001D4  0EA6               	movlw	low _UART2_DefaultOverrunErrorHandler
   983  0001D6  6E55               	movwf	UART2_SetOverrunErrorHandler@interruptHandler,c
   984  0001D8  0E07               	movlw	high _UART2_DefaultOverrunErrorHandler
   985  0001DA  6E56               	movwf	UART2_SetOverrunErrorHandler@interruptHandler+1,c
   986  0001DC  0E00               	movlw	low (_UART2_DefaultOverrunErrorHandler shr (0+16))
   987  0001DE  6E57               	movwf	UART2_SetOverrunErrorHandler@interruptHandler+2,c
   988  0001E0  EC75  F003         	call	_UART2_SetOverrunErrorHandler	;wreg free
   989                           
   990                           ;mcc_generated_files/uart2.c: 136:     UART2_SetErrorHandler(UART2_DefaultErrorHandler);
   991  0001E4  0E90               	movlw	low _UART2_DefaultErrorHandler
   992  0001E6  6E55               	movwf	UART2_SetErrorHandler@interruptHandler,c
   993  0001E8  0E07               	movlw	high _UART2_DefaultErrorHandler
   994  0001EA  6E56               	movwf	UART2_SetErrorHandler@interruptHandler+1,c
   995  0001EC  0E00               	movlw	low (_UART2_DefaultErrorHandler shr (0+16))
   996  0001EE  6E57               	movwf	UART2_SetErrorHandler@interruptHandler+2,c
   997  0001F0  EC89  F003         	call	_UART2_SetErrorHandler	;wreg free
   998                           
   999                           ;mcc_generated_files/uart2.c: 138:     uart2RxLastError.status = 0;
  1000  0001F4  0E00               	movlw	0
  1001  0001F6  6E47               	movwf	_uart2RxLastError,c	;volatile
  1002                           
  1003                           ;mcc_generated_files/uart2.c: 141:     uart2TxHead = 0;
  1004  0001F8  0E00               	movlw	0
  1005  0001FA  6E4D               	movwf	_uart2TxHead,c	;volatile
  1006                           
  1007                           ;mcc_generated_files/uart2.c: 142:     uart2TxTail = 0;
  1008  0001FC  0E00               	movlw	0
  1009  0001FE  6E4C               	movwf	_uart2TxTail,c	;volatile
  1010                           
  1011                           ;mcc_generated_files/uart2.c: 143:     uart2TxBufferRemaining = sizeof(uart2TxBuffer);
  1012  000200  0E08               	movlw	8
  1013  000202  6E4B               	movwf	_uart2TxBufferRemaining,c	;volatile
  1014                           
  1015                           ;mcc_generated_files/uart2.c: 144:     uart2RxHead = 0;
  1016  000204  0E00               	movlw	0
  1017  000206  6E4A               	movwf	_uart2RxHead,c	;volatile
  1018                           
  1019                           ;mcc_generated_files/uart2.c: 145:     uart2RxTail = 0;
  1020  000208  0E00               	movlw	0
  1021  00020A  6E49               	movwf	_uart2RxTail,c	;volatile
  1022                           
  1023                           ;mcc_generated_files/uart2.c: 146:     uart2RxCount = 0;
  1024  00020C  0E00               	movlw	0
  1025  00020E  6E48               	movwf	_uart2RxCount,c	;volatile
  1026                           
  1027                           ;mcc_generated_files/uart2.c: 149:     PIE6bits.U2RXIE = 1;
  1028  000210  0139               	movlb	57	; () banked
  1029  000212  8596               	bsf	150,2,b	;volatile
  1030                           
  1031                           ; BSR set to: 57
  1032  000214  0012               	return		;funcret
  1033  000216                     __end_of_UART2_Initialize:
  1034                           	opt callstack 0
  1035                           
  1036 ;; *************** function _UART2_SetTxInterruptHandler *****************
  1037 ;; Defined at:
  1038 ;;		line 314 in file "mcc_generated_files/uart2.c"
  1039 ;; Parameters:    Size  Location     Type
  1040 ;;  InterruptHan    3    0[COMRAM] PTR FTN()void 
  1041 ;;		 -> UART2_Transmit_ISR(1), 
  1042 ;; Auto vars:     Size  Location     Type
  1043 ;;		None
  1044 ;; Return value:  Size  Location     Type
  1045 ;;                  1    wreg      void 
  1046 ;; Registers used:
  1047 ;;		wreg, status,2, status,0
  1048 ;; Tracked objects:
  1049 ;;		On entry : 0/0
  1050 ;;		On exit  : 0/0
  1051 ;;		Unchanged: 0/0
  1052 ;; Data sizes:     COMRAM   BANK0   BANK1   BANK2   BANK3   BANK4   BANK5   BANK6   BANK7   BANK8   BANK9  BANK10  BANK1
      +1  BANK12  BANK13  BANK14  BANK15  BANK16  BANK17  BANK18  BANK19  BANK20  BANK21  BANK22  BANK23  BANK24  BANK25  BANK2
      +6  BANK27  BANK28  BANK29  BANK30  BANK31
  1053 ;;      Params:         3       0       0       0       0       0       0       0       0       0       0       0       
      +0       0       0       0       0       0       0       0       0       0       0       0       0       0       0       
      +0       0       0       0       0       0
  1054 ;;      Locals:         0       0       0       0       0       0       0       0       0       0       0       0       
      +0       0       0       0       0       0       0       0       0       0       0       0       0       0       0       
      +0       0       0       0       0       0
  1055 ;;      Temps:          0       0       0       0       0       0       0       0       0       0       0       0       
      +0       0       0       0       0       0       0       0       0       0       0       0       0       0       0       
      +0       0       0       0       0       0
  1056 ;;      Totals:         3       0       0       0       0       0       0       0       0       0       0       0       
      +0       0       0       0       0       0       0       0       0       0       0       0       0       0       0       
      +0       0       0       0       0       0
  1057 ;;Total ram usage:        3 bytes
  1058 ;; Hardware stack levels used:    1
  1059 ;; Hardware stack levels required when called:    4
  1060 ;; This function calls:
  1061 ;;		Nothing
  1062 ;; This function is called by:
  1063 ;;		_UART2_Initialize
  1064 ;; This function uses a non-reentrant model
  1065 ;;
  1066                           
  1067                           	psect	text7
  1068  0006C2                     __ptext7:
  1069                           	opt callstack 0
  1070  0006C2                     _UART2_SetTxInterruptHandler:
  1071                           	opt callstack 24
  1072                           
  1073                           ;mcc_generated_files/uart2.c: 315:     UART2_TxInterruptHandler = InterruptHandler;
  1074                           
  1075                           ; BSR set to: 57
  1076                           ;incstack = 0
  1077  0006C2  0060  F154  F041   	movff	UART2_SetTxInterruptHandler@InterruptHandler,_UART2_TxInterruptHandler
  1078  0006C8  0060  F158  F042   	movff	UART2_SetTxInterruptHandler@InterruptHandler+1,_UART2_TxInterruptHandler+1
  1079  0006CE  0060  F15C  F043   	movff	UART2_SetTxInterruptHandler@InterruptHandler+2,_UART2_TxInterruptHandler+2
  1080  0006D4  0012               	return		;funcret
  1081  0006D6                     __end_of_UART2_SetTxInterruptHandler:
  1082                           	opt callstack 0
  1083                           
  1084 ;; *************** function _UART2_SetRxInterruptHandler *****************
  1085 ;; Defined at:
  1086 ;;		line 310 in file "mcc_generated_files/uart2.c"
  1087 ;; Parameters:    Size  Location     Type
  1088 ;;  InterruptHan    3    0[COMRAM] PTR FTN()void 
  1089 ;;		 -> UART2_Receive_ISR(1), 
  1090 ;; Auto vars:     Size  Location     Type
  1091 ;;		None
  1092 ;; Return value:  Size  Location     Type
  1093 ;;                  1    wreg      void 
  1094 ;; Registers used:
  1095 ;;		wreg, status,2, status,0
  1096 ;; Tracked objects:
  1097 ;;		On entry : 0/0
  1098 ;;		On exit  : 0/0
  1099 ;;		Unchanged: 0/0
  1100 ;; Data sizes:     COMRAM   BANK0   BANK1   BANK2   BANK3   BANK4   BANK5   BANK6   BANK7   BANK8   BANK9  BANK10  BANK1
      +1  BANK12  BANK13  BANK14  BANK15  BANK16  BANK17  BANK18  BANK19  BANK20  BANK21  BANK22  BANK23  BANK24  BANK25  BANK2
      +6  BANK27  BANK28  BANK29  BANK30  BANK31
  1101 ;;      Params:         3       0       0       0       0       0       0       0       0       0       0       0       
      +0       0       0       0       0       0       0       0       0       0       0       0       0       0       0       
      +0       0       0       0       0       0
  1102 ;;      Locals:         0       0       0       0       0       0       0       0       0       0       0       0       
      +0       0       0       0       0       0       0       0       0       0       0       0       0       0       0       
      +0       0       0       0       0       0
  1103 ;;      Temps:          0       0       0       0       0       0       0       0       0       0       0       0       
      +0       0       0       0       0       0       0       0       0       0       0       0       0       0       0       
      +0       0       0       0       0       0
  1104 ;;      Totals:         3       0       0       0       0       0       0       0       0       0       0       0       
      +0       0       0       0       0       0       0       0       0       0       0       0       0       0       0       
      +0       0       0       0       0       0
  1105 ;;Total ram usage:        3 bytes
  1106 ;; Hardware stack levels used:    1
  1107 ;; Hardware stack levels required when called:    4
  1108 ;; This function calls:
  1109 ;;		Nothing
  1110 ;; This function is called by:
  1111 ;;		_UART2_Initialize
  1112 ;; This function uses a non-reentrant model
  1113 ;;
  1114                           
  1115                           	psect	text8
  1116  0006D6                     __ptext8:
  1117                           	opt callstack 0
  1118  0006D6                     _UART2_SetRxInterruptHandler:
  1119                           	opt callstack 24
  1120                           
  1121                           ;mcc_generated_files/uart2.c: 311:     UART2_RxInterruptHandler = InterruptHandler;
  1122                           
  1123                           ;incstack = 0
  1124  0006D6  0060  F154  F044   	movff	UART2_SetRxInterruptHandler@InterruptHandler,_UART2_RxInterruptHandler
  1125  0006DC  0060  F158  F045   	movff	UART2_SetRxInterruptHandler@InterruptHandler+1,_UART2_RxInterruptHandler+1
  1126  0006E2  0060  F15C  F046   	movff	UART2_SetRxInterruptHandler@InterruptHandler+2,_UART2_RxInterruptHandler+2
  1127  0006E8  0012               	return		;funcret
  1128  0006EA                     __end_of_UART2_SetRxInterruptHandler:
  1129                           	opt callstack 0
  1130                           
  1131 ;; *************** function _UART2_SetOverrunErrorHandler *****************
  1132 ;; Defined at:
  1133 ;;		line 300 in file "mcc_generated_files/uart2.c"
  1134 ;; Parameters:    Size  Location     Type
  1135 ;;  interruptHan    3    0[COMRAM] PTR FTN()void 
  1136 ;;		 -> UART2_DefaultOverrunErrorHandler(1), 
  1137 ;; Auto vars:     Size  Location     Type
  1138 ;;		None
  1139 ;; Return value:  Size  Location     Type
  1140 ;;                  1    wreg      void 
  1141 ;; Registers used:
  1142 ;;		wreg, status,2, status,0
  1143 ;; Tracked objects:
  1144 ;;		On entry : 0/0
  1145 ;;		On exit  : 0/0
  1146 ;;		Unchanged: 0/0
  1147 ;; Data sizes:     COMRAM   BANK0   BANK1   BANK2   BANK3   BANK4   BANK5   BANK6   BANK7   BANK8   BANK9  BANK10  BANK1
      +1  BANK12  BANK13  BANK14  BANK15  BANK16  BANK17  BANK18  BANK19  BANK20  BANK21  BANK22  BANK23  BANK24  BANK25  BANK2
      +6  BANK27  BANK28  BANK29  BANK30  BANK31
  1148 ;;      Params:         3       0       0       0       0       0       0       0       0       0       0       0       
      +0       0       0       0       0       0       0       0       0       0       0       0       0       0       0       
      +0       0       0       0       0       0
  1149 ;;      Locals:         0       0       0       0       0       0       0       0       0       0       0       0       
      +0       0       0       0       0       0       0       0       0       0       0       0       0       0       0       
      +0       0       0       0       0       0
  1150 ;;      Temps:          0       0       0       0       0       0       0       0       0       0       0       0       
      +0       0       0       0       0       0       0       0       0       0       0       0       0       0       0       
      +0       0       0       0       0       0
  1151 ;;      Totals:         3       0       0       0       0       0       0       0       0       0       0       0       
      +0       0       0       0       0       0       0       0       0       0       0       0       0       0       0       
      +0       0       0       0       0       0
  1152 ;;Total ram usage:        3 bytes
  1153 ;; Hardware stack levels used:    1
  1154 ;; Hardware stack levels required when called:    4
  1155 ;; This function calls:
  1156 ;;		Nothing
  1157 ;; This function is called by:
  1158 ;;		_UART2_Initialize
  1159 ;; This function uses a non-reentrant model
  1160 ;;
  1161                           
  1162                           	psect	text9
  1163  0006EA                     __ptext9:
  1164                           	opt callstack 0
  1165  0006EA                     _UART2_SetOverrunErrorHandler:
  1166                           	opt callstack 24
  1167                           
  1168                           ;mcc_generated_files/uart2.c: 301:     UART2_OverrunErrorHandler = interruptHandler;
  1169                           
  1170                           ;incstack = 0
  1171  0006EA  0060  F154  F02C   	movff	UART2_SetOverrunErrorHandler@interruptHandler,_UART2_OverrunErrorHandler
  1172  0006F0  0060  F158  F02D   	movff	UART2_SetOverrunErrorHandler@interruptHandler+1,_UART2_OverrunErrorHandler+1
  1173  0006F6  0060  F15C  F02E   	movff	UART2_SetOverrunErrorHandler@interruptHandler+2,_UART2_OverrunErrorHandler+2
  1174  0006FC  0012               	return		;funcret
  1175  0006FE                     __end_of_UART2_SetOverrunErrorHandler:
  1176                           	opt callstack 0
  1177                           
  1178 ;; *************** function _UART2_SetFramingErrorHandler *****************
  1179 ;; Defined at:
  1180 ;;		line 296 in file "mcc_generated_files/uart2.c"
  1181 ;; Parameters:    Size  Location     Type
  1182 ;;  interruptHan    3    0[COMRAM] PTR FTN()void 
  1183 ;;		 -> UART2_DefaultFramingErrorHandler(1), 
  1184 ;; Auto vars:     Size  Location     Type
  1185 ;;		None
  1186 ;; Return value:  Size  Location     Type
  1187 ;;                  1    wreg      void 
  1188 ;; Registers used:
  1189 ;;		wreg, status,2, status,0
  1190 ;; Tracked objects:
  1191 ;;		On entry : 0/0
  1192 ;;		On exit  : 0/0
  1193 ;;		Unchanged: 0/0
  1194 ;; Data sizes:     COMRAM   BANK0   BANK1   BANK2   BANK3   BANK4   BANK5   BANK6   BANK7   BANK8   BANK9  BANK10  BANK1
      +1  BANK12  BANK13  BANK14  BANK15  BANK16  BANK17  BANK18  BANK19  BANK20  BANK21  BANK22  BANK23  BANK24  BANK25  BANK2
      +6  BANK27  BANK28  BANK29  BANK30  BANK31
  1195 ;;      Params:         3       0       0       0       0       0       0       0       0       0       0       0       
      +0       0       0       0       0       0       0       0       0       0       0       0       0       0       0       
      +0       0       0       0       0       0
  1196 ;;      Locals:         0       0       0       0       0       0       0       0       0       0       0       0       
      +0       0       0       0       0       0       0       0       0       0       0       0       0       0       0       
      +0       0       0       0       0       0
  1197 ;;      Temps:          0       0       0       0       0       0       0       0       0       0       0       0       
      +0       0       0       0       0       0       0       0       0       0       0       0       0       0       0       
      +0       0       0       0       0       0
  1198 ;;      Totals:         3       0       0       0       0       0       0       0       0       0       0       0       
      +0       0       0       0       0       0       0       0       0       0       0       0       0       0       0       
      +0       0       0       0       0       0
  1199 ;;Total ram usage:        3 bytes
  1200 ;; Hardware stack levels used:    1
  1201 ;; Hardware stack levels required when called:    4
  1202 ;; This function calls:
  1203 ;;		Nothing
  1204 ;; This function is called by:
  1205 ;;		_UART2_Initialize
  1206 ;; This function uses a non-reentrant model
  1207 ;;
  1208                           
  1209                           	psect	text10
  1210  0006FE                     __ptext10:
  1211                           	opt callstack 0
  1212  0006FE                     _UART2_SetFramingErrorHandler:
  1213                           	opt callstack 24
  1214                           
  1215                           ;mcc_generated_files/uart2.c: 297:     UART2_FramingErrorHandler = interruptHandler;
  1216                           
  1217                           ;incstack = 0
  1218  0006FE  0060  F154  F02F   	movff	UART2_SetFramingErrorHandler@interruptHandler,_UART2_FramingErrorHandler
  1219  000704  0060  F158  F030   	movff	UART2_SetFramingErrorHandler@interruptHandler+1,_UART2_FramingErrorHandler+1
  1220  00070A  0060  F15C  F031   	movff	UART2_SetFramingErrorHandler@interruptHandler+2,_UART2_FramingErrorHandler+2
  1221  000710  0012               	return		;funcret
  1222  000712                     __end_of_UART2_SetFramingErrorHandler:
  1223                           	opt callstack 0
  1224                           
  1225 ;; *************** function _UART2_SetErrorHandler *****************
  1226 ;; Defined at:
  1227 ;;		line 304 in file "mcc_generated_files/uart2.c"
  1228 ;; Parameters:    Size  Location     Type
  1229 ;;  interruptHan    3    0[COMRAM] PTR FTN()void 
  1230 ;;		 -> UART2_DefaultErrorHandler(1), 
  1231 ;; Auto vars:     Size  Location     Type
  1232 ;;		None
  1233 ;; Return value:  Size  Location     Type
  1234 ;;                  1    wreg      void 
  1235 ;; Registers used:
  1236 ;;		wreg, status,2, status,0
  1237 ;; Tracked objects:
  1238 ;;		On entry : 0/0
  1239 ;;		On exit  : 0/0
  1240 ;;		Unchanged: 0/0
  1241 ;; Data sizes:     COMRAM   BANK0   BANK1   BANK2   BANK3   BANK4   BANK5   BANK6   BANK7   BANK8   BANK9  BANK10  BANK1
      +1  BANK12  BANK13  BANK14  BANK15  BANK16  BANK17  BANK18  BANK19  BANK20  BANK21  BANK22  BANK23  BANK24  BANK25  BANK2
      +6  BANK27  BANK28  BANK29  BANK30  BANK31
  1242 ;;      Params:         3       0       0       0       0       0       0       0       0       0       0       0       
      +0       0       0       0       0       0       0       0       0       0       0       0       0       0       0       
      +0       0       0       0       0       0
  1243 ;;      Locals:         0       0       0       0       0       0       0       0       0       0       0       0       
      +0       0       0       0       0       0       0       0       0       0       0       0       0       0       0       
      +0       0       0       0       0       0
  1244 ;;      Temps:          0       0       0       0       0       0       0       0       0       0       0       0       
      +0       0       0       0       0       0       0       0       0       0       0       0       0       0       0       
      +0       0       0       0       0       0
  1245 ;;      Totals:         3       0       0       0       0       0       0       0       0       0       0       0       
      +0       0       0       0       0       0       0       0       0       0       0       0       0       0       0       
      +0       0       0       0       0       0
  1246 ;;Total ram usage:        3 bytes
  1247 ;; Hardware stack levels used:    1
  1248 ;; Hardware stack levels required when called:    4
  1249 ;; This function calls:
  1250 ;;		Nothing
  1251 ;; This function is called by:
  1252 ;;		_UART2_Initialize
  1253 ;; This function uses a non-reentrant model
  1254 ;;
  1255                           
  1256                           	psect	text11
  1257  000712                     __ptext11:
  1258                           	opt callstack 0
  1259  000712                     _UART2_SetErrorHandler:
  1260                           	opt callstack 24
  1261                           
  1262                           ;mcc_generated_files/uart2.c: 305:     UART2_ErrorHandler = interruptHandler;
  1263                           
  1264                           ;incstack = 0
  1265  000712  0060  F154  F029   	movff	UART2_SetErrorHandler@interruptHandler,_UART2_ErrorHandler
  1266  000718  0060  F158  F02A   	movff	UART2_SetErrorHandler@interruptHandler+1,_UART2_ErrorHandler+1
  1267  00071E  0060  F15C  F02B   	movff	UART2_SetErrorHandler@interruptHandler+2,_UART2_ErrorHandler+2
  1268  000724  0012               	return		;funcret
  1269  000726                     __end_of_UART2_SetErrorHandler:
  1270                           	opt callstack 0
  1271                           
  1272 ;; *************** function _UART1_Initialize *****************
  1273 ;; Defined at:
  1274 ;;		line 87 in file "mcc_generated_files/uart1.c"
  1275 ;; Parameters:    Size  Location     Type
  1276 ;;		None
  1277 ;; Auto vars:     Size  Location     Type
  1278 ;;		None
  1279 ;; Return value:  Size  Location     Type
  1280 ;;                  1    wreg      void 
  1281 ;; Registers used:
  1282 ;;		wreg, status,2, status,0, cstack
  1283 ;; Tracked objects:
  1284 ;;		On entry : 0/0
  1285 ;;		On exit  : 0/0
  1286 ;;		Unchanged: 0/0
  1287 ;; Data sizes:     COMRAM   BANK0   BANK1   BANK2   BANK3   BANK4   BANK5   BANK6   BANK7   BANK8   BANK9  BANK10  BANK1
      +1  BANK12  BANK13  BANK14  BANK15  BANK16  BANK17  BANK18  BANK19  BANK20  BANK21  BANK22  BANK23  BANK24  BANK25  BANK2
      +6  BANK27  BANK28  BANK29  BANK30  BANK31
  1288 ;;      Params:         0       0       0       0       0       0       0       0       0       0       0       0       
      +0       0       0       0       0       0       0       0       0       0       0       0       0       0       0       
      +0       0       0       0       0       0
  1289 ;;      Locals:         0       0       0       0       0       0       0       0       0       0       0       0       
      +0       0       0       0       0       0       0       0       0       0       0       0       0       0       0       
      +0       0       0       0       0       0
  1290 ;;      Temps:          0       0       0       0       0       0       0       0       0       0       0       0       
      +0       0       0       0       0       0       0       0       0       0       0       0       0       0       0       
      +0       0       0       0       0       0
  1291 ;;      Totals:         0       0       0       0       0       0       0       0       0       0       0       0       
      +0       0       0       0       0       0       0       0       0       0       0       0       0       0       0       
      +0       0       0       0       0       0
  1292 ;;Total ram usage:        0 bytes
  1293 ;; Hardware stack levels used:    1
  1294 ;; Hardware stack levels required when called:    5
  1295 ;; This function calls:
  1296 ;;		_UART1_SetErrorHandler
  1297 ;;		_UART1_SetFramingErrorHandler
  1298 ;;		_UART1_SetOverrunErrorHandler
  1299 ;;		_UART1_SetRxInterruptHandler
  1300 ;;		_UART1_SetTxInterruptHandler
  1301 ;; This function is called by:
  1302 ;;		_SYSTEM_Initialize
  1303 ;; This function uses a non-reentrant model
  1304 ;;
  1305                           
  1306                           	psect	text12
  1307  0000B2                     __ptext12:
  1308                           	opt callstack 0
  1309  0000B2                     _UART1_Initialize:
  1310                           	opt callstack 24
  1311                           
  1312                           ;mcc_generated_files/uart1.c: 90:     PIE3bits.U1RXIE = 0;
  1313                           
  1314                           ;incstack = 0
  1315  0000B2  0139               	movlb	57	; () banked
  1316  0000B4  9793               	bcf	147,3,b	;volatile
  1317                           
  1318                           ; BSR set to: 57
  1319                           ;mcc_generated_files/uart1.c: 91:     UART1_SetRxInterruptHandler(UART1_Receive_ISR);
  1320  0000B6  0EB2               	movlw	low _UART1_Receive_ISR
  1321  0000B8  6E55               	movwf	UART1_SetRxInterruptHandler@InterruptHandler,c
  1322  0000BA  0E02               	movlw	high _UART1_Receive_ISR
  1323  0000BC  6E56               	movwf	UART1_SetRxInterruptHandler@InterruptHandler+1,c
  1324  0000BE  0E00               	movlw	low (_UART1_Receive_ISR shr (0+16))
  1325  0000C0  6E57               	movwf	UART1_SetRxInterruptHandler@InterruptHandler+2,c
  1326  0000C2  EC9D  F003         	call	_UART1_SetRxInterruptHandler	;wreg free
  1327                           
  1328                           ;mcc_generated_files/uart1.c: 92:     PIE3bits.U1TXIE = 0;
  1329  0000C6  0139               	movlb	57	; () banked
  1330  0000C8  9993               	bcf	147,4,b	;volatile
  1331                           
  1332                           ;mcc_generated_files/uart1.c: 93:     UART1_SetTxInterruptHandler(UART1_Transmit_ISR);
  1333  0000CA  0ED4               	movlw	low _UART1_Transmit_ISR
  1334  0000CC  6E55               	movwf	UART1_SetTxInterruptHandler@InterruptHandler,c
  1335  0000CE  0E04               	movlw	high _UART1_Transmit_ISR
  1336  0000D0  6E56               	movwf	UART1_SetTxInterruptHandler@InterruptHandler+1,c
  1337  0000D2  0E00               	movlw	low (_UART1_Transmit_ISR shr (0+16))
  1338  0000D4  6E57               	movwf	UART1_SetTxInterruptHandler@InterruptHandler+2,c
  1339  0000D6  EC93  F003         	call	_UART1_SetTxInterruptHandler	;wreg free
  1340                           
  1341                           ;mcc_generated_files/uart1.c: 98:     U1P1L = 0x00;
  1342  0000DA  0E00               	movlw	0
  1343  0000DC  013D               	movlb	61	; () banked
  1344  0000DE  6FEC               	movwf	236,b	;volatile
  1345                           
  1346                           ; BSR set to: 61
  1347                           ;mcc_generated_files/uart1.c: 101:     U1P1H = 0x00;
  1348  0000E0  0E00               	movlw	0
  1349  0000E2  6FED               	movwf	237,b	;volatile
  1350                           
  1351                           ; BSR set to: 61
  1352                           ;mcc_generated_files/uart1.c: 104:     U1P2L = 0x00;
  1353  0000E4  0E00               	movlw	0
  1354  0000E6  6FEE               	movwf	238,b	;volatile
  1355                           
  1356                           ; BSR set to: 61
  1357                           ;mcc_generated_files/uart1.c: 107:     U1P2H = 0x00;
  1358  0000E8  0E00               	movlw	0
  1359  0000EA  6FEF               	movwf	239,b	;volatile
  1360                           
  1361                           ; BSR set to: 61
  1362                           ;mcc_generated_files/uart1.c: 110:     U1P3L = 0x00;
  1363  0000EC  0E00               	movlw	0
  1364  0000EE  6FF0               	movwf	240,b	;volatile
  1365                           
  1366                           ; BSR set to: 61
  1367                           ;mcc_generated_files/uart1.c: 113:     U1P3H = 0x00;
  1368  0000F0  0E00               	movlw	0
  1369  0000F2  6FF1               	movwf	241,b	;volatile
  1370                           
  1371                           ; BSR set to: 61
  1372                           ;mcc_generated_files/uart1.c: 116:     U1CON0 = 0xB0;
  1373  0000F4  0EB0               	movlw	176
  1374  0000F6  6FF2               	movwf	242,b	;volatile
  1375                           
  1376                           ; BSR set to: 61
  1377                           ;mcc_generated_files/uart1.c: 119:     U1CON1 = 0x80;
  1378  0000F8  0E80               	movlw	128
  1379  0000FA  6FF3               	movwf	243,b	;volatile
  1380                           
  1381                           ; BSR set to: 61
  1382                           ;mcc_generated_files/uart1.c: 122:     U1CON2 = 0x00;
  1383  0000FC  0E00               	movlw	0
  1384  0000FE  6FF4               	movwf	244,b	;volatile
  1385                           
  1386                           ; BSR set to: 61
  1387                           ;mcc_generated_files/uart1.c: 125:     U1BRGL = 0x82;
  1388  000100  0E82               	movlw	130
  1389  000102  6FF5               	movwf	245,b	;volatile
  1390                           
  1391                           ; BSR set to: 61
  1392                           ;mcc_generated_files/uart1.c: 128:     U1BRGH = 0x06;
  1393  000104  0E06               	movlw	6
  1394  000106  6FF6               	movwf	246,b	;volatile
  1395                           
  1396                           ; BSR set to: 61
  1397                           ;mcc_generated_files/uart1.c: 131:     U1FIFO = 0x00;
  1398  000108  0E00               	movlw	0
  1399  00010A  6FF7               	movwf	247,b	;volatile
  1400                           
  1401                           ; BSR set to: 61
  1402                           ;mcc_generated_files/uart1.c: 134:     U1UIR = 0x00;
  1403  00010C  0E00               	movlw	0
  1404  00010E  6FF8               	movwf	248,b	;volatile
  1405                           
  1406                           ; BSR set to: 61
  1407                           ;mcc_generated_files/uart1.c: 137:     U1ERRIR = 0x00;
  1408  000110  0E00               	movlw	0
  1409  000112  6FF9               	movwf	249,b	;volatile
  1410                           
  1411                           ; BSR set to: 61
  1412                           ;mcc_generated_files/uart1.c: 140:     U1ERRIE = 0x00;
  1413  000114  0E00               	movlw	0
  1414  000116  6FFA               	movwf	250,b	;volatile
  1415                           
  1416                           ; BSR set to: 61
  1417                           ;mcc_generated_files/uart1.c: 143:     UART1_SetFramingErrorHandler(UART1_DefaultFraming
      +                          ErrorHandler);
  1418  000118  0EA4               	movlw	low _UART1_DefaultFramingErrorHandler
  1419  00011A  6E55               	movwf	UART1_SetFramingErrorHandler@interruptHandler,c
  1420  00011C  0E07               	movlw	high _UART1_DefaultFramingErrorHandler
  1421  00011E  6E56               	movwf	UART1_SetFramingErrorHandler@interruptHandler+1,c
  1422  000120  0E00               	movlw	low (_UART1_DefaultFramingErrorHandler shr (0+16))
  1423  000122  6E57               	movwf	UART1_SetFramingErrorHandler@interruptHandler+2,c
  1424  000124  ECB1  F003         	call	_UART1_SetFramingErrorHandler	;wreg free
  1425                           
  1426                           ;mcc_generated_files/uart1.c: 144:     UART1_SetOverrunErrorHandler(UART1_DefaultOverrun
      +                          ErrorHandler);
  1427  000128  0EA2               	movlw	low _UART1_DefaultOverrunErrorHandler
  1428  00012A  6E55               	movwf	UART1_SetOverrunErrorHandler@interruptHandler,c
  1429  00012C  0E07               	movlw	high _UART1_DefaultOverrunErrorHandler
  1430  00012E  6E56               	movwf	UART1_SetOverrunErrorHandler@interruptHandler+1,c
  1431  000130  0E00               	movlw	low (_UART1_DefaultOverrunErrorHandler shr (0+16))
  1432  000132  6E57               	movwf	UART1_SetOverrunErrorHandler@interruptHandler+2,c
  1433  000134  ECA7  F003         	call	_UART1_SetOverrunErrorHandler	;wreg free
  1434                           
  1435                           ;mcc_generated_files/uart1.c: 145:     UART1_SetErrorHandler(UART1_DefaultErrorHandler);
  1436  000138  0E8A               	movlw	low _UART1_DefaultErrorHandler
  1437  00013A  6E55               	movwf	UART1_SetErrorHandler@interruptHandler,c
  1438  00013C  0E07               	movlw	high _UART1_DefaultErrorHandler
  1439  00013E  6E56               	movwf	UART1_SetErrorHandler@interruptHandler+1,c
  1440  000140  0E00               	movlw	low (_UART1_DefaultErrorHandler shr (0+16))
  1441  000142  6E57               	movwf	UART1_SetErrorHandler@interruptHandler+2,c
  1442  000144  ECBB  F003         	call	_UART1_SetErrorHandler	;wreg free
  1443                           
  1444                           ;mcc_generated_files/uart1.c: 147:     uart1RxLastError.status = 0;
  1445  000148  0E00               	movlw	0
  1446  00014A  6E4E               	movwf	_uart1RxLastError,c	;volatile
  1447                           
  1448                           ;mcc_generated_files/uart1.c: 150:     uart1TxHead = 0;
  1449  00014C  0E00               	movlw	0
  1450  00014E  6E54               	movwf	_uart1TxHead,c	;volatile
  1451                           
  1452                           ;mcc_generated_files/uart1.c: 151:     uart1TxTail = 0;
  1453  000150  0E00               	movlw	0
  1454  000152  6E53               	movwf	_uart1TxTail,c	;volatile
  1455                           
  1456                           ;mcc_generated_files/uart1.c: 152:     uart1TxBufferRemaining = sizeof(uart1TxBuffer);
  1457  000154  0E08               	movlw	8
  1458  000156  6E52               	movwf	_uart1TxBufferRemaining,c	;volatile
  1459                           
  1460                           ;mcc_generated_files/uart1.c: 153:     uart1RxHead = 0;
  1461  000158  0E00               	movlw	0
  1462  00015A  6E51               	movwf	_uart1RxHead,c	;volatile
  1463                           
  1464                           ;mcc_generated_files/uart1.c: 154:     uart1RxTail = 0;
  1465  00015C  0E00               	movlw	0
  1466  00015E  6E50               	movwf	_uart1RxTail,c	;volatile
  1467                           
  1468                           ;mcc_generated_files/uart1.c: 155:     uart1RxCount = 0;
  1469  000160  0E00               	movlw	0
  1470  000162  6E4F               	movwf	_uart1RxCount,c	;volatile
  1471                           
  1472                           ;mcc_generated_files/uart1.c: 158:     PIE3bits.U1RXIE = 1;
  1473  000164  0139               	movlb	57	; () banked
  1474  000166  8793               	bsf	147,3,b	;volatile
  1475                           
  1476                           ; BSR set to: 57
  1477  000168  0012               	return		;funcret
  1478  00016A                     __end_of_UART1_Initialize:
  1479                           	opt callstack 0
  1480                           
  1481 ;; *************** function _UART1_SetTxInterruptHandler *****************
  1482 ;; Defined at:
  1483 ;;		line 323 in file "mcc_generated_files/uart1.c"
  1484 ;; Parameters:    Size  Location     Type
  1485 ;;  InterruptHan    3    0[COMRAM] PTR FTN()void 
  1486 ;;		 -> UART1_Transmit_ISR(1), 
  1487 ;; Auto vars:     Size  Location     Type
  1488 ;;		None
  1489 ;; Return value:  Size  Location     Type
  1490 ;;                  1    wreg      void 
  1491 ;; Registers used:
  1492 ;;		wreg, status,2, status,0
  1493 ;; Tracked objects:
  1494 ;;		On entry : 0/0
  1495 ;;		On exit  : 0/0
  1496 ;;		Unchanged: 0/0
  1497 ;; Data sizes:     COMRAM   BANK0   BANK1   BANK2   BANK3   BANK4   BANK5   BANK6   BANK7   BANK8   BANK9  BANK10  BANK1
      +1  BANK12  BANK13  BANK14  BANK15  BANK16  BANK17  BANK18  BANK19  BANK20  BANK21  BANK22  BANK23  BANK24  BANK25  BANK2
      +6  BANK27  BANK28  BANK29  BANK30  BANK31
  1498 ;;      Params:         3       0       0       0       0       0       0       0       0       0       0       0       
      +0       0       0       0       0       0       0       0       0       0       0       0       0       0       0       
      +0       0       0       0       0       0
  1499 ;;      Locals:         0       0       0       0       0       0       0       0       0       0       0       0       
      +0       0       0       0       0       0       0       0       0       0       0       0       0       0       0       
      +0       0       0       0       0       0
  1500 ;;      Temps:          0       0       0       0       0       0       0       0       0       0       0       0       
      +0       0       0       0       0       0       0       0       0       0       0       0       0       0       0       
      +0       0       0       0       0       0
  1501 ;;      Totals:         3       0       0       0       0       0       0       0       0       0       0       0       
      +0       0       0       0       0       0       0       0       0       0       0       0       0       0       0       
      +0       0       0       0       0       0
  1502 ;;Total ram usage:        3 bytes
  1503 ;; Hardware stack levels used:    1
  1504 ;; Hardware stack levels required when called:    4
  1505 ;; This function calls:
  1506 ;;		Nothing
  1507 ;; This function is called by:
  1508 ;;		_UART1_Initialize
  1509 ;; This function uses a non-reentrant model
  1510 ;;
  1511                           
  1512                           	psect	text13
  1513  000726                     __ptext13:
  1514                           	opt callstack 0
  1515  000726                     _UART1_SetTxInterruptHandler:
  1516                           	opt callstack 24
  1517                           
  1518                           ;mcc_generated_files/uart1.c: 324:     UART1_TxInterruptHandler = InterruptHandler;
  1519                           
  1520                           ; BSR set to: 57
  1521                           ;incstack = 0
  1522  000726  0060  F154  F03B   	movff	UART1_SetTxInterruptHandler@InterruptHandler,_UART1_TxInterruptHandler
  1523  00072C  0060  F158  F03C   	movff	UART1_SetTxInterruptHandler@InterruptHandler+1,_UART1_TxInterruptHandler+1
  1524  000732  0060  F15C  F03D   	movff	UART1_SetTxInterruptHandler@InterruptHandler+2,_UART1_TxInterruptHandler+2
  1525  000738  0012               	return		;funcret
  1526  00073A                     __end_of_UART1_SetTxInterruptHandler:
  1527                           	opt callstack 0
  1528                           
  1529 ;; *************** function _UART1_SetRxInterruptHandler *****************
  1530 ;; Defined at:
  1531 ;;		line 319 in file "mcc_generated_files/uart1.c"
  1532 ;; Parameters:    Size  Location     Type
  1533 ;;  InterruptHan    3    0[COMRAM] PTR FTN()void 
  1534 ;;		 -> UART1_Receive_ISR(1), 
  1535 ;; Auto vars:     Size  Location     Type
  1536 ;;		None
  1537 ;; Return value:  Size  Location     Type
  1538 ;;                  1    wreg      void 
  1539 ;; Registers used:
  1540 ;;		wreg, status,2, status,0
  1541 ;; Tracked objects:
  1542 ;;		On entry : 0/0
  1543 ;;		On exit  : 0/0
  1544 ;;		Unchanged: 0/0
  1545 ;; Data sizes:     COMRAM   BANK0   BANK1   BANK2   BANK3   BANK4   BANK5   BANK6   BANK7   BANK8   BANK9  BANK10  BANK1
      +1  BANK12  BANK13  BANK14  BANK15  BANK16  BANK17  BANK18  BANK19  BANK20  BANK21  BANK22  BANK23  BANK24  BANK25  BANK2
      +6  BANK27  BANK28  BANK29  BANK30  BANK31
  1546 ;;      Params:         3       0       0       0       0       0       0       0       0       0       0       0       
      +0       0       0       0       0       0       0       0       0       0       0       0       0       0       0       
      +0       0       0       0       0       0
  1547 ;;      Locals:         0       0       0       0       0       0       0       0       0       0       0       0       
      +0       0       0       0       0       0       0       0       0       0       0       0       0       0       0       
      +0       0       0       0       0       0
  1548 ;;      Temps:          0       0       0       0       0       0       0       0       0       0       0       0       
      +0       0       0       0       0       0       0       0       0       0       0       0       0       0       0       
      +0       0       0       0       0       0
  1549 ;;      Totals:         3       0       0       0       0       0       0       0       0       0       0       0       
      +0       0       0       0       0       0       0       0       0       0       0       0       0       0       0       
      +0       0       0       0       0       0
  1550 ;;Total ram usage:        3 bytes
  1551 ;; Hardware stack levels used:    1
  1552 ;; Hardware stack levels required when called:    4
  1553 ;; This function calls:
  1554 ;;		Nothing
  1555 ;; This function is called by:
  1556 ;;		_UART1_Initialize
  1557 ;; This function uses a non-reentrant model
  1558 ;;
  1559                           
  1560                           	psect	text14
  1561  00073A                     __ptext14:
  1562                           	opt callstack 0
  1563  00073A                     _UART1_SetRxInterruptHandler:
  1564                           	opt callstack 24
  1565                           
  1566                           ;mcc_generated_files/uart1.c: 320:     UART1_RxInterruptHandler = InterruptHandler;
  1567                           
  1568                           ;incstack = 0
  1569  00073A  0060  F154  F03E   	movff	UART1_SetRxInterruptHandler@InterruptHandler,_UART1_RxInterruptHandler
  1570  000740  0060  F158  F03F   	movff	UART1_SetRxInterruptHandler@InterruptHandler+1,_UART1_RxInterruptHandler+1
  1571  000746  0060  F15C  F040   	movff	UART1_SetRxInterruptHandler@InterruptHandler+2,_UART1_RxInterruptHandler+2
  1572  00074C  0012               	return		;funcret
  1573  00074E                     __end_of_UART1_SetRxInterruptHandler:
  1574                           	opt callstack 0
  1575                           
  1576 ;; *************** function _UART1_SetOverrunErrorHandler *****************
  1577 ;; Defined at:
  1578 ;;		line 309 in file "mcc_generated_files/uart1.c"
  1579 ;; Parameters:    Size  Location     Type
  1580 ;;  interruptHan    3    0[COMRAM] PTR FTN()void 
  1581 ;;		 -> UART1_DefaultOverrunErrorHandler(1), 
  1582 ;; Auto vars:     Size  Location     Type
  1583 ;;		None
  1584 ;; Return value:  Size  Location     Type
  1585 ;;                  1    wreg      void 
  1586 ;; Registers used:
  1587 ;;		wreg, status,2, status,0
  1588 ;; Tracked objects:
  1589 ;;		On entry : 0/0
  1590 ;;		On exit  : 0/0
  1591 ;;		Unchanged: 0/0
  1592 ;; Data sizes:     COMRAM   BANK0   BANK1   BANK2   BANK3   BANK4   BANK5   BANK6   BANK7   BANK8   BANK9  BANK10  BANK1
      +1  BANK12  BANK13  BANK14  BANK15  BANK16  BANK17  BANK18  BANK19  BANK20  BANK21  BANK22  BANK23  BANK24  BANK25  BANK2
      +6  BANK27  BANK28  BANK29  BANK30  BANK31
  1593 ;;      Params:         3       0       0       0       0       0       0       0       0       0       0       0       
      +0       0       0       0       0       0       0       0       0       0       0       0       0       0       0       
      +0       0       0       0       0       0
  1594 ;;      Locals:         0       0       0       0       0       0       0       0       0       0       0       0       
      +0       0       0       0       0       0       0       0       0       0       0       0       0       0       0       
      +0       0       0       0       0       0
  1595 ;;      Temps:          0       0       0       0       0       0       0       0       0       0       0       0       
      +0       0       0       0       0       0       0       0       0       0       0       0       0       0       0       
      +0       0       0       0       0       0
  1596 ;;      Totals:         3       0       0       0       0       0       0       0       0       0       0       0       
      +0       0       0       0       0       0       0       0       0       0       0       0       0       0       0       
      +0       0       0       0       0       0
  1597 ;;Total ram usage:        3 bytes
  1598 ;; Hardware stack levels used:    1
  1599 ;; Hardware stack levels required when called:    4
  1600 ;; This function calls:
  1601 ;;		Nothing
  1602 ;; This function is called by:
  1603 ;;		_UART1_Initialize
  1604 ;; This function uses a non-reentrant model
  1605 ;;
  1606                           
  1607                           	psect	text15
  1608  00074E                     __ptext15:
  1609                           	opt callstack 0
  1610  00074E                     _UART1_SetOverrunErrorHandler:
  1611                           	opt callstack 24
  1612                           
  1613                           ;mcc_generated_files/uart1.c: 310:     UART1_OverrunErrorHandler = interruptHandler;
  1614                           
  1615                           ;incstack = 0
  1616  00074E  0060  F154  F035   	movff	UART1_SetOverrunErrorHandler@interruptHandler,_UART1_OverrunErrorHandler
  1617  000754  0060  F158  F036   	movff	UART1_SetOverrunErrorHandler@interruptHandler+1,_UART1_OverrunErrorHandler+1
  1618  00075A  0060  F15C  F037   	movff	UART1_SetOverrunErrorHandler@interruptHandler+2,_UART1_OverrunErrorHandler+2
  1619  000760  0012               	return		;funcret
  1620  000762                     __end_of_UART1_SetOverrunErrorHandler:
  1621                           	opt callstack 0
  1622                           
  1623 ;; *************** function _UART1_SetFramingErrorHandler *****************
  1624 ;; Defined at:
  1625 ;;		line 305 in file "mcc_generated_files/uart1.c"
  1626 ;; Parameters:    Size  Location     Type
  1627 ;;  interruptHan    3    0[COMRAM] PTR FTN()void 
  1628 ;;		 -> UART1_DefaultFramingErrorHandler(1), 
  1629 ;; Auto vars:     Size  Location     Type
  1630 ;;		None
  1631 ;; Return value:  Size  Location     Type
  1632 ;;                  1    wreg      void 
  1633 ;; Registers used:
  1634 ;;		wreg, status,2, status,0
  1635 ;; Tracked objects:
  1636 ;;		On entry : 0/0
  1637 ;;		On exit  : 0/0
  1638 ;;		Unchanged: 0/0
  1639 ;; Data sizes:     COMRAM   BANK0   BANK1   BANK2   BANK3   BANK4   BANK5   BANK6   BANK7   BANK8   BANK9  BANK10  BANK1
      +1  BANK12  BANK13  BANK14  BANK15  BANK16  BANK17  BANK18  BANK19  BANK20  BANK21  BANK22  BANK23  BANK24  BANK25  BANK2
      +6  BANK27  BANK28  BANK29  BANK30  BANK31
  1640 ;;      Params:         3       0       0       0       0       0       0       0       0       0       0       0       
      +0       0       0       0       0       0       0       0       0       0       0       0       0       0       0       
      +0       0       0       0       0       0
  1641 ;;      Locals:         0       0       0       0       0       0       0       0       0       0       0       0       
      +0       0       0       0       0       0       0       0       0       0       0       0       0       0       0       
      +0       0       0       0       0       0
  1642 ;;      Temps:          0       0       0       0       0       0       0       0       0       0       0       0       
      +0       0       0       0       0       0       0       0       0       0       0       0       0       0       0       
      +0       0       0       0       0       0
  1643 ;;      Totals:         3       0       0       0       0       0       0       0       0       0       0       0       
      +0       0       0       0       0       0       0       0       0       0       0       0       0       0       0       
      +0       0       0       0       0       0
  1644 ;;Total ram usage:        3 bytes
  1645 ;; Hardware stack levels used:    1
  1646 ;; Hardware stack levels required when called:    4
  1647 ;; This function calls:
  1648 ;;		Nothing
  1649 ;; This function is called by:
  1650 ;;		_UART1_Initialize
  1651 ;; This function uses a non-reentrant model
  1652 ;;
  1653                           
  1654                           	psect	text16
  1655  000762                     __ptext16:
  1656                           	opt callstack 0
  1657  000762                     _UART1_SetFramingErrorHandler:
  1658                           	opt callstack 24
  1659                           
  1660                           ;mcc_generated_files/uart1.c: 306:     UART1_FramingErrorHandler = interruptHandler;
  1661                           
  1662                           ;incstack = 0
  1663  000762  0060  F154  F038   	movff	UART1_SetFramingErrorHandler@interruptHandler,_UART1_FramingErrorHandler
  1664  000768  0060  F158  F039   	movff	UART1_SetFramingErrorHandler@interruptHandler+1,_UART1_FramingErrorHandler+1
  1665  00076E  0060  F15C  F03A   	movff	UART1_SetFramingErrorHandler@interruptHandler+2,_UART1_FramingErrorHandler+2
  1666  000774  0012               	return		;funcret
  1667  000776                     __end_of_UART1_SetFramingErrorHandler:
  1668                           	opt callstack 0
  1669                           
  1670 ;; *************** function _UART1_SetErrorHandler *****************
  1671 ;; Defined at:
  1672 ;;		line 313 in file "mcc_generated_files/uart1.c"
  1673 ;; Parameters:    Size  Location     Type
  1674 ;;  interruptHan    3    0[COMRAM] PTR FTN()void 
  1675 ;;		 -> UART1_DefaultErrorHandler(1), 
  1676 ;; Auto vars:     Size  Location     Type
  1677 ;;		None
  1678 ;; Return value:  Size  Location     Type
  1679 ;;                  1    wreg      void 
  1680 ;; Registers used:
  1681 ;;		wreg, status,2, status,0
  1682 ;; Tracked objects:
  1683 ;;		On entry : 0/0
  1684 ;;		On exit  : 0/0
  1685 ;;		Unchanged: 0/0
  1686 ;; Data sizes:     COMRAM   BANK0   BANK1   BANK2   BANK3   BANK4   BANK5   BANK6   BANK7   BANK8   BANK9  BANK10  BANK1
      +1  BANK12  BANK13  BANK14  BANK15  BANK16  BANK17  BANK18  BANK19  BANK20  BANK21  BANK22  BANK23  BANK24  BANK25  BANK2
      +6  BANK27  BANK28  BANK29  BANK30  BANK31
  1687 ;;      Params:         3       0       0       0       0       0       0       0       0       0       0       0       
      +0       0       0       0       0       0       0       0       0       0       0       0       0       0       0       
      +0       0       0       0       0       0
  1688 ;;      Locals:         0       0       0       0       0       0       0       0       0       0       0       0       
      +0       0       0       0       0       0       0       0       0       0       0       0       0       0       0       
      +0       0       0       0       0       0
  1689 ;;      Temps:          0       0       0       0       0       0       0       0       0       0       0       0       
      +0       0       0       0       0       0       0       0       0       0       0       0       0       0       0       
      +0       0       0       0       0       0
  1690 ;;      Totals:         3       0       0       0       0       0       0       0       0       0       0       0       
      +0       0       0       0       0       0       0       0       0       0       0       0       0       0       0       
      +0       0       0       0       0       0
  1691 ;;Total ram usage:        3 bytes
  1692 ;; Hardware stack levels used:    1
  1693 ;; Hardware stack levels required when called:    4
  1694 ;; This function calls:
  1695 ;;		Nothing
  1696 ;; This function is called by:
  1697 ;;		_UART1_Initialize
  1698 ;; This function uses a non-reentrant model
  1699 ;;
  1700                           
  1701                           	psect	text17
  1702  000776                     __ptext17:
  1703                           	opt callstack 0
  1704  000776                     _UART1_SetErrorHandler:
  1705                           	opt callstack 24
  1706                           
  1707                           ;mcc_generated_files/uart1.c: 314:     UART1_ErrorHandler = interruptHandler;
  1708                           
  1709                           ;incstack = 0
  1710  000776  0060  F154  F032   	movff	UART1_SetErrorHandler@interruptHandler,_UART1_ErrorHandler
  1711  00077C  0060  F158  F033   	movff	UART1_SetErrorHandler@interruptHandler+1,_UART1_ErrorHandler+1
  1712  000782  0060  F15C  F034   	movff	UART1_SetErrorHandler@interruptHandler+2,_UART1_ErrorHandler+2
  1713  000788  0012               	return		;funcret
  1714  00078A                     __end_of_UART1_SetErrorHandler:
  1715                           	opt callstack 0
  1716                           
  1717 ;; *************** function _TMR2_Initialize *****************
  1718 ;; Defined at:
  1719 ;;		line 62 in file "mcc_generated_files/tmr2.c"
  1720 ;; Parameters:    Size  Location     Type
  1721 ;;		None
  1722 ;; Auto vars:     Size  Location     Type
  1723 ;;		None
  1724 ;; Return value:  Size  Location     Type
  1725 ;;                  1    wreg      void 
  1726 ;; Registers used:
  1727 ;;		wreg, status,2
  1728 ;; Tracked objects:
  1729 ;;		On entry : 0/0
  1730 ;;		On exit  : 0/0
  1731 ;;		Unchanged: 0/0
  1732 ;; Data sizes:     COMRAM   BANK0   BANK1   BANK2   BANK3   BANK4   BANK5   BANK6   BANK7   BANK8   BANK9  BANK10  BANK1
      +1  BANK12  BANK13  BANK14  BANK15  BANK16  BANK17  BANK18  BANK19  BANK20  BANK21  BANK22  BANK23  BANK24  BANK25  BANK2
      +6  BANK27  BANK28  BANK29  BANK30  BANK31
  1733 ;;      Params:         0       0       0       0       0       0       0       0       0       0       0       0       
      +0       0       0       0       0       0       0       0       0       0       0       0       0       0       0       
      +0       0       0       0       0       0
  1734 ;;      Locals:         0       0       0       0       0       0       0       0       0       0       0       0       
      +0       0       0       0       0       0       0       0       0       0       0       0       0       0       0       
      +0       0       0       0       0       0
  1735 ;;      Temps:          0       0       0       0       0       0       0       0       0       0       0       0       
      +0       0       0       0       0       0       0       0       0       0       0       0       0       0       0       
      +0       0       0       0       0       0
  1736 ;;      Totals:         0       0       0       0       0       0       0       0       0       0       0       0       
      +0       0       0       0       0       0       0       0       0       0       0       0       0       0       0       
      +0       0       0       0       0       0
  1737 ;;Total ram usage:        0 bytes
  1738 ;; Hardware stack levels used:    1
  1739 ;; Hardware stack levels required when called:    4
  1740 ;; This function calls:
  1741 ;;		Nothing
  1742 ;; This function is called by:
  1743 ;;		_SYSTEM_Initialize
  1744 ;; This function uses a non-reentrant model
  1745 ;;
  1746                           
  1747                           	psect	text18
  1748  000670                     __ptext18:
  1749                           	opt callstack 0
  1750  000670                     _TMR2_Initialize:
  1751                           	opt callstack 25
  1752                           
  1753                           ;mcc_generated_files/tmr2.c: 67:     T2CLKCON = 0x01;
  1754                           
  1755                           ;incstack = 0
  1756  000670  0E01               	movlw	1
  1757  000672  6EAE               	movwf	16302,c	;volatile
  1758                           
  1759                           ;mcc_generated_files/tmr2.c: 70:     T2HLT = 0x00;
  1760  000674  0E00               	movlw	0
  1761  000676  6EAD               	movwf	16301,c	;volatile
  1762                           
  1763                           ;mcc_generated_files/tmr2.c: 73:     T2RST = 0x00;
  1764  000678  0E00               	movlw	0
  1765  00067A  6EAF               	movwf	16303,c	;volatile
  1766                           
  1767                           ;mcc_generated_files/tmr2.c: 76:     T2PR = 0x63;
  1768  00067C  0E63               	movlw	99
  1769  00067E  6EAB               	movwf	16299,c	;volatile
  1770                           
  1771                           ;mcc_generated_files/tmr2.c: 79:     T2TMR = 0x00;
  1772  000680  0E00               	movlw	0
  1773  000682  6EAA               	movwf	16298,c	;volatile
  1774                           
  1775                           ;mcc_generated_files/tmr2.c: 82:     PIR4bits.TMR2IF = 0;
  1776  000684  0139               	movlb	57	; () banked
  1777  000686  95A4               	bcf	164,2,b	;volatile
  1778                           
  1779                           ;mcc_generated_files/tmr2.c: 85:     T2CON = 0xC0;
  1780  000688  0EC0               	movlw	192
  1781  00068A  6EAC               	movwf	16300,c	;volatile
  1782                           
  1783                           ; BSR set to: 57
  1784  00068C  0012               	return		;funcret
  1785  00068E                     __end_of_TMR2_Initialize:
  1786                           	opt callstack 0
  1787                           
  1788 ;; *************** function _PWM8_Initialize *****************
  1789 ;; Defined at:
  1790 ;;		line 58 in file "mcc_generated_files/pwm8.c"
  1791 ;; Parameters:    Size  Location     Type
  1792 ;;		None
  1793 ;; Auto vars:     Size  Location     Type
  1794 ;;		None
  1795 ;; Return value:  Size  Location     Type
  1796 ;;                  1    wreg      void 
  1797 ;; Registers used:
  1798 ;;		wreg, status,2
  1799 ;; Tracked objects:
  1800 ;;		On entry : 0/0
  1801 ;;		On exit  : 0/0
  1802 ;;		Unchanged: 0/0
  1803 ;; Data sizes:     COMRAM   BANK0   BANK1   BANK2   BANK3   BANK4   BANK5   BANK6   BANK7   BANK8   BANK9  BANK10  BANK1
      +1  BANK12  BANK13  BANK14  BANK15  BANK16  BANK17  BANK18  BANK19  BANK20  BANK21  BANK22  BANK23  BANK24  BANK25  BANK2
      +6  BANK27  BANK28  BANK29  BANK30  BANK31
  1804 ;;      Params:         0       0       0       0       0       0       0       0       0       0       0       0       
      +0       0       0       0       0       0       0       0       0       0       0       0       0       0       0       
      +0       0       0       0       0       0
  1805 ;;      Locals:         0       0       0       0       0       0       0       0       0       0       0       0       
      +0       0       0       0       0       0       0       0       0       0       0       0       0       0       0       
      +0       0       0       0       0       0
  1806 ;;      Temps:          0       0       0       0       0       0       0       0       0       0       0       0       
      +0       0       0       0       0       0       0       0       0       0       0       0       0       0       0       
      +0       0       0       0       0       0
  1807 ;;      Totals:         0       0       0       0       0       0       0       0       0       0       0       0       
      +0       0       0       0       0       0       0       0       0       0       0       0       0       0       0       
      +0       0       0       0       0       0
  1808 ;;Total ram usage:        0 bytes
  1809 ;; Hardware stack levels used:    1
  1810 ;; Hardware stack levels required when called:    4
  1811 ;; This function calls:
  1812 ;;		Nothing
  1813 ;; This function is called by:
  1814 ;;		_SYSTEM_Initialize
  1815 ;; This function uses a non-reentrant model
  1816 ;;
  1817                           
  1818                           	psect	text19
  1819  0006AA                     __ptext19:
  1820                           	opt callstack 0
  1821  0006AA                     _PWM8_Initialize:
  1822                           	opt callstack 25
  1823                           
  1824                           ;mcc_generated_files/pwm8.c: 62:     PWM8CON = 0x80;
  1825                           
  1826                           ; BSR set to: 57
  1827                           ;incstack = 0
  1828  0006AA  0E80               	movlw	128
  1829  0006AC  6E62               	movwf	16226,c	;volatile
  1830                           
  1831                           ;mcc_generated_files/pwm8.c: 65:     PWM8DCH = 0x31;
  1832  0006AE  0E31               	movlw	49
  1833  0006B0  6E61               	movwf	16225,c	;volatile
  1834                           
  1835                           ;mcc_generated_files/pwm8.c: 68:     PWM8DCL = 0xC0;
  1836  0006B2  0EC0               	movlw	192
  1837  0006B4  6E60               	movwf	16224,c	;volatile
  1838                           
  1839                           ;mcc_generated_files/pwm8.c: 71:     CCPTMRS1bits.P8TSEL = 1;
  1840  0006B6  013F               	movlb	63	; () banked
  1841  0006B8  515F               	movf	95,w,b	;volatile
  1842  0006BA  0B3F               	andlw	-193
  1843  0006BC  0940               	iorlw	64
  1844  0006BE  6F5F               	movwf	95,b	;volatile
  1845                           
  1846                           ; BSR set to: 63
  1847  0006C0  0012               	return		;funcret
  1848  0006C2                     __end_of_PWM8_Initialize:
  1849                           	opt callstack 0
  1850                           
  1851 ;; *************** function _PMD_Initialize *****************
  1852 ;; Defined at:
  1853 ;;		line 80 in file "mcc_generated_files/mcc.c"
  1854 ;; Parameters:    Size  Location     Type
  1855 ;;		None
  1856 ;; Auto vars:     Size  Location     Type
  1857 ;;		None
  1858 ;; Return value:  Size  Location     Type
  1859 ;;                  1    wreg      void 
  1860 ;; Registers used:
  1861 ;;		wreg, status,2
  1862 ;; Tracked objects:
  1863 ;;		On entry : 0/0
  1864 ;;		On exit  : 0/0
  1865 ;;		Unchanged: 0/0
  1866 ;; Data sizes:     COMRAM   BANK0   BANK1   BANK2   BANK3   BANK4   BANK5   BANK6   BANK7   BANK8   BANK9  BANK10  BANK1
      +1  BANK12  BANK13  BANK14  BANK15  BANK16  BANK17  BANK18  BANK19  BANK20  BANK21  BANK22  BANK23  BANK24  BANK25  BANK2
      +6  BANK27  BANK28  BANK29  BANK30  BANK31
  1867 ;;      Params:         0       0       0       0       0       0       0       0       0       0       0       0       
      +0       0       0       0       0       0       0       0       0       0       0       0       0       0       0       
      +0       0       0       0       0       0
  1868 ;;      Locals:         0       0       0       0       0       0       0       0       0       0       0       0       
      +0       0       0       0       0       0       0       0       0       0       0       0       0       0       0       
      +0       0       0       0       0       0
  1869 ;;      Temps:          0       0       0       0       0       0       0       0       0       0       0       0       
      +0       0       0       0       0       0       0       0       0       0       0       0       0       0       0       
      +0       0       0       0       0       0
  1870 ;;      Totals:         0       0       0       0       0       0       0       0       0       0       0       0       
      +0       0       0       0       0       0       0       0       0       0       0       0       0       0       0       
      +0       0       0       0       0       0
  1871 ;;Total ram usage:        0 bytes
  1872 ;; Hardware stack levels used:    1
  1873 ;; Hardware stack levels required when called:    4
  1874 ;; This function calls:
  1875 ;;		Nothing
  1876 ;; This function is called by:
  1877 ;;		_SYSTEM_Initialize
  1878 ;; This function uses a non-reentrant model
  1879 ;;
  1880                           
  1881                           	psect	text20
  1882  00055A                     __ptext20:
  1883                           	opt callstack 0
  1884  00055A                     _PMD_Initialize:
  1885                           	opt callstack 25
  1886                           
  1887                           ;mcc_generated_files/mcc.c: 83:     PMD0 = 0x00;
  1888                           
  1889                           ; BSR set to: 63
  1890                           ;incstack = 0
  1891  00055A  0E00               	movlw	0
  1892  00055C  0139               	movlb	57	; () banked
  1893  00055E  6FC0               	movwf	192,b	;volatile
  1894                           
  1895                           ;mcc_generated_files/mcc.c: 85:     PMD1 = 0x00;
  1896  000560  0E00               	movlw	0
  1897  000562  6FC1               	movwf	193,b	;volatile
  1898                           
  1899                           ;mcc_generated_files/mcc.c: 87:     PMD2 = 0x00;
  1900  000564  0E00               	movlw	0
  1901  000566  6FC2               	movwf	194,b	;volatile
  1902                           
  1903                           ;mcc_generated_files/mcc.c: 89:     PMD3 = 0x00;
  1904  000568  0E00               	movlw	0
  1905  00056A  6FC3               	movwf	195,b	;volatile
  1906                           
  1907                           ;mcc_generated_files/mcc.c: 91:     PMD4 = 0x00;
  1908  00056C  0E00               	movlw	0
  1909  00056E  6FC4               	movwf	196,b	;volatile
  1910                           
  1911                           ;mcc_generated_files/mcc.c: 93:     PMD5 = 0x00;
  1912  000570  0E00               	movlw	0
  1913  000572  6FC5               	movwf	197,b	;volatile
  1914                           
  1915                           ;mcc_generated_files/mcc.c: 95:     PMD6 = 0x00;
  1916  000574  0E00               	movlw	0
  1917  000576  6FC6               	movwf	198,b	;volatile
  1918                           
  1919                           ;mcc_generated_files/mcc.c: 97:     PMD7 = 0x00;
  1920  000578  0E00               	movlw	0
  1921  00057A  6FC7               	movwf	199,b	;volatile
  1922                           
  1923                           ; BSR set to: 57
  1924  00057C  0012               	return		;funcret
  1925  00057E                     __end_of_PMD_Initialize:
  1926                           	opt callstack 0
  1927                           
  1928 ;; *************** function _PIN_MANAGER_Initialize *****************
  1929 ;; Defined at:
  1930 ;;		line 55 in file "mcc_generated_files/pin_manager.c"
  1931 ;; Parameters:    Size  Location     Type
  1932 ;;		None
  1933 ;; Auto vars:     Size  Location     Type
  1934 ;;		None
  1935 ;; Return value:  Size  Location     Type
  1936 ;;                  1    wreg      void 
  1937 ;; Registers used:
  1938 ;;		wreg, status,2
  1939 ;; Tracked objects:
  1940 ;;		On entry : 0/0
  1941 ;;		On exit  : 0/0
  1942 ;;		Unchanged: 0/0
  1943 ;; Data sizes:     COMRAM   BANK0   BANK1   BANK2   BANK3   BANK4   BANK5   BANK6   BANK7   BANK8   BANK9  BANK10  BANK1
      +1  BANK12  BANK13  BANK14  BANK15  BANK16  BANK17  BANK18  BANK19  BANK20  BANK21  BANK22  BANK23  BANK24  BANK25  BANK2
      +6  BANK27  BANK28  BANK29  BANK30  BANK31
  1944 ;;      Params:         0       0       0       0       0       0       0       0       0       0       0       0       
      +0       0       0       0       0       0       0       0       0       0       0       0       0       0       0       
      +0       0       0       0       0       0
  1945 ;;      Locals:         0       0       0       0       0       0       0       0       0       0       0       0       
      +0       0       0       0       0       0       0       0       0       0       0       0       0       0       0       
      +0       0       0       0       0       0
  1946 ;;      Temps:          0       0       0       0       0       0       0       0       0       0       0       0       
      +0       0       0       0       0       0       0       0       0       0       0       0       0       0       0       
      +0       0       0       0       0       0
  1947 ;;      Totals:         0       0       0       0       0       0       0       0       0       0       0       0       
      +0       0       0       0       0       0       0       0       0       0       0       0       0       0       0       
      +0       0       0       0       0       0
  1948 ;;Total ram usage:        0 bytes
  1949 ;; Hardware stack levels used:    1
  1950 ;; Hardware stack levels required when called:    4
  1951 ;; This function calls:
  1952 ;;		Nothing
  1953 ;; This function is called by:
  1954 ;;		_SYSTEM_Initialize
  1955 ;; This function uses a non-reentrant model
  1956 ;;
  1957                           
  1958                           	psect	text21
  1959  000216                     __ptext21:
  1960                           	opt callstack 0
  1961  000216                     _PIN_MANAGER_Initialize:
  1962                           	opt callstack 25
  1963                           
  1964                           ;mcc_generated_files/pin_manager.c: 60:     LATE = 0x01;
  1965                           
  1966                           ; BSR set to: 57
  1967                           ;incstack = 0
  1968  000216  0E01               	movlw	1
  1969  000218  6EBE               	movwf	16318,c	;volatile
  1970                           
  1971                           ;mcc_generated_files/pin_manager.c: 61:     LATD = 0x02;
  1972  00021A  0E02               	movlw	2
  1973  00021C  6EBD               	movwf	16317,c	;volatile
  1974                           
  1975                           ;mcc_generated_files/pin_manager.c: 62:     LATA = 0x00;
  1976  00021E  0E00               	movlw	0
  1977  000220  6EBA               	movwf	16314,c	;volatile
  1978                           
  1979                           ;mcc_generated_files/pin_manager.c: 63:     LATB = 0x00;
  1980  000222  0E00               	movlw	0
  1981  000224  6EBB               	movwf	16315,c	;volatile
  1982                           
  1983                           ;mcc_generated_files/pin_manager.c: 64:     LATC = 0x00;
  1984  000226  0E00               	movlw	0
  1985  000228  6EBC               	movwf	16316,c	;volatile
  1986                           
  1987                           ;mcc_generated_files/pin_manager.c: 69:     TRISE = 0x06;
  1988  00022A  0E06               	movlw	6
  1989  00022C  6EC6               	movwf	16326,c	;volatile
  1990                           
  1991                           ;mcc_generated_files/pin_manager.c: 70:     TRISA = 0xFF;
  1992  00022E  68C2               	setf	16322,c	;volatile
  1993                           
  1994                           ;mcc_generated_files/pin_manager.c: 71:     TRISB = 0xBF;
  1995  000230  0EBF               	movlw	191
  1996  000232  6EC3               	movwf	16323,c	;volatile
  1997                           
  1998                           ;mcc_generated_files/pin_manager.c: 72:     TRISC = 0xBF;
  1999  000234  0EBF               	movlw	191
  2000  000236  6EC4               	movwf	16324,c	;volatile
  2001                           
  2002                           ;mcc_generated_files/pin_manager.c: 73:     TRISD = 0xFD;
  2003  000238  0EFD               	movlw	253
  2004  00023A  6EC5               	movwf	16325,c	;volatile
  2005                           
  2006                           ;mcc_generated_files/pin_manager.c: 78:     ANSELD = 0xFD;
  2007  00023C  0EFD               	movlw	253
  2008  00023E  013A               	movlb	58	; () banked
  2009  000240  6F70               	movwf	112,b	;volatile
  2010                           
  2011                           ;mcc_generated_files/pin_manager.c: 79:     ANSELC = 0x3F;
  2012  000242  0E3F               	movlw	63
  2013  000244  6F60               	movwf	96,b	;volatile
  2014                           
  2015                           ;mcc_generated_files/pin_manager.c: 80:     ANSELB = 0x3F;
  2016  000246  0E3F               	movlw	63
  2017  000248  6F50               	movwf	80,b	;volatile
  2018                           
  2019                           ;mcc_generated_files/pin_manager.c: 81:     ANSELE = 0x06;
  2020  00024A  0E06               	movlw	6
  2021  00024C  6F80               	movwf	128,b	;volatile
  2022                           
  2023                           ; BSR set to: 58
  2024                           ;mcc_generated_files/pin_manager.c: 82:     ANSELA = 0xFF;
  2025  00024E  6940               	setf	64,b	;volatile
  2026                           
  2027                           ;mcc_generated_files/pin_manager.c: 87:     WPUD = 0x00;
  2028  000250  0E00               	movlw	0
  2029  000252  6F71               	movwf	113,b	;volatile
  2030                           
  2031                           ;mcc_generated_files/pin_manager.c: 88:     WPUE = 0x00;
  2032  000254  0E00               	movlw	0
  2033  000256  6F81               	movwf	129,b	;volatile
  2034                           
  2035                           ;mcc_generated_files/pin_manager.c: 89:     WPUB = 0x00;
  2036  000258  0E00               	movlw	0
  2037  00025A  6F51               	movwf	81,b	;volatile
  2038                           
  2039                           ;mcc_generated_files/pin_manager.c: 90:     WPUA = 0x00;
  2040  00025C  0E00               	movlw	0
  2041  00025E  6F41               	movwf	65,b	;volatile
  2042                           
  2043                           ;mcc_generated_files/pin_manager.c: 91:     WPUC = 0x00;
  2044  000260  0E00               	movlw	0
  2045  000262  6F61               	movwf	97,b	;volatile
  2046                           
  2047                           ;mcc_generated_files/pin_manager.c: 96:     RB1I2C = 0x00;
  2048  000264  0E00               	movlw	0
  2049  000266  6F5A               	movwf	90,b	;volatile
  2050                           
  2051                           ;mcc_generated_files/pin_manager.c: 97:     RB2I2C = 0x00;
  2052  000268  0E00               	movlw	0
  2053  00026A  6F5B               	movwf	91,b	;volatile
  2054                           
  2055                           ;mcc_generated_files/pin_manager.c: 98:     RC3I2C = 0x00;
  2056  00026C  0E00               	movlw	0
  2057  00026E  6F6A               	movwf	106,b	;volatile
  2058                           
  2059                           ;mcc_generated_files/pin_manager.c: 99:     RC4I2C = 0x00;
  2060  000270  0E00               	movlw	0
  2061  000272  6F6B               	movwf	107,b	;volatile
  2062                           
  2063                           ;mcc_generated_files/pin_manager.c: 100:     RD0I2C = 0x00;
  2064  000274  0E00               	movlw	0
  2065  000276  6F7A               	movwf	122,b	;volatile
  2066                           
  2067                           ;mcc_generated_files/pin_manager.c: 101:     RD1I2C = 0x00;
  2068  000278  0E00               	movlw	0
  2069  00027A  6F7B               	movwf	123,b	;volatile
  2070                           
  2071                           ;mcc_generated_files/pin_manager.c: 106:     ODCONE = 0x00;
  2072  00027C  0E00               	movlw	0
  2073  00027E  6F82               	movwf	130,b	;volatile
  2074                           
  2075                           ;mcc_generated_files/pin_manager.c: 107:     ODCONA = 0x00;
  2076  000280  0E00               	movlw	0
  2077  000282  6F42               	movwf	66,b	;volatile
  2078                           
  2079                           ;mcc_generated_files/pin_manager.c: 108:     ODCONB = 0x00;
  2080  000284  0E00               	movlw	0
  2081  000286  6F52               	movwf	82,b	;volatile
  2082                           
  2083                           ;mcc_generated_files/pin_manager.c: 109:     ODCONC = 0x00;
  2084  000288  0E00               	movlw	0
  2085  00028A  6F62               	movwf	98,b	;volatile
  2086                           
  2087                           ;mcc_generated_files/pin_manager.c: 110:     ODCOND = 0x00;
  2088  00028C  0E00               	movlw	0
  2089  00028E  6F72               	movwf	114,b	;volatile
  2090                           
  2091                           ; BSR set to: 58
  2092                           ;mcc_generated_files/pin_manager.c: 115:     SLRCONA = 0xFF;
  2093  000290  6943               	setf	67,b	;volatile
  2094                           
  2095                           ; BSR set to: 58
  2096                           ;mcc_generated_files/pin_manager.c: 116:     SLRCONB = 0xFF;
  2097  000292  6953               	setf	83,b	;volatile
  2098                           
  2099                           ; BSR set to: 58
  2100                           ;mcc_generated_files/pin_manager.c: 117:     SLRCONC = 0xFF;
  2101  000294  6963               	setf	99,b	;volatile
  2102                           
  2103                           ; BSR set to: 58
  2104                           ;mcc_generated_files/pin_manager.c: 118:     SLRCOND = 0xFF;
  2105  000296  6973               	setf	115,b	;volatile
  2106                           
  2107                           ;mcc_generated_files/pin_manager.c: 119:     SLRCONE = 0x07;
  2108  000298  0E07               	movlw	7
  2109  00029A  6F83               	movwf	131,b	;volatile
  2110                           
  2111                           ;mcc_generated_files/pin_manager.c: 128:     U2RXPPS = 0x0F;
  2112  00029C  0E0F               	movlw	15
  2113  00029E  6FE8               	movwf	232,b	;volatile
  2114                           
  2115                           ;mcc_generated_files/pin_manager.c: 129:     RB6PPS = 0x16;
  2116  0002A0  0E16               	movlw	22
  2117  0002A2  6F0E               	movwf	14,b	;volatile
  2118                           
  2119                           ;mcc_generated_files/pin_manager.c: 130:     RD1PPS = 0x10;
  2120  0002A4  0E10               	movlw	16
  2121  0002A6  6F19               	movwf	25,b	;volatile
  2122                           
  2123                           ;mcc_generated_files/pin_manager.c: 131:     RC6PPS = 0x13;
  2124  0002A8  0E13               	movlw	19
  2125  0002AA  6F16               	movwf	22,b	;volatile
  2126                           
  2127                           ;mcc_generated_files/pin_manager.c: 132:     U1RXPPS = 0x17;
  2128  0002AC  0E17               	movlw	23
  2129  0002AE  6FE5               	movwf	229,b	;volatile
  2130                           
  2131                           ; BSR set to: 58
  2132  0002B0  0012               	return		;funcret
  2133  0002B2                     __end_of_PIN_MANAGER_Initialize:
  2134                           	opt callstack 0
  2135                           
  2136 ;; *************** function _OSCILLATOR_Initialize *****************
  2137 ;; Defined at:
  2138 ;;		line 62 in file "mcc_generated_files/mcc.c"
  2139 ;; Parameters:    Size  Location     Type
  2140 ;;		None
  2141 ;; Auto vars:     Size  Location     Type
  2142 ;;		None
  2143 ;; Return value:  Size  Location     Type
  2144 ;;                  1    wreg      void 
  2145 ;; Registers used:
  2146 ;;		wreg, status,2
  2147 ;; Tracked objects:
  2148 ;;		On entry : 0/0
  2149 ;;		On exit  : 0/0
  2150 ;;		Unchanged: 0/0
  2151 ;; Data sizes:     COMRAM   BANK0   BANK1   BANK2   BANK3   BANK4   BANK5   BANK6   BANK7   BANK8   BANK9  BANK10  BANK1
      +1  BANK12  BANK13  BANK14  BANK15  BANK16  BANK17  BANK18  BANK19  BANK20  BANK21  BANK22  BANK23  BANK24  BANK25  BANK2
      +6  BANK27  BANK28  BANK29  BANK30  BANK31
  2152 ;;      Params:         0       0       0       0       0       0       0       0       0       0       0       0       
      +0       0       0       0       0       0       0       0       0       0       0       0       0       0       0       
      +0       0       0       0       0       0
  2153 ;;      Locals:         0       0       0       0       0       0       0       0       0       0       0       0       
      +0       0       0       0       0       0       0       0       0       0       0       0       0       0       0       
      +0       0       0       0       0       0
  2154 ;;      Temps:          0       0       0       0       0       0       0       0       0       0       0       0       
      +0       0       0       0       0       0       0       0       0       0       0       0       0       0       0       
      +0       0       0       0       0       0
  2155 ;;      Totals:         0       0       0       0       0       0       0       0       0       0       0       0       
      +0       0       0       0       0       0       0       0       0       0       0       0       0       0       0       
      +0       0       0       0       0       0
  2156 ;;Total ram usage:        0 bytes
  2157 ;; Hardware stack levels used:    1
  2158 ;; Hardware stack levels required when called:    4
  2159 ;; This function calls:
  2160 ;;		Nothing
  2161 ;; This function is called by:
  2162 ;;		_SYSTEM_Initialize
  2163 ;; This function uses a non-reentrant model
  2164 ;;
  2165                           
  2166                           	psect	text22
  2167  00068E                     __ptext22:
  2168                           	opt callstack 0
  2169  00068E                     _OSCILLATOR_Initialize:
  2170                           	opt callstack 25
  2171                           
  2172                           ;mcc_generated_files/mcc.c: 65:     OSCCON1 = 0x20;
  2173                           
  2174                           ; BSR set to: 58
  2175                           ;incstack = 0
  2176  00068E  0E20               	movlw	32
  2177  000690  0139               	movlb	57	; () banked
  2178  000692  6FD9               	movwf	217,b	;volatile
  2179                           
  2180                           ;mcc_generated_files/mcc.c: 67:     OSCCON3 = 0x00;
  2181  000694  0E00               	movlw	0
  2182  000696  6FDB               	movwf	219,b	;volatile
  2183                           
  2184                           ;mcc_generated_files/mcc.c: 69:     OSCEN = 0x00;
  2185  000698  0E00               	movlw	0
  2186  00069A  6FDD               	movwf	221,b	;volatile
  2187                           
  2188                           ;mcc_generated_files/mcc.c: 71:     OSCFRQ = 0x08;
  2189  00069C  0E08               	movlw	8
  2190  00069E  6FDF               	movwf	223,b	;volatile
  2191                           
  2192                           ;mcc_generated_files/mcc.c: 73:     OSCTUNE = 0x00;
  2193  0006A0  0E00               	movlw	0
  2194  0006A2  6FDE               	movwf	222,b	;volatile
  2195  0006A4                     l58:
  2196                           
  2197                           ; BSR set to: 57
  2198                           ;mcc_generated_files/mcc.c: 75:     while(PLLR == 0)
  2199  0006A4  B1DC               	btfsc	220,0,b	;volatile
  2200  0006A6  0012               	return	
  2201  0006A8  D7FD               	goto	l58
  2202  0006AA                     __end_of_OSCILLATOR_Initialize:
  2203                           	opt callstack 0
  2204                           
  2205 ;; *************** function _INTERRUPT_Initialize *****************
  2206 ;; Defined at:
  2207 ;;		line 52 in file "mcc_generated_files/interrupt_manager.c"
  2208 ;; Parameters:    Size  Location     Type
  2209 ;;		None
  2210 ;; Auto vars:     Size  Location     Type
  2211 ;;  state           1    0[COMRAM] _Bool 
  2212 ;; Return value:  Size  Location     Type
  2213 ;;                  1    wreg      void 
  2214 ;; Registers used:
  2215 ;;		wreg, status,2
  2216 ;; Tracked objects:
  2217 ;;		On entry : 0/0
  2218 ;;		On exit  : 0/0
  2219 ;;		Unchanged: 0/0
  2220 ;; Data sizes:     COMRAM   BANK0   BANK1   BANK2   BANK3   BANK4   BANK5   BANK6   BANK7   BANK8   BANK9  BANK10  BANK1
      +1  BANK12  BANK13  BANK14  BANK15  BANK16  BANK17  BANK18  BANK19  BANK20  BANK21  BANK22  BANK23  BANK24  BANK25  BANK2
      +6  BANK27  BANK28  BANK29  BANK30  BANK31
  2221 ;;      Params:         0       0       0       0       0       0       0       0       0       0       0       0       
      +0       0       0       0       0       0       0       0       0       0       0       0       0       0       0       
      +0       0       0       0       0       0
  2222 ;;      Locals:         1       0       0       0       0       0       0       0       0       0       0       0       
      +0       0       0       0       0       0       0       0       0       0       0       0       0       0       0       
      +0       0       0       0       0       0
  2223 ;;      Temps:          0       0       0       0       0       0       0       0       0       0       0       0       
      +0       0       0       0       0       0       0       0       0       0       0       0       0       0       0       
      +0       0       0       0       0       0
  2224 ;;      Totals:         1       0       0       0       0       0       0       0       0       0       0       0       
      +0       0       0       0       0       0       0       0       0       0       0       0       0       0       0       
      +0       0       0       0       0       0
  2225 ;;Total ram usage:        1 bytes
  2226 ;; Hardware stack levels used:    1
  2227 ;; Hardware stack levels required when called:    4
  2228 ;; This function calls:
  2229 ;;		Nothing
  2230 ;; This function is called by:
  2231 ;;		_SYSTEM_Initialize
  2232 ;; This function uses a non-reentrant model
  2233 ;;
  2234                           
  2235                           	psect	text23
  2236  0003E2                     __ptext23:
  2237                           	opt callstack 0
  2238  0003E2                     _INTERRUPT_Initialize:
  2239                           	opt callstack 25
  2240                           
  2241                           ;mcc_generated_files/interrupt_manager.c: 54:     INTCON0bits.IPEN = 1;
  2242                           
  2243                           ; BSR set to: 57
  2244                           ;incstack = 0
  2245  0003E2  8AD2               	bsf	16338,5,c	;volatile
  2246                           
  2247                           ;mcc_generated_files/interrupt_manager.c: 56:     _Bool state = (unsigned char)GIE;
  2248  0003E4  0E00               	movlw	0
  2249  0003E6  BED2               	btfsc	16338,7,c	;volatile
  2250  0003E8  0E01               	movlw	1
  2251  0003EA  6E55               	movwf	INTERRUPT_Initialize@state,c
  2252                           
  2253                           ;mcc_generated_files/interrupt_manager.c: 57:     GIE = 0;
  2254  0003EC  9ED2               	bcf	16338,7,c	;volatile
  2255                           
  2256                           ;mcc_generated_files/interrupt_manager.c: 58:     IVTLOCK = 0x55;
  2257  0003EE  0E55               	movlw	85
  2258  0003F0  6ED4               	movwf	16340,c	;volatile
  2259                           
  2260                           ;mcc_generated_files/interrupt_manager.c: 59:     IVTLOCK = 0xAA;
  2261  0003F2  0EAA               	movlw	170
  2262  0003F4  6ED4               	movwf	16340,c	;volatile
  2263                           
  2264                           ;mcc_generated_files/interrupt_manager.c: 60:     IVTLOCKbits.IVTLOCKED = 0x00;
  2265  0003F6  90D4               	bcf	16340,0,c	;volatile
  2266                           
  2267                           ;mcc_generated_files/interrupt_manager.c: 62:     IVTADU = 0;
  2268  0003F8  0E00               	movlw	0
  2269  0003FA  0138               	movlb	56	; () banked
  2270  0003FC  6F9F               	movwf	159,b	;volatile
  2271                           
  2272                           ;mcc_generated_files/interrupt_manager.c: 63:     IVTADH = 0;
  2273  0003FE  0E00               	movlw	0
  2274  000400  6F9E               	movwf	158,b	;volatile
  2275                           
  2276                           ;mcc_generated_files/interrupt_manager.c: 64:     IVTADL = 8;
  2277  000402  0E08               	movlw	8
  2278  000404  6F9D               	movwf	157,b	;volatile
  2279                           
  2280                           ;mcc_generated_files/interrupt_manager.c: 66:     IVTLOCK = 0x55;
  2281  000406  0E55               	movlw	85
  2282  000408  6ED4               	movwf	16340,c	;volatile
  2283                           
  2284                           ;mcc_generated_files/interrupt_manager.c: 67:     IVTLOCK = 0xAA;
  2285  00040A  0EAA               	movlw	170
  2286  00040C  6ED4               	movwf	16340,c	;volatile
  2287                           
  2288                           ; BSR set to: 56
  2289                           ;mcc_generated_files/interrupt_manager.c: 68:     IVTLOCKbits.IVTLOCKED = 0x01;
  2290  00040E  80D4               	bsf	16340,0,c	;volatile
  2291                           
  2292                           ; BSR set to: 56
  2293                           ;mcc_generated_files/interrupt_manager.c: 70:     GIE = state;
  2294  000410  B055               	btfsc	INTERRUPT_Initialize@state,0,c
  2295  000412  D002               	bra	u35
  2296  000414  9ED2               	bcf	16338,7,c	;volatile
  2297  000416  D001               	bra	u36
  2298  000418                     u35:
  2299  000418  8ED2               	bsf	16338,7,c	;volatile
  2300  00041A                     u36:
  2301                           
  2302                           ;mcc_generated_files/interrupt_manager.c: 72:     IPR6bits.U2TXIP = 1;
  2303  00041A  0139               	movlb	57	; () banked
  2304  00041C  8786               	bsf	134,3,b	;volatile
  2305                           
  2306                           ; BSR set to: 57
  2307                           ;mcc_generated_files/interrupt_manager.c: 73:     IPR6bits.U2RXIP = 1;
  2308  00041E  8586               	bsf	134,2,b	;volatile
  2309                           
  2310                           ; BSR set to: 57
  2311                           ;mcc_generated_files/interrupt_manager.c: 74:     IPR3bits.U1TXIP = 1;
  2312  000420  8983               	bsf	131,4,b	;volatile
  2313                           
  2314                           ; BSR set to: 57
  2315                           ;mcc_generated_files/interrupt_manager.c: 75:     IPR3bits.U1RXIP = 1;
  2316  000422  8783               	bsf	131,3,b	;volatile
  2317                           
  2318                           ; BSR set to: 57
  2319  000424  0012               	return		;funcret
  2320  000426                     __end_of_INTERRUPT_Initialize:
  2321                           	opt callstack 0
  2322                           
  2323 ;; *************** function _Default_ISR *****************
  2324 ;; Defined at:
  2325 ;;		line 78 in file "mcc_generated_files/interrupt_manager.c"
  2326 ;; Parameters:    Size  Location     Type
  2327 ;;		None
  2328 ;; Auto vars:     Size  Location     Type
  2329 ;;		None
  2330 ;; Return value:  Size  Location     Type
  2331 ;;                  1    wreg      void 
  2332 ;; Registers used:
  2333 ;;		None
  2334 ;; Tracked objects:
  2335 ;;		On entry : 0/0
  2336 ;;		On exit  : 0/0
  2337 ;;		Unchanged: 0/0
  2338 ;; Data sizes:     COMRAM   BANK0   BANK1   BANK2   BANK3   BANK4   BANK5   BANK6   BANK7   BANK8   BANK9  BANK10  BANK1
      +1  BANK12  BANK13  BANK14  BANK15  BANK16  BANK17  BANK18  BANK19  BANK20  BANK21  BANK22  BANK23  BANK24  BANK25  BANK2
      +6  BANK27  BANK28  BANK29  BANK30  BANK31
  2339 ;;      Params:         0       0       0       0       0       0       0       0       0       0       0       0       
      +0       0       0       0       0       0       0       0       0       0       0       0       0       0       0       
      +0       0       0       0       0       0
  2340 ;;      Locals:         0       0       0       0       0       0       0       0       0       0       0       0       
      +0       0       0       0       0       0       0       0       0       0       0       0       0       0       0       
      +0       0       0       0       0       0
  2341 ;;      Temps:          0       0       0       0       0       0       0       0       0       0       0       0       
      +0       0       0       0       0       0       0       0       0       0       0       0       0       0       0       
      +0       0       0       0       0       0
  2342 ;;      Totals:         0       0       0       0       0       0       0       0       0       0       0       0       
      +0       0       0       0       0       0       0       0       0       0       0       0       0       0       0       
      +0       0       0       0       0       0
  2343 ;;Total ram usage:        0 bytes
  2344 ;; Hardware stack levels used:    1
  2345 ;; This function calls:
  2346 ;;		Nothing
  2347 ;; This function is called by:
  2348 ;;		Interrupt level 2
  2349 ;; This function uses a non-reentrant model
  2350 ;;
  2351                           
  2352                           	psect	text24
  2353  0007A0                     __ptext24:
  2354                           	opt callstack 0
  2355  0007A0                     _Default_ISR:
  2356                           	opt callstack 27
  2357                           
  2358                           ; BSR set to: 57
  2359                           ;incstack = 0
  2360  0007A0  0011               	retfie		f
  2361  0007A2                     __end_of_Default_ISR:
  2362                           	opt callstack 0
  2363                           
  2364 ;; *************** function _UART1_tx_vect_isr *****************
  2365 ;; Defined at:
  2366 ;;		line 225 in file "mcc_generated_files/uart1.c"
  2367 ;; Parameters:    Size  Location     Type
  2368 ;;		None
  2369 ;; Auto vars:     Size  Location     Type
  2370 ;;		None
  2371 ;; Return value:  Size  Location     Type
  2372 ;;                  1    wreg      void 
  2373 ;; Registers used:
  2374 ;;		wreg, fsr2l, fsr2h, status,2, status,0, pclath, tosl, cstack
  2375 ;; Tracked objects:
  2376 ;;		On entry : 0/0
  2377 ;;		On exit  : 0/0
  2378 ;;		Unchanged: 0/0
  2379 ;; Data sizes:     COMRAM   BANK0   BANK1   BANK2   BANK3   BANK4   BANK5   BANK6   BANK7   BANK8   BANK9  BANK10  BANK1
      +1  BANK12  BANK13  BANK14  BANK15  BANK16  BANK17  BANK18  BANK19  BANK20  BANK21  BANK22  BANK23  BANK24  BANK25  BANK2
      +6  BANK27  BANK28  BANK29  BANK30  BANK31
  2380 ;;      Params:         0       0       0       0       0       0       0       0       0       0       0       0       
      +0       0       0       0       0       0       0       0       0       0       0       0       0       0       0       
      +0       0       0       0       0       0
  2381 ;;      Locals:         0       0       0       0       0       0       0       0       0       0       0       0       
      +0       0       0       0       0       0       0       0       0       0       0       0       0       0       0       
      +0       0       0       0       0       0
  2382 ;;      Temps:          0       0       0       0       0       0       0       0       0       0       0       0       
      +0       0       0       0       0       0       0       0       0       0       0       0       0       0       0       
      +0       0       0       0       0       0
  2383 ;;      Totals:         0       0       0       0       0       0       0       0       0       0       0       0       
      +0       0       0       0       0       0       0       0       0       0       0       0       0       0       0       
      +0       0       0       0       0       0
  2384 ;;Total ram usage:        0 bytes
  2385 ;; Hardware stack levels used:    1
  2386 ;; Hardware stack levels required when called:    1
  2387 ;; This function calls:
  2388 ;;		Absolute function
  2389 ;;		_UART1_Transmit_ISR
  2390 ;; This function is called by:
  2391 ;;		Interrupt level 2
  2392 ;; This function uses a non-reentrant model
  2393 ;;
  2394                           
  2395                           	psect	text25
  2396  0005A0                     __ptext25:
  2397                           	opt callstack 0
  2398  0005A0                     _UART1_tx_vect_isr:
  2399                           	opt callstack 26
  2400                           
  2401                           ;mcc_generated_files/uart1.c: 227:     if(UART1_TxInterruptHandler)
  2402                           
  2403                           ;incstack = 0
  2404  0005A0  503B               	movf	_UART1_TxInterruptHandler,w,c
  2405  0005A2  103C               	iorwf	_UART1_TxInterruptHandler+1,w,c
  2406  0005A4  103D               	iorwf	_UART1_TxInterruptHandler+2,w,c
  2407  0005A6  B4D8               	btfsc	status,2,c
  2408  0005A8  0011               	retfie		f
  2409                           
  2410                           ;mcc_generated_files/uart1.c: 228:     {;mcc_generated_files/uart1.c: 229:         UART1
      +                          _TxInterruptHandler();
  2411  0005AA  D801               	call	i2u30_48
  2412  0005AC  0011               	retfie		f
  2413  0005AE                     i2u30_48:
  2414  0005AE  0005               	push	
  2415  0005B0  6EFA               	movwf	pclath,c
  2416  0005B2  503B               	movf	_UART1_TxInterruptHandler,w,c
  2417  0005B4  6EFD               	movwf	tosl,c
  2418  0005B6  503C               	movf	_UART1_TxInterruptHandler+1,w,c
  2419  0005B8  6EFE               	movwf	tosh,c
  2420  0005BA  503D               	movf	_UART1_TxInterruptHandler+2,w,c
  2421  0005BC  6EFF               	movwf	tosu,c
  2422  0005BE  50FA               	movf	pclath,w,c
  2423  0005C0  0012               	return		;indir
  2424  0005C2                     __end_of_UART1_tx_vect_isr:
  2425                           	opt callstack 0
  2426                           
  2427 ;; *************** function _UART1_Transmit_ISR *****************
  2428 ;; Defined at:
  2429 ;;		line 243 in file "mcc_generated_files/uart1.c"
  2430 ;; Parameters:    Size  Location     Type
  2431 ;;		None
  2432 ;; Auto vars:     Size  Location     Type
  2433 ;;		None
  2434 ;; Return value:  Size  Location     Type
  2435 ;;                  1    wreg      void 
  2436 ;; Registers used:
  2437 ;;		wreg, fsr2l, fsr2h, status,2, status,0
  2438 ;; Tracked objects:
  2439 ;;		On entry : 0/0
  2440 ;;		On exit  : 0/0
  2441 ;;		Unchanged: 0/0
  2442 ;; Data sizes:     COMRAM   BANK0   BANK1   BANK2   BANK3   BANK4   BANK5   BANK6   BANK7   BANK8   BANK9  BANK10  BANK1
      +1  BANK12  BANK13  BANK14  BANK15  BANK16  BANK17  BANK18  BANK19  BANK20  BANK21  BANK22  BANK23  BANK24  BANK25  BANK2
      +6  BANK27  BANK28  BANK29  BANK30  BANK31
  2443 ;;      Params:         0       0       0       0       0       0       0       0       0       0       0       0       
      +0       0       0       0       0       0       0       0       0       0       0       0       0       0       0       
      +0       0       0       0       0       0
  2444 ;;      Locals:         0       0       0       0       0       0       0       0       0       0       0       0       
      +0       0       0       0       0       0       0       0       0       0       0       0       0       0       0       
      +0       0       0       0       0       0
  2445 ;;      Temps:          0       0       0       0       0       0       0       0       0       0       0       0       
      +0       0       0       0       0       0       0       0       0       0       0       0       0       0       0       
      +0       0       0       0       0       0
  2446 ;;      Totals:         0       0       0       0       0       0       0       0       0       0       0       0       
      +0       0       0       0       0       0       0       0       0       0       0       0       0       0       0       
      +0       0       0       0       0       0
  2447 ;;Total ram usage:        0 bytes
  2448 ;; Hardware stack levels used:    1
  2449 ;; This function calls:
  2450 ;;		Nothing
  2451 ;; This function is called by:
  2452 ;;		_UART1_Initialize
  2453 ;;		_UART1_tx_vect_isr
  2454 ;; This function uses a non-reentrant model
  2455 ;;
  2456                           
  2457                           	psect	text26
  2458  0004D4                     __ptext26:
  2459                           	opt callstack 0
  2460  0004D4                     _UART1_Transmit_ISR:
  2461                           	opt callstack 26
  2462                           
  2463                           ;mcc_generated_files/uart1.c: 246:     if(sizeof(uart1TxBuffer) > uart1TxBufferRemaining
      +                          )
  2464                           
  2465                           ;incstack = 0
  2466  0004D4  0E08               	movlw	8
  2467  0004D6  6052               	cpfslt	_uart1TxBufferRemaining,c	;volatile
  2468  0004D8  D011               	goto	i2l322
  2469                           
  2470                           ;mcc_generated_files/uart1.c: 247:     {;mcc_generated_files/uart1.c: 248:         U1TXB
      +                           = uart1TxBuffer[uart1TxTail++];
  2471  0004DA  0E21               	movlw	low _uart1TxBuffer
  2472  0004DC  2453               	addwf	_uart1TxTail,w,c	;volatile
  2473  0004DE  6ED9               	movwf	fsr2l,c
  2474  0004E0  6ADA               	clrf	fsr2h,c
  2475  0004E2  0E00               	movlw	high _uart1TxBuffer
  2476  0004E4  22DA               	addwfc	fsr2h,f,c
  2477  0004E6  50DF               	movf	indf2,w,c
  2478  0004E8  013D               	movlb	61	; () banked
  2479  0004EA  6FEA               	movwf	234,b	;volatile
  2480                           
  2481                           ; BSR set to: 61
  2482  0004EC  2A53               	incf	_uart1TxTail,f,c	;volatile
  2483                           
  2484                           ; BSR set to: 61
  2485                           ;mcc_generated_files/uart1.c: 249:        if(sizeof(uart1TxBuffer) <= uart1TxTail)
  2486  0004EE  0E07               	movlw	7
  2487  0004F0  6453               	cpfsgt	_uart1TxTail,c	;volatile
  2488  0004F2  D002               	goto	i2l1531
  2489                           
  2490                           ; BSR set to: 61
  2491                           ;mcc_generated_files/uart1.c: 250:         {;mcc_generated_files/uart1.c: 251:          
      +                             uart1TxTail = 0;
  2492  0004F4  0E00               	movlw	0
  2493  0004F6  6E53               	movwf	_uart1TxTail,c	;volatile
  2494  0004F8                     i2l1531:
  2495                           
  2496                           ; BSR set to: 61
  2497                           ;mcc_generated_files/uart1.c: 253:         uart1TxBufferRemaining++;
  2498  0004F8  2A52               	incf	_uart1TxBufferRemaining,f,c	;volatile
  2499                           
  2500                           ;mcc_generated_files/uart1.c: 254:     }
  2501  0004FA  0012               	return	
  2502  0004FC                     i2l322:
  2503                           
  2504                           ;mcc_generated_files/uart1.c: 256:     {;mcc_generated_files/uart1.c: 257:         PIE3b
      +                          its.U1TXIE = 0;
  2505  0004FC  0139               	movlb	57	; () banked
  2506  0004FE  9993               	bcf	147,4,b	;volatile
  2507  000500  0012               	return		;funcret
  2508  000502                     __end_of_UART1_Transmit_ISR:
  2509                           	opt callstack 0
  2510                           
  2511 ;; *************** function _UART1_rx_vect_isr *****************
  2512 ;; Defined at:
  2513 ;;		line 233 in file "mcc_generated_files/uart1.c"
  2514 ;; Parameters:    Size  Location     Type
  2515 ;;		None
  2516 ;; Auto vars:     Size  Location     Type
  2517 ;;		None
  2518 ;; Return value:  Size  Location     Type
  2519 ;;                  1    wreg      void 
  2520 ;; Registers used:
  2521 ;;		wreg, fsr2l, fsr2h, status,2, status,0, pclath, tosl, cstack
  2522 ;; Tracked objects:
  2523 ;;		On entry : 0/0
  2524 ;;		On exit  : 0/0
  2525 ;;		Unchanged: 0/0
  2526 ;; Data sizes:     COMRAM   BANK0   BANK1   BANK2   BANK3   BANK4   BANK5   BANK6   BANK7   BANK8   BANK9  BANK10  BANK1
      +1  BANK12  BANK13  BANK14  BANK15  BANK16  BANK17  BANK18  BANK19  BANK20  BANK21  BANK22  BANK23  BANK24  BANK25  BANK2
      +6  BANK27  BANK28  BANK29  BANK30  BANK31
  2527 ;;      Params:         0       0       0       0       0       0       0       0       0       0       0       0       
      +0       0       0       0       0       0       0       0       0       0       0       0       0       0       0       
      +0       0       0       0       0       0
  2528 ;;      Locals:         0       0       0       0       0       0       0       0       0       0       0       0       
      +0       0       0       0       0       0       0       0       0       0       0       0       0       0       0       
      +0       0       0       0       0       0
  2529 ;;      Temps:          0       0       0       0       0       0       0       0       0       0       0       0       
      +0       0       0       0       0       0       0       0       0       0       0       0       0       0       0       
      +0       0       0       0       0       0
  2530 ;;      Totals:         0       0       0       0       0       0       0       0       0       0       0       0       
      +0       0       0       0       0       0       0       0       0       0       0       0       0       0       0       
      +0       0       0       0       0       0
  2531 ;;Total ram usage:        0 bytes
  2532 ;; Hardware stack levels used:    1
  2533 ;; Hardware stack levels required when called:    3
  2534 ;; This function calls:
  2535 ;;		Absolute function
  2536 ;;		_UART1_Receive_ISR
  2537 ;; This function is called by:
  2538 ;;		Interrupt level 2
  2539 ;; This function uses a non-reentrant model
  2540 ;;
  2541                           
  2542                           	psect	text27
  2543  0005C4                     __ptext27:
  2544                           	opt callstack 0
  2545  0005C4                     _UART1_rx_vect_isr:
  2546                           	opt callstack 24
  2547                           
  2548                           ;mcc_generated_files/uart1.c: 235:     if(UART1_RxInterruptHandler)
  2549                           
  2550                           ;incstack = 0
  2551  0005C4  503E               	movf	_UART1_RxInterruptHandler,w,c
  2552  0005C6  103F               	iorwf	_UART1_RxInterruptHandler+1,w,c
  2553  0005C8  1040               	iorwf	_UART1_RxInterruptHandler+2,w,c
  2554  0005CA  B4D8               	btfsc	status,2,c
  2555  0005CC  0011               	retfie		f
  2556                           
  2557                           ;mcc_generated_files/uart1.c: 236:     {;mcc_generated_files/uart1.c: 237:         UART1
      +                          _RxInterruptHandler();
  2558  0005CE  D801               	call	i2u32_48
  2559  0005D0  0011               	retfie		f
  2560  0005D2                     i2u32_48:
  2561  0005D2  0005               	push	
  2562  0005D4  6EFA               	movwf	pclath,c
  2563  0005D6  503E               	movf	_UART1_RxInterruptHandler,w,c
  2564  0005D8  6EFD               	movwf	tosl,c
  2565  0005DA  503F               	movf	_UART1_RxInterruptHandler+1,w,c
  2566  0005DC  6EFE               	movwf	tosh,c
  2567  0005DE  5040               	movf	_UART1_RxInterruptHandler+2,w,c
  2568  0005E0  6EFF               	movwf	tosu,c
  2569  0005E2  50FA               	movf	pclath,w,c
  2570  0005E4  0012               	return		;indir
  2571  0005E6                     __end_of_UART1_rx_vect_isr:
  2572                           	opt callstack 0
  2573                           
  2574 ;; *************** function _UART1_Receive_ISR *****************
  2575 ;; Defined at:
  2576 ;;		line 263 in file "mcc_generated_files/uart1.c"
  2577 ;; Parameters:    Size  Location     Type
  2578 ;;		None
  2579 ;; Auto vars:     Size  Location     Type
  2580 ;;		None
  2581 ;; Return value:  Size  Location     Type
  2582 ;;                  1    wreg      void 
  2583 ;; Registers used:
  2584 ;;		wreg, fsr2l, fsr2h, status,2, status,0, pclath, tosl, cstack
  2585 ;; Tracked objects:
  2586 ;;		On entry : 0/0
  2587 ;;		On exit  : 0/0
  2588 ;;		Unchanged: 0/0
  2589 ;; Data sizes:     COMRAM   BANK0   BANK1   BANK2   BANK3   BANK4   BANK5   BANK6   BANK7   BANK8   BANK9  BANK10  BANK1
      +1  BANK12  BANK13  BANK14  BANK15  BANK16  BANK17  BANK18  BANK19  BANK20  BANK21  BANK22  BANK23  BANK24  BANK25  BANK2
      +6  BANK27  BANK28  BANK29  BANK30  BANK31
  2590 ;;      Params:         0       0       0       0       0       0       0       0       0       0       0       0       
      +0       0       0       0       0       0       0       0       0       0       0       0       0       0       0       
      +0       0       0       0       0       0
  2591 ;;      Locals:         0       0       0       0       0       0       0       0       0       0       0       0       
      +0       0       0       0       0       0       0       0       0       0       0       0       0       0       0       
      +0       0       0       0       0       0
  2592 ;;      Temps:          0       0       0       0       0       0       0       0       0       0       0       0       
      +0       0       0       0       0       0       0       0       0       0       0       0       0       0       0       
      +0       0       0       0       0       0
  2593 ;;      Totals:         0       0       0       0       0       0       0       0       0       0       0       0       
      +0       0       0       0       0       0       0       0       0       0       0       0       0       0       0       
      +0       0       0       0       0       0
  2594 ;;Total ram usage:        0 bytes
  2595 ;; Hardware stack levels used:    1
  2596 ;; Hardware stack levels required when called:    2
  2597 ;; This function calls:
  2598 ;;		Absolute function
  2599 ;;		_UART1_DefaultErrorHandler
  2600 ;;		_UART1_DefaultFramingErrorHandler
  2601 ;;		_UART1_DefaultOverrunErrorHandler
  2602 ;;		_UART1_RxDataHandler
  2603 ;; This function is called by:
  2604 ;;		_UART1_Initialize
  2605 ;;		_UART1_rx_vect_isr
  2606 ;; This function uses a non-reentrant model
  2607 ;;
  2608                           
  2609                           	psect	text28
  2610  0002B2                     __ptext28:
  2611                           	opt callstack 0
  2612  0002B2                     _UART1_Receive_ISR:
  2613                           	opt callstack 24
  2614                           
  2615                           ;mcc_generated_files/uart1.c: 266:     uart1RxStatusBuffer[uart1RxHead].status = 0;
  2616                           
  2617                           ;incstack = 0
  2618  0002B2  0E11               	movlw	low _uart1RxStatusBuffer
  2619  0002B4  2451               	addwf	_uart1RxHead,w,c	;volatile
  2620  0002B6  6ED9               	movwf	fsr2l,c
  2621  0002B8  6ADA               	clrf	fsr2h,c
  2622  0002BA  0E00               	movlw	high _uart1RxStatusBuffer
  2623  0002BC  22DA               	addwfc	fsr2h,f,c
  2624  0002BE  0E00               	movlw	0
  2625  0002C0  6EDF               	movwf	indf2,c
  2626                           
  2627                           ;mcc_generated_files/uart1.c: 268:     if(U1ERRIRbits.FERIF){
  2628  0002C2  013D               	movlb	61	; () banked
  2629  0002C4  A7F9               	btfss	249,3,b	;volatile
  2630  0002C6  D013               	goto	i2u11_49
  2631                           
  2632                           ; BSR set to: 61
  2633                           ;mcc_generated_files/uart1.c: 269:         uart1RxStatusBuffer[uart1RxHead].ferr = 1;
  2634  0002C8  0E11               	movlw	low _uart1RxStatusBuffer
  2635  0002CA  2451               	addwf	_uart1RxHead,w,c	;volatile
  2636  0002CC  6ED9               	movwf	fsr2l,c
  2637  0002CE  6ADA               	clrf	fsr2h,c
  2638  0002D0  0E00               	movlw	high _uart1RxStatusBuffer
  2639  0002D2  22DA               	addwfc	fsr2h,f,c
  2640  0002D4  82DF               	bsf	indf2,1,c
  2641                           
  2642                           ; BSR set to: 61
  2643                           ;mcc_generated_files/uart1.c: 270:         UART1_FramingErrorHandler();
  2644  0002D6  D801               	call	i2u11_48
  2645  0002D8  D00A               	goto	i2u11_49
  2646  0002DA                     i2u11_48:
  2647  0002DA  0005               	push	
  2648  0002DC  6EFA               	movwf	pclath,c
  2649  0002DE  5038               	movf	_UART1_FramingErrorHandler,w,c
  2650  0002E0  6EFD               	movwf	tosl,c
  2651  0002E2  5039               	movf	_UART1_FramingErrorHandler+1,w,c
  2652  0002E4  6EFE               	movwf	tosh,c
  2653  0002E6  503A               	movf	_UART1_FramingErrorHandler+2,w,c
  2654  0002E8  6EFF               	movwf	tosu,c
  2655  0002EA  50FA               	movf	pclath,w,c
  2656  0002EC  0012               	return		;indir
  2657  0002EE                     i2u11_49:
  2658                           
  2659                           ;mcc_generated_files/uart1.c: 273:     if(U1ERRIRbits.RXFOIF){
  2660  0002EE  013D               	movlb	61	; () banked
  2661  0002F0  A3F9               	btfss	249,1,b	;volatile
  2662  0002F2  D013               	goto	i2u13_49
  2663                           
  2664                           ; BSR set to: 61
  2665                           ;mcc_generated_files/uart1.c: 274:         uart1RxStatusBuffer[uart1RxHead].oerr = 1;
  2666  0002F4  0E11               	movlw	low _uart1RxStatusBuffer
  2667  0002F6  2451               	addwf	_uart1RxHead,w,c	;volatile
  2668  0002F8  6ED9               	movwf	fsr2l,c
  2669  0002FA  6ADA               	clrf	fsr2h,c
  2670  0002FC  0E00               	movlw	high _uart1RxStatusBuffer
  2671  0002FE  22DA               	addwfc	fsr2h,f,c
  2672  000300  84DF               	bsf	indf2,2,c
  2673                           
  2674                           ; BSR set to: 61
  2675                           ;mcc_generated_files/uart1.c: 275:         UART1_OverrunErrorHandler();
  2676  000302  D801               	call	i2u13_48
  2677  000304  D00A               	goto	i2u13_49
  2678  000306                     i2u13_48:
  2679  000306  0005               	push	
  2680  000308  6EFA               	movwf	pclath,c
  2681  00030A  5035               	movf	_UART1_OverrunErrorHandler,w,c
  2682  00030C  6EFD               	movwf	tosl,c
  2683  00030E  5036               	movf	_UART1_OverrunErrorHandler+1,w,c
  2684  000310  6EFE               	movwf	tosh,c
  2685  000312  5037               	movf	_UART1_OverrunErrorHandler+2,w,c
  2686  000314  6EFF               	movwf	tosu,c
  2687  000316  50FA               	movf	pclath,w,c
  2688  000318  0012               	return		;indir
  2689  00031A                     i2u13_49:
  2690                           
  2691                           ;mcc_generated_files/uart1.c: 278:     if(uart1RxStatusBuffer[uart1RxHead].status){
  2692  00031A  0E11               	movlw	low _uart1RxStatusBuffer
  2693  00031C  2451               	addwf	_uart1RxHead,w,c	;volatile
  2694  00031E  6ED9               	movwf	fsr2l,c
  2695  000320  6ADA               	clrf	fsr2h,c
  2696  000322  0E00               	movlw	high _uart1RxStatusBuffer
  2697  000324  22DA               	addwfc	fsr2h,f,c
  2698  000326  50DF               	movf	indf2,w,c
  2699  000328  B4D8               	btfsc	status,2,c
  2700  00032A  D00C               	goto	i2l1551
  2701                           
  2702                           ;mcc_generated_files/uart1.c: 279:         UART1_ErrorHandler();
  2703  00032C  D801               	call	i2u15_48
  2704  00032E  0012               	return	
  2705  000330                     i2u15_48:
  2706  000330  0005               	push	
  2707  000332  6EFA               	movwf	pclath,c
  2708  000334  5032               	movf	_UART1_ErrorHandler,w,c
  2709  000336  6EFD               	movwf	tosl,c
  2710  000338  5033               	movf	_UART1_ErrorHandler+1,w,c
  2711  00033A  6EFE               	movwf	tosh,c
  2712  00033C  5034               	movf	_UART1_ErrorHandler+2,w,c
  2713  00033E  6EFF               	movwf	tosu,c
  2714  000340  50FA               	movf	pclath,w,c
  2715  000342  0012               	return		;indir
  2716  000344                     i2l1551:
  2717                           
  2718                           ;mcc_generated_files/uart1.c: 281:         UART1_RxDataHandler();
  2719  000344  ECF3  F002         	call	_UART1_RxDataHandler	;wreg free
  2720  000348  0012               	return		;funcret
  2721  00034A                     __end_of_UART1_Receive_ISR:
  2722                           	opt callstack 0
  2723                           
  2724 ;; *************** function _UART1_DefaultOverrunErrorHandler *****************
  2725 ;; Defined at:
  2726 ;;		line 299 in file "mcc_generated_files/uart1.c"
  2727 ;; Parameters:    Size  Location     Type
  2728 ;;		None
  2729 ;; Auto vars:     Size  Location     Type
  2730 ;;		None
  2731 ;; Return value:  Size  Location     Type
  2732 ;;                  1    wreg      void 
  2733 ;; Registers used:
  2734 ;;		None
  2735 ;; Tracked objects:
  2736 ;;		On entry : 0/0
  2737 ;;		On exit  : 0/0
  2738 ;;		Unchanged: 0/0
  2739 ;; Data sizes:     COMRAM   BANK0   BANK1   BANK2   BANK3   BANK4   BANK5   BANK6   BANK7   BANK8   BANK9  BANK10  BANK1
      +1  BANK12  BANK13  BANK14  BANK15  BANK16  BANK17  BANK18  BANK19  BANK20  BANK21  BANK22  BANK23  BANK24  BANK25  BANK2
      +6  BANK27  BANK28  BANK29  BANK30  BANK31
  2740 ;;      Params:         0       0       0       0       0       0       0       0       0       0       0       0       
      +0       0       0       0       0       0       0       0       0       0       0       0       0       0       0       
      +0       0       0       0       0       0
  2741 ;;      Locals:         0       0       0       0       0       0       0       0       0       0       0       0       
      +0       0       0       0       0       0       0       0       0       0       0       0       0       0       0       
      +0       0       0       0       0       0
  2742 ;;      Temps:          0       0       0       0       0       0       0       0       0       0       0       0       
      +0       0       0       0       0       0       0       0       0       0       0       0       0       0       0       
      +0       0       0       0       0       0
  2743 ;;      Totals:         0       0       0       0       0       0       0       0       0       0       0       0       
      +0       0       0       0       0       0       0       0       0       0       0       0       0       0       0       
      +0       0       0       0       0       0
  2744 ;;Total ram usage:        0 bytes
  2745 ;; Hardware stack levels used:    1
  2746 ;; This function calls:
  2747 ;;		Nothing
  2748 ;; This function is called by:
  2749 ;;		_UART1_Initialize
  2750 ;;		_UART1_Receive_ISR
  2751 ;; This function uses a non-reentrant model
  2752 ;;
  2753                           
  2754                           	psect	text29
  2755  0007A2                     __ptext29:
  2756                           	opt callstack 0
  2757  0007A2                     _UART1_DefaultOverrunErrorHandler:
  2758                           	opt callstack 25
  2759                           
  2760                           ;incstack = 0
  2761  0007A2  0012               	return		;funcret
  2762  0007A4                     __end_of_UART1_DefaultOverrunErrorHandler:
  2763                           	opt callstack 0
  2764                           
  2765 ;; *************** function _UART1_DefaultFramingErrorHandler *****************
  2766 ;; Defined at:
  2767 ;;		line 297 in file "mcc_generated_files/uart1.c"
  2768 ;; Parameters:    Size  Location     Type
  2769 ;;		None
  2770 ;; Auto vars:     Size  Location     Type
  2771 ;;		None
  2772 ;; Return value:  Size  Location     Type
  2773 ;;                  1    wreg      void 
  2774 ;; Registers used:
  2775 ;;		None
  2776 ;; Tracked objects:
  2777 ;;		On entry : 0/0
  2778 ;;		On exit  : 0/0
  2779 ;;		Unchanged: 0/0
  2780 ;; Data sizes:     COMRAM   BANK0   BANK1   BANK2   BANK3   BANK4   BANK5   BANK6   BANK7   BANK8   BANK9  BANK10  BANK1
      +1  BANK12  BANK13  BANK14  BANK15  BANK16  BANK17  BANK18  BANK19  BANK20  BANK21  BANK22  BANK23  BANK24  BANK25  BANK2
      +6  BANK27  BANK28  BANK29  BANK30  BANK31
  2781 ;;      Params:         0       0       0       0       0       0       0       0       0       0       0       0       
      +0       0       0       0       0       0       0       0       0       0       0       0       0       0       0       
      +0       0       0       0       0       0
  2782 ;;      Locals:         0       0       0       0       0       0       0       0       0       0       0       0       
      +0       0       0       0       0       0       0       0       0       0       0       0       0       0       0       
      +0       0       0       0       0       0
  2783 ;;      Temps:          0       0       0       0       0       0       0       0       0       0       0       0       
      +0       0       0       0       0       0       0       0       0       0       0       0       0       0       0       
      +0       0       0       0       0       0
  2784 ;;      Totals:         0       0       0       0       0       0       0       0       0       0       0       0       
      +0       0       0       0       0       0       0       0       0       0       0       0       0       0       0       
      +0       0       0       0       0       0
  2785 ;;Total ram usage:        0 bytes
  2786 ;; Hardware stack levels used:    1
  2787 ;; This function calls:
  2788 ;;		Nothing
  2789 ;; This function is called by:
  2790 ;;		_UART1_Initialize
  2791 ;;		_UART1_Receive_ISR
  2792 ;; This function uses a non-reentrant model
  2793 ;;
  2794                           
  2795                           	psect	text30
  2796  0007A4                     __ptext30:
  2797                           	opt callstack 0
  2798  0007A4                     _UART1_DefaultFramingErrorHandler:
  2799                           	opt callstack 25
  2800                           
  2801                           ;incstack = 0
  2802  0007A4  0012               	return		;funcret
  2803  0007A6                     __end_of_UART1_DefaultFramingErrorHandler:
  2804                           	opt callstack 0
  2805                           
  2806 ;; *************** function _UART1_DefaultErrorHandler *****************
  2807 ;; Defined at:
  2808 ;;		line 301 in file "mcc_generated_files/uart1.c"
  2809 ;; Parameters:    Size  Location     Type
  2810 ;;		None
  2811 ;; Auto vars:     Size  Location     Type
  2812 ;;		None
  2813 ;; Return value:  Size  Location     Type
  2814 ;;                  1    wreg      void 
  2815 ;; Registers used:
  2816 ;;		wreg, fsr2l, fsr2h, status,2, status,0, cstack
  2817 ;; Tracked objects:
  2818 ;;		On entry : 0/0
  2819 ;;		On exit  : 0/0
  2820 ;;		Unchanged: 0/0
  2821 ;; Data sizes:     COMRAM   BANK0   BANK1   BANK2   BANK3   BANK4   BANK5   BANK6   BANK7   BANK8   BANK9  BANK10  BANK1
      +1  BANK12  BANK13  BANK14  BANK15  BANK16  BANK17  BANK18  BANK19  BANK20  BANK21  BANK22  BANK23  BANK24  BANK25  BANK2
      +6  BANK27  BANK28  BANK29  BANK30  BANK31
  2822 ;;      Params:         0       0       0       0       0       0       0       0       0       0       0       0       
      +0       0       0       0       0       0       0       0       0       0       0       0       0       0       0       
      +0       0       0       0       0       0
  2823 ;;      Locals:         0       0       0       0       0       0       0       0       0       0       0       0       
      +0       0       0       0       0       0       0       0       0       0       0       0       0       0       0       
      +0       0       0       0       0       0
  2824 ;;      Temps:          0       0       0       0       0       0       0       0       0       0       0       0       
      +0       0       0       0       0       0       0       0       0       0       0       0       0       0       0       
      +0       0       0       0       0       0
  2825 ;;      Totals:         0       0       0       0       0       0       0       0       0       0       0       0       
      +0       0       0       0       0       0       0       0       0       0       0       0       0       0       0       
      +0       0       0       0       0       0
  2826 ;;Total ram usage:        0 bytes
  2827 ;; Hardware stack levels used:    1
  2828 ;; Hardware stack levels required when called:    1
  2829 ;; This function calls:
  2830 ;;		_UART1_RxDataHandler
  2831 ;; This function is called by:
  2832 ;;		_UART1_Initialize
  2833 ;;		_UART1_Receive_ISR
  2834 ;; This function uses a non-reentrant model
  2835 ;;
  2836                           
  2837                           	psect	text31
  2838  00078A                     __ptext31:
  2839                           	opt callstack 0
  2840  00078A                     _UART1_DefaultErrorHandler:
  2841                           	opt callstack 24
  2842                           
  2843                           ;mcc_generated_files/uart1.c: 302:     UART1_RxDataHandler();
  2844                           
  2845                           ;incstack = 0
  2846  00078A  ECF3  F002         	call	_UART1_RxDataHandler	;wreg free
  2847  00078E  0012               	return		;funcret
  2848  000790                     __end_of_UART1_DefaultErrorHandler:
  2849                           	opt callstack 0
  2850                           
  2851 ;; *************** function _UART1_RxDataHandler *****************
  2852 ;; Defined at:
  2853 ;;		line 287 in file "mcc_generated_files/uart1.c"
  2854 ;; Parameters:    Size  Location     Type
  2855 ;;		None
  2856 ;; Auto vars:     Size  Location     Type
  2857 ;;		None
  2858 ;; Return value:  Size  Location     Type
  2859 ;;                  1    wreg      void 
  2860 ;; Registers used:
  2861 ;;		wreg, fsr2l, fsr2h, status,2, status,0
  2862 ;; Tracked objects:
  2863 ;;		On entry : 0/0
  2864 ;;		On exit  : 0/0
  2865 ;;		Unchanged: 0/0
  2866 ;; Data sizes:     COMRAM   BANK0   BANK1   BANK2   BANK3   BANK4   BANK5   BANK6   BANK7   BANK8   BANK9  BANK10  BANK1
      +1  BANK12  BANK13  BANK14  BANK15  BANK16  BANK17  BANK18  BANK19  BANK20  BANK21  BANK22  BANK23  BANK24  BANK25  BANK2
      +6  BANK27  BANK28  BANK29  BANK30  BANK31
  2867 ;;      Params:         0       0       0       0       0       0       0       0       0       0       0       0       
      +0       0       0       0       0       0       0       0       0       0       0       0       0       0       0       
      +0       0       0       0       0       0
  2868 ;;      Locals:         0       0       0       0       0       0       0       0       0       0       0       0       
      +0       0       0       0       0       0       0       0       0       0       0       0       0       0       0       
      +0       0       0       0       0       0
  2869 ;;      Temps:          0       0       0       0       0       0       0       0       0       0       0       0       
      +0       0       0       0       0       0       0       0       0       0       0       0       0       0       0       
      +0       0       0       0       0       0
  2870 ;;      Totals:         0       0       0       0       0       0       0       0       0       0       0       0       
      +0       0       0       0       0       0       0       0       0       0       0       0       0       0       0       
      +0       0       0       0       0       0
  2871 ;;Total ram usage:        0 bytes
  2872 ;; Hardware stack levels used:    1
  2873 ;; This function calls:
  2874 ;;		Nothing
  2875 ;; This function is called by:
  2876 ;;		_UART1_Receive_ISR
  2877 ;;		_UART1_DefaultErrorHandler
  2878 ;; This function uses a non-reentrant model
  2879 ;;
  2880                           
  2881                           	psect	text32
  2882  0005E6                     __ptext32:
  2883                           	opt callstack 0
  2884  0005E6                     _UART1_RxDataHandler:
  2885                           	opt callstack 25
  2886                           
  2887                           ;mcc_generated_files/uart1.c: 289:     uart1RxBuffer[uart1RxHead++] = U1RXB;
  2888                           
  2889                           ;incstack = 0
  2890  0005E6  0E19               	movlw	low _uart1RxBuffer
  2891  0005E8  2451               	addwf	_uart1RxHead,w,c	;volatile
  2892  0005EA  6ED9               	movwf	fsr2l,c
  2893  0005EC  6ADA               	clrf	fsr2h,c
  2894  0005EE  0E00               	movlw	high _uart1RxBuffer
  2895  0005F0  22DA               	addwfc	fsr2h,f,c
  2896  0005F2  006F F7A3 FFDF     	movff	15848,indf2	;volatile
  2897  0005F8  2A51               	incf	_uart1RxHead,f,c	;volatile
  2898                           
  2899                           ;mcc_generated_files/uart1.c: 290:     if(sizeof(uart1RxBuffer) <= uart1RxHead)
  2900  0005FA  0E07               	movlw	7
  2901  0005FC  6451               	cpfsgt	_uart1RxHead,c	;volatile
  2902  0005FE  D002               	goto	i2l1333
  2903                           
  2904                           ;mcc_generated_files/uart1.c: 291:     {;mcc_generated_files/uart1.c: 292:         uart1
      +                          RxHead = 0;
  2905  000600  0E00               	movlw	0
  2906  000602  6E51               	movwf	_uart1RxHead,c	;volatile
  2907  000604                     i2l1333:
  2908                           
  2909                           ;mcc_generated_files/uart1.c: 294:     uart1RxCount++;
  2910  000604  2A4F               	incf	_uart1RxCount,f,c	;volatile
  2911  000606  0012               	return		;funcret
  2912  000608                     __end_of_UART1_RxDataHandler:
  2913                           	opt callstack 0
  2914                           
  2915 ;; *************** function _UART2_tx_vect_isr *****************
  2916 ;; Defined at:
  2917 ;;		line 216 in file "mcc_generated_files/uart2.c"
  2918 ;; Parameters:    Size  Location     Type
  2919 ;;		None
  2920 ;; Auto vars:     Size  Location     Type
  2921 ;;		None
  2922 ;; Return value:  Size  Location     Type
  2923 ;;                  1    wreg      void 
  2924 ;; Registers used:
  2925 ;;		wreg, fsr2l, fsr2h, status,2, status,0, pclath, tosl, cstack
  2926 ;; Tracked objects:
  2927 ;;		On entry : 0/0
  2928 ;;		On exit  : 0/0
  2929 ;;		Unchanged: 0/0
  2930 ;; Data sizes:     COMRAM   BANK0   BANK1   BANK2   BANK3   BANK4   BANK5   BANK6   BANK7   BANK8   BANK9  BANK10  BANK1
      +1  BANK12  BANK13  BANK14  BANK15  BANK16  BANK17  BANK18  BANK19  BANK20  BANK21  BANK22  BANK23  BANK24  BANK25  BANK2
      +6  BANK27  BANK28  BANK29  BANK30  BANK31
  2931 ;;      Params:         0       0       0       0       0       0       0       0       0       0       0       0       
      +0       0       0       0       0       0       0       0       0       0       0       0       0       0       0       
      +0       0       0       0       0       0
  2932 ;;      Locals:         0       0       0       0       0       0       0       0       0       0       0       0       
      +0       0       0       0       0       0       0       0       0       0       0       0       0       0       0       
      +0       0       0       0       0       0
  2933 ;;      Temps:          0       0       0       0       0       0       0       0       0       0       0       0       
      +0       0       0       0       0       0       0       0       0       0       0       0       0       0       0       
      +0       0       0       0       0       0
  2934 ;;      Totals:         0       0       0       0       0       0       0       0       0       0       0       0       
      +0       0       0       0       0       0       0       0       0       0       0       0       0       0       0       
      +0       0       0       0       0       0
  2935 ;;Total ram usage:        0 bytes
  2936 ;; Hardware stack levels used:    1
  2937 ;; Hardware stack levels required when called:    1
  2938 ;; This function calls:
  2939 ;;		Absolute function
  2940 ;;		_UART2_Transmit_ISR
  2941 ;; This function is called by:
  2942 ;;		Interrupt level 2
  2943 ;; This function uses a non-reentrant model
  2944 ;;
  2945                           
  2946                           	psect	text33
  2947  000608                     __ptext33:
  2948                           	opt callstack 0
  2949  000608                     _UART2_tx_vect_isr:
  2950                           	opt callstack 26
  2951                           
  2952                           ;mcc_generated_files/uart2.c: 218:     if(UART2_TxInterruptHandler)
  2953                           
  2954                           ;incstack = 0
  2955  000608  5041               	movf	_UART2_TxInterruptHandler,w,c
  2956  00060A  1042               	iorwf	_UART2_TxInterruptHandler+1,w,c
  2957  00060C  1043               	iorwf	_UART2_TxInterruptHandler+2,w,c
  2958  00060E  B4D8               	btfsc	status,2,c
  2959  000610  0011               	retfie		f
  2960                           
  2961                           ;mcc_generated_files/uart2.c: 219:     {;mcc_generated_files/uart2.c: 220:         UART2
      +                          _TxInterruptHandler();
  2962  000612  D801               	call	i2u36_48
  2963  000614  0011               	retfie		f
  2964  000616                     i2u36_48:
  2965  000616  0005               	push	
  2966  000618  6EFA               	movwf	pclath,c
  2967  00061A  5041               	movf	_UART2_TxInterruptHandler,w,c
  2968  00061C  6EFD               	movwf	tosl,c
  2969  00061E  5042               	movf	_UART2_TxInterruptHandler+1,w,c
  2970  000620  6EFE               	movwf	tosh,c
  2971  000622  5043               	movf	_UART2_TxInterruptHandler+2,w,c
  2972  000624  6EFF               	movwf	tosu,c
  2973  000626  50FA               	movf	pclath,w,c
  2974  000628  0012               	return		;indir
  2975  00062A                     __end_of_UART2_tx_vect_isr:
  2976                           	opt callstack 0
  2977                           
  2978 ;; *************** function _UART2_Transmit_ISR *****************
  2979 ;; Defined at:
  2980 ;;		line 234 in file "mcc_generated_files/uart2.c"
  2981 ;; Parameters:    Size  Location     Type
  2982 ;;		None
  2983 ;; Auto vars:     Size  Location     Type
  2984 ;;		None
  2985 ;; Return value:  Size  Location     Type
  2986 ;;                  1    wreg      void 
  2987 ;; Registers used:
  2988 ;;		wreg, fsr2l, fsr2h, status,2, status,0
  2989 ;; Tracked objects:
  2990 ;;		On entry : 0/0
  2991 ;;		On exit  : 0/0
  2992 ;;		Unchanged: 0/0
  2993 ;; Data sizes:     COMRAM   BANK0   BANK1   BANK2   BANK3   BANK4   BANK5   BANK6   BANK7   BANK8   BANK9  BANK10  BANK1
      +1  BANK12  BANK13  BANK14  BANK15  BANK16  BANK17  BANK18  BANK19  BANK20  BANK21  BANK22  BANK23  BANK24  BANK25  BANK2
      +6  BANK27  BANK28  BANK29  BANK30  BANK31
  2994 ;;      Params:         0       0       0       0       0       0       0       0       0       0       0       0       
      +0       0       0       0       0       0       0       0       0       0       0       0       0       0       0       
      +0       0       0       0       0       0
  2995 ;;      Locals:         0       0       0       0       0       0       0       0       0       0       0       0       
      +0       0       0       0       0       0       0       0       0       0       0       0       0       0       0       
      +0       0       0       0       0       0
  2996 ;;      Temps:          0       0       0       0       0       0       0       0       0       0       0       0       
      +0       0       0       0       0       0       0       0       0       0       0       0       0       0       0       
      +0       0       0       0       0       0
  2997 ;;      Totals:         0       0       0       0       0       0       0       0       0       0       0       0       
      +0       0       0       0       0       0       0       0       0       0       0       0       0       0       0       
      +0       0       0       0       0       0
  2998 ;;Total ram usage:        0 bytes
  2999 ;; Hardware stack levels used:    1
  3000 ;; This function calls:
  3001 ;;		Nothing
  3002 ;; This function is called by:
  3003 ;;		_UART2_Initialize
  3004 ;;		_UART2_tx_vect_isr
  3005 ;; This function uses a non-reentrant model
  3006 ;;
  3007                           
  3008                           	psect	text34
  3009  000502                     __ptext34:
  3010                           	opt callstack 0
  3011  000502                     _UART2_Transmit_ISR:
  3012                           	opt callstack 26
  3013                           
  3014                           ;mcc_generated_files/uart2.c: 237:     if(sizeof(uart2TxBuffer) > uart2TxBufferRemaining
      +                          )
  3015                           
  3016                           ;incstack = 0
  3017  000502  0E08               	movlw	8
  3018  000504  604B               	cpfslt	_uart2TxBufferRemaining,c	;volatile
  3019  000506  D011               	goto	i2l490
  3020                           
  3021                           ;mcc_generated_files/uart2.c: 238:     {;mcc_generated_files/uart2.c: 239:         U2TXB
      +                           = uart2TxBuffer[uart2TxTail++];
  3022  000508  0E09               	movlw	low _uart2TxBuffer
  3023  00050A  244C               	addwf	_uart2TxTail,w,c	;volatile
  3024  00050C  6ED9               	movwf	fsr2l,c
  3025  00050E  6ADA               	clrf	fsr2h,c
  3026  000510  0E00               	movlw	high _uart2TxBuffer
  3027  000512  22DA               	addwfc	fsr2h,f,c
  3028  000514  50DF               	movf	indf2,w,c
  3029  000516  013D               	movlb	61	; () banked
  3030  000518  6FD2               	movwf	210,b	;volatile
  3031                           
  3032                           ; BSR set to: 61
  3033  00051A  2A4C               	incf	_uart2TxTail,f,c	;volatile
  3034                           
  3035                           ; BSR set to: 61
  3036                           ;mcc_generated_files/uart2.c: 240:        if(sizeof(uart2TxBuffer) <= uart2TxTail)
  3037  00051C  0E07               	movlw	7
  3038  00051E  644C               	cpfsgt	_uart2TxTail,c	;volatile
  3039  000520  D002               	goto	i2l1585
  3040                           
  3041                           ; BSR set to: 61
  3042                           ;mcc_generated_files/uart2.c: 241:         {;mcc_generated_files/uart2.c: 242:          
      +                             uart2TxTail = 0;
  3043  000522  0E00               	movlw	0
  3044  000524  6E4C               	movwf	_uart2TxTail,c	;volatile
  3045  000526                     i2l1585:
  3046                           
  3047                           ; BSR set to: 61
  3048                           ;mcc_generated_files/uart2.c: 244:         uart2TxBufferRemaining++;
  3049  000526  2A4B               	incf	_uart2TxBufferRemaining,f,c	;volatile
  3050                           
  3051                           ;mcc_generated_files/uart2.c: 245:     }
  3052  000528  0012               	return	
  3053  00052A                     i2l490:
  3054                           
  3055                           ;mcc_generated_files/uart2.c: 247:     {;mcc_generated_files/uart2.c: 248:         PIE6b
      +                          its.U2TXIE = 0;
  3056  00052A  0139               	movlb	57	; () banked
  3057  00052C  9796               	bcf	150,3,b	;volatile
  3058  00052E  0012               	return		;funcret
  3059  000530                     __end_of_UART2_Transmit_ISR:
  3060                           	opt callstack 0
  3061                           
  3062 ;; *************** function _UART2_rx_vect_isr *****************
  3063 ;; Defined at:
  3064 ;;		line 224 in file "mcc_generated_files/uart2.c"
  3065 ;; Parameters:    Size  Location     Type
  3066 ;;		None
  3067 ;; Auto vars:     Size  Location     Type
  3068 ;;		None
  3069 ;; Return value:  Size  Location     Type
  3070 ;;                  1    wreg      void 
  3071 ;; Registers used:
  3072 ;;		wreg, fsr2l, fsr2h, status,2, status,0, pclath, tosl, cstack
  3073 ;; Tracked objects:
  3074 ;;		On entry : 0/0
  3075 ;;		On exit  : 0/0
  3076 ;;		Unchanged: 0/0
  3077 ;; Data sizes:     COMRAM   BANK0   BANK1   BANK2   BANK3   BANK4   BANK5   BANK6   BANK7   BANK8   BANK9  BANK10  BANK1
      +1  BANK12  BANK13  BANK14  BANK15  BANK16  BANK17  BANK18  BANK19  BANK20  BANK21  BANK22  BANK23  BANK24  BANK25  BANK2
      +6  BANK27  BANK28  BANK29  BANK30  BANK31
  3078 ;;      Params:         0       0       0       0       0       0       0       0       0       0       0       0       
      +0       0       0       0       0       0       0       0       0       0       0       0       0       0       0       
      +0       0       0       0       0       0
  3079 ;;      Locals:         0       0       0       0       0       0       0       0       0       0       0       0       
      +0       0       0       0       0       0       0       0       0       0       0       0       0       0       0       
      +0       0       0       0       0       0
  3080 ;;      Temps:          0       0       0       0       0       0       0       0       0       0       0       0       
      +0       0       0       0       0       0       0       0       0       0       0       0       0       0       0       
      +0       0       0       0       0       0
  3081 ;;      Totals:         0       0       0       0       0       0       0       0       0       0       0       0       
      +0       0       0       0       0       0       0       0       0       0       0       0       0       0       0       
      +0       0       0       0       0       0
  3082 ;;Total ram usage:        0 bytes
  3083 ;; Hardware stack levels used:    1
  3084 ;; Hardware stack levels required when called:    3
  3085 ;; This function calls:
  3086 ;;		Absolute function
  3087 ;;		_UART2_Receive_ISR
  3088 ;; This function is called by:
  3089 ;;		Interrupt level 2
  3090 ;; This function uses a non-reentrant model
  3091 ;;
  3092                           
  3093                           	psect	text35
  3094  00062C                     __ptext35:
  3095                           	opt callstack 0
  3096  00062C                     _UART2_rx_vect_isr:
  3097                           	opt callstack 24
  3098                           
  3099                           ;mcc_generated_files/uart2.c: 226:     if(UART2_RxInterruptHandler)
  3100                           
  3101                           ;incstack = 0
  3102  00062C  5044               	movf	_UART2_RxInterruptHandler,w,c
  3103  00062E  1045               	iorwf	_UART2_RxInterruptHandler+1,w,c
  3104  000630  1046               	iorwf	_UART2_RxInterruptHandler+2,w,c
  3105  000632  B4D8               	btfsc	status,2,c
  3106  000634  0011               	retfie		f
  3107                           
  3108                           ;mcc_generated_files/uart2.c: 227:     {;mcc_generated_files/uart2.c: 228:         UART2
      +                          _RxInterruptHandler();
  3109  000636  D801               	call	i2u54_48
  3110  000638  0011               	retfie		f
  3111  00063A                     i2u54_48:
  3112  00063A  0005               	push	
  3113  00063C  6EFA               	movwf	pclath,c
  3114  00063E  5044               	movf	_UART2_RxInterruptHandler,w,c
  3115  000640  6EFD               	movwf	tosl,c
  3116  000642  5045               	movf	_UART2_RxInterruptHandler+1,w,c
  3117  000644  6EFE               	movwf	tosh,c
  3118  000646  5046               	movf	_UART2_RxInterruptHandler+2,w,c
  3119  000648  6EFF               	movwf	tosu,c
  3120  00064A  50FA               	movf	pclath,w,c
  3121  00064C  0012               	return		;indir
  3122  00064E                     __end_of_UART2_rx_vect_isr:
  3123                           	opt callstack 0
  3124                           
  3125 ;; *************** function _UART2_Receive_ISR *****************
  3126 ;; Defined at:
  3127 ;;		line 254 in file "mcc_generated_files/uart2.c"
  3128 ;; Parameters:    Size  Location     Type
  3129 ;;		None
  3130 ;; Auto vars:     Size  Location     Type
  3131 ;;		None
  3132 ;; Return value:  Size  Location     Type
  3133 ;;                  1    wreg      void 
  3134 ;; Registers used:
  3135 ;;		wreg, fsr2l, fsr2h, status,2, status,0, pclath, tosl, cstack
  3136 ;; Tracked objects:
  3137 ;;		On entry : 0/0
  3138 ;;		On exit  : 0/0
  3139 ;;		Unchanged: 0/0
  3140 ;; Data sizes:     COMRAM   BANK0   BANK1   BANK2   BANK3   BANK4   BANK5   BANK6   BANK7   BANK8   BANK9  BANK10  BANK1
      +1  BANK12  BANK13  BANK14  BANK15  BANK16  BANK17  BANK18  BANK19  BANK20  BANK21  BANK22  BANK23  BANK24  BANK25  BANK2
      +6  BANK27  BANK28  BANK29  BANK30  BANK31
  3141 ;;      Params:         0       0       0       0       0       0       0       0       0       0       0       0       
      +0       0       0       0       0       0       0       0       0       0       0       0       0       0       0       
      +0       0       0       0       0       0
  3142 ;;      Locals:         0       0       0       0       0       0       0       0       0       0       0       0       
      +0       0       0       0       0       0       0       0       0       0       0       0       0       0       0       
      +0       0       0       0       0       0
  3143 ;;      Temps:          0       0       0       0       0       0       0       0       0       0       0       0       
      +0       0       0       0       0       0       0       0       0       0       0       0       0       0       0       
      +0       0       0       0       0       0
  3144 ;;      Totals:         0       0       0       0       0       0       0       0       0       0       0       0       
      +0       0       0       0       0       0       0       0       0       0       0       0       0       0       0       
      +0       0       0       0       0       0
  3145 ;;Total ram usage:        0 bytes
  3146 ;; Hardware stack levels used:    1
  3147 ;; Hardware stack levels required when called:    2
  3148 ;; This function calls:
  3149 ;;		Absolute function
  3150 ;;		_UART2_DefaultErrorHandler
  3151 ;;		_UART2_DefaultFramingErrorHandler
  3152 ;;		_UART2_DefaultOverrunErrorHandler
  3153 ;;		_UART2_RxDataHandler
  3154 ;; This function is called by:
  3155 ;;		_UART2_Initialize
  3156 ;;		_UART2_rx_vect_isr
  3157 ;; This function uses a non-reentrant model
  3158 ;;
  3159                           
  3160                           	psect	text36
  3161  00034A                     __ptext36:
  3162                           	opt callstack 0
  3163  00034A                     _UART2_Receive_ISR:
  3164                           	opt callstack 24
  3165                           
  3166                           ;mcc_generated_files/uart2.c: 257:     uart2RxStatusBuffer[uart2RxHead].status = 0;
  3167                           
  3168                           ;incstack = 0
  3169  00034A  0E01               	movlw	low _uart2RxStatusBuffer
  3170  00034C  244A               	addwf	_uart2RxHead,w,c	;volatile
  3171  00034E  6ED9               	movwf	fsr2l,c
  3172  000350  6ADA               	clrf	fsr2h,c
  3173  000352  0E00               	movlw	high _uart2RxStatusBuffer
  3174  000354  22DA               	addwfc	fsr2h,f,c
  3175  000356  0E00               	movlw	0
  3176  000358  6EDF               	movwf	indf2,c
  3177                           
  3178                           ;mcc_generated_files/uart2.c: 259:     if(U2ERRIRbits.FERIF){
  3179  00035A  013D               	movlb	61	; () banked
  3180  00035C  A7E1               	btfss	225,3,b	;volatile
  3181  00035E  D013               	goto	i2u46_49
  3182                           
  3183                           ; BSR set to: 61
  3184                           ;mcc_generated_files/uart2.c: 260:         uart2RxStatusBuffer[uart2RxHead].ferr = 1;
  3185  000360  0E01               	movlw	low _uart2RxStatusBuffer
  3186  000362  244A               	addwf	_uart2RxHead,w,c	;volatile
  3187  000364  6ED9               	movwf	fsr2l,c
  3188  000366  6ADA               	clrf	fsr2h,c
  3189  000368  0E00               	movlw	high _uart2RxStatusBuffer
  3190  00036A  22DA               	addwfc	fsr2h,f,c
  3191  00036C  82DF               	bsf	indf2,1,c
  3192                           
  3193                           ; BSR set to: 61
  3194                           ;mcc_generated_files/uart2.c: 261:         UART2_FramingErrorHandler();
  3195  00036E  D801               	call	i2u46_48
  3196  000370  D00A               	goto	i2u46_49
  3197  000372                     i2u46_48:
  3198  000372  0005               	push	
  3199  000374  6EFA               	movwf	pclath,c
  3200  000376  502F               	movf	_UART2_FramingErrorHandler,w,c
  3201  000378  6EFD               	movwf	tosl,c
  3202  00037A  5030               	movf	_UART2_FramingErrorHandler+1,w,c
  3203  00037C  6EFE               	movwf	tosh,c
  3204  00037E  5031               	movf	_UART2_FramingErrorHandler+2,w,c
  3205  000380  6EFF               	movwf	tosu,c
  3206  000382  50FA               	movf	pclath,w,c
  3207  000384  0012               	return		;indir
  3208  000386                     i2u46_49:
  3209                           
  3210                           ;mcc_generated_files/uart2.c: 264:     if(U2ERRIRbits.RXFOIF){
  3211  000386  013D               	movlb	61	; () banked
  3212  000388  A3E1               	btfss	225,1,b	;volatile
  3213  00038A  D013               	goto	i2u48_49
  3214                           
  3215                           ; BSR set to: 61
  3216                           ;mcc_generated_files/uart2.c: 265:         uart2RxStatusBuffer[uart2RxHead].oerr = 1;
  3217  00038C  0E01               	movlw	low _uart2RxStatusBuffer
  3218  00038E  244A               	addwf	_uart2RxHead,w,c	;volatile
  3219  000390  6ED9               	movwf	fsr2l,c
  3220  000392  6ADA               	clrf	fsr2h,c
  3221  000394  0E00               	movlw	high _uart2RxStatusBuffer
  3222  000396  22DA               	addwfc	fsr2h,f,c
  3223  000398  84DF               	bsf	indf2,2,c
  3224                           
  3225                           ; BSR set to: 61
  3226                           ;mcc_generated_files/uart2.c: 266:         UART2_OverrunErrorHandler();
  3227  00039A  D801               	call	i2u48_48
  3228  00039C  D00A               	goto	i2u48_49
  3229  00039E                     i2u48_48:
  3230  00039E  0005               	push	
  3231  0003A0  6EFA               	movwf	pclath,c
  3232  0003A2  502C               	movf	_UART2_OverrunErrorHandler,w,c
  3233  0003A4  6EFD               	movwf	tosl,c
  3234  0003A6  502D               	movf	_UART2_OverrunErrorHandler+1,w,c
  3235  0003A8  6EFE               	movwf	tosh,c
  3236  0003AA  502E               	movf	_UART2_OverrunErrorHandler+2,w,c
  3237  0003AC  6EFF               	movwf	tosu,c
  3238  0003AE  50FA               	movf	pclath,w,c
  3239  0003B0  0012               	return		;indir
  3240  0003B2                     i2u48_49:
  3241                           
  3242                           ;mcc_generated_files/uart2.c: 269:     if(uart2RxStatusBuffer[uart2RxHead].status){
  3243  0003B2  0E01               	movlw	low _uart2RxStatusBuffer
  3244  0003B4  244A               	addwf	_uart2RxHead,w,c	;volatile
  3245  0003B6  6ED9               	movwf	fsr2l,c
  3246  0003B8  6ADA               	clrf	fsr2h,c
  3247  0003BA  0E00               	movlw	high _uart2RxStatusBuffer
  3248  0003BC  22DA               	addwfc	fsr2h,f,c
  3249  0003BE  50DF               	movf	indf2,w,c
  3250  0003C0  B4D8               	btfsc	status,2,c
  3251  0003C2  D00C               	goto	i2l1881
  3252                           
  3253                           ;mcc_generated_files/uart2.c: 270:         UART2_ErrorHandler();
  3254  0003C4  D801               	call	i2u50_48
  3255  0003C6  0012               	return	
  3256  0003C8                     i2u50_48:
  3257  0003C8  0005               	push	
  3258  0003CA  6EFA               	movwf	pclath,c
  3259  0003CC  5029               	movf	_UART2_ErrorHandler,w,c
  3260  0003CE  6EFD               	movwf	tosl,c
  3261  0003D0  502A               	movf	_UART2_ErrorHandler+1,w,c
  3262  0003D2  6EFE               	movwf	tosh,c
  3263  0003D4  502B               	movf	_UART2_ErrorHandler+2,w,c
  3264  0003D6  6EFF               	movwf	tosu,c
  3265  0003D8  50FA               	movf	pclath,w,c
  3266  0003DA  0012               	return		;indir
  3267  0003DC                     i2l1881:
  3268                           
  3269                           ;mcc_generated_files/uart2.c: 272:         UART2_RxDataHandler();
  3270  0003DC  EC27  F003         	call	_UART2_RxDataHandler	;wreg free
  3271  0003E0  0012               	return		;funcret
  3272  0003E2                     __end_of_UART2_Receive_ISR:
  3273                           	opt callstack 0
  3274                           
  3275 ;; *************** function _UART2_DefaultOverrunErrorHandler *****************
  3276 ;; Defined at:
  3277 ;;		line 290 in file "mcc_generated_files/uart2.c"
  3278 ;; Parameters:    Size  Location     Type
  3279 ;;		None
  3280 ;; Auto vars:     Size  Location     Type
  3281 ;;		None
  3282 ;; Return value:  Size  Location     Type
  3283 ;;                  1    wreg      void 
  3284 ;; Registers used:
  3285 ;;		None
  3286 ;; Tracked objects:
  3287 ;;		On entry : 0/0
  3288 ;;		On exit  : 0/0
  3289 ;;		Unchanged: 0/0
  3290 ;; Data sizes:     COMRAM   BANK0   BANK1   BANK2   BANK3   BANK4   BANK5   BANK6   BANK7   BANK8   BANK9  BANK10  BANK1
      +1  BANK12  BANK13  BANK14  BANK15  BANK16  BANK17  BANK18  BANK19  BANK20  BANK21  BANK22  BANK23  BANK24  BANK25  BANK2
      +6  BANK27  BANK28  BANK29  BANK30  BANK31
  3291 ;;      Params:         0       0       0       0       0       0       0       0       0       0       0       0       
      +0       0       0       0       0       0       0       0       0       0       0       0       0       0       0       
      +0       0       0       0       0       0
  3292 ;;      Locals:         0       0       0       0       0       0       0       0       0       0       0       0       
      +0       0       0       0       0       0       0       0       0       0       0       0       0       0       0       
      +0       0       0       0       0       0
  3293 ;;      Temps:          0       0       0       0       0       0       0       0       0       0       0       0       
      +0       0       0       0       0       0       0       0       0       0       0       0       0       0       0       
      +0       0       0       0       0       0
  3294 ;;      Totals:         0       0       0       0       0       0       0       0       0       0       0       0       
      +0       0       0       0       0       0       0       0       0       0       0       0       0       0       0       
      +0       0       0       0       0       0
  3295 ;;Total ram usage:        0 bytes
  3296 ;; Hardware stack levels used:    1
  3297 ;; This function calls:
  3298 ;;		Nothing
  3299 ;; This function is called by:
  3300 ;;		_UART2_Initialize
  3301 ;;		_UART2_Receive_ISR
  3302 ;; This function uses a non-reentrant model
  3303 ;;
  3304                           
  3305                           	psect	text37
  3306  0007A6                     __ptext37:
  3307                           	opt callstack 0
  3308  0007A6                     _UART2_DefaultOverrunErrorHandler:
  3309                           	opt callstack 25
  3310                           
  3311                           ;incstack = 0
  3312  0007A6  0012               	return		;funcret
  3313  0007A8                     __end_of_UART2_DefaultOverrunErrorHandler:
  3314                           	opt callstack 0
  3315                           
  3316 ;; *************** function _UART2_DefaultFramingErrorHandler *****************
  3317 ;; Defined at:
  3318 ;;		line 288 in file "mcc_generated_files/uart2.c"
  3319 ;; Parameters:    Size  Location     Type
  3320 ;;		None
  3321 ;; Auto vars:     Size  Location     Type
  3322 ;;		None
  3323 ;; Return value:  Size  Location     Type
  3324 ;;                  1    wreg      void 
  3325 ;; Registers used:
  3326 ;;		None
  3327 ;; Tracked objects:
  3328 ;;		On entry : 0/0
  3329 ;;		On exit  : 0/0
  3330 ;;		Unchanged: 0/0
  3331 ;; Data sizes:     COMRAM   BANK0   BANK1   BANK2   BANK3   BANK4   BANK5   BANK6   BANK7   BANK8   BANK9  BANK10  BANK1
      +1  BANK12  BANK13  BANK14  BANK15  BANK16  BANK17  BANK18  BANK19  BANK20  BANK21  BANK22  BANK23  BANK24  BANK25  BANK2
      +6  BANK27  BANK28  BANK29  BANK30  BANK31
  3332 ;;      Params:         0       0       0       0       0       0       0       0       0       0       0       0       
      +0       0       0       0       0       0       0       0       0       0       0       0       0       0       0       
      +0       0       0       0       0       0
  3333 ;;      Locals:         0       0       0       0       0       0       0       0       0       0       0       0       
      +0       0       0       0       0       0       0       0       0       0       0       0       0       0       0       
      +0       0       0       0       0       0
  3334 ;;      Temps:          0       0       0       0       0       0       0       0       0       0       0       0       
      +0       0       0       0       0       0       0       0       0       0       0       0       0       0       0       
      +0       0       0       0       0       0
  3335 ;;      Totals:         0       0       0       0       0       0       0       0       0       0       0       0       
      +0       0       0       0       0       0       0       0       0       0       0       0       0       0       0       
      +0       0       0       0       0       0
  3336 ;;Total ram usage:        0 bytes
  3337 ;; Hardware stack levels used:    1
  3338 ;; This function calls:
  3339 ;;		Nothing
  3340 ;; This function is called by:
  3341 ;;		_UART2_Initialize
  3342 ;;		_UART2_Receive_ISR
  3343 ;; This function uses a non-reentrant model
  3344 ;;
  3345                           
  3346                           	psect	text38
  3347  0007A8                     __ptext38:
  3348                           	opt callstack 0
  3349  0007A8                     _UART2_DefaultFramingErrorHandler:
  3350                           	opt callstack 25
  3351                           
  3352                           ;incstack = 0
  3353  0007A8  0012               	return		;funcret
  3354  0007AA                     __end_of_UART2_DefaultFramingErrorHandler:
  3355                           	opt callstack 0
  3356                           
  3357 ;; *************** function _UART2_DefaultErrorHandler *****************
  3358 ;; Defined at:
  3359 ;;		line 292 in file "mcc_generated_files/uart2.c"
  3360 ;; Parameters:    Size  Location     Type
  3361 ;;		None
  3362 ;; Auto vars:     Size  Location     Type
  3363 ;;		None
  3364 ;; Return value:  Size  Location     Type
  3365 ;;                  1    wreg      void 
  3366 ;; Registers used:
  3367 ;;		wreg, fsr2l, fsr2h, status,2, status,0, cstack
  3368 ;; Tracked objects:
  3369 ;;		On entry : 0/0
  3370 ;;		On exit  : 0/0
  3371 ;;		Unchanged: 0/0
  3372 ;; Data sizes:     COMRAM   BANK0   BANK1   BANK2   BANK3   BANK4   BANK5   BANK6   BANK7   BANK8   BANK9  BANK10  BANK1
      +1  BANK12  BANK13  BANK14  BANK15  BANK16  BANK17  BANK18  BANK19  BANK20  BANK21  BANK22  BANK23  BANK24  BANK25  BANK2
      +6  BANK27  BANK28  BANK29  BANK30  BANK31
  3373 ;;      Params:         0       0       0       0       0       0       0       0       0       0       0       0       
      +0       0       0       0       0       0       0       0       0       0       0       0       0       0       0       
      +0       0       0       0       0       0
  3374 ;;      Locals:         0       0       0       0       0       0       0       0       0       0       0       0       
      +0       0       0       0       0       0       0       0       0       0       0       0       0       0       0       
      +0       0       0       0       0       0
  3375 ;;      Temps:          0       0       0       0       0       0       0       0       0       0       0       0       
      +0       0       0       0       0       0       0       0       0       0       0       0       0       0       0       
      +0       0       0       0       0       0
  3376 ;;      Totals:         0       0       0       0       0       0       0       0       0       0       0       0       
      +0       0       0       0       0       0       0       0       0       0       0       0       0       0       0       
      +0       0       0       0       0       0
  3377 ;;Total ram usage:        0 bytes
  3378 ;; Hardware stack levels used:    1
  3379 ;; Hardware stack levels required when called:    1
  3380 ;; This function calls:
  3381 ;;		_UART2_RxDataHandler
  3382 ;; This function is called by:
  3383 ;;		_UART2_Initialize
  3384 ;;		_UART2_Receive_ISR
  3385 ;; This function uses a non-reentrant model
  3386 ;;
  3387                           
  3388                           	psect	text39
  3389  000790                     __ptext39:
  3390                           	opt callstack 0
  3391  000790                     _UART2_DefaultErrorHandler:
  3392                           	opt callstack 24
  3393                           
  3394                           ;mcc_generated_files/uart2.c: 293:     UART2_RxDataHandler();
  3395                           
  3396                           ;incstack = 0
  3397  000790  EC27  F003         	call	_UART2_RxDataHandler	;wreg free
  3398  000794  0012               	return		;funcret
  3399  000796                     __end_of_UART2_DefaultErrorHandler:
  3400                           	opt callstack 0
  3401                           
  3402 ;; *************** function _UART2_RxDataHandler *****************
  3403 ;; Defined at:
  3404 ;;		line 278 in file "mcc_generated_files/uart2.c"
  3405 ;; Parameters:    Size  Location     Type
  3406 ;;		None
  3407 ;; Auto vars:     Size  Location     Type
  3408 ;;		None
  3409 ;; Return value:  Size  Location     Type
  3410 ;;                  1    wreg      void 
  3411 ;; Registers used:
  3412 ;;		wreg, fsr2l, fsr2h, status,2, status,0
  3413 ;; Tracked objects:
  3414 ;;		On entry : 0/0
  3415 ;;		On exit  : 0/0
  3416 ;;		Unchanged: 0/0
  3417 ;; Data sizes:     COMRAM   BANK0   BANK1   BANK2   BANK3   BANK4   BANK5   BANK6   BANK7   BANK8   BANK9  BANK10  BANK1
      +1  BANK12  BANK13  BANK14  BANK15  BANK16  BANK17  BANK18  BANK19  BANK20  BANK21  BANK22  BANK23  BANK24  BANK25  BANK2
      +6  BANK27  BANK28  BANK29  BANK30  BANK31
  3418 ;;      Params:         0       0       0       0       0       0       0       0       0       0       0       0       
      +0       0       0       0       0       0       0       0       0       0       0       0       0       0       0       
      +0       0       0       0       0       0
  3419 ;;      Locals:         0       0       0       0       0       0       0       0       0       0       0       0       
      +0       0       0       0       0       0       0       0       0       0       0       0       0       0       0       
      +0       0       0       0       0       0
  3420 ;;      Temps:          0       0       0       0       0       0       0       0       0       0       0       0       
      +0       0       0       0       0       0       0       0       0       0       0       0       0       0       0       
      +0       0       0       0       0       0
  3421 ;;      Totals:         0       0       0       0       0       0       0       0       0       0       0       0       
      +0       0       0       0       0       0       0       0       0       0       0       0       0       0       0       
      +0       0       0       0       0       0
  3422 ;;Total ram usage:        0 bytes
  3423 ;; Hardware stack levels used:    1
  3424 ;; This function calls:
  3425 ;;		Nothing
  3426 ;; This function is called by:
  3427 ;;		_UART2_Receive_ISR
  3428 ;;		_UART2_DefaultErrorHandler
  3429 ;; This function uses a non-reentrant model
  3430 ;;
  3431                           
  3432                           	psect	text40
  3433  00064E                     __ptext40:
  3434                           	opt callstack 0
  3435  00064E                     _UART2_RxDataHandler:
  3436                           	opt callstack 25
  3437                           
  3438                           ;mcc_generated_files/uart2.c: 280:     uart2RxBuffer[uart2RxHead++] = U2RXB;
  3439                           
  3440                           ;incstack = 0
  3441  00064E  0E60               	movlw	low _uart2RxBuffer
  3442  000650  244A               	addwf	_uart2RxHead,w,c	;volatile
  3443  000652  6ED9               	movwf	fsr2l,c
  3444  000654  6ADA               	clrf	fsr2h,c
  3445  000656  0E00               	movlw	high _uart2RxBuffer
  3446  000658  22DA               	addwfc	fsr2h,f,c
  3447  00065A  006F F743 FFDF     	movff	15824,indf2	;volatile
  3448  000660  2A4A               	incf	_uart2RxHead,f,c	;volatile
  3449                           
  3450                           ;mcc_generated_files/uart2.c: 281:     if(sizeof(uart2RxBuffer) <= uart2RxHead)
  3451  000662  0E07               	movlw	7
  3452  000664  644A               	cpfsgt	_uart2RxHead,c	;volatile
  3453  000666  D002               	goto	i2l1763
  3454                           
  3455                           ;mcc_generated_files/uart2.c: 282:     {;mcc_generated_files/uart2.c: 283:         uart2
      +                          RxHead = 0;
  3456  000668  0E00               	movlw	0
  3457  00066A  6E4A               	movwf	_uart2RxHead,c	;volatile
  3458  00066C                     i2l1763:
  3459                           
  3460                           ;mcc_generated_files/uart2.c: 285:     uart2RxCount++;
  3461  00066C  2A48               	incf	_uart2RxCount,f,c	;volatile
  3462  00066E  0012               	return		;funcret
  3463  000670                     __end_of_UART2_RxDataHandler:
  3464                           	opt callstack 0
  3465                           
  3466                           ;
  3467                           ; Interrupt Vector Table @ 0x8
  3468                           ;
  3469                           
  3470                           	psect	ivt0x8
  3471  000008                     __pivt0x8:
  3472                           	opt callstack 0
  3473  000008                     ivt0x8_base:
  3474                           	opt callstack 0
  3475                           
  3476                           ; Vector 0 : SWINT
  3477  000008  01E8               	dw	_Default_ISR shr (0+2)
  3478                           
  3479                           ; Vector 1 : HLVD
  3480  00000A  01E8               	dw	_Default_ISR shr (0+2)
  3481                           
  3482                           ; Vector 2 : OSF
  3483  00000C  01E8               	dw	_Default_ISR shr (0+2)
  3484                           
  3485                           ; Vector 3 : CSW
  3486  00000E  01E8               	dw	_Default_ISR shr (0+2)
  3487                           
  3488                           ; Vector 4 : NVM
  3489  000010  01E8               	dw	_Default_ISR shr (0+2)
  3490                           
  3491                           ; Vector 5 : SCAN
  3492  000012  01E8               	dw	_Default_ISR shr (0+2)
  3493                           
  3494                           ; Vector 6 : CRC
  3495  000014  01E8               	dw	_Default_ISR shr (0+2)
  3496                           
  3497                           ; Vector 7 : IOC
  3498  000016  01E8               	dw	_Default_ISR shr (0+2)
  3499                           
  3500                           ; Vector 8 : INT0
  3501  000018  01E8               	dw	_Default_ISR shr (0+2)
  3502                           
  3503                           ; Vector 9 : ZCD
  3504  00001A  01E8               	dw	_Default_ISR shr (0+2)
  3505                           
  3506                           ; Vector 10 : AD
  3507  00001C  01E8               	dw	_Default_ISR shr (0+2)
  3508                           
  3509                           ; Vector 11 : ADT
  3510  00001E  01E8               	dw	_Default_ISR shr (0+2)
  3511                           
  3512                           ; Vector 12 : CMP1
  3513  000020  01E8               	dw	_Default_ISR shr (0+2)
  3514                           
  3515                           ; Vector 13 : SMT1
  3516  000022  01E8               	dw	_Default_ISR shr (0+2)
  3517                           
  3518                           ; Vector 14 : SMT1PRA
  3519  000024  01E8               	dw	_Default_ISR shr (0+2)
  3520                           
  3521                           ; Vector 15 : SMT1PRW
  3522  000026  01E8               	dw	_Default_ISR shr (0+2)
  3523                           
  3524                           ; Vector 16 : DMA1SCNT
  3525  000028  01E8               	dw	_Default_ISR shr (0+2)
  3526                           
  3527                           ; Vector 17 : DMA1DCNT
  3528  00002A  01E8               	dw	_Default_ISR shr (0+2)
  3529                           
  3530                           ; Vector 18 : DMA1OR
  3531  00002C  01E8               	dw	_Default_ISR shr (0+2)
  3532                           
  3533                           ; Vector 19 : DMA1A
  3534  00002E  01E8               	dw	_Default_ISR shr (0+2)
  3535                           
  3536                           ; Vector 20 : SPI1RX
  3537  000030  01E8               	dw	_Default_ISR shr (0+2)
  3538                           
  3539                           ; Vector 21 : SPI1TX
  3540  000032  01E8               	dw	_Default_ISR shr (0+2)
  3541                           
  3542                           ; Vector 22 : SPI1
  3543  000034  01E8               	dw	_Default_ISR shr (0+2)
  3544                           
  3545                           ; Vector 23 : I2C1RX
  3546  000036  01E8               	dw	_Default_ISR shr (0+2)
  3547                           
  3548                           ; Vector 24 : I2C1TX
  3549  000038  01E8               	dw	_Default_ISR shr (0+2)
  3550                           
  3551                           ; Vector 25 : I2C1
  3552  00003A  01E8               	dw	_Default_ISR shr (0+2)
  3553                           
  3554                           ; Vector 26 : I2C1E
  3555  00003C  01E8               	dw	_Default_ISR shr (0+2)
  3556                           
  3557                           ; Vector 27 : U1RX
  3558  00003E  0171               	dw	_UART1_rx_vect_isr shr (0+2)
  3559                           
  3560                           ; Vector 28 : U1TX
  3561  000040  0168               	dw	_UART1_tx_vect_isr shr (0+2)
  3562                           
  3563                           ; Vector 29 : U1E
  3564  000042  01E8               	dw	_Default_ISR shr (0+2)
  3565                           
  3566                           ; Vector 30 : U1
  3567  000044  01E8               	dw	_Default_ISR shr (0+2)
  3568                           
  3569                           ; Vector 31 : TMR0
  3570  000046  01E8               	dw	_Default_ISR shr (0+2)
  3571                           
  3572                           ; Vector 32 : TMR1
  3573  000048  01E8               	dw	_Default_ISR shr (0+2)
  3574                           
  3575                           ; Vector 33 : TMR1G
  3576  00004A  01E8               	dw	_Default_ISR shr (0+2)
  3577                           
  3578                           ; Vector 34 : TMR2
  3579  00004C  01E8               	dw	_Default_ISR shr (0+2)
  3580                           
  3581                           ; Vector 35 : CCP1
  3582  00004E  01E8               	dw	_Default_ISR shr (0+2)
  3583                           
  3584                           ; Vector 36 : Undefined
  3585  000050  002B               	dw	ivt0x8_undefint shr (0+2)
  3586                           
  3587                           ; Vector 37 : NCO1
  3588  000052  01E8               	dw	_Default_ISR shr (0+2)
  3589                           
  3590                           ; Vector 38 : CWG1
  3591  000054  01E8               	dw	_Default_ISR shr (0+2)
  3592                           
  3593                           ; Vector 39 : CLC1
  3594  000056  01E8               	dw	_Default_ISR shr (0+2)
  3595                           
  3596                           ; Vector 40 : INT1
  3597  000058  01E8               	dw	_Default_ISR shr (0+2)
  3598                           
  3599                           ; Vector 41 : CMP2
  3600  00005A  01E8               	dw	_Default_ISR shr (0+2)
  3601                           
  3602                           ; Vector 42 : DMA2SCNT
  3603  00005C  01E8               	dw	_Default_ISR shr (0+2)
  3604                           
  3605                           ; Vector 43 : DMA2DCNT
  3606  00005E  01E8               	dw	_Default_ISR shr (0+2)
  3607                           
  3608                           ; Vector 44 : DMA2OR
  3609  000060  01E8               	dw	_Default_ISR shr (0+2)
  3610                           
  3611                           ; Vector 45 : DMA2A
  3612  000062  01E8               	dw	_Default_ISR shr (0+2)
  3613                           
  3614                           ; Vector 46 : I2C2RX
  3615  000064  01E8               	dw	_Default_ISR shr (0+2)
  3616                           
  3617                           ; Vector 47 : I2C2TX
  3618  000066  01E8               	dw	_Default_ISR shr (0+2)
  3619                           
  3620                           ; Vector 48 : I2C2
  3621  000068  01E8               	dw	_Default_ISR shr (0+2)
  3622                           
  3623                           ; Vector 49 : I2C2E
  3624  00006A  01E8               	dw	_Default_ISR shr (0+2)
  3625                           
  3626                           ; Vector 50 : U2RX
  3627  00006C  018B               	dw	_UART2_rx_vect_isr shr (0+2)
  3628                           
  3629                           ; Vector 51 : U2TX
  3630  00006E  0182               	dw	_UART2_tx_vect_isr shr (0+2)
  3631                           
  3632                           ; Vector 52 : U2E
  3633  000070  01E8               	dw	_Default_ISR shr (0+2)
  3634                           
  3635                           ; Vector 53 : U2
  3636  000072  01E8               	dw	_Default_ISR shr (0+2)
  3637                           
  3638                           ; Vector 54 : TMR3
  3639  000074  01E8               	dw	_Default_ISR shr (0+2)
  3640                           
  3641                           ; Vector 55 : TMR3G
  3642  000076  01E8               	dw	_Default_ISR shr (0+2)
  3643                           
  3644                           ; Vector 56 : TMR4
  3645  000078  01E8               	dw	_Default_ISR shr (0+2)
  3646                           
  3647                           ; Vector 57 : CCP2
  3648  00007A  01E8               	dw	_Default_ISR shr (0+2)
  3649                           
  3650                           ; Vector 58 : Undefined
  3651  00007C  002B               	dw	ivt0x8_undefint shr (0+2)
  3652                           
  3653                           ; Vector 59 : CWG2
  3654  00007E  01E8               	dw	_Default_ISR shr (0+2)
  3655                           
  3656                           ; Vector 60 : CLC2
  3657  000080  01E8               	dw	_Default_ISR shr (0+2)
  3658                           
  3659                           ; Vector 61 : INT2
  3660  000082  01E8               	dw	_Default_ISR shr (0+2)
  3661                           
  3662                           ; Vector 62 : Undefined
  3663  000084  002B               	dw	ivt0x8_undefint shr (0+2)
  3664                           
  3665                           ; Vector 63 : Undefined
  3666  000086  002B               	dw	ivt0x8_undefint shr (0+2)
  3667                           
  3668                           ; Vector 64 : Undefined
  3669  000088  002B               	dw	ivt0x8_undefint shr (0+2)
  3670                           
  3671                           ; Vector 65 : Undefined
  3672  00008A  002B               	dw	ivt0x8_undefint shr (0+2)
  3673                           
  3674                           ; Vector 66 : Undefined
  3675  00008C  002B               	dw	ivt0x8_undefint shr (0+2)
  3676                           
  3677                           ; Vector 67 : Undefined
  3678  00008E  002B               	dw	ivt0x8_undefint shr (0+2)
  3679                           
  3680                           ; Vector 68 : Undefined
  3681  000090  002B               	dw	ivt0x8_undefint shr (0+2)
  3682                           
  3683                           ; Vector 69 : Undefined
  3684  000092  002B               	dw	ivt0x8_undefint shr (0+2)
  3685                           
  3686                           ; Vector 70 : TMR5
  3687  000094  01E8               	dw	_Default_ISR shr (0+2)
  3688                           
  3689                           ; Vector 71 : TMR5G
  3690  000096  01E8               	dw	_Default_ISR shr (0+2)
  3691                           
  3692                           ; Vector 72 : TMR6
  3693  000098  01E8               	dw	_Default_ISR shr (0+2)
  3694                           
  3695                           ; Vector 73 : CCP3
  3696  00009A  01E8               	dw	_Default_ISR shr (0+2)
  3697                           
  3698                           ; Vector 74 : CWG3
  3699  00009C  01E8               	dw	_Default_ISR shr (0+2)
  3700                           
  3701                           ; Vector 75 : CLC3
  3702  00009E  01E8               	dw	_Default_ISR shr (0+2)
  3703                           
  3704                           ; Vector 76 : Undefined
  3705  0000A0  002B               	dw	ivt0x8_undefint shr (0+2)
  3706                           
  3707                           ; Vector 77 : Undefined
  3708  0000A2  002B               	dw	ivt0x8_undefint shr (0+2)
  3709                           
  3710                           ; Vector 78 : Undefined
  3711  0000A4  002B               	dw	ivt0x8_undefint shr (0+2)
  3712                           
  3713                           ; Vector 79 : Undefined
  3714  0000A6  002B               	dw	ivt0x8_undefint shr (0+2)
  3715                           
  3716                           ; Vector 80 : CCP4
  3717  0000A8  01E8               	dw	_Default_ISR shr (0+2)
  3718                           
  3719                           ; Vector 81 : CLC4
  3720  0000AA  01E8               	dw	_Default_ISR shr (0+2)
  3721  0000AC                     ivt0x8_undefint:
  3722                           	opt callstack 0
  3723  0000AC  00FF               	reset	
  3724  0000                     
  3725                           	psect	text41
  3726  000000                     __ptext41:
  3727                           	opt callstack 0
  3728                           
  3729                           	psect	rparam
  3730  0000                     tosu	equ	0x3FFF
  3731                           tosh	equ	0x3FFE
  3732                           tosl	equ	0x3FFD
  3733                           stkptr	equ	0x3FFC
  3734                           pclatu	equ	0x3FFB
  3735                           pclath	equ	0x3FFA
  3736                           pcl	equ	0x3FF9
  3737                           tblptru	equ	0x3FF8
  3738                           tblptrh	equ	0x3FF7
  3739                           tblptrl	equ	0x3FF6
  3740                           tablat	equ	0x3FF5
  3741                           prodh	equ	0x3FF4
  3742                           prodl	equ	0x3FF3
  3743                           indf0	equ	0x3FEF
  3744                           postinc0	equ	0x3FEE
  3745                           postdec0	equ	0x3FED
  3746                           preinc0	equ	0x3FEC
  3747                           plusw0	equ	0x3FEB
  3748                           fsr0h	equ	0x3FEA
  3749                           fsr0l	equ	0x3FE9
  3750                           wreg	equ	0x3FE8
  3751                           indf1	equ	0x3FE7
  3752                           postinc1	equ	0x3FE6
  3753                           postdec1	equ	0x3FE5
  3754                           preinc1	equ	0x3FE4
  3755                           plusw1	equ	0x3FE3
  3756                           fsr1h	equ	0x3FE2
  3757                           fsr1l	equ	0x3FE1
  3758                           bsr	equ	0x3FE0
  3759                           indf2	equ	0x3FDF
  3760                           postinc2	equ	0x3FDE
  3761                           postdec2	equ	0x3FDD
  3762                           preinc2	equ	0x3FDC
  3763                           plusw2	equ	0x3FDB
  3764                           fsr2h	equ	0x3FDA
  3765                           fsr2l	equ	0x3FD9
  3766                           status	equ	0x3FD8


Data Sizes:
    Strings     0
    Constant    0
    Data        0
    BSS         92
    Persistent  0
    Stack       0

Auto Spaces:
    Space          Size  Autos    Used
    COMRAM           95      5      89
    BANK0           160      0       8
    BANK1           256      0       0
    BANK2           256      0       0
    BANK3           256      0       0
    BANK4           256      0       0
    BANK5           256      0       0
    BANK6           256      0       0
    BANK7           256      0       0
    BANK8           256      0       0
    BANK9           256      0       0
    BANK10          256      0       0
    BANK11          256      0       0
    BANK12          256      0       0
    BANK13          256      0       0
    BANK14          256      0       0
    BANK15          256      0       0
    BANK16          256      0       0
    BANK17          256      0       0
    BANK18          256      0       0
    BANK19          256      0       0
    BANK20          256      0       0
    BANK21          256      0       0
    BANK22          256      0       0
    BANK23          256      0       0
    BANK24          256      0       0
    BANK25          256      0       0
    BANK26          256      0       0
    BANK27          256      0       0
    BANK28          256      0       0
    BANK29          256      0       0
    BANK30          256      0       0
    BANK31          256      0       0

Pointer List with Targets:

    UART2_SetTxInterruptHandler@InterruptHandler	PTR FTN()void  size(3) Largest target is 1
		 -> UART2_Transmit_ISR(), 

    UART2_SetRxInterruptHandler@InterruptHandler	PTR FTN()void  size(3) Largest target is 1
		 -> UART2_Receive_ISR(), 

    UART2_SetErrorHandler@interruptHandler	PTR FTN()void  size(3) Largest target is 1
		 -> UART2_DefaultErrorHandler(), 

    UART2_SetOverrunErrorHandler@interruptHandler	PTR FTN()void  size(3) Largest target is 1
		 -> UART2_DefaultOverrunErrorHandler(), 

    UART2_SetFramingErrorHandler@interruptHandler	PTR FTN()void  size(3) Largest target is 1
		 -> UART2_DefaultFramingErrorHandler(), 

    UART2_ErrorHandler	PTR FTN()void  size(3) Largest target is 1
		 -> UART2_DefaultErrorHandler(), Absolute function(), 

    UART2_OverrunErrorHandler	PTR FTN()void  size(3) Largest target is 1
		 -> UART2_DefaultOverrunErrorHandler(), Absolute function(), 

    UART2_FramingErrorHandler	PTR FTN()void  size(3) Largest target is 1
		 -> UART2_DefaultFramingErrorHandler(), Absolute function(), 

    UART2_RxInterruptHandler	PTR FTN()void  size(3) Largest target is 1
		 -> UART2_Receive_ISR(), Absolute function(), 

    UART2_TxInterruptHandler	PTR FTN()void  size(3) Largest target is 1
		 -> UART2_Transmit_ISR(), Absolute function(), 

    UART1_SetTxInterruptHandler@InterruptHandler	PTR FTN()void  size(3) Largest target is 1
		 -> UART1_Transmit_ISR(), 

    UART1_SetRxInterruptHandler@InterruptHandler	PTR FTN()void  size(3) Largest target is 1
		 -> UART1_Receive_ISR(), 

    UART1_SetErrorHandler@interruptHandler	PTR FTN()void  size(3) Largest target is 1
		 -> UART1_DefaultErrorHandler(), 

    UART1_SetOverrunErrorHandler@interruptHandler	PTR FTN()void  size(3) Largest target is 1
		 -> UART1_DefaultOverrunErrorHandler(), 

    UART1_SetFramingErrorHandler@interruptHandler	PTR FTN()void  size(3) Largest target is 1
		 -> UART1_DefaultFramingErrorHandler(), 

    UART1_ErrorHandler	PTR FTN()void  size(3) Largest target is 1
		 -> Absolute function(), UART1_DefaultErrorHandler(), 

    UART1_OverrunErrorHandler	PTR FTN()void  size(3) Largest target is 1
		 -> Absolute function(), UART1_DefaultOverrunErrorHandler(), 

    UART1_FramingErrorHandler	PTR FTN()void  size(3) Largest target is 1
		 -> Absolute function(), UART1_DefaultFramingErrorHandler(), 

    UART1_RxInterruptHandler	PTR FTN()void  size(3) Largest target is 1
		 -> Absolute function(), UART1_Receive_ISR(), 

    UART1_TxInterruptHandler	PTR FTN()void  size(3) Largest target is 1
		 -> Absolute function(), UART1_Transmit_ISR(), 


Critical Paths under _main in COMRAM

    _UART2_Initialize->_UART2_SetErrorHandler
    _UART2_Initialize->_UART2_SetFramingErrorHandler
    _UART2_Initialize->_UART2_SetOverrunErrorHandler
    _UART2_Initialize->_UART2_SetRxInterruptHandler
    _UART2_Initialize->_UART2_SetTxInterruptHandler
    _UART1_Initialize->_UART1_SetErrorHandler
    _UART1_Initialize->_UART1_SetFramingErrorHandler
    _UART1_Initialize->_UART1_SetOverrunErrorHandler
    _UART1_Initialize->_UART1_SetRxInterruptHandler
    _UART1_Initialize->_UART1_SetTxInterruptHandler

Critical Paths under _Default_ISR in COMRAM

    None.

Critical Paths under _UART1_tx_vect_isr in COMRAM

    None.

Critical Paths under _UART1_rx_vect_isr in COMRAM

    None.

Critical Paths under _UART2_tx_vect_isr in COMRAM

    None.

Critical Paths under _UART2_rx_vect_isr in COMRAM

    None.

Critical Paths under _main in BANK0

    None.

Critical Paths under _Default_ISR in BANK0

    None.

Critical Paths under _UART1_tx_vect_isr in BANK0

    None.

Critical Paths under _UART1_rx_vect_isr in BANK0

    None.

Critical Paths under _UART2_tx_vect_isr in BANK0

    None.

Critical Paths under _UART2_rx_vect_isr in BANK0

    None.

Critical Paths under _main in BANK1

    None.

Critical Paths under _Default_ISR in BANK1

    None.

Critical Paths under _UART1_tx_vect_isr in BANK1

    None.

Critical Paths under _UART1_rx_vect_isr in BANK1

    None.

Critical Paths under _UART2_tx_vect_isr in BANK1

    None.

Critical Paths under _UART2_rx_vect_isr in BANK1

    None.

Critical Paths under _main in BANK2

    None.

Critical Paths under _Default_ISR in BANK2

    None.

Critical Paths under _UART1_tx_vect_isr in BANK2

    None.

Critical Paths under _UART1_rx_vect_isr in BANK2

    None.

Critical Paths under _UART2_tx_vect_isr in BANK2

    None.

Critical Paths under _UART2_rx_vect_isr in BANK2

    None.

Critical Paths under _main in BANK3

    None.

Critical Paths under _Default_ISR in BANK3

    None.

Critical Paths under _UART1_tx_vect_isr in BANK3

    None.

Critical Paths under _UART1_rx_vect_isr in BANK3

    None.

Critical Paths under _UART2_tx_vect_isr in BANK3

    None.

Critical Paths under _UART2_rx_vect_isr in BANK3

    None.

Critical Paths under _main in BANK4

    None.

Critical Paths under _Default_ISR in BANK4

    None.

Critical Paths under _UART1_tx_vect_isr in BANK4

    None.

Critical Paths under _UART1_rx_vect_isr in BANK4

    None.

Critical Paths under _UART2_tx_vect_isr in BANK4

    None.

Critical Paths under _UART2_rx_vect_isr in BANK4

    None.

Critical Paths under _main in BANK5

    None.

Critical Paths under _Default_ISR in BANK5

    None.

Critical Paths under _UART1_tx_vect_isr in BANK5

    None.

Critical Paths under _UART1_rx_vect_isr in BANK5

    None.

Critical Paths under _UART2_tx_vect_isr in BANK5

    None.

Critical Paths under _UART2_rx_vect_isr in BANK5

    None.

Critical Paths under _main in BANK6

    None.

Critical Paths under _Default_ISR in BANK6

    None.

Critical Paths under _UART1_tx_vect_isr in BANK6

    None.

Critical Paths under _UART1_rx_vect_isr in BANK6

    None.

Critical Paths under _UART2_tx_vect_isr in BANK6

    None.

Critical Paths under _UART2_rx_vect_isr in BANK6

    None.

Critical Paths under _main in BANK7

    None.

Critical Paths under _Default_ISR in BANK7

    None.

Critical Paths under _UART1_tx_vect_isr in BANK7

    None.

Critical Paths under _UART1_rx_vect_isr in BANK7

    None.

Critical Paths under _UART2_tx_vect_isr in BANK7

    None.

Critical Paths under _UART2_rx_vect_isr in BANK7

    None.

Critical Paths under _main in BANK8

    None.

Critical Paths under _Default_ISR in BANK8

    None.

Critical Paths under _UART1_tx_vect_isr in BANK8

    None.

Critical Paths under _UART1_rx_vect_isr in BANK8

    None.

Critical Paths under _UART2_tx_vect_isr in BANK8

    None.

Critical Paths under _UART2_rx_vect_isr in BANK8

    None.

Critical Paths under _main in BANK9

    None.

Critical Paths under _Default_ISR in BANK9

    None.

Critical Paths under _UART1_tx_vect_isr in BANK9

    None.

Critical Paths under _UART1_rx_vect_isr in BANK9

    None.

Critical Paths under _UART2_tx_vect_isr in BANK9

    None.

Critical Paths under _UART2_rx_vect_isr in BANK9

    None.

Critical Paths under _main in BANK10

    None.

Critical Paths under _Default_ISR in BANK10

    None.

Critical Paths under _UART1_tx_vect_isr in BANK10

    None.

Critical Paths under _UART1_rx_vect_isr in BANK10

    None.

Critical Paths under _UART2_tx_vect_isr in BANK10

    None.

Critical Paths under _UART2_rx_vect_isr in BANK10

    None.

Critical Paths under _main in BANK11

    None.

Critical Paths under _Default_ISR in BANK11

    None.

Critical Paths under _UART1_tx_vect_isr in BANK11

    None.

Critical Paths under _UART1_rx_vect_isr in BANK11

    None.

Critical Paths under _UART2_tx_vect_isr in BANK11

    None.

Critical Paths under _UART2_rx_vect_isr in BANK11

    None.

Critical Paths under _main in BANK12

    None.

Critical Paths under _Default_ISR in BANK12

    None.

Critical Paths under _UART1_tx_vect_isr in BANK12

    None.

Critical Paths under _UART1_rx_vect_isr in BANK12

    None.

Critical Paths under _UART2_tx_vect_isr in BANK12

    None.

Critical Paths under _UART2_rx_vect_isr in BANK12

    None.

Critical Paths under _main in BANK13

    None.

Critical Paths under _Default_ISR in BANK13

    None.

Critical Paths under _UART1_tx_vect_isr in BANK13

    None.

Critical Paths under _UART1_rx_vect_isr in BANK13

    None.

Critical Paths under _UART2_tx_vect_isr in BANK13

    None.

Critical Paths under _UART2_rx_vect_isr in BANK13

    None.

Critical Paths under _main in BANK14

    None.

Critical Paths under _Default_ISR in BANK14

    None.

Critical Paths under _UART1_tx_vect_isr in BANK14

    None.

Critical Paths under _UART1_rx_vect_isr in BANK14

    None.

Critical Paths under _UART2_tx_vect_isr in BANK14

    None.

Critical Paths under _UART2_rx_vect_isr in BANK14

    None.

Critical Paths under _main in BANK15

    None.

Critical Paths under _Default_ISR in BANK15

    None.

Critical Paths under _UART1_tx_vect_isr in BANK15

    None.

Critical Paths under _UART1_rx_vect_isr in BANK15

    None.

Critical Paths under _UART2_tx_vect_isr in BANK15

    None.

Critical Paths under _UART2_rx_vect_isr in BANK15

    None.

Critical Paths under _main in BANK16

    None.

Critical Paths under _Default_ISR in BANK16

    None.

Critical Paths under _UART1_tx_vect_isr in BANK16

    None.

Critical Paths under _UART1_rx_vect_isr in BANK16

    None.

Critical Paths under _UART2_tx_vect_isr in BANK16

    None.

Critical Paths under _UART2_rx_vect_isr in BANK16

    None.

Critical Paths under _main in BANK17

    None.

Critical Paths under _Default_ISR in BANK17

    None.

Critical Paths under _UART1_tx_vect_isr in BANK17

    None.

Critical Paths under _UART1_rx_vect_isr in BANK17

    None.

Critical Paths under _UART2_tx_vect_isr in BANK17

    None.

Critical Paths under _UART2_rx_vect_isr in BANK17

    None.

Critical Paths under _main in BANK18

    None.

Critical Paths under _Default_ISR in BANK18

    None.

Critical Paths under _UART1_tx_vect_isr in BANK18

    None.

Critical Paths under _UART1_rx_vect_isr in BANK18

    None.

Critical Paths under _UART2_tx_vect_isr in BANK18

    None.

Critical Paths under _UART2_rx_vect_isr in BANK18

    None.

Critical Paths under _main in BANK19

    None.

Critical Paths under _Default_ISR in BANK19

    None.

Critical Paths under _UART1_tx_vect_isr in BANK19

    None.

Critical Paths under _UART1_rx_vect_isr in BANK19

    None.

Critical Paths under _UART2_tx_vect_isr in BANK19

    None.

Critical Paths under _UART2_rx_vect_isr in BANK19

    None.

Critical Paths under _main in BANK20

    None.

Critical Paths under _Default_ISR in BANK20

    None.

Critical Paths under _UART1_tx_vect_isr in BANK20

    None.

Critical Paths under _UART1_rx_vect_isr in BANK20

    None.

Critical Paths under _UART2_tx_vect_isr in BANK20

    None.

Critical Paths under _UART2_rx_vect_isr in BANK20

    None.

Critical Paths under _main in BANK21

    None.

Critical Paths under _Default_ISR in BANK21

    None.

Critical Paths under _UART1_tx_vect_isr in BANK21

    None.

Critical Paths under _UART1_rx_vect_isr in BANK21

    None.

Critical Paths under _UART2_tx_vect_isr in BANK21

    None.

Critical Paths under _UART2_rx_vect_isr in BANK21

    None.

Critical Paths under _main in BANK22

    None.

Critical Paths under _Default_ISR in BANK22

    None.

Critical Paths under _UART1_tx_vect_isr in BANK22

    None.

Critical Paths under _UART1_rx_vect_isr in BANK22

    None.

Critical Paths under _UART2_tx_vect_isr in BANK22

    None.

Critical Paths under _UART2_rx_vect_isr in BANK22

    None.

Critical Paths under _main in BANK23

    None.

Critical Paths under _Default_ISR in BANK23

    None.

Critical Paths under _UART1_tx_vect_isr in BANK23

    None.

Critical Paths under _UART1_rx_vect_isr in BANK23

    None.

Critical Paths under _UART2_tx_vect_isr in BANK23

    None.

Critical Paths under _UART2_rx_vect_isr in BANK23

    None.

Critical Paths under _main in BANK24

    None.

Critical Paths under _Default_ISR in BANK24

    None.

Critical Paths under _UART1_tx_vect_isr in BANK24

    None.

Critical Paths under _UART1_rx_vect_isr in BANK24

    None.

Critical Paths under _UART2_tx_vect_isr in BANK24

    None.

Critical Paths under _UART2_rx_vect_isr in BANK24

    None.

Critical Paths under _main in BANK25

    None.

Critical Paths under _Default_ISR in BANK25

    None.

Critical Paths under _UART1_tx_vect_isr in BANK25

    None.

Critical Paths under _UART1_rx_vect_isr in BANK25

    None.

Critical Paths under _UART2_tx_vect_isr in BANK25

    None.

Critical Paths under _UART2_rx_vect_isr in BANK25

    None.

Critical Paths under _main in BANK26

    None.

Critical Paths under _Default_ISR in BANK26

    None.

Critical Paths under _UART1_tx_vect_isr in BANK26

    None.

Critical Paths under _UART1_rx_vect_isr in BANK26

    None.

Critical Paths under _UART2_tx_vect_isr in BANK26

    None.

Critical Paths under _UART2_rx_vect_isr in BANK26

    None.

Critical Paths under _main in BANK27

    None.

Critical Paths under _Default_ISR in BANK27

    None.

Critical Paths under _UART1_tx_vect_isr in BANK27

    None.

Critical Paths under _UART1_rx_vect_isr in BANK27

    None.

Critical Paths under _UART2_tx_vect_isr in BANK27

    None.

Critical Paths under _UART2_rx_vect_isr in BANK27

    None.

Critical Paths under _main in BANK28

    None.

Critical Paths under _Default_ISR in BANK28

    None.

Critical Paths under _UART1_tx_vect_isr in BANK28

    None.

Critical Paths under _UART1_rx_vect_isr in BANK28

    None.

Critical Paths under _UART2_tx_vect_isr in BANK28

    None.

Critical Paths under _UART2_rx_vect_isr in BANK28

    None.

Critical Paths under _main in BANK29

    None.

Critical Paths under _Default_ISR in BANK29

    None.

Critical Paths under _UART1_tx_vect_isr in BANK29

    None.

Critical Paths under _UART1_rx_vect_isr in BANK29

    None.

Critical Paths under _UART2_tx_vect_isr in BANK29

    None.

Critical Paths under _UART2_rx_vect_isr in BANK29

    None.

Critical Paths under _main in BANK30

    None.

Critical Paths under _Default_ISR in BANK30

    None.

Critical Paths under _UART1_tx_vect_isr in BANK30

    None.

Critical Paths under _UART1_rx_vect_isr in BANK30

    None.

Critical Paths under _UART2_tx_vect_isr in BANK30

    None.

Critical Paths under _UART2_rx_vect_isr in BANK30

    None.

Critical Paths under _main in BANK31

    None.

Critical Paths under _Default_ISR in BANK31

    None.

Critical Paths under _UART1_tx_vect_isr in BANK31

    None.

Critical Paths under _UART1_rx_vect_isr in BANK31

    None.

Critical Paths under _UART2_tx_vect_isr in BANK31

    None.

Critical Paths under _UART2_rx_vect_isr in BANK31

    None.

Call Graph Tables:

 ---------------------------------------------------------------------------------
 (Depth) Function   	        Calls       Base Space   Used Autos Params    Refs
 ---------------------------------------------------------------------------------
 (0) _main                                                 2     2      0    1103
                                              3 COMRAM     2     2      0
                  _SYSTEM_Initialize
                        _UART1_Write
                  _UART1_is_tx_ready
                        _UART2_Write
                  _UART2_is_tx_ready
 ---------------------------------------------------------------------------------
 (1) _UART2_is_tx_ready                                    0     0      0       0
 ---------------------------------------------------------------------------------
 (1) _UART2_Write                                          1     1      0      30
                                              0 COMRAM     1     1      0
 ---------------------------------------------------------------------------------
 (1) _UART1_is_tx_ready                                    0     0      0       0
 ---------------------------------------------------------------------------------
 (1) _UART1_Write                                          1     1      0      30
                                              0 COMRAM     1     1      0
 ---------------------------------------------------------------------------------
 (1) _SYSTEM_Initialize                                    0     0      0     995
               _INTERRUPT_Initialize
              _OSCILLATOR_Initialize
             _PIN_MANAGER_Initialize
                     _PMD_Initialize
                    _PWM8_Initialize
                    _TMR2_Initialize
                   _UART1_Initialize
                   _UART2_Initialize
 ---------------------------------------------------------------------------------
 (2) _UART2_Initialize                                     0     0      0     490
              _UART2_SetErrorHandler
       _UART2_SetFramingErrorHandler
       _UART2_SetOverrunErrorHandler
        _UART2_SetRxInterruptHandler
        _UART2_SetTxInterruptHandler
 ---------------------------------------------------------------------------------
 (3) _UART2_SetTxInterruptHandler                          3     0      3      98
                                              0 COMRAM     3     0      3
 ---------------------------------------------------------------------------------
 (3) _UART2_SetRxInterruptHandler                          3     0      3      98
                                              0 COMRAM     3     0      3
 ---------------------------------------------------------------------------------
 (3) _UART2_SetOverrunErrorHandler                         3     0      3      98
                                              0 COMRAM     3     0      3
 ---------------------------------------------------------------------------------
 (3) _UART2_SetFramingErrorHandler                         3     0      3      98
                                              0 COMRAM     3     0      3
 ---------------------------------------------------------------------------------
 (3) _UART2_SetErrorHandler                                3     0      3      98
                                              0 COMRAM     3     0      3
 ---------------------------------------------------------------------------------
 (2) _UART1_Initialize                                     0     0      0     490
              _UART1_SetErrorHandler
       _UART1_SetFramingErrorHandler
       _UART1_SetOverrunErrorHandler
        _UART1_SetRxInterruptHandler
        _UART1_SetTxInterruptHandler
 ---------------------------------------------------------------------------------
 (3) _UART1_SetTxInterruptHandler                          3     0      3      98
                                              0 COMRAM     3     0      3
 ---------------------------------------------------------------------------------
 (3) _UART1_SetRxInterruptHandler                          3     0      3      98
                                              0 COMRAM     3     0      3
 ---------------------------------------------------------------------------------
 (3) _UART1_SetOverrunErrorHandler                         3     0      3      98
                                              0 COMRAM     3     0      3
 ---------------------------------------------------------------------------------
 (3) _UART1_SetFramingErrorHandler                         3     0      3      98
                                              0 COMRAM     3     0      3
 ---------------------------------------------------------------------------------
 (3) _UART1_SetErrorHandler                                3     0      3      98
                                              0 COMRAM     3     0      3
 ---------------------------------------------------------------------------------
 (2) _TMR2_Initialize                                      0     0      0       0
 ---------------------------------------------------------------------------------
 (2) _PWM8_Initialize                                      0     0      0       0
 ---------------------------------------------------------------------------------
 (2) _PMD_Initialize                                       0     0      0       0
 ---------------------------------------------------------------------------------
 (2) _PIN_MANAGER_Initialize                               0     0      0       0
 ---------------------------------------------------------------------------------
 (2) _OSCILLATOR_Initialize                                0     0      0       0
 ---------------------------------------------------------------------------------
 (2) _INTERRUPT_Initialize                                 1     1      0      15
                                              0 COMRAM     1     1      0
 ---------------------------------------------------------------------------------
 Estimated maximum stack depth 3
 ---------------------------------------------------------------------------------
 (Depth) Function   	        Calls       Base Space   Used Autos Params    Refs
 ---------------------------------------------------------------------------------
 (4) _Default_ISR                                          0     0      0       0
 ---------------------------------------------------------------------------------
 Estimated maximum stack depth 4
 ---------------------------------------------------------------------------------
 (Depth) Function   	        Calls       Base Space   Used Autos Params    Refs
 ---------------------------------------------------------------------------------
 (4) _UART1_tx_vect_isr                                    0     0      0       0
                   Absolute function *
                 _UART1_Transmit_ISR *
 ---------------------------------------------------------------------------------
 (5) _UART1_Transmit_ISR                                   0     0      0       0
 ---------------------------------------------------------------------------------
 (6) Absolute function(Fake)                               0     0      0       0
 ---------------------------------------------------------------------------------
 Estimated maximum stack depth 6
 ---------------------------------------------------------------------------------
 (Depth) Function   	        Calls       Base Space   Used Autos Params    Refs
 ---------------------------------------------------------------------------------
 (4) _UART1_rx_vect_isr                                    0     0      0       0
                   Absolute function *
                  _UART1_Receive_ISR *
 ---------------------------------------------------------------------------------
 (5) _UART1_Receive_ISR                                    0     0      0       0
                   Absolute function *
          _UART1_DefaultErrorHandler *
   _UART1_DefaultFramingErrorHandler *
   _UART1_DefaultOverrunErrorHandler *
                _UART1_RxDataHandler
 ---------------------------------------------------------------------------------
 (6) _UART1_DefaultOverrunErrorHandler                     0     0      0       0
 ---------------------------------------------------------------------------------
 (6) _UART1_DefaultFramingErrorHandler                     0     0      0       0
 ---------------------------------------------------------------------------------
 (6) _UART1_DefaultErrorHandler                            0     0      0       0
                _UART1_RxDataHandler
 ---------------------------------------------------------------------------------
 (6) _UART1_RxDataHandler                                  0     0      0       0
 ---------------------------------------------------------------------------------
 (6) Absolute function(Fake)                               0     0      0       0
 ---------------------------------------------------------------------------------
 Estimated maximum stack depth 6
 ---------------------------------------------------------------------------------
 (Depth) Function   	        Calls       Base Space   Used Autos Params    Refs
 ---------------------------------------------------------------------------------
 (4) _UART2_tx_vect_isr                                    0     0      0       0
                   Absolute function *
                 _UART2_Transmit_ISR *
 ---------------------------------------------------------------------------------
 (5) _UART2_Transmit_ISR                                   0     0      0       0
 ---------------------------------------------------------------------------------
 (6) Absolute function(Fake)                               0     0      0       0
 ---------------------------------------------------------------------------------
 Estimated maximum stack depth 6
 ---------------------------------------------------------------------------------
 (Depth) Function   	        Calls       Base Space   Used Autos Params    Refs
 ---------------------------------------------------------------------------------
 (4) _UART2_rx_vect_isr                                    0     0      0       0
                   Absolute function *
                  _UART2_Receive_ISR *
 ---------------------------------------------------------------------------------
 (5) _UART2_Receive_ISR                                    0     0      0       0
                   Absolute function *
          _UART2_DefaultErrorHandler *
   _UART2_DefaultFramingErrorHandler *
   _UART2_DefaultOverrunErrorHandler *
                _UART2_RxDataHandler
 ---------------------------------------------------------------------------------
 (6) _UART2_DefaultOverrunErrorHandler                     0     0      0       0
 ---------------------------------------------------------------------------------
 (6) _UART2_DefaultFramingErrorHandler                     0     0      0       0
 ---------------------------------------------------------------------------------
 (6) _UART2_DefaultErrorHandler                            0     0      0       0
                _UART2_RxDataHandler
 ---------------------------------------------------------------------------------
 (6) _UART2_RxDataHandler                                  0     0      0       0
 ---------------------------------------------------------------------------------
 (6) Absolute function(Fake)                               0     0      0       0
 ---------------------------------------------------------------------------------
 Estimated maximum stack depth 6
 ---------------------------------------------------------------------------------

 Call Graph Graphs:

 _main (ROOT)
   _SYSTEM_Initialize
     _INTERRUPT_Initialize
     _OSCILLATOR_Initialize
     _PIN_MANAGER_Initialize
     _PMD_Initialize
     _PWM8_Initialize
     _TMR2_Initialize
     _UART1_Initialize
       _UART1_SetErrorHandler
       _UART1_SetFramingErrorHandler
       _UART1_SetOverrunErrorHandler
       _UART1_SetRxInterruptHandler
       _UART1_SetTxInterruptHandler
     _UART2_Initialize
       _UART2_SetErrorHandler
       _UART2_SetFramingErrorHandler
       _UART2_SetOverrunErrorHandler
       _UART2_SetRxInterruptHandler
       _UART2_SetTxInterruptHandler
   _UART1_Write
   _UART1_is_tx_ready
   _UART2_Write
   _UART2_is_tx_ready

 _Default_ISR (ROOT)

 _UART1_tx_vect_isr (ROOT)
   Absolute function(Fake) *
   _UART1_Transmit_ISR *

 _UART1_rx_vect_isr (ROOT)
   Absolute function(Fake) *
   _UART1_Receive_ISR *
     Absolute function(Fake) *
     _UART1_DefaultErrorHandler *
       _UART1_RxDataHandler
     _UART1_DefaultFramingErrorHandler *
     _UART1_DefaultOverrunErrorHandler *
     _UART1_RxDataHandler *

 _UART2_tx_vect_isr (ROOT)
   Absolute function(Fake) *
   _UART2_Transmit_ISR *

 _UART2_rx_vect_isr (ROOT)
   Absolute function(Fake) *
   _UART2_Receive_ISR *
     Absolute function(Fake) *
     _UART2_DefaultErrorHandler *
       _UART2_RxDataHandler
     _UART2_DefaultFramingErrorHandler *
     _UART2_DefaultOverrunErrorHandler *
     _UART2_RxDataHandler *

 Address spaces:
Name               Size   Autos  Total    Cost      Usage
BIGRAM            1FFF      0       0      69        0.0%
EEDATA             400      0       0       0        0.0%
BITBANK31          100      0       0      67        0.0%
BANK31             100      0       0      68        0.0%
BITBANK30          100      0       0      65        0.0%
BANK30             100      0       0      66        0.0%
BITBANK29          100      0       0      63        0.0%
BANK29             100      0       0      64        0.0%
BITBANK28          100      0       0      61        0.0%
BANK28             100      0       0      62        0.0%
BITBANK27          100      0       0      59        0.0%
BANK27             100      0       0      60        0.0%
BITBANK26          100      0       0      56        0.0%
BANK26             100      0       0      57        0.0%
BITBANK25          100      0       0      54        0.0%
BANK25             100      0       0      55        0.0%
BITBANK24          100      0       0      52        0.0%
BANK24             100      0       0      53        0.0%
BITBANK23          100      0       0      50        0.0%
BANK23             100      0       0      51        0.0%
BITBANK22          100      0       0      48        0.0%
BANK22             100      0       0      49        0.0%
BITBANK21          100      0       0      46        0.0%
BANK21             100      0       0      47        0.0%
BITBANK20          100      0       0      44        0.0%
BANK20             100      0       0      45        0.0%
BITBANK19          100      0       0      42        0.0%
BANK19             100      0       0      43        0.0%
BITBANK18          100      0       0      40        0.0%
BANK18             100      0       0      41        0.0%
BITBANK17          100      0       0      38        0.0%
BANK17             100      0       0      39        0.0%
BITBANK16          100      0       0      36        0.0%
BANK16             100      0       0      37        0.0%
BITBANK15          100      0       0      34        0.0%
BANK15             100      0       0      35        0.0%
BITBANK14          100      0       0      32        0.0%
BANK14             100      0       0      33        0.0%
BITBANK13          100      0       0      30        0.0%
BANK13             100      0       0      31        0.0%
BITBANK12          100      0       0      28        0.0%
BANK12             100      0       0      29        0.0%
BITBANK11          100      0       0      26        0.0%
BANK11             100      0       0      27        0.0%
BITBANK10          100      0       0      24        0.0%
BANK10             100      0       0      25        0.0%
BITBANK9           100      0       0      22        0.0%
BANK9              100      0       0      23        0.0%
BITBANK8           100      0       0      20        0.0%
BANK8              100      0       0      21        0.0%
BITBANK7           100      0       0      18        0.0%
BANK7              100      0       0      19        0.0%
BITBANK6           100      0       0      16        0.0%
BANK6              100      0       0      17        0.0%
BITBANK5           100      0       0      14        0.0%
BANK5              100      0       0      15        0.0%
BITBANK4           100      0       0      12        0.0%
BANK4              100      0       0      13        0.0%
BITBANK3           100      0       0      10        0.0%
BANK3              100      0       0      11        0.0%
BITBANK2           100      0       0       8        0.0%
BANK2              100      0       0       9        0.0%
BITBANK1           100      0       0       6        0.0%
BANK1              100      0       0       7        0.0%
BITBANK0            A0      0       0       4        0.0%
BANK0               A0      0       8       5        5.0%
BITCOMRAM           5F      0       0       0        0.0%
COMRAM              5F      5      59       1       93.7%
BITSFR_8             0      0       0     200        0.0%
SFR_8                0      0       0     200        0.0%
BITSFR_7             0      0       0     200        0.0%
SFR_7                0      0       0     200        0.0%
BITSFR_6             0      0       0     200        0.0%
SFR_6                0      0       0     200        0.0%
BITSFR_5             0      0       0     200        0.0%
SFR_5                0      0       0     200        0.0%
BITSFR_4             0      0       0     200        0.0%
SFR_4                0      0       0     200        0.0%
BITSFR_3             0      0       0     200        0.0%
SFR_3                0      0       0     200        0.0%
BITSFR_2             0      0       0     200        0.0%
SFR_2                0      0       0     200        0.0%
BITSFR_1             0      0       0     200        0.0%
SFR_1                0      0       0     200        0.0%
BITSFR               0      0       0     200        0.0%
SFR                  0      0       0     200        0.0%
STACK                0      0       0       2        0.0%
NULL                 0      0       0       0        0.0%
ABS                  0      0      61      58        0.0%
DATA                 0      0      61       3        0.0%
CODE                 0      0       0       0        0.0%


Microchip Technology PIC18 Macro Assembler V2.05 build -831301201 
Symbol Table                                                                                   Wed Jul 24 15:57:24 2019

                                 __CFG_CP$OFF 000000                                            l58 06A4  
                   __end_of_UART2_is_tx_ready 079A                                            u35 0418  
                                          u36 041A                                   __CFG_LVP$ON 000000  
                                         l304 0478                                           l472 043C  
                                         _GIE 01FE97                                           _PR2 003FAB  
                     __size_of_PMD_Initialize 0024                               _TMR2_Initialize 0670  
                                         tosl 003FFD                                           wreg 003FE8  
                          _UART1_Transmit_ISR 04D4                                 __CFG_BBEN$OFF 000000  
                                __CFG_ZCD$OFF 000000                                          l1503 0464  
                                        l1517 0498                                          l1519 049A  
                                        l1571 045C                                          l1573 045E  
                                        l1557 0428                                          l1921 04C0  
                                        l1915 04AE                                          _LATA 003FBA  
                                        _LATB 003FBB                                          _LATC 003FBC  
                                        _LATD 003FBD                                          _LATE 003FBE  
                                        _T2PR 003FAB                                          _PMD0 0039C0  
                                        _PMD1 0039C1                                          _PMD2 0039C2  
                                        _PMD3 0039C3                                          _PMD4 0039C4  
                                        _PMD5 0039C5                                          _PMD6 0039C6  
                                        _PMD7 0039C7                                          _PLLR 01CEE0  
                                        _TMR2 003FAA                                          _WPUA 003A41  
                                        _WPUB 003A51                                          _WPUC 003A61  
                                        _WPUD 003A71                                          _WPUE 003A81  
                               __CFG_FCMEN$ON 000000                           ?_UART1_Transmit_ISR 0055  
                                        _main 049E                                          indf2 003FDF  
                                        fsr2l 003FD9                                          start 00AE  
               ??_UART1_SetTxInterruptHandler 0058                 ??_UART2_SetRxInterruptHandler 0058  
                               __CFG_CSWEN$ON 000000                             _UART1_rx_vect_isr 05C4  
                                ___param_bank 000000                            ?_UART1_rx_vect_isr 0055  
                  __size_of_UART1_is_tx_ready 0004                __size_of_OSCILLATOR_Initialize 001C  
                        ??_UART1_Transmit_ISR 0055                 __end_of_OSCILLATOR_Initialize 06AA  
                                       ?_main 0055                                 __CFG_WDTE$OFF 000000  
                                       _U1P1H 003DED                                         _U1P2H 003DEF  
                                       _U1P1L 003DEC                                         _U1P3H 003DF1  
                                       _T2CON 003FAC                                         _U1P2L 003DEE  
                                       _U1P3L 003DF0                                         _U2P1L 003DD4  
                                       _U2P2L 003DD6                                         _U2P3L 003DD8  
                                       _T2HLT 003FAD                                __CFG_DEBUG$OFF 000000  
                                       _T2TMR 003FAA                                         _U1UIR 003DF8  
                                       _T2RST 003FAF                                         _U1RXB 003DE8  
                                       _U2UIR 003DE0                                         _U1TXB 003DEA  
                                       _U2RXB 003DD0                                         i2l322 04FC  
                                       _U2TXB 003DD2                                         i2l490 052A  
                         ??_UART1_rx_vect_isr 0055                                         _OSCEN 0039DD  
                                       _TRISA 003FC2                                         _TRISB 003FC3  
                                       _TRISC 003FC4                                         _TRISD 003FC5  
                                       _TRISE 003FC6                                   _Default_ISR 07A0  
                           _UART1_tx_vect_isr 05A0                                 __CFG_WRTB$OFF 000000  
                               __CFG_WRTC$OFF 000000                                 __CFG_WRTD$OFF 000000  
                          __CFG_MCLRE$EXTMCLR 000000                            ?_UART1_tx_vect_isr 0055  
                                       main@x 0058                                         main@y 0059  
                                       pclath 003FFA                                         status 003FD8  
         __end_of_UART1_SetRxInterruptHandler 074E                   _UART1_SetRxInterruptHandler 073A  
    __end_of_UART1_DefaultFramingErrorHandler 07A6     __size_of_UART1_DefaultFramingErrorHandler 0002  
          ??_UART1_DefaultFramingErrorHandler 0055             ?_UART1_DefaultFramingErrorHandler 0055  
            _UART1_DefaultFramingErrorHandler 07A4                           ??_UART1_tx_vect_isr 0055  
                   __end_of_UART1_rx_vect_isr 05E6                ??_UART2_SetOverrunErrorHandler 0058  
                             __initialization 0530                             _UART2_rx_vect_isr 062C  
                                __end_of_main 04D4                                __CFG_SAFEN$OFF 000000  
                 ??_UART1_DefaultErrorHandler 0055                            ?_UART2_rx_vect_isr 0055  
                  __size_of_UART2_is_tx_ready 0004                       __end_of_TMR2_Initialize 068E  
                                ?_UART1_Write 0055                                  ?_UART2_Write 0055  
                                      ??_main 0058                                __CFG_PR1WAY$ON 000000  
                               __activetblptr 000003          __size_of_UART1_SetTxInterruptHandler 0014  
                         ??_UART2_rx_vect_isr 0055                     __end_of_UART1_tx_vect_isr 05C2  
        __size_of_UART2_SetRxInterruptHandler 0014                                __CFG_MVECEN$ON 000000  
                             _PWM8_Initialize 06AA                   __end_of_UART2_RxDataHandler 0670  
                            _UART1_Initialize 00B2                             _UART2_tx_vect_isr 0608  
                          _UART2_Transmit_ISR 0502                                        _ANSELA 003A40  
                                      _ANSELB 003A50                                        _ANSELC 003A60  
                                      _ANSELD 003A70                                        _ANSELE 003A80  
                          ?_UART2_tx_vect_isr 0055                                        _RB1I2C 003A5A  
                                      _RB2I2C 003A5B                                        _RD0I2C 003A7A  
                                      _U1CON0 003DF2                                        _U1CON1 003DF3  
                                      _U1CON2 003DF4                                        _RC3I2C 003A6A  
                                      _RD1I2C 003A7B                                        _RC4I2C 003A6B  
                                      _U1BRGH 003DF6                                        _U1FIFO 003DF7  
                                      _U2CON0 003DDA                                        _U2CON1 003DDB  
                                      _U1BRGL 003DF5                                        _U2CON2 003DDC  
                                      _U2BRGH 003DDE                                        _U2FIFO 003DDF  
                                      _U2BRGL 003DDD                                        _RD1PPS 003A19  
                                      _RB6PPS 003A0E                                        _ODCONA 003A42  
                                      _ODCONB 003A52                                        _ODCONC 003A62  
                                      _RC6PPS 003A16                                        _ODCOND 003A72  
                                      _ODCONE 003A82                                        i2l1333 0604  
                              __CFG_WDTCCS$SC 000000                                        i2l1531 04F8  
                                      i2l1551 0344                                        i2l1585 0526  
                                      i2l1763 066C                                        i2l1881 03DC  
                                      _IVTADH 00389E                                        _IVTADL 00389D  
                                      _IVTADU 00389F                                        _OSCFRQ 0039DF  
                         ?_UART2_Transmit_ISR 0055                         _UART1_SetErrorHandler 0776  
                         ??_UART2_tx_vect_isr 0055                     __end_of_UART2_rx_vect_isr 064E  
                              __CFG_XINST$OFF 000000                              _UART2_Initialize 016A  
                                _CCPTMRS1bits 003F5F                     _UART2_OverrunErrorHandler 002C  
                         _uart2RxStatusBuffer 0001            __size_of_UART2_DefaultErrorHandler 0006  
                              __CFG_STVREN$ON 000000                    ?_UART2_DefaultErrorHandler 0055  
                                      clear_0 0536                                        clear_1 0542  
                        ??_UART2_Transmit_ISR 0055                                _PMD_Initialize 055A  
                   __end_of_UART2_tx_vect_isr 062A   UART2_SetTxInterruptHandler@InterruptHandler 0055  
 UART2_SetRxInterruptHandler@InterruptHandler 0055   UART1_SetTxInterruptHandler@InterruptHandler 0055  
 UART1_SetRxInterruptHandler@InterruptHandler 0055          __end_of_UART1_SetOverrunErrorHandler 0762  
       __size_of_UART1_SetOverrunErrorHandler 0014                  _UART1_SetOverrunErrorHandler 074E  
                   _UART1_DefaultErrorHandler 078A                 __size_of_INTERRUPT_Initialize 0044  
                __size_of_UART1_RxDataHandler 0022                             _SYSTEM_Initialize 057E  
                                  __accesstop 0060                       __end_of__initialization 0554  
                          ?_SYSTEM_Initialize 0055                                 ___rparam_used 000001  
                  __size_of_UART1_rx_vect_isr 0022                                __pcstackCOMRAM 0055  
                       _UART2_SetErrorHandler 0712                           ??_SYSTEM_Initialize 0058  
                              ivt0x8_undefint 00AC             __end_of_UART2_DefaultErrorHandler 0796  
                            ?_TMR2_Initialize 0055                       __end_of_PWM8_Initialize 06C2  
                      __end_of_PMD_Initialize 057E                    __size_of_UART1_tx_vect_isr 0022  
                   _UART1_FramingErrorHandler 0038                      _UART2_RxInterruptHandler 0044  
                   __end_of_SYSTEM_Initialize 05A0                               __CFG_IVT1WAY$ON 000000  
                                  __pbssBANK0 0060                 ?_UART1_SetOverrunErrorHandler 0055  
                      ?_UART1_SetErrorHandler 0055                  ?_UART2_SetTxInterruptHandler 0055  
                  __size_of_UART2_rx_vect_isr 0022                                       IVTBASEH 003FD6  
                                     IVTBASEL 003FD5                                       IVTBASEU 003FD7  
                             __CFG_PPS1WAY$ON 000000          __end_of_UART2_SetFramingErrorHandler 0712  
       __size_of_UART2_SetFramingErrorHandler 0014                  _UART2_SetFramingErrorHandler 06FE  
                             ?_PMD_Initialize 0055                             _UART1_Receive_ISR 02B2  
                                     _U1ERRIE 003DFA                                       _U1ERRIR 003DF9  
                                     _U2ERRIE 003DE2                                       _U2ERRIR 003DE1  
                         __CFG_PWRTS$PWRT_OFF 000000                                  ?_Default_ISR 0055  
                        __size_of_UART1_Write 003C                            ?_UART1_Receive_ISR 0055  
                  __size_of_UART2_tx_vect_isr 0022                          __size_of_UART2_Write 003C  
                                     _U1RXPPS 003AE5                                       _U2RXPPS 003AE8  
                                     _OSCCON1 0039D9                                       _OSCCON3 0039DB  
                                     _IVTLOCK 003FD4                                       i2u11_48 02DA  
                                     i2u11_49 02EE                                       i2u13_48 0306  
                                     i2u13_49 031A                                       i2u30_48 05AE  
                                     i2u15_48 0330                                       i2u32_48 05D2  
                                     i2u50_48 03C8                                       i2u36_48 0616  
                                     _OSCTUNE 0039DE                                       i2u46_48 0372  
                                     i2u54_48 063A                                       i2u46_49 0386  
                                     i2u48_48 039E                                       i2u48_49 03B2  
                                     _PWM8DCH 003F61                                       _PWM8DCL 003F60  
                                     _PWM8CON 003F62                                       _SLRCONA 003A43  
                                     _SLRCONB 003A53                                       _SLRCONC 003A63  
                                     _SLRCOND 003A73                                       _SLRCONE 003A83  
                         ??_UART1_Receive_ISR 0055                     INTERRUPT_Initialize@state 0055  
                                     __Hparam 0000                        ?_UART2_SetErrorHandler 0055  
                                     __Lparam 0000                      __end_of_UART1_Initialize 016A  
               ??_UART2_SetTxInterruptHandler 0058                     __end_of_UART1_Receive_ISR 034A  
               ?_UART2_SetFramingErrorHandler 0055                                       __pcinit 0530  
                            ?_PWM8_Initialize 0055                                       __ramtop 2000  
                 __size_of_UART1_Transmit_ISR 002E                                       __ptext0 049E  
                                     __ptext1 0796                                       __ptext2 0426  
                                     __ptext3 079A                                       __ptext4 0462  
                                     __ptext5 057E                                       __ptext6 016A  
                                     __ptext7 06C2                                       __ptext8 06D6  
                                     __ptext9 06EA                             _UART2_Receive_ISR 034A  
                             __CFG_WRTAPP$OFF 000000      __end_of_UART2_DefaultOverrunErrorHandler 07A8  
   __size_of_UART2_DefaultOverrunErrorHandler 0002            ??_UART2_DefaultOverrunErrorHandler 0055  
           ?_UART2_DefaultOverrunErrorHandler 0055              _UART2_DefaultOverrunErrorHandler 07A6  
                       _OSCILLATOR_Initialize 068E                                     _T2CONbits 003FAC  
                          ?_UART2_Receive_ISR 0055                      ??_PIN_MANAGER_Initialize 0055  
                                   _T2HLTbits 003FAD                               __CFG_WRTSAF$OFF 000000  
                    __end_of_UART2_Initialize 0216                    __size_of_SYSTEM_Initialize 0022  
                        end_of_initialization 0554                           ??_UART2_Receive_ISR 0055  
                                   _T2RSTbits 003FAF           __end_of_UART1_SetTxInterruptHandler 073A  
                 _UART1_SetTxInterruptHandler 0726           __end_of_UART2_SetRxInterruptHandler 06EA  
                 _UART2_SetRxInterruptHandler 06D6                ??_UART1_SetOverrunErrorHandler 0058  
                                     postinc0 003FEE                   ??_UART2_DefaultErrorHandler 0055  
                   __end_of_UART2_Receive_ISR 03E2                             UART1_Write@txData 0055  
                         _UART1_RxDataHandler 05E6                         __CFG_WDTCPS$WDTCPS_31 000000  
        __size_of_UART2_SetTxInterruptHandler 0014                              __CFG_FEXTOSC$ECH 000000  
                        ?_UART1_RxDataHandler 0055                  __size_of_UART2_RxDataHandler 0022  
                __end_of_INTERRUPT_Initialize 0426                    __size_of_UART1_Receive_ISR 0098  
                 __size_of_UART2_Transmit_ISR 002E                        ?_OSCILLATOR_Initialize 0055  
              ??_UART2_SetFramingErrorHandler 0058                           start_initialization 0530  
             __size_of_PIN_MANAGER_Initialize 009C                          __size_of_Default_ISR 0002  
                     ??_UART1_SetErrorHandler 0058                     _UART2_DefaultErrorHandler 0790  
                       ??_UART1_RxDataHandler 0055                                    ivt0x8_base 0008  
                               _uart1RxBuffer 0019                                 _uart2RxBuffer 0060  
                               _uart1TxBuffer 0021                                 _uart2TxBuffer 0009  
                            __CFG_LPBOREN$OFF 000000                              ??_PMD_Initialize 0055  
                  __size_of_UART2_Receive_ISR 0098                             UART2_Write@txData 0055  
                                 __pbssCOMRAM 0001                            _UART1_ErrorHandler 0032  
                   _UART2_FramingErrorHandler 002F                      __size_of_TMR2_Initialize 001E  
                    _UART1_RxInterruptHandler 003E                      _UART2_TxInterruptHandler 0041  
                     ??_UART2_SetErrorHandler 0058                  ?_UART1_SetRxInterruptHandler 0055  
                      _PIN_MANAGER_Initialize 0216                             ?_UART1_Initialize 0055  
        __end_of_UART1_SetFramingErrorHandler 0776         __size_of_UART1_SetFramingErrorHandler 0014  
                _UART1_SetFramingErrorHandler 0762                            ??_UART1_Initialize 0058  
                            _uart1RxLastError 004E                                 ??_UART1_Write 0055  
                               ??_UART2_Write 0055                        __CFG_BBSIZE$BBSIZE_512 000000  
    __end_of_UART1_DefaultOverrunErrorHandler 07A4     __size_of_UART1_DefaultOverrunErrorHandler 0002  
          ??_UART1_DefaultOverrunErrorHandler 0055             ?_UART1_DefaultOverrunErrorHandler 0055  
            _UART1_DefaultOverrunErrorHandler 07A2                             ?_UART2_Initialize 0055  
                                    _T2CLKCON 003FAE                                   _U1ERRIRbits 003DF9  
                          ??_UART2_Initialize 0058                          _INTERRUPT_Initialize 03E2  
                            _uart2RxLastError 0047                                   _U2ERRIRbits 003DE1  
       UART2_SetErrorHandler@interruptHandler 0055         UART1_SetErrorHandler@interruptHandler 0055  
                                    _IPR3bits 003983                                      _PIE3bits 003993  
                                    _IPR6bits 003986                                      _PIE6bits 003996  
                         __CFG_BORV$VBOR_2P45 000000                 ??_UART1_SetRxInterruptHandler 0058  
                                    _PIR4bits 0039A4                    __end_of_UART1_Transmit_ISR 0502  
               ?_UART1_SetFramingErrorHandler 0055                           _UART2_RxDataHandler 064E  
                         __end_of_UART1_Write 049E                            _UART2_ErrorHandler 0029  
                         __end_of_UART2_Write 0462                      __size_of_PWM8_Initialize 0018  
                                 _INTCON0bits 003FD2                         ?_INTERRUPT_Initialize 0055  
                        ?_UART2_RxDataHandler 0055                        _uart1TxBufferRemaining 0052  
                           ??_TMR2_Initialize 0055           __end_of_UART2_SetTxInterruptHandler 06D6  
                 _UART2_SetTxInterruptHandler 06C2                                  _uart1RxCount 004F  
                                _uart2RxCount 0048                                      __Hrparam 0000  
                     __CFG_RSTOSC$EXTOSC_4PLL 000000                                      __Lrparam 0000  
                          __CFG_BOREN$SBORDIS 000000                       ??_OSCILLATOR_Initialize 0055  
        __size_of_UART1_SetRxInterruptHandler 0014                                      __pivt0x8 0008  
                                    __ptext10 06FE                                      __ptext11 0712  
                                    __ptext20 055A                                      __ptext12 00B2  
                                    __ptext21 0216                                      __ptext13 0726  
                                    __ptext30 07A4                                      __ptext22 068E  
                                    __ptext14 073A                                      __ptext31 078A  
                                    __ptext23 03E2                                      __ptext15 074E  
                                    __ptext40 064E                                      __ptext32 05E6  
                                    __ptext24 07A0                                      __ptext16 0762  
                                    __ptext41 0000                                      __ptext33 0608  
                                    __ptext25 05A0                                      __ptext17 0776  
                                    __ptext34 0502                                      __ptext26 04D4  
                                    __ptext18 0670                                      __ptext35 062C  
                                    __ptext27 05C4                                      __ptext19 06AA  
                                    __ptext36 034A                                      __ptext28 02B2  
                                    __ptext37 07A6                                      __ptext29 07A2  
                                    __ptext38 07A8                                      __ptext39 0790  
              __size_of_UART1_SetErrorHandler 0014                 __end_of_UART1_SetErrorHandler 078A  
                       ??_UART2_RxDataHandler 0055                                 __size_of_main 0036  
    __end_of_UART2_DefaultFramingErrorHandler 07AA     __size_of_UART2_DefaultFramingErrorHandler 0002  
          ??_UART2_DefaultFramingErrorHandler 0055             ?_UART2_DefaultFramingErrorHandler 0055  
            _UART2_DefaultFramingErrorHandler 07A8                          __CFG_WDTCWS$WDTCWS_7 000000  
                                 _IVTLOCKbits 003FD4                     _UART1_OverrunErrorHandler 0035  
UART2_SetOverrunErrorHandler@interruptHandler 0055  UART1_SetOverrunErrorHandler@interruptHandler 0055  
          __size_of_UART1_DefaultErrorHandler 0006                    ?_UART1_DefaultErrorHandler 0055  
                  __end_of_UART2_Transmit_ISR 0530                                   _UART1_Write 0462  
                                 _UART2_Write 0426                             _UART1_is_tx_ready 079A  
                               ??_Default_ISR 0055                ??_UART1_SetFramingErrorHandler 0058  
                          ?_UART1_is_tx_ready 0055                   __end_of_UART1_RxDataHandler 0608  
                                 _uart1RxHead 0051                                   _uart1TxHead 0054  
                                 _uart2RxHead 004A                                   _uart1RxTail 0050  
                                 _uart2TxHead 004D                                   _uart1TxTail 0053  
                                 _uart2RxTail 0049                                   _uart2TxTail 004C  
                      ??_INTERRUPT_Initialize 0055                           ??_UART1_is_tx_ready 0055  
        __end_of_UART2_SetOverrunErrorHandler 06FE         __size_of_UART2_SetOverrunErrorHandler 0014  
                _UART2_SetOverrunErrorHandler 06EA                                      intlevel2 0000  
                     ?_PIN_MANAGER_Initialize 0055                             ??_PWM8_Initialize 0055  
                           __CFG_CLKOUTEN$OFF 000000                __size_of_UART2_SetErrorHandler 0014  
               __end_of_UART2_SetErrorHandler 0726                           _uart1RxStatusBuffer 0011  
UART2_SetFramingErrorHandler@interruptHandler 0055  UART1_SetFramingErrorHandler@interruptHandler 0055  
                   __end_of_UART1_is_tx_ready 079E             __end_of_UART1_DefaultErrorHandler 0790  
                      _uart2TxBufferRemaining 004B                             _UART2_is_tx_ready 0796  
                          ?_UART2_is_tx_ready 0055                     __size_of_UART1_Initialize 00B8  
                    _UART1_TxInterruptHandler 003B                           __end_of_Default_ISR 07A2  
                         ??_UART2_is_tx_ready 0055                __end_of_PIN_MANAGER_Initialize 02B2  
               ?_UART2_SetOverrunErrorHandler 0055                  ?_UART1_SetTxInterruptHandler 0055  
                ?_UART2_SetRxInterruptHandler 0055                     __size_of_UART2_Initialize 00AC  
